
DE10_Standard_Audio.elf:     file format elf32-littlenios2
DE10_Standard_Audio.elf
architecture: nios2:r1, flags 0x00000112:
EXEC_P, HAS_SYMS, D_PAGED
start address 0x05080244

Program Header:
    LOAD off    0x00001000 vaddr 0x05080000 paddr 0x05080000 align 2**12
         filesz 0x00000020 memsz 0x00000020 flags r-x
    LOAD off    0x00001020 vaddr 0x05080020 paddr 0x05080020 align 2**12
         filesz 0x00016af0 memsz 0x00016af0 flags r-x
    LOAD off    0x00017b10 vaddr 0x05096b10 paddr 0x0509860c align 2**12
         filesz 0x00001afc memsz 0x00001afc flags rw-
    LOAD off    0x0001a108 vaddr 0x0509a108 paddr 0x0509a108 align 2**12
         filesz 0x00000000 memsz 0x00000194 flags rw-

Sections:
Idx Name          Size      VMA       LMA       File off  Algn
  0 .entry        00000020  05080000  05080000  00001000  2**5
                  CONTENTS, ALLOC, LOAD, READONLY, CODE
  1 .exceptions   00000224  05080020  05080020  00001020  2**2
                  CONTENTS, ALLOC, LOAD, READONLY, CODE
  2 .text         00015a1c  05080244  05080244  00001244  2**2
                  CONTENTS, ALLOC, LOAD, READONLY, CODE
  3 .rodata       00000eb0  05095c60  05095c60  00016c60  2**2
                  CONTENTS, ALLOC, LOAD, READONLY, DATA
  4 .rwdata       00001afc  05096b10  0509860c  00017b10  2**2
                  CONTENTS, ALLOC, LOAD, DATA, SMALL_DATA
  5 .bss          00000194  0509a108  0509a108  0001a108  2**2
                  ALLOC, SMALL_DATA
  6 .sdram        00000000  00000000  00000000  0001960c  2**0
                  CONTENTS
  7 .onchip_memory2 00000000  0509a29c  0509a29c  0001960c  2**0
                  CONTENTS
  8 .comment      00000023  00000000  00000000  0001960c  2**0
                  CONTENTS, READONLY
  9 .debug_aranges 00001050  00000000  00000000  00019630  2**3
                  CONTENTS, READONLY, DEBUGGING
 10 .debug_info   00028b49  00000000  00000000  0001a680  2**0
                  CONTENTS, READONLY, DEBUGGING
 11 .debug_abbrev 0000a3d3  00000000  00000000  000431c9  2**0
                  CONTENTS, READONLY, DEBUGGING
 12 .debug_line   0000dc12  00000000  00000000  0004d59c  2**0
                  CONTENTS, READONLY, DEBUGGING
 13 .debug_frame  00002b38  00000000  00000000  0005b1b0  2**2
                  CONTENTS, READONLY, DEBUGGING
 14 .debug_str    0000418d  00000000  00000000  0005dce8  2**0
                  CONTENTS, READONLY, DEBUGGING
 15 .debug_loc    0001c7f9  00000000  00000000  00061e75  2**0
                  CONTENTS, READONLY, DEBUGGING
 16 .debug_alt_sim_info 00000060  00000000  00000000  0007e670  2**2
                  CONTENTS, READONLY, DEBUGGING
 17 .debug_ranges 00001aa0  00000000  00000000  0007e6d0  2**3
                  CONTENTS, READONLY, DEBUGGING
 18 .thread_model 00000003  00000000  00000000  00083cc2  2**0
                  CONTENTS, READONLY
 19 .cpu          0000000c  00000000  00000000  00083cc5  2**0
                  CONTENTS, READONLY
 20 .qsys         00000001  00000000  00000000  00083cd1  2**0
                  CONTENTS, READONLY
 21 .simulation_enabled 00000001  00000000  00000000  00083cd2  2**0
                  CONTENTS, READONLY
 22 .sysid_hash   00000004  00000000  00000000  00083cd3  2**0
                  CONTENTS, READONLY
 23 .sysid_base   00000004  00000000  00000000  00083cd7  2**0
                  CONTENTS, READONLY
 24 .sysid_time   00000004  00000000  00000000  00083cdb  2**0
                  CONTENTS, READONLY
 25 .stderr_dev   00000009  00000000  00000000  00083cdf  2**0
                  CONTENTS, READONLY
 26 .stdin_dev    00000009  00000000  00000000  00083ce8  2**0
                  CONTENTS, READONLY
 27 .stdout_dev   00000009  00000000  00000000  00083cf1  2**0
                  CONTENTS, READONLY
 28 .sopc_system_name 0000000a  00000000  00000000  00083cfa  2**0
                  CONTENTS, READONLY
 29 .quartus_project_dir 00000066  00000000  00000000  00083d04  2**0
                  CONTENTS, READONLY
 30 .jdi          0000581f  00000000  00000000  00083d6a  2**0
                  CONTENTS, READONLY
 31 .sopcinfo     000a5d38  00000000  00000000  00089589  2**0
                  CONTENTS, READONLY
SYMBOL TABLE:
05080000 l    d  .entry	00000000 .entry
05080020 l    d  .exceptions	00000000 .exceptions
05080244 l    d  .text	00000000 .text
05095c60 l    d  .rodata	00000000 .rodata
05096b10 l    d  .rwdata	00000000 .rwdata
0509a108 l    d  .bss	00000000 .bss
00000000 l    d  .sdram	00000000 .sdram
0509a29c l    d  .onchip_memory2	00000000 .onchip_memory2
00000000 l    d  .comment	00000000 .comment
00000000 l    d  .debug_aranges	00000000 .debug_aranges
00000000 l    d  .debug_info	00000000 .debug_info
00000000 l    d  .debug_abbrev	00000000 .debug_abbrev
00000000 l    d  .debug_line	00000000 .debug_line
00000000 l    d  .debug_frame	00000000 .debug_frame
00000000 l    d  .debug_str	00000000 .debug_str
00000000 l    d  .debug_loc	00000000 .debug_loc
00000000 l    d  .debug_alt_sim_info	00000000 .debug_alt_sim_info
00000000 l    d  .debug_ranges	00000000 .debug_ranges
00000000 l    df *ABS*	00000000 ../DE10_Standard_Audio_bsp//obj/HAL/src/crt0.o
0508028c l       .text	00000000 alt_after_alt_main
00000000 l    df *ABS*	00000000 alt_irq_handler.c
00000000 l    df *ABS*	00000000 alt_instruction_exception_entry.c
00000000 l    df *ABS*	00000000 AUDIO.c
0509a14c l     O .bss	00000028 reg_file
00000000 l    df *ABS*	00000000 I2C.c
00000000 l    df *ABS*	00000000 LED.c
00000000 l    df *ABS*	00000000 SEG7.c
05096b10 l     O .rwdata	00000010 szMap
00000000 l    df *ABS*	00000000 debug.c
00000000 l    df *ABS*	00000000 main.c
0509a108 l     O .bss	00000004 sum.4417
0509a10c l     O .bss	00000002 cnt.4418
05082fb4 l     F .text	00000108 convolve.4513
00000000 l    df *ABS*	00000000 lib2-divmod.c
00000000 l    df *ABS*	00000000 adddf3.c
00000000 l    df *ABS*	00000000 ledf2.c
00000000 l    df *ABS*	00000000 muldf3.c
00000000 l    df *ABS*	00000000 subdf3.c
00000000 l    df *ABS*	00000000 floatsidf.c
00000000 l    df *ABS*	00000000 libgcc2.c
00000000 l    df *ABS*	00000000 libgcc2.c
00000000 l    df *ABS*	00000000 memcpy.c
00000000 l    df *ABS*	00000000 memmove.c
00000000 l    df *ABS*	00000000 printf.c
00000000 l    df *ABS*	00000000 puts.c
00000000 l    df *ABS*	00000000 sprintf.c
00000000 l    df *ABS*	00000000 strlen.c
00000000 l    df *ABS*	00000000 vfprintf.c
0509691e l     O .rodata	00000010 zeroes.4389
0509692e l     O .rodata	00000010 blanks.4388
00000000 l    df *ABS*	00000000 vfprintf.c
0509693e l     O .rodata	00000010 zeroes.4404
05089690 l     F .text	000000bc __sbprintf
0509694e l     O .rodata	00000010 blanks.4403
00000000 l    df *ABS*	00000000 vsnprintf.c
00000000 l    df *ABS*	00000000 wsetup.c
00000000 l    df *ABS*	00000000 dtoa.c
050899c4 l     F .text	00000200 quorem
00000000 l    df *ABS*	00000000 fflush.c
00000000 l    df *ABS*	00000000 findfp.c
0508b4f4 l     F .text	00000008 __fp_unlock
0508b508 l     F .text	0000019c __sinit.part.1
0508b6a4 l     F .text	00000008 __fp_lock
00000000 l    df *ABS*	00000000 mallocr.c
00000000 l    df *ABS*	00000000 fvwrite.c
00000000 l    df *ABS*	00000000 fwalk.c
00000000 l    df *ABS*	00000000 impure.c
05096b20 l     O .rwdata	00000424 impure_data
00000000 l    df *ABS*	00000000 locale.c
05096f64 l     O .rwdata	00000020 lc_ctype_charset
05096f44 l     O .rwdata	00000020 lc_message_charset
05096f84 l     O .rwdata	00000038 lconv
00000000 l    df *ABS*	00000000 makebuf.c
00000000 l    df *ABS*	00000000 mallocr.c
00000000 l    df *ABS*	00000000 memchr.c
00000000 l    df *ABS*	00000000 memset.c
00000000 l    df *ABS*	00000000 mprec.c
05096980 l     O .rodata	0000000c p05.2768
00000000 l    df *ABS*	00000000 mallocr.c
00000000 l    df *ABS*	00000000 s_fpclassify.c
00000000 l    df *ABS*	00000000 sbrkr.c
00000000 l    df *ABS*	00000000 stdio.c
00000000 l    df *ABS*	00000000 strcmp.c
00000000 l    df *ABS*	00000000 vfprintf.c
05096ab4 l     O .rodata	00000010 blanks.4332
05096aa4 l     O .rodata	00000010 zeroes.4333
00000000 l    df *ABS*	00000000 vfprintf.c
0508fc08 l     F .text	000000fc __sprint_r.part.0
05096ad4 l     O .rodata	00000010 blanks.4348
05096ac4 l     O .rodata	00000010 zeroes.4349
05091194 l     F .text	000000bc __sbprintf
00000000 l    df *ABS*	00000000 writer.c
00000000 l    df *ABS*	00000000 closer.c
00000000 l    df *ABS*	00000000 mallocr.c
00000000 l    df *ABS*	00000000 fclose.c
00000000 l    df *ABS*	00000000 fputwc.c
00000000 l    df *ABS*	00000000 fstatr.c
00000000 l    df *ABS*	00000000 int_errno.c
00000000 l    df *ABS*	00000000 isattyr.c
00000000 l    df *ABS*	00000000 lseekr.c
00000000 l    df *ABS*	00000000 readr.c
00000000 l    df *ABS*	00000000 wbuf.c
00000000 l    df *ABS*	00000000 wcrtomb.c
00000000 l    df *ABS*	00000000 wctomb_r.c
00000000 l    df *ABS*	00000000 libgcc2.c
00000000 l    df *ABS*	00000000 libgcc2.c
00000000 l    df *ABS*	00000000 divdf3.c
00000000 l    df *ABS*	00000000 eqdf2.c
00000000 l    df *ABS*	00000000 gedf2.c
00000000 l    df *ABS*	00000000 fixdfsi.c
00000000 l    df *ABS*	00000000 floatunsidf.c
00000000 l    df *ABS*	00000000 alt_close.c
050931a8 l     F .text	0000003c alt_get_errno
00000000 l    df *ABS*	00000000 alt_dev.c
050932b4 l     F .text	0000002c alt_dev_null_write
00000000 l    df *ABS*	00000000 alt_errno.c
00000000 l    df *ABS*	00000000 alt_fstat.c
050932e0 l     F .text	0000003c alt_get_errno
00000000 l    df *ABS*	00000000 alt_irq_register.c
00000000 l    df *ABS*	00000000 alt_irq_vars.c
00000000 l    df *ABS*	00000000 alt_isatty.c
0509354c l     F .text	0000003c alt_get_errno
00000000 l    df *ABS*	00000000 alt_load.c
0509362c l     F .text	00000068 alt_load_section
00000000 l    df *ABS*	00000000 alt_lseek.c
05093718 l     F .text	0000003c alt_get_errno
00000000 l    df *ABS*	00000000 alt_main.c
00000000 l    df *ABS*	00000000 alt_malloc_lock.c
00000000 l    df *ABS*	00000000 alt_read.c
050938ec l     F .text	0000003c alt_get_errno
00000000 l    df *ABS*	00000000 alt_release_fd.c
00000000 l    df *ABS*	00000000 alt_sbrk.c
05098600 l     O .rwdata	00000004 heap_end
00000000 l    df *ABS*	00000000 alt_usleep.c
00000000 l    df *ABS*	00000000 alt_write.c
05093b68 l     F .text	0000003c alt_get_errno
00000000 l    df *ABS*	00000000 alt_sys_init.c
05093c9c l     F .text	00000034 alt_dev_reg
0509756c l     O .rwdata	00001060 jtag_uart
00000000 l    df *ABS*	00000000 altera_avalon_jtag_uart_fd.c
00000000 l    df *ABS*	00000000 altera_avalon_jtag_uart_init.c
05093f90 l     F .text	0000020c altera_avalon_jtag_uart_irq
0509419c l     F .text	000000a0 altera_avalon_jtag_uart_timeout
00000000 l    df *ABS*	00000000 altera_avalon_jtag_uart_ioctl.c
00000000 l    df *ABS*	00000000 altera_avalon_jtag_uart_read.c
00000000 l    df *ABS*	00000000 altera_avalon_jtag_uart_write.c
00000000 l    df *ABS*	00000000 altera_avalon_timer_sc.c
050947d4 l     F .text	00000078 alt_avalon_timer_sc_irq
00000000 l    df *ABS*	00000000 alt_alarm_start.c
00000000 l    df *ABS*	00000000 alt_busy_sleep.c
00000000 l    df *ABS*	00000000 alt_dcache_flush_all.c
00000000 l    df *ABS*	00000000 alt_dev_llist_insert.c
05094b94 l     F .text	0000003c alt_get_errno
00000000 l    df *ABS*	00000000 alt_do_ctors.c
00000000 l    df *ABS*	00000000 alt_do_dtors.c
00000000 l    df *ABS*	00000000 alt_icache_flush_all.c
00000000 l    df *ABS*	00000000 alt_iic.c
00000000 l    df *ABS*	00000000 alt_iic_isr_register.c
00000000 l    df *ABS*	00000000 alt_io_redirect.c
05095008 l     F .text	000000c4 alt_open_fd
00000000 l    df *ABS*	00000000 alt_open.c
05095148 l     F .text	0000003c alt_get_errno
05095184 l     F .text	000000c4 alt_file_locked
00000000 l    df *ABS*	00000000 alt_tick.c
00000000 l    df *ABS*	00000000 altera_nios2_gen2_irq.c
00000000 l    df *ABS*	00000000 alt_find_dev.c
00000000 l    df *ABS*	00000000 alt_find_file.c
00000000 l    df *ABS*	00000000 alt_get_fd.c
00000000 l    df *ABS*	00000000 alt_icache_flush.c
00000000 l    df *ABS*	00000000 atexit.c
00000000 l    df *ABS*	00000000 exit.c
00000000 l    df *ABS*	00000000 memcmp.c
00000000 l    df *ABS*	00000000 __atexit.c
00000000 l    df *ABS*	00000000 __call_atexit.c
00000000 l    df *ABS*	00000000 alt_exit.c
0509a148 g     O .bss	00000004 alt_instruction_exception_handler
0508207c g     F .text	00000054 display_time_elapsed
0508de40 g     F .text	00000074 _mprec_log10
050810cc g     F .text	00000124 I2C_Read
0508df2c g     F .text	0000008c __any_on
05091730 g     F .text	00000054 _isatty_r
0509698c g     O .rodata	00000028 __mprec_tinytens
05093828 g     F .text	0000007c alt_main
05085074 g     F .text	000000c0 _puts_r
05081e0c g     F .text	00000064 button_monitor_isr
0509a19c g     O .bss	00000100 alt_irq
05091784 g     F .text	00000060 _lseek_r
0509860c g       *ABS*	00000000 __flash_rwdata_start
05092f1c g     F .text	00000088 .hidden __eqdf2
05081cb0 g     F .text	0000003c ui_is_mic_record
0509a29c g       *ABS*	00000000 __alt_heap_start
05080290 g     F .text	00000188 AUDIO_Init
05085038 g     F .text	0000003c printf
0509199c g     F .text	0000009c _wcrtomb_r
050804d8 g     F .text	00000078 AUDIO_AdcEnableHighPassFilter
0508e6bc g     F .text	0000005c __sseek
0508b844 g     F .text	00000010 __sinit
05091844 g     F .text	00000140 __swbuf_r
0508c30c g     F .text	0000007c _setlocale_r
0508b6ac g     F .text	00000068 __sfmoreglue
050938c8 g     F .text	00000024 __malloc_unlock
05084eac g     F .text	0000015c memmove
0508b82c g     F .text	00000018 _cleanup
05080d8c g     F .text	000000f4 aduio_RegWrite
05080fa0 g     F .text	00000030 AUDIO_FifoClear
0508cfbc g     F .text	000000a8 _Balloc
05081764 g     F .text	00000030 LED_AllOff
05092fa4 g     F .text	000000dc .hidden __gtdf2
05095540 g     F .text	00000024 altera_nios2_gen2_irq_init
05080f48 g     F .text	00000058 AUDIO_AdcFifoGetData
05081470 g     F .text	00000130 i2c_write
05080000 g     F .entry	0000001c __reset
050820d0 g     F .text	00000098 show_power
05080020 g       *ABS*	00000000 __flash_exceptions_start
050916d4 g     F .text	0000005c _fstat_r
0509a12c g     O .bss	00000004 errno
0508e638 g     F .text	00000008 __seofread
0508e9cc g     F .text	0000123c ___svfiprintf_internal_r
0509a138 g     O .bss	00000004 alt_argv
050a05cc g       *ABS*	00000000 _gp
05093b38 g     F .text	00000030 usleep
050822d0 g     F .text	00000064 show_menu
050973ec g     O .rwdata	00000180 alt_fd_list
05095564 g     F .text	00000090 alt_find_dev
05084d64 g     F .text	00000148 memcpy
050816f8 g     F .text	0000003c LED_Display
0508b4fc g     F .text	0000000c _cleanup_r
05084c24 g     F .text	000000dc .hidden __floatsidf
05081e70 g     F .text	00000084 button_monitor_start
050950cc g     F .text	0000007c alt_io_redirect
05083b1c g     F .text	000000f4 .hidden __ltdf2
05095c60 g       *ABS*	00000000 __DTOR_END__
05085134 g     F .text	00000014 puts
05095830 g     F .text	0000009c alt_exception_cause_generated_bad_addr
0508e51c g     F .text	00000074 __fpclassifyd
0508dd9c g     F .text	000000a4 __ratio
05091178 g     F .text	0000001c __vfiprintf_internal
05081ef4 g     F .text	00000188 init_audio
05094394 g     F .text	0000021c altera_avalon_jtag_uart_read
05085008 g     F .text	00000030 _printf_r
050831b4 g     F .text	00000064 .hidden __udivsi3
05093588 g     F .text	000000a4 isatty
05080c74 g     F .text	0000008c AUDIO_EnableByPass
050969dc g     O .rodata	000000c8 __mprec_tens
0508c388 g     F .text	0000000c __locale_charset
0508983c g     F .text	00000034 vsnprintf
050957a0 g     F .text	00000090 alt_icache_flush
050811f0 g     F .text	0000017c I2C_MultipleRead
0509a128 g     O .bss	00000004 __malloc_top_pad
05080a4c g     F .text	00000114 AUDIO_SetLineInVol
050985d4 g     O .rwdata	00000004 __mb_cur_max
0508c3b8 g     F .text	0000000c _localeconv_r
0508d3c8 g     F .text	0000003c __i2b
0508bcc8 g     F .text	000004bc __sfvwrite_r
05081808 g     F .text	00000060 SEG7_Clear
0508e590 g     F .text	00000054 _sbrk_r
05081c20 g     F .text	00000090 myprintf_dword_array
050917e4 g     F .text	00000060 _read_r
050985f4 g     O .rwdata	00000004 alt_max_fd
050913c8 g     F .text	000000f0 _fclose_r
0508b4c4 g     F .text	00000030 fflush
05080600 g     F .text	000000e0 AUDIO_DacEnableZeroCross
0509a124 g     O .bss	00000004 __malloc_max_sbrked_mem
050933cc g     F .text	00000180 alt_irq_register
05083270 g     F .text	000008ac .hidden __adddf3
0508db44 g     F .text	0000010c __b2d
050920fc g     F .text	00000538 .hidden __umoddi3
05093754 g     F .text	000000d4 lseek
050985cc g     O .rwdata	00000004 _global_impure_ptr
0508dfb8 g     F .text	00000564 _realloc_r
0509a29c g       *ABS*	00000000 __bss_end
05094f18 g     F .text	000000f0 alt_iic_isr_register
05095438 g     F .text	00000108 alt_tick
05091b84 g     F .text	00000578 .hidden __udivdi3
05091630 g     F .text	00000024 _fputwc_r
050969b4 g     O .rodata	00000028 __mprec_bigtens
0508d1ac g     F .text	00000104 __s2b
05093100 g     F .text	000000a8 .hidden __floatunsidf
05080460 g     F .text	00000078 AUDIO_MicBoost
0508d884 g     F .text	00000060 __mcmp
0508b864 g     F .text	00000018 __fp_lock_all
05094ecc g     F .text	0000004c alt_ic_irq_enabled
05080fd0 g     F .text	000000fc I2C_Write
050818c8 g     F .text	00000074 SEG7_Number
0509539c g     F .text	0000009c alt_alarm_stop
0509a130 g     O .bss	00000004 alt_irq_active
050800fc g     F .exceptions	000000d4 alt_irq_handler
050973c4 g     O .rwdata	00000028 alt_dev_null
0508136c g     F .text	0000008c i2c_start
05094b4c g     F .text	00000048 alt_dcache_flush_all
0508d2b0 g     F .text	00000068 __hi0bits
05093080 g     F .text	00000080 .hidden __fixdfsi
0509860c g       *ABS*	00000000 __ram_rwdata_end
050985ec g     O .rwdata	00000008 alt_dev_list
05093ba4 g     F .text	000000f8 write
05096b10 g       *ABS*	00000000 __ram_rodata_end
0509331c g     F .text	000000b0 fstat
05083b1c g     F .text	000000f4 .hidden __ledf2
05081b2c g     F .text	0000006c myprintf
0508d5fc g     F .text	00000140 __pow5mult
0508fd1c g     F .text	0000145c ___vfiprintf_internal_r
0509a11c g     O .bss	00000004 __nlocale_changed
05083218 g     F .text	00000058 .hidden __umodsi3
05080d00 g     F .text	0000008c AUDIO_EnableSiteTone
0509a29c g       *ABS*	00000000 end
05081734 g     F .text	00000030 LED_AllOn
05093ed0 g     F .text	000000c0 altera_avalon_jtag_uart_init
050801d0 g     F .exceptions	00000074 alt_instruction_exception_entry
05095c60 g       *ABS*	00000000 __CTOR_LIST__
050ce200 g       *ABS*	00000000 __alt_stack_pointer
0509484c g     F .text	0000007c alt_avalon_timer_sc_init
05084d00 g     F .text	00000064 .hidden __clzsi2
050945b0 g     F .text	00000224 altera_avalon_jtag_uart_write
0508b854 g     F .text	00000004 __sfp_lock_acquire
0508cdb0 g     F .text	000000e4 memchr
0508747c g     F .text	000021f8 ___vfprintf_internal_r
05085148 g     F .text	00000058 _sprintf_r
0508b9b8 g     F .text	00000310 _free_r
0508c394 g     F .text	00000010 __locale_mb_cur_max
05095aac g     F .text	00000180 __call_exitprocs
0509a118 g     O .bss	00000004 __mlocale_changed
050985d8 g     O .rwdata	00000004 __malloc_sbrk_base
05080244 g     F .text	0000004c _start
0509a140 g     O .bss	00000004 _alt_tick_rate
0508d73c g     F .text	00000148 __lshift
0509a144 g     O .bss	00000004 _alt_nticks
05093928 g     F .text	000000fc read
05093d08 g     F .text	00000064 alt_sys_init
0508e7fc g     F .text	000001d0 __ssprint_r
05095994 g     F .text	00000118 __register_exitproc
050806e0 g     F .text	0000008c AUDIO_DacEnableSoftMute
0508d404 g     F .text	000001f8 __multiply
0509423c g     F .text	00000068 altera_avalon_jtag_uart_close
05096b10 g       *ABS*	00000000 __ram_rwdata_start
05095c60 g       *ABS*	00000000 __ram_rodata_start
0509a174 g     O .bss	00000028 __malloc_current_mallinfo
0508dc50 g     F .text	0000014c __d2b
05081d28 g     F .text	0000003c ui_is_dac_zero_cross
05093d6c g     F .text	00000060 altera_avalon_jtag_uart_read_fd
050956fc g     F .text	000000a4 alt_get_fd
050949f4 g     F .text	00000158 alt_busy_sleep
050912b0 g     F .text	00000054 _close_r
05095918 g     F .text	0000007c memcmp
05093e2c g     F .text	00000050 altera_avalon_jtag_uart_close_fd
0509a29c g       *ABS*	00000000 __alt_stack_base
05093e7c g     F .text	00000054 altera_avalon_jtag_uart_ioctl_fd
05089870 g     F .text	00000154 __swsetup_r
05082168 g     F .text	00000058 init
05092634 g     F .text	000008e8 .hidden __divdf3
0508b714 g     F .text	00000118 __sfp
0508deb4 g     F .text	00000078 __copybits
05080550 g     F .text	000000b0 AUDIO_DacDeemphasisControl
05096fbc g     O .rwdata	00000408 __malloc_av_
0508b860 g     F .text	00000004 __sinit_lock_release
0508974c g     F .text	000000f0 _vsnprintf_r
050813f8 g     F .text	00000078 i2c_stop
05083c10 g     F .text	00000718 .hidden __muldf3
0508e5e4 g     F .text	00000054 __sread
05081868 g     F .text	00000060 SEG7_Full
050955f4 g     F .text	00000108 alt_find_file
05081a0c g     F .text	000000ec SEG7_Decimal
05094bd0 g     F .text	000000a4 alt_dev_llist_insert
050938a4 g     F .text	00000024 __malloc_lock
05093a88 g     F .text	000000b0 sbrk
050852a4 g     F .text	000021d8 ___svfprintf_internal_r
050808d8 g     F .text	00000090 AUDIO_SetInputSource
0508b468 g     F .text	0000005c _fflush_r
05091304 g     F .text	000000c4 _calloc_r
05080418 g     F .text	00000048 AUDIO_InterfaceActive
0509a108 g       *ABS*	00000000 __bss_start
0508ce94 g     F .text	00000128 memset
05082334 g     F .text	00000c80 main
0509a13c g     O .bss	00000004 alt_envp
0509a120 g     O .bss	00000004 __malloc_max_total_mem
05093dcc g     F .text	00000060 altera_avalon_jtag_uart_write_fd
050815a0 g     F .text	00000158 i2c_read
05091984 g     F .text	00000018 __swbuf
0509a110 g     O .bss	00000004 record_sample_rate
0508e718 g     F .text	00000008 __sclose
050ce200 g       *ABS*	00000000 __alt_heap_limit
050914b8 g     F .text	00000014 fclose
05089bc4 g     F .text	00001688 _dtoa_r
0508c5a4 g     F .text	0000080c _malloc_r
05091af8 g     F .text	00000030 __ascii_wctomb
050985f8 g     O .rwdata	00000004 alt_errno
0508c184 g     F .text	000000c4 _fwalk
05081d64 g     F .text	000000a8 ui_get_sample_rate
050830bc g     F .text	00000084 .hidden __divsi3
0508b894 g     F .text	00000124 _malloc_trim_r
05095c60 g       *ABS*	00000000 __CTOR_END__
050807f8 g     F .text	000000e0 AUDIO_LineInMute
0508e720 g     F .text	000000dc strcmp
0508076c g     F .text	0000008c AUDIO_MicMute
05095c60 g       *ABS*	00000000 __flash_rodata_start
05095c60 g       *ABS*	00000000 __DTOR_LIST__
05092f1c g     F .text	00000088 .hidden __nedf2
05093cd0 g     F .text	00000038 alt_irq_init
05093a24 g     F .text	00000064 alt_release_fd
050851a0 g     F .text	0000006c sprintf
050967d8 g     O .rodata	00000100 .hidden __clz_tab
0508193c g     F .text	000000d0 SEG7_Hex
05081af8 g     F .text	00000034 debug_output
0509a114 g     O .bss	00000004 _PathLocale
050958cc g     F .text	00000014 atexit
050821c0 g     F .text	00000110 dump_record_data
05091250 g     F .text	00000060 _write_r
0508c3c4 g     F .text	00000018 setlocale
050985d0 g     O .rwdata	00000004 _impure_ptr
0509a134 g     O .bss	00000004 alt_argc
0508b24c g     F .text	0000021c __sflush_r
05094cd4 g     F .text	00000060 _do_dtors
0508c3b0 g     F .text	00000008 __locale_cjk_lang
05080f0c g     F .text	0000003c AUDIO_AdcFifoNotEmpty
05080020 g       .exceptions	00000000 alt_irq_entry
0508dae0 g     F .text	00000064 __ulp
0508b87c g     F .text	00000018 __fp_unlock_all
05081cec g     F .text	0000003c ui_is_mic_boost
05080ebc g     F .text	00000050 AUDIO_DacFifoSetData
050985e4 g     O .rwdata	00000008 alt_fs_list
05081b98 g     F .text	00000088 myprintf_hex_array
05080020 g       *ABS*	00000000 __ram_exceptions_start
05080968 g     F .text	000000e4 AUDIO_SetSampleRate
0508c3dc g     F .text	0000000c localeconv
05080000 g       *ABS*	00000000 __alt_mem_onchip_memory2
05094d68 g     F .text	00000050 alt_ic_isr_register
0509860c g       *ABS*	00000000 _edata
0509a29c g       *ABS*	00000000 _end
05080b60 g     F .text	00000114 AUDIO_SetLineOutVol
050914cc g     F .text	00000164 __fputwc
05080244 g       *ABS*	00000000 __ram_exceptions_end
050942a4 g     F .text	000000f0 altera_avalon_jtag_uart_ioctl
05094e40 g     F .text	0000008c alt_ic_irq_disable
0508e640 g     F .text	0000007c __swrite
050985dc g     O .rwdata	00000004 __malloc_trim_threshold
0508c3a4 g     F .text	0000000c __locale_msgcharset
050958e0 g     F .text	00000038 exit
05081794 g     F .text	00000074 LED_LightCount
0508c248 g     F .text	000000c4 _fwalk_reent
0508d8e4 g     F .text	000001fc __mdiff
05083140 g     F .text	00000074 .hidden __modsi3
050ce200 g       *ABS*	00000000 __alt_data_end
05080020 g     F .exceptions	00000000 alt_exception
0508b858 g     F .text	00000004 __sfp_lock_release
00000000 g       *ABS*	00000000 __alt_mem_sdram
05095c2c g     F .text	00000034 _exit
050948c8 g     F .text	0000012c alt_alarm_start
0508c3e8 g     F .text	000001bc __smakebuf_r
0508520c g     F .text	00000098 strlen
05095248 g     F .text	00000154 open
05080e80 g     F .text	0000003c AUDIO_DacFifoNotFull
05092fa4 g     F .text	000000dc .hidden __gedf2
050985e0 g     O .rwdata	00000004 __wctomb
0508fd04 g     F .text	00000018 __sprint_r
05094d34 g     F .text	00000034 alt_icache_flush_all
050985fc g     O .rwdata	00000004 alt_priority_mask
05094db8 g     F .text	00000088 alt_ic_irq_enable
05089674 g     F .text	0000001c __vfprintf_internal
05091b28 g     F .text	0000005c _wctomb_r
05084328 g     F .text	000008fc .hidden __subdf3
0508d318 g     F .text	000000b0 __lo0bits
05098604 g     O .rwdata	00000008 alt_alarm_list
05094c74 g     F .text	00000060 _do_ctors
05091a38 g     F .text	000000c0 wcrtomb
050931e4 g     F .text	000000d0 close
05093694 g     F .text	00000084 alt_load
05091654 g     F .text	00000080 fputwc
0508b85c g     F .text	00000004 __sinit_lock_acquire
0508d08c g     F .text	00000120 __multadd
05095e10 g     O .rodata	00000800 szMenu
0508d064 g     F .text	00000028 _Bfree



Disassembly of section .entry:

05080000 <__reset>:
 5080000:	00840014 	movui	r2,4096
 5080004:	1001483a 	initi	r2
 5080008:	10bff804 	addi	r2,r2,-32
 508000c:	00bffd16 	blt	zero,r2,5080004 <__reset+0x4>
 5080010:	00414234 	movhi	at,1288
 5080014:	08409114 	ori	at,at,580
 5080018:	0800683a 	jmp	at
 508001c:	00000000 	call	0 <__alt_mem_sdram>

Disassembly of section .exceptions:

05080020 <alt_exception>:
 5080020:	deffed04 	addi	sp,sp,-76
 5080024:	dfc00015 	stw	ra,0(sp)
 5080028:	d8400215 	stw	at,8(sp)
 508002c:	d8800315 	stw	r2,12(sp)
 5080030:	d8c00415 	stw	r3,16(sp)
 5080034:	d9000515 	stw	r4,20(sp)
 5080038:	d9400615 	stw	r5,24(sp)
 508003c:	d9800715 	stw	r6,28(sp)
 5080040:	d9c00815 	stw	r7,32(sp)
 5080044:	000b307a 	rdctl	r5,estatus
 5080048:	da000915 	stw	r8,36(sp)
 508004c:	da400a15 	stw	r9,40(sp)
 5080050:	da800b15 	stw	r10,44(sp)
 5080054:	dac00c15 	stw	r11,48(sp)
 5080058:	db000d15 	stw	r12,52(sp)
 508005c:	db400e15 	stw	r13,56(sp)
 5080060:	db800f15 	stw	r14,60(sp)
 5080064:	dbc01015 	stw	r15,64(sp)
 5080068:	d9401115 	stw	r5,68(sp)
 508006c:	ebffff04 	addi	r15,ea,-4
 5080070:	dbc01215 	stw	r15,72(sp)
 5080074:	0009313a 	rdctl	r4,ipending
 5080078:	2880004c 	andi	r2,r5,1
 508007c:	10000326 	beq	r2,zero,508008c <alt_exception+0x6c>
 5080080:	20000226 	beq	r4,zero,508008c <alt_exception+0x6c>
 5080084:	50800fc0 	call	50800fc <alt_irq_handler>
 5080088:	00000706 	br	50800a8 <alt_exception+0x88>
 508008c:	df401215 	stw	ea,72(sp)
 5080090:	e8bfff17 	ldw	r2,-4(ea)
 5080094:	e93fff04 	addi	r4,ea,-4
 5080098:	50801d00 	call	50801d0 <alt_instruction_exception_entry>
 508009c:	1000021e 	bne	r2,zero,50800a8 <alt_exception+0x88>
 50800a0:	ebffff04 	addi	r15,ea,-4
 50800a4:	dbc01215 	stw	r15,72(sp)
 50800a8:	d9401117 	ldw	r5,68(sp)
 50800ac:	df401217 	ldw	ea,72(sp)
 50800b0:	dfc00017 	ldw	ra,0(sp)
 50800b4:	2801707a 	wrctl	estatus,r5
 50800b8:	d8400217 	ldw	at,8(sp)
 50800bc:	d8800317 	ldw	r2,12(sp)
 50800c0:	d8c00417 	ldw	r3,16(sp)
 50800c4:	d9000517 	ldw	r4,20(sp)
 50800c8:	d9400617 	ldw	r5,24(sp)
 50800cc:	d9800717 	ldw	r6,28(sp)
 50800d0:	d9c00817 	ldw	r7,32(sp)
 50800d4:	da000917 	ldw	r8,36(sp)
 50800d8:	da400a17 	ldw	r9,40(sp)
 50800dc:	da800b17 	ldw	r10,44(sp)
 50800e0:	dac00c17 	ldw	r11,48(sp)
 50800e4:	db000d17 	ldw	r12,52(sp)
 50800e8:	db400e17 	ldw	r13,56(sp)
 50800ec:	db800f17 	ldw	r14,60(sp)
 50800f0:	dbc01017 	ldw	r15,64(sp)
 50800f4:	dec01304 	addi	sp,sp,76
 50800f8:	ef80083a 	eret

050800fc <alt_irq_handler>:
 50800fc:	defff904 	addi	sp,sp,-28
 5080100:	dfc00615 	stw	ra,24(sp)
 5080104:	df000515 	stw	fp,20(sp)
 5080108:	df000504 	addi	fp,sp,20
 508010c:	0001883a 	nop
 5080110:	0005313a 	rdctl	r2,ipending
 5080114:	e0bffe15 	stw	r2,-8(fp)
 5080118:	e0bffe17 	ldw	r2,-8(fp)
 508011c:	e0bffb15 	stw	r2,-20(fp)
 5080120:	e03ffd15 	stw	zero,-12(fp)
 5080124:	00800044 	movi	r2,1
 5080128:	e0bffc15 	stw	r2,-16(fp)
 508012c:	e0fffb17 	ldw	r3,-20(fp)
 5080130:	e0bffc17 	ldw	r2,-16(fp)
 5080134:	1884703a 	and	r2,r3,r2
 5080138:	10001426 	beq	r2,zero,508018c <alt_irq_handler+0x90>
 508013c:	008142b4 	movhi	r2,1290
 5080140:	10a86704 	addi	r2,r2,-24164
 5080144:	e0fffd17 	ldw	r3,-12(fp)
 5080148:	180690fa 	slli	r3,r3,3
 508014c:	10c5883a 	add	r2,r2,r3
 5080150:	10c00017 	ldw	r3,0(r2)
 5080154:	008142b4 	movhi	r2,1290
 5080158:	10a86704 	addi	r2,r2,-24164
 508015c:	e13ffd17 	ldw	r4,-12(fp)
 5080160:	200890fa 	slli	r4,r4,3
 5080164:	1105883a 	add	r2,r2,r4
 5080168:	10800104 	addi	r2,r2,4
 508016c:	10800017 	ldw	r2,0(r2)
 5080170:	1009883a 	mov	r4,r2
 5080174:	183ee83a 	callr	r3
 5080178:	0001883a 	nop
 508017c:	0005313a 	rdctl	r2,ipending
 5080180:	e0bfff15 	stw	r2,-4(fp)
 5080184:	e0bfff17 	ldw	r2,-4(fp)
 5080188:	00000706 	br	50801a8 <alt_irq_handler+0xac>
 508018c:	e0bffc17 	ldw	r2,-16(fp)
 5080190:	1085883a 	add	r2,r2,r2
 5080194:	e0bffc15 	stw	r2,-16(fp)
 5080198:	e0bffd17 	ldw	r2,-12(fp)
 508019c:	10800044 	addi	r2,r2,1
 50801a0:	e0bffd15 	stw	r2,-12(fp)
 50801a4:	003fe106 	br	508012c <alt_irq_handler+0x30>
 50801a8:	e0bffb15 	stw	r2,-20(fp)
 50801ac:	e0bffb17 	ldw	r2,-20(fp)
 50801b0:	103fdb1e 	bne	r2,zero,5080120 <alt_irq_handler+0x24>
 50801b4:	0001883a 	nop
 50801b8:	0001883a 	nop
 50801bc:	e037883a 	mov	sp,fp
 50801c0:	dfc00117 	ldw	ra,4(sp)
 50801c4:	df000017 	ldw	fp,0(sp)
 50801c8:	dec00204 	addi	sp,sp,8
 50801cc:	f800283a 	ret

050801d0 <alt_instruction_exception_entry>:
 50801d0:	defffb04 	addi	sp,sp,-20
 50801d4:	dfc00415 	stw	ra,16(sp)
 50801d8:	df000315 	stw	fp,12(sp)
 50801dc:	df000304 	addi	fp,sp,12
 50801e0:	e13fff15 	stw	r4,-4(fp)
 50801e4:	000531fa 	rdctl	r2,exception
 50801e8:	e0bffd15 	stw	r2,-12(fp)
 50801ec:	e0bffd17 	ldw	r2,-12(fp)
 50801f0:	10801f0c 	andi	r2,r2,124
 50801f4:	1004d0ba 	srli	r2,r2,2
 50801f8:	e0bffd15 	stw	r2,-12(fp)
 50801fc:	0005333a 	rdctl	r2,badaddr
 5080200:	e0bffe15 	stw	r2,-8(fp)
 5080204:	d0a6df17 	ldw	r2,-25732(gp)
 5080208:	10000726 	beq	r2,zero,5080228 <alt_instruction_exception_entry+0x58>
 508020c:	d0a6df17 	ldw	r2,-25732(gp)
 5080210:	e0fffd17 	ldw	r3,-12(fp)
 5080214:	e1bffe17 	ldw	r6,-8(fp)
 5080218:	e17fff17 	ldw	r5,-4(fp)
 508021c:	1809883a 	mov	r4,r3
 5080220:	103ee83a 	callr	r2
 5080224:	00000206 	br	5080230 <alt_instruction_exception_entry+0x60>
 5080228:	003da03a 	break	0
 508022c:	0005883a 	mov	r2,zero
 5080230:	e037883a 	mov	sp,fp
 5080234:	dfc00117 	ldw	ra,4(sp)
 5080238:	df000017 	ldw	fp,0(sp)
 508023c:	dec00204 	addi	sp,sp,8
 5080240:	f800283a 	ret

Disassembly of section .text:

05080244 <_start>:
 5080244:	00820014 	movui	r2,2048
 5080248:	10000033 	initd	0(r2)
 508024c:	10bff804 	addi	r2,r2,-32
 5080250:	00bffd16 	blt	zero,r2,5080248 <_start+0x4>
 5080254:	06c14334 	movhi	sp,1292
 5080258:	def88014 	ori	sp,sp,57856
 508025c:	068142b4 	movhi	gp,1290
 5080260:	d6817314 	ori	gp,gp,1484
 5080264:	00814274 	movhi	r2,1289
 5080268:	10a84214 	ori	r2,r2,41224
 508026c:	00c14274 	movhi	r3,1289
 5080270:	18e8a714 	ori	r3,r3,41628
 5080274:	10c00326 	beq	r2,r3,5080284 <_start+0x40>
 5080278:	10000015 	stw	zero,0(r2)
 508027c:	10800104 	addi	r2,r2,4
 5080280:	10fffd36 	bltu	r2,r3,5080278 <_start+0x34>
 5080284:	50936940 	call	5093694 <alt_load>
 5080288:	50938280 	call	5093828 <alt_main>

0508028c <alt_after_alt_main>:
 508028c:	003fff06 	br	508028c <alt_after_alt_main>

05080290 <AUDIO_Init>:
 5080290:	defffd04 	addi	sp,sp,-12
 5080294:	dfc00215 	stw	ra,8(sp)
 5080298:	df000115 	stw	fp,4(sp)
 508029c:	df000104 	addi	fp,sp,4
 50802a0:	00800044 	movi	r2,1
 50802a4:	e0bfff15 	stw	r2,-4(fp)
 50802a8:	01014274 	movhi	r4,1289
 50802ac:	21171804 	addi	r4,r4,23648
 50802b0:	5081b2c0 	call	5081b2c <myprintf>
 50802b4:	e0bfff17 	ldw	r2,-4(fp)
 50802b8:	10000426 	beq	r2,zero,50802cc <AUDIO_Init+0x3c>
 50802bc:	000b883a 	mov	r5,zero
 50802c0:	010003c4 	movi	r4,15
 50802c4:	5080d8c0 	call	5080d8c <aduio_RegWrite>
 50802c8:	e0bfff15 	stw	r2,-4(fp)
 50802cc:	e0bfff17 	ldw	r2,-4(fp)
 50802d0:	10000426 	beq	r2,zero,50802e4 <AUDIO_Init+0x54>
 50802d4:	000b883a 	mov	r5,zero
 50802d8:	01000244 	movi	r4,9
 50802dc:	5080d8c0 	call	5080d8c <aduio_RegWrite>
 50802e0:	e0bfff15 	stw	r2,-4(fp)
 50802e4:	e0bfff17 	ldw	r2,-4(fp)
 50802e8:	10000426 	beq	r2,zero,50802fc <AUDIO_Init+0x6c>
 50802ec:	014005c4 	movi	r5,23
 50802f0:	0009883a 	mov	r4,zero
 50802f4:	5080d8c0 	call	5080d8c <aduio_RegWrite>
 50802f8:	e0bfff15 	stw	r2,-4(fp)
 50802fc:	e0bfff17 	ldw	r2,-4(fp)
 5080300:	10000426 	beq	r2,zero,5080314 <AUDIO_Init+0x84>
 5080304:	014005c4 	movi	r5,23
 5080308:	01000044 	movi	r4,1
 508030c:	5080d8c0 	call	5080d8c <aduio_RegWrite>
 5080310:	e0bfff15 	stw	r2,-4(fp)
 5080314:	e0bfff17 	ldw	r2,-4(fp)
 5080318:	10000426 	beq	r2,zero,508032c <AUDIO_Init+0x9c>
 508031c:	014016c4 	movi	r5,91
 5080320:	01000084 	movi	r4,2
 5080324:	5080d8c0 	call	5080d8c <aduio_RegWrite>
 5080328:	e0bfff15 	stw	r2,-4(fp)
 508032c:	e0bfff17 	ldw	r2,-4(fp)
 5080330:	10000426 	beq	r2,zero,5080344 <AUDIO_Init+0xb4>
 5080334:	014016c4 	movi	r5,91
 5080338:	010000c4 	movi	r4,3
 508033c:	5080d8c0 	call	5080d8c <aduio_RegWrite>
 5080340:	e0bfff15 	stw	r2,-4(fp)
 5080344:	e0bfff17 	ldw	r2,-4(fp)
 5080348:	10000426 	beq	r2,zero,508035c <AUDIO_Init+0xcc>
 508034c:	01400544 	movi	r5,21
 5080350:	01000104 	movi	r4,4
 5080354:	5080d8c0 	call	5080d8c <aduio_RegWrite>
 5080358:	e0bfff15 	stw	r2,-4(fp)
 508035c:	e0bfff17 	ldw	r2,-4(fp)
 5080360:	10000426 	beq	r2,zero,5080374 <AUDIO_Init+0xe4>
 5080364:	000b883a 	mov	r5,zero
 5080368:	01000144 	movi	r4,5
 508036c:	5080d8c0 	call	5080d8c <aduio_RegWrite>
 5080370:	e0bfff15 	stw	r2,-4(fp)
 5080374:	e0bfff17 	ldw	r2,-4(fp)
 5080378:	10000426 	beq	r2,zero,508038c <AUDIO_Init+0xfc>
 508037c:	000b883a 	mov	r5,zero
 5080380:	01000184 	movi	r4,6
 5080384:	5080d8c0 	call	5080d8c <aduio_RegWrite>
 5080388:	e0bfff15 	stw	r2,-4(fp)
 508038c:	e0bfff17 	ldw	r2,-4(fp)
 5080390:	10000426 	beq	r2,zero,50803a4 <AUDIO_Init+0x114>
 5080394:	01401084 	movi	r5,66
 5080398:	010001c4 	movi	r4,7
 508039c:	5080d8c0 	call	5080d8c <aduio_RegWrite>
 50803a0:	e0bfff15 	stw	r2,-4(fp)
 50803a4:	e0bfff17 	ldw	r2,-4(fp)
 50803a8:	10000426 	beq	r2,zero,50803bc <AUDIO_Init+0x12c>
 50803ac:	01400084 	movi	r5,2
 50803b0:	01000204 	movi	r4,8
 50803b4:	5080d8c0 	call	5080d8c <aduio_RegWrite>
 50803b8:	e0bfff15 	stw	r2,-4(fp)
 50803bc:	e0bfff17 	ldw	r2,-4(fp)
 50803c0:	10000426 	beq	r2,zero,50803d4 <AUDIO_Init+0x144>
 50803c4:	01400044 	movi	r5,1
 50803c8:	01000244 	movi	r4,9
 50803cc:	5080d8c0 	call	5080d8c <aduio_RegWrite>
 50803d0:	e0bfff15 	stw	r2,-4(fp)
 50803d4:	e0bfff17 	ldw	r2,-4(fp)
 50803d8:	10000326 	beq	r2,zero,50803e8 <AUDIO_Init+0x158>
 50803dc:	00814274 	movhi	r2,1289
 50803e0:	10971e04 	addi	r2,r2,23672
 50803e4:	00000206 	br	50803f0 <AUDIO_Init+0x160>
 50803e8:	00814274 	movhi	r2,1289
 50803ec:	10972004 	addi	r2,r2,23680
 50803f0:	100b883a 	mov	r5,r2
 50803f4:	01014274 	movhi	r4,1289
 50803f8:	21172204 	addi	r4,r4,23688
 50803fc:	5081b2c0 	call	5081b2c <myprintf>
 5080400:	e0bfff17 	ldw	r2,-4(fp)
 5080404:	e037883a 	mov	sp,fp
 5080408:	dfc00117 	ldw	ra,4(sp)
 508040c:	df000017 	ldw	fp,0(sp)
 5080410:	dec00204 	addi	sp,sp,8
 5080414:	f800283a 	ret

05080418 <AUDIO_InterfaceActive>:
 5080418:	defffc04 	addi	sp,sp,-16
 508041c:	dfc00315 	stw	ra,12(sp)
 5080420:	df000215 	stw	fp,8(sp)
 5080424:	df000204 	addi	fp,sp,8
 5080428:	e13fff15 	stw	r4,-4(fp)
 508042c:	e0bfff17 	ldw	r2,-4(fp)
 5080430:	1004c03a 	cmpne	r2,r2,zero
 5080434:	10803fcc 	andi	r2,r2,255
 5080438:	100b883a 	mov	r5,r2
 508043c:	01000244 	movi	r4,9
 5080440:	5080d8c0 	call	5080d8c <aduio_RegWrite>
 5080444:	e0bffe15 	stw	r2,-8(fp)
 5080448:	e0bffe17 	ldw	r2,-8(fp)
 508044c:	e037883a 	mov	sp,fp
 5080450:	dfc00117 	ldw	ra,4(sp)
 5080454:	df000017 	ldw	fp,0(sp)
 5080458:	dec00204 	addi	sp,sp,8
 508045c:	f800283a 	ret

05080460 <AUDIO_MicBoost>:
 5080460:	defffb04 	addi	sp,sp,-20
 5080464:	dfc00415 	stw	ra,16(sp)
 5080468:	df000315 	stw	fp,12(sp)
 508046c:	df000304 	addi	fp,sp,12
 5080470:	e13fff15 	stw	r4,-4(fp)
 5080474:	008142b4 	movhi	r2,1290
 5080478:	10a85304 	addi	r2,r2,-24244
 508047c:	1080020b 	ldhu	r2,8(r2)
 5080480:	e0bffd0d 	sth	r2,-12(fp)
 5080484:	e0bfff17 	ldw	r2,-4(fp)
 5080488:	10000426 	beq	r2,zero,508049c <AUDIO_MicBoost+0x3c>
 508048c:	e0bffd0b 	ldhu	r2,-12(fp)
 5080490:	10800054 	ori	r2,r2,1
 5080494:	e0bffd0d 	sth	r2,-12(fp)
 5080498:	00000406 	br	50804ac <AUDIO_MicBoost+0x4c>
 508049c:	e0fffd0b 	ldhu	r3,-12(fp)
 50804a0:	00bfff84 	movi	r2,-2
 50804a4:	1884703a 	and	r2,r3,r2
 50804a8:	e0bffd0d 	sth	r2,-12(fp)
 50804ac:	e0bffd0b 	ldhu	r2,-12(fp)
 50804b0:	100b883a 	mov	r5,r2
 50804b4:	01000104 	movi	r4,4
 50804b8:	5080d8c0 	call	5080d8c <aduio_RegWrite>
 50804bc:	e0bffe15 	stw	r2,-8(fp)
 50804c0:	e0bffe17 	ldw	r2,-8(fp)
 50804c4:	e037883a 	mov	sp,fp
 50804c8:	dfc00117 	ldw	ra,4(sp)
 50804cc:	df000017 	ldw	fp,0(sp)
 50804d0:	dec00204 	addi	sp,sp,8
 50804d4:	f800283a 	ret

050804d8 <AUDIO_AdcEnableHighPassFilter>:
 50804d8:	defffb04 	addi	sp,sp,-20
 50804dc:	dfc00415 	stw	ra,16(sp)
 50804e0:	df000315 	stw	fp,12(sp)
 50804e4:	df000304 	addi	fp,sp,12
 50804e8:	e13fff15 	stw	r4,-4(fp)
 50804ec:	008142b4 	movhi	r2,1290
 50804f0:	10a85304 	addi	r2,r2,-24244
 50804f4:	1080028b 	ldhu	r2,10(r2)
 50804f8:	e0bffd0d 	sth	r2,-12(fp)
 50804fc:	e0bfff17 	ldw	r2,-4(fp)
 5080500:	10000526 	beq	r2,zero,5080518 <AUDIO_AdcEnableHighPassFilter+0x40>
 5080504:	e0fffd0b 	ldhu	r3,-12(fp)
 5080508:	00bfff84 	movi	r2,-2
 508050c:	1884703a 	and	r2,r3,r2
 5080510:	e0bffd0d 	sth	r2,-12(fp)
 5080514:	00000306 	br	5080524 <AUDIO_AdcEnableHighPassFilter+0x4c>
 5080518:	e0bffd0b 	ldhu	r2,-12(fp)
 508051c:	10800054 	ori	r2,r2,1
 5080520:	e0bffd0d 	sth	r2,-12(fp)
 5080524:	e0bffd0b 	ldhu	r2,-12(fp)
 5080528:	100b883a 	mov	r5,r2
 508052c:	01000144 	movi	r4,5
 5080530:	5080d8c0 	call	5080d8c <aduio_RegWrite>
 5080534:	e0bffe15 	stw	r2,-8(fp)
 5080538:	e0bffe17 	ldw	r2,-8(fp)
 508053c:	e037883a 	mov	sp,fp
 5080540:	dfc00117 	ldw	ra,4(sp)
 5080544:	df000017 	ldw	fp,0(sp)
 5080548:	dec00204 	addi	sp,sp,8
 508054c:	f800283a 	ret

05080550 <AUDIO_DacDeemphasisControl>:
 5080550:	defffb04 	addi	sp,sp,-20
 5080554:	dfc00415 	stw	ra,16(sp)
 5080558:	df000315 	stw	fp,12(sp)
 508055c:	df000304 	addi	fp,sp,12
 5080560:	2005883a 	mov	r2,r4
 5080564:	e0bfff05 	stb	r2,-4(fp)
 5080568:	008142b4 	movhi	r2,1290
 508056c:	10a85304 	addi	r2,r2,-24244
 5080570:	1080028b 	ldhu	r2,10(r2)
 5080574:	e0bffd0d 	sth	r2,-12(fp)
 5080578:	e0fffd0b 	ldhu	r3,-12(fp)
 508057c:	00bffe44 	movi	r2,-7
 5080580:	1884703a 	and	r2,r3,r2
 5080584:	e0bffd0d 	sth	r2,-12(fp)
 5080588:	e0bfff03 	ldbu	r2,-4(fp)
 508058c:	10c000a0 	cmpeqi	r3,r2,2
 5080590:	1800081e 	bne	r3,zero,50805b4 <AUDIO_DacDeemphasisControl+0x64>
 5080594:	10c000e0 	cmpeqi	r3,r2,3
 5080598:	18000a1e 	bne	r3,zero,50805c4 <AUDIO_DacDeemphasisControl+0x74>
 508059c:	10800060 	cmpeqi	r2,r2,1
 50805a0:	10000c26 	beq	r2,zero,50805d4 <AUDIO_DacDeemphasisControl+0x84>
 50805a4:	e0bffd0b 	ldhu	r2,-12(fp)
 50805a8:	10800194 	ori	r2,r2,6
 50805ac:	e0bffd0d 	sth	r2,-12(fp)
 50805b0:	00000806 	br	50805d4 <AUDIO_DacDeemphasisControl+0x84>
 50805b4:	e0bffd0b 	ldhu	r2,-12(fp)
 50805b8:	10800114 	ori	r2,r2,4
 50805bc:	e0bffd0d 	sth	r2,-12(fp)
 50805c0:	00000406 	br	50805d4 <AUDIO_DacDeemphasisControl+0x84>
 50805c4:	e0bffd0b 	ldhu	r2,-12(fp)
 50805c8:	10800094 	ori	r2,r2,2
 50805cc:	e0bffd0d 	sth	r2,-12(fp)
 50805d0:	0001883a 	nop
 50805d4:	e0bffd0b 	ldhu	r2,-12(fp)
 50805d8:	100b883a 	mov	r5,r2
 50805dc:	01000144 	movi	r4,5
 50805e0:	5080d8c0 	call	5080d8c <aduio_RegWrite>
 50805e4:	e0bffe15 	stw	r2,-8(fp)
 50805e8:	e0bffe17 	ldw	r2,-8(fp)
 50805ec:	e037883a 	mov	sp,fp
 50805f0:	dfc00117 	ldw	ra,4(sp)
 50805f4:	df000017 	ldw	fp,0(sp)
 50805f8:	dec00204 	addi	sp,sp,8
 50805fc:	f800283a 	ret

05080600 <AUDIO_DacEnableZeroCross>:
 5080600:	defffa04 	addi	sp,sp,-24
 5080604:	dfc00515 	stw	ra,20(sp)
 5080608:	df000415 	stw	fp,16(sp)
 508060c:	df000404 	addi	fp,sp,16
 5080610:	e13fff15 	stw	r4,-4(fp)
 5080614:	008142b4 	movhi	r2,1290
 5080618:	10a85304 	addi	r2,r2,-24244
 508061c:	1080010b 	ldhu	r2,4(r2)
 5080620:	e0bffd0d 	sth	r2,-12(fp)
 5080624:	008142b4 	movhi	r2,1290
 5080628:	10a85304 	addi	r2,r2,-24244
 508062c:	1080018b 	ldhu	r2,6(r2)
 5080630:	e0bffd8d 	sth	r2,-10(fp)
 5080634:	00802004 	movi	r2,128
 5080638:	e0bffe0d 	sth	r2,-8(fp)
 508063c:	e0bfff17 	ldw	r2,-4(fp)
 5080640:	10000926 	beq	r2,zero,5080668 <AUDIO_DacEnableZeroCross+0x68>
 5080644:	e0fffd0b 	ldhu	r3,-12(fp)
 5080648:	e0bffe0b 	ldhu	r2,-8(fp)
 508064c:	1884b03a 	or	r2,r3,r2
 5080650:	e0bffd0d 	sth	r2,-12(fp)
 5080654:	e0fffd8b 	ldhu	r3,-10(fp)
 5080658:	e0bffe0b 	ldhu	r2,-8(fp)
 508065c:	1884b03a 	or	r2,r3,r2
 5080660:	e0bffd8d 	sth	r2,-10(fp)
 5080664:	00000c06 	br	5080698 <AUDIO_DacEnableZeroCross+0x98>
 5080668:	e0bffe0b 	ldhu	r2,-8(fp)
 508066c:	0084303a 	nor	r2,zero,r2
 5080670:	1007883a 	mov	r3,r2
 5080674:	e0bffd0b 	ldhu	r2,-12(fp)
 5080678:	1884703a 	and	r2,r3,r2
 508067c:	e0bffd0d 	sth	r2,-12(fp)
 5080680:	e0bffe0b 	ldhu	r2,-8(fp)
 5080684:	0084303a 	nor	r2,zero,r2
 5080688:	1007883a 	mov	r3,r2
 508068c:	e0bffd8b 	ldhu	r2,-10(fp)
 5080690:	1884703a 	and	r2,r3,r2
 5080694:	e0bffd8d 	sth	r2,-10(fp)
 5080698:	e0bffd0b 	ldhu	r2,-12(fp)
 508069c:	100b883a 	mov	r5,r2
 50806a0:	01000084 	movi	r4,2
 50806a4:	5080d8c0 	call	5080d8c <aduio_RegWrite>
 50806a8:	e0bffc15 	stw	r2,-16(fp)
 50806ac:	e0bffc17 	ldw	r2,-16(fp)
 50806b0:	10000526 	beq	r2,zero,50806c8 <AUDIO_DacEnableZeroCross+0xc8>
 50806b4:	e0bffd8b 	ldhu	r2,-10(fp)
 50806b8:	100b883a 	mov	r5,r2
 50806bc:	010000c4 	movi	r4,3
 50806c0:	5080d8c0 	call	5080d8c <aduio_RegWrite>
 50806c4:	e0bffc15 	stw	r2,-16(fp)
 50806c8:	e0bffc17 	ldw	r2,-16(fp)
 50806cc:	e037883a 	mov	sp,fp
 50806d0:	dfc00117 	ldw	ra,4(sp)
 50806d4:	df000017 	ldw	fp,0(sp)
 50806d8:	dec00204 	addi	sp,sp,8
 50806dc:	f800283a 	ret

050806e0 <AUDIO_DacEnableSoftMute>:
 50806e0:	defffb04 	addi	sp,sp,-20
 50806e4:	dfc00415 	stw	ra,16(sp)
 50806e8:	df000315 	stw	fp,12(sp)
 50806ec:	df000304 	addi	fp,sp,12
 50806f0:	e13fff15 	stw	r4,-4(fp)
 50806f4:	008142b4 	movhi	r2,1290
 50806f8:	10a85304 	addi	r2,r2,-24244
 50806fc:	1080028b 	ldhu	r2,10(r2)
 5080700:	e0bffd0d 	sth	r2,-12(fp)
 5080704:	00800204 	movi	r2,8
 5080708:	e0bffd8d 	sth	r2,-10(fp)
 508070c:	e0bfff17 	ldw	r2,-4(fp)
 5080710:	10000526 	beq	r2,zero,5080728 <AUDIO_DacEnableSoftMute+0x48>
 5080714:	e0fffd0b 	ldhu	r3,-12(fp)
 5080718:	e0bffd8b 	ldhu	r2,-10(fp)
 508071c:	1884b03a 	or	r2,r3,r2
 5080720:	e0bffd0d 	sth	r2,-12(fp)
 5080724:	00000606 	br	5080740 <AUDIO_DacEnableSoftMute+0x60>
 5080728:	e0bffd8b 	ldhu	r2,-10(fp)
 508072c:	0084303a 	nor	r2,zero,r2
 5080730:	1007883a 	mov	r3,r2
 5080734:	e0bffd0b 	ldhu	r2,-12(fp)
 5080738:	1884703a 	and	r2,r3,r2
 508073c:	e0bffd0d 	sth	r2,-12(fp)
 5080740:	e0bffd0b 	ldhu	r2,-12(fp)
 5080744:	100b883a 	mov	r5,r2
 5080748:	01000144 	movi	r4,5
 508074c:	5080d8c0 	call	5080d8c <aduio_RegWrite>
 5080750:	e0bffe15 	stw	r2,-8(fp)
 5080754:	e0bffe17 	ldw	r2,-8(fp)
 5080758:	e037883a 	mov	sp,fp
 508075c:	dfc00117 	ldw	ra,4(sp)
 5080760:	df000017 	ldw	fp,0(sp)
 5080764:	dec00204 	addi	sp,sp,8
 5080768:	f800283a 	ret

0508076c <AUDIO_MicMute>:
 508076c:	defffb04 	addi	sp,sp,-20
 5080770:	dfc00415 	stw	ra,16(sp)
 5080774:	df000315 	stw	fp,12(sp)
 5080778:	df000304 	addi	fp,sp,12
 508077c:	e13fff15 	stw	r4,-4(fp)
 5080780:	008142b4 	movhi	r2,1290
 5080784:	10a85304 	addi	r2,r2,-24244
 5080788:	1080020b 	ldhu	r2,8(r2)
 508078c:	e0bffd0d 	sth	r2,-12(fp)
 5080790:	00800084 	movi	r2,2
 5080794:	e0bffd8d 	sth	r2,-10(fp)
 5080798:	e0bfff17 	ldw	r2,-4(fp)
 508079c:	10000526 	beq	r2,zero,50807b4 <AUDIO_MicMute+0x48>
 50807a0:	e0fffd0b 	ldhu	r3,-12(fp)
 50807a4:	e0bffd8b 	ldhu	r2,-10(fp)
 50807a8:	1884b03a 	or	r2,r3,r2
 50807ac:	e0bffd0d 	sth	r2,-12(fp)
 50807b0:	00000606 	br	50807cc <AUDIO_MicMute+0x60>
 50807b4:	e0bffd8b 	ldhu	r2,-10(fp)
 50807b8:	0084303a 	nor	r2,zero,r2
 50807bc:	1007883a 	mov	r3,r2
 50807c0:	e0bffd0b 	ldhu	r2,-12(fp)
 50807c4:	1884703a 	and	r2,r3,r2
 50807c8:	e0bffd0d 	sth	r2,-12(fp)
 50807cc:	e0bffd0b 	ldhu	r2,-12(fp)
 50807d0:	100b883a 	mov	r5,r2
 50807d4:	01000104 	movi	r4,4
 50807d8:	5080d8c0 	call	5080d8c <aduio_RegWrite>
 50807dc:	e0bffe15 	stw	r2,-8(fp)
 50807e0:	e0bffe17 	ldw	r2,-8(fp)
 50807e4:	e037883a 	mov	sp,fp
 50807e8:	dfc00117 	ldw	ra,4(sp)
 50807ec:	df000017 	ldw	fp,0(sp)
 50807f0:	dec00204 	addi	sp,sp,8
 50807f4:	f800283a 	ret

050807f8 <AUDIO_LineInMute>:
 50807f8:	defffa04 	addi	sp,sp,-24
 50807fc:	dfc00515 	stw	ra,20(sp)
 5080800:	df000415 	stw	fp,16(sp)
 5080804:	df000404 	addi	fp,sp,16
 5080808:	e13fff15 	stw	r4,-4(fp)
 508080c:	008142b4 	movhi	r2,1290
 5080810:	10a85304 	addi	r2,r2,-24244
 5080814:	1080000b 	ldhu	r2,0(r2)
 5080818:	e0bffd0d 	sth	r2,-12(fp)
 508081c:	008142b4 	movhi	r2,1290
 5080820:	10a85304 	addi	r2,r2,-24244
 5080824:	1080008b 	ldhu	r2,2(r2)
 5080828:	e0bffd8d 	sth	r2,-10(fp)
 508082c:	00802004 	movi	r2,128
 5080830:	e0bffe0d 	sth	r2,-8(fp)
 5080834:	e0bfff17 	ldw	r2,-4(fp)
 5080838:	10000926 	beq	r2,zero,5080860 <AUDIO_LineInMute+0x68>
 508083c:	e0fffd0b 	ldhu	r3,-12(fp)
 5080840:	e0bffe0b 	ldhu	r2,-8(fp)
 5080844:	1884b03a 	or	r2,r3,r2
 5080848:	e0bffd0d 	sth	r2,-12(fp)
 508084c:	e0fffd8b 	ldhu	r3,-10(fp)
 5080850:	e0bffe0b 	ldhu	r2,-8(fp)
 5080854:	1884b03a 	or	r2,r3,r2
 5080858:	e0bffd8d 	sth	r2,-10(fp)
 508085c:	00000c06 	br	5080890 <AUDIO_LineInMute+0x98>
 5080860:	e0bffe0b 	ldhu	r2,-8(fp)
 5080864:	0084303a 	nor	r2,zero,r2
 5080868:	1007883a 	mov	r3,r2
 508086c:	e0bffd0b 	ldhu	r2,-12(fp)
 5080870:	1884703a 	and	r2,r3,r2
 5080874:	e0bffd0d 	sth	r2,-12(fp)
 5080878:	e0bffe0b 	ldhu	r2,-8(fp)
 508087c:	0084303a 	nor	r2,zero,r2
 5080880:	1007883a 	mov	r3,r2
 5080884:	e0bffd8b 	ldhu	r2,-10(fp)
 5080888:	1884703a 	and	r2,r3,r2
 508088c:	e0bffd8d 	sth	r2,-10(fp)
 5080890:	e0bffd0b 	ldhu	r2,-12(fp)
 5080894:	100b883a 	mov	r5,r2
 5080898:	0009883a 	mov	r4,zero
 508089c:	5080d8c0 	call	5080d8c <aduio_RegWrite>
 50808a0:	e0bffc15 	stw	r2,-16(fp)
 50808a4:	e0bffc17 	ldw	r2,-16(fp)
 50808a8:	10000526 	beq	r2,zero,50808c0 <AUDIO_LineInMute+0xc8>
 50808ac:	e0bffd8b 	ldhu	r2,-10(fp)
 50808b0:	100b883a 	mov	r5,r2
 50808b4:	01000044 	movi	r4,1
 50808b8:	5080d8c0 	call	5080d8c <aduio_RegWrite>
 50808bc:	e0bffc15 	stw	r2,-16(fp)
 50808c0:	e0bffc17 	ldw	r2,-16(fp)
 50808c4:	e037883a 	mov	sp,fp
 50808c8:	dfc00117 	ldw	ra,4(sp)
 50808cc:	df000017 	ldw	fp,0(sp)
 50808d0:	dec00204 	addi	sp,sp,8
 50808d4:	f800283a 	ret

050808d8 <AUDIO_SetInputSource>:
 50808d8:	defffb04 	addi	sp,sp,-20
 50808dc:	dfc00415 	stw	ra,16(sp)
 50808e0:	df000315 	stw	fp,12(sp)
 50808e4:	df000304 	addi	fp,sp,12
 50808e8:	2005883a 	mov	r2,r4
 50808ec:	e0bfff05 	stb	r2,-4(fp)
 50808f0:	008142b4 	movhi	r2,1290
 50808f4:	10a85304 	addi	r2,r2,-24244
 50808f8:	1080020b 	ldhu	r2,8(r2)
 50808fc:	e0bffd0d 	sth	r2,-12(fp)
 5080900:	00800104 	movi	r2,4
 5080904:	e0bffd8d 	sth	r2,-10(fp)
 5080908:	e0bfff03 	ldbu	r2,-4(fp)
 508090c:	1000051e 	bne	r2,zero,5080924 <AUDIO_SetInputSource+0x4c>
 5080910:	e0fffd0b 	ldhu	r3,-12(fp)
 5080914:	e0bffd8b 	ldhu	r2,-10(fp)
 5080918:	1884b03a 	or	r2,r3,r2
 508091c:	e0bffd0d 	sth	r2,-12(fp)
 5080920:	00000606 	br	508093c <AUDIO_SetInputSource+0x64>
 5080924:	e0bffd8b 	ldhu	r2,-10(fp)
 5080928:	0084303a 	nor	r2,zero,r2
 508092c:	1007883a 	mov	r3,r2
 5080930:	e0bffd0b 	ldhu	r2,-12(fp)
 5080934:	1884703a 	and	r2,r3,r2
 5080938:	e0bffd0d 	sth	r2,-12(fp)
 508093c:	e0bffd0b 	ldhu	r2,-12(fp)
 5080940:	100b883a 	mov	r5,r2
 5080944:	01000104 	movi	r4,4
 5080948:	5080d8c0 	call	5080d8c <aduio_RegWrite>
 508094c:	e0bffe15 	stw	r2,-8(fp)
 5080950:	e0bffe17 	ldw	r2,-8(fp)
 5080954:	e037883a 	mov	sp,fp
 5080958:	dfc00117 	ldw	ra,4(sp)
 508095c:	df000017 	ldw	fp,0(sp)
 5080960:	dec00204 	addi	sp,sp,8
 5080964:	f800283a 	ret

05080968 <AUDIO_SetSampleRate>:
 5080968:	defffb04 	addi	sp,sp,-20
 508096c:	dfc00415 	stw	ra,16(sp)
 5080970:	df000315 	stw	fp,12(sp)
 5080974:	df000304 	addi	fp,sp,12
 5080978:	2005883a 	mov	r2,r4
 508097c:	e0bfff05 	stb	r2,-4(fp)
 5080980:	e03ffd0d 	sth	zero,-12(fp)
 5080984:	e0bfff03 	ldbu	r2,-4(fp)
 5080988:	10c001e8 	cmpgeui	r3,r2,7
 508098c:	1800211e 	bne	r3,zero,5080a14 <AUDIO_SetSampleRate+0xac>
 5080990:	100690ba 	slli	r3,r2,2
 5080994:	00814234 	movhi	r2,1288
 5080998:	10826a04 	addi	r2,r2,2472
 508099c:	1885883a 	add	r2,r3,r2
 50809a0:	10800017 	ldw	r2,0(r2)
 50809a4:	1000683a 	jmp	r2
 50809a8:	050809c4 	movi	r20,8231
 50809ac:	050809cc 	andi	r20,zero,8231
 50809b0:	050809d8 	cmpnei	r20,zero,8231
 50809b4:	050809e4 	muli	r20,zero,8231
 50809b8:	050809f0 	cmpltui	r20,zero,8231
 50809bc:	050809fc 	xorhi	r20,zero,8231
 50809c0:	05080a08 	cmpgei	r20,zero,8232
 50809c4:	e03ffd0d 	sth	zero,-12(fp)
 50809c8:	00001206 	br	5080a14 <AUDIO_SetSampleRate+0xac>
 50809cc:	00800104 	movi	r2,4
 50809d0:	e0bffd0d 	sth	r2,-12(fp)
 50809d4:	00000f06 	br	5080a14 <AUDIO_SetSampleRate+0xac>
 50809d8:	00800204 	movi	r2,8
 50809dc:	e0bffd0d 	sth	r2,-12(fp)
 50809e0:	00000c06 	br	5080a14 <AUDIO_SetSampleRate+0xac>
 50809e4:	00800304 	movi	r2,12
 50809e8:	e0bffd0d 	sth	r2,-12(fp)
 50809ec:	00000906 	br	5080a14 <AUDIO_SetSampleRate+0xac>
 50809f0:	00800604 	movi	r2,24
 50809f4:	e0bffd0d 	sth	r2,-12(fp)
 50809f8:	00000606 	br	5080a14 <AUDIO_SetSampleRate+0xac>
 50809fc:	00800704 	movi	r2,28
 5080a00:	e0bffd0d 	sth	r2,-12(fp)
 5080a04:	00000306 	br	5080a14 <AUDIO_SetSampleRate+0xac>
 5080a08:	00800804 	movi	r2,32
 5080a0c:	e0bffd0d 	sth	r2,-12(fp)
 5080a10:	0001883a 	nop
 5080a14:	e0bffd0b 	ldhu	r2,-12(fp)
 5080a18:	10800094 	ori	r2,r2,2
 5080a1c:	e0bffd0d 	sth	r2,-12(fp)
 5080a20:	e0bffd0b 	ldhu	r2,-12(fp)
 5080a24:	100b883a 	mov	r5,r2
 5080a28:	01000204 	movi	r4,8
 5080a2c:	5080d8c0 	call	5080d8c <aduio_RegWrite>
 5080a30:	e0bffe15 	stw	r2,-8(fp)
 5080a34:	e0bffe17 	ldw	r2,-8(fp)
 5080a38:	e037883a 	mov	sp,fp
 5080a3c:	dfc00117 	ldw	ra,4(sp)
 5080a40:	df000017 	ldw	fp,0(sp)
 5080a44:	dec00204 	addi	sp,sp,8
 5080a48:	f800283a 	ret

05080a4c <AUDIO_SetLineInVol>:
 5080a4c:	defffa04 	addi	sp,sp,-24
 5080a50:	dfc00515 	stw	ra,20(sp)
 5080a54:	df000415 	stw	fp,16(sp)
 5080a58:	df000404 	addi	fp,sp,16
 5080a5c:	2007883a 	mov	r3,r4
 5080a60:	2805883a 	mov	r2,r5
 5080a64:	e0fffe0d 	sth	r3,-8(fp)
 5080a68:	e0bfff0d 	sth	r2,-4(fp)
 5080a6c:	008142b4 	movhi	r2,1290
 5080a70:	10a85304 	addi	r2,r2,-24244
 5080a74:	1080000b 	ldhu	r2,0(r2)
 5080a78:	e0bffd0d 	sth	r2,-12(fp)
 5080a7c:	e0fffd0b 	ldhu	r3,-12(fp)
 5080a80:	00bff804 	movi	r2,-32
 5080a84:	1884703a 	and	r2,r3,r2
 5080a88:	e0bffd0d 	sth	r2,-12(fp)
 5080a8c:	e0bffe0b 	ldhu	r2,-8(fp)
 5080a90:	108007cc 	andi	r2,r2,31
 5080a94:	1007883a 	mov	r3,r2
 5080a98:	e0bffd0b 	ldhu	r2,-12(fp)
 5080a9c:	1885883a 	add	r2,r3,r2
 5080aa0:	e0bffd0d 	sth	r2,-12(fp)
 5080aa4:	e0bffd0b 	ldhu	r2,-12(fp)
 5080aa8:	100b883a 	mov	r5,r2
 5080aac:	0009883a 	mov	r4,zero
 5080ab0:	5080d8c0 	call	5080d8c <aduio_RegWrite>
 5080ab4:	e0bffc15 	stw	r2,-16(fp)
 5080ab8:	e0bffc17 	ldw	r2,-16(fp)
 5080abc:	10001326 	beq	r2,zero,5080b0c <AUDIO_SetLineInVol+0xc0>
 5080ac0:	008142b4 	movhi	r2,1290
 5080ac4:	10a85304 	addi	r2,r2,-24244
 5080ac8:	1080008b 	ldhu	r2,2(r2)
 5080acc:	e0bffd0d 	sth	r2,-12(fp)
 5080ad0:	e0fffd0b 	ldhu	r3,-12(fp)
 5080ad4:	00bff804 	movi	r2,-32
 5080ad8:	1884703a 	and	r2,r3,r2
 5080adc:	e0bffd0d 	sth	r2,-12(fp)
 5080ae0:	e0bfff0b 	ldhu	r2,-4(fp)
 5080ae4:	108007cc 	andi	r2,r2,31
 5080ae8:	1007883a 	mov	r3,r2
 5080aec:	e0bffd0b 	ldhu	r2,-12(fp)
 5080af0:	1885883a 	add	r2,r3,r2
 5080af4:	e0bffd0d 	sth	r2,-12(fp)
 5080af8:	e0bffd0b 	ldhu	r2,-12(fp)
 5080afc:	100b883a 	mov	r5,r2
 5080b00:	01000044 	movi	r4,1
 5080b04:	5080d8c0 	call	5080d8c <aduio_RegWrite>
 5080b08:	e0bffc15 	stw	r2,-16(fp)
 5080b0c:	e0fffe0b 	ldhu	r3,-8(fp)
 5080b10:	e13fff0b 	ldhu	r4,-4(fp)
 5080b14:	e0bffc17 	ldw	r2,-16(fp)
 5080b18:	10000326 	beq	r2,zero,5080b28 <AUDIO_SetLineInVol+0xdc>
 5080b1c:	00814274 	movhi	r2,1289
 5080b20:	10971e04 	addi	r2,r2,23672
 5080b24:	00000206 	br	5080b30 <AUDIO_SetLineInVol+0xe4>
 5080b28:	00814274 	movhi	r2,1289
 5080b2c:	10972004 	addi	r2,r2,23680
 5080b30:	100f883a 	mov	r7,r2
 5080b34:	200d883a 	mov	r6,r4
 5080b38:	180b883a 	mov	r5,r3
 5080b3c:	01014274 	movhi	r4,1289
 5080b40:	21172804 	addi	r4,r4,23712
 5080b44:	5081b2c0 	call	5081b2c <myprintf>
 5080b48:	e0bffc17 	ldw	r2,-16(fp)
 5080b4c:	e037883a 	mov	sp,fp
 5080b50:	dfc00117 	ldw	ra,4(sp)
 5080b54:	df000017 	ldw	fp,0(sp)
 5080b58:	dec00204 	addi	sp,sp,8
 5080b5c:	f800283a 	ret

05080b60 <AUDIO_SetLineOutVol>:
 5080b60:	defffa04 	addi	sp,sp,-24
 5080b64:	dfc00515 	stw	ra,20(sp)
 5080b68:	df000415 	stw	fp,16(sp)
 5080b6c:	df000404 	addi	fp,sp,16
 5080b70:	2007883a 	mov	r3,r4
 5080b74:	2805883a 	mov	r2,r5
 5080b78:	e0fffe0d 	sth	r3,-8(fp)
 5080b7c:	e0bfff0d 	sth	r2,-4(fp)
 5080b80:	008142b4 	movhi	r2,1290
 5080b84:	10a85304 	addi	r2,r2,-24244
 5080b88:	1080010b 	ldhu	r2,4(r2)
 5080b8c:	e0bffd0d 	sth	r2,-12(fp)
 5080b90:	e0fffd0b 	ldhu	r3,-12(fp)
 5080b94:	00bfe004 	movi	r2,-128
 5080b98:	1884703a 	and	r2,r3,r2
 5080b9c:	e0bffd0d 	sth	r2,-12(fp)
 5080ba0:	e0bffe0b 	ldhu	r2,-8(fp)
 5080ba4:	10801fcc 	andi	r2,r2,127
 5080ba8:	1007883a 	mov	r3,r2
 5080bac:	e0bffd0b 	ldhu	r2,-12(fp)
 5080bb0:	1885883a 	add	r2,r3,r2
 5080bb4:	e0bffd0d 	sth	r2,-12(fp)
 5080bb8:	e0bffd0b 	ldhu	r2,-12(fp)
 5080bbc:	100b883a 	mov	r5,r2
 5080bc0:	01000084 	movi	r4,2
 5080bc4:	5080d8c0 	call	5080d8c <aduio_RegWrite>
 5080bc8:	e0bffc15 	stw	r2,-16(fp)
 5080bcc:	e0bffc17 	ldw	r2,-16(fp)
 5080bd0:	10001326 	beq	r2,zero,5080c20 <AUDIO_SetLineOutVol+0xc0>
 5080bd4:	008142b4 	movhi	r2,1290
 5080bd8:	10a85304 	addi	r2,r2,-24244
 5080bdc:	1080018b 	ldhu	r2,6(r2)
 5080be0:	e0bffd0d 	sth	r2,-12(fp)
 5080be4:	e0fffd0b 	ldhu	r3,-12(fp)
 5080be8:	00bfe004 	movi	r2,-128
 5080bec:	1884703a 	and	r2,r3,r2
 5080bf0:	e0bffd0d 	sth	r2,-12(fp)
 5080bf4:	e0bfff0b 	ldhu	r2,-4(fp)
 5080bf8:	10801fcc 	andi	r2,r2,127
 5080bfc:	1007883a 	mov	r3,r2
 5080c00:	e0bffd0b 	ldhu	r2,-12(fp)
 5080c04:	1885883a 	add	r2,r3,r2
 5080c08:	e0bffd0d 	sth	r2,-12(fp)
 5080c0c:	e0bffd0b 	ldhu	r2,-12(fp)
 5080c10:	100b883a 	mov	r5,r2
 5080c14:	010000c4 	movi	r4,3
 5080c18:	5080d8c0 	call	5080d8c <aduio_RegWrite>
 5080c1c:	e0bffc15 	stw	r2,-16(fp)
 5080c20:	e0fffe0b 	ldhu	r3,-8(fp)
 5080c24:	e13fff0b 	ldhu	r4,-4(fp)
 5080c28:	e0bffc17 	ldw	r2,-16(fp)
 5080c2c:	10000326 	beq	r2,zero,5080c3c <AUDIO_SetLineOutVol+0xdc>
 5080c30:	00814274 	movhi	r2,1289
 5080c34:	10971e04 	addi	r2,r2,23672
 5080c38:	00000206 	br	5080c44 <AUDIO_SetLineOutVol+0xe4>
 5080c3c:	00814274 	movhi	r2,1289
 5080c40:	10972004 	addi	r2,r2,23680
 5080c44:	100f883a 	mov	r7,r2
 5080c48:	200d883a 	mov	r6,r4
 5080c4c:	180b883a 	mov	r5,r3
 5080c50:	01014274 	movhi	r4,1289
 5080c54:	21173104 	addi	r4,r4,23748
 5080c58:	5081b2c0 	call	5081b2c <myprintf>
 5080c5c:	e0bffc17 	ldw	r2,-16(fp)
 5080c60:	e037883a 	mov	sp,fp
 5080c64:	dfc00117 	ldw	ra,4(sp)
 5080c68:	df000017 	ldw	fp,0(sp)
 5080c6c:	dec00204 	addi	sp,sp,8
 5080c70:	f800283a 	ret

05080c74 <AUDIO_EnableByPass>:
 5080c74:	defffb04 	addi	sp,sp,-20
 5080c78:	dfc00415 	stw	ra,16(sp)
 5080c7c:	df000315 	stw	fp,12(sp)
 5080c80:	df000304 	addi	fp,sp,12
 5080c84:	e13fff15 	stw	r4,-4(fp)
 5080c88:	008142b4 	movhi	r2,1290
 5080c8c:	10a85304 	addi	r2,r2,-24244
 5080c90:	1080020b 	ldhu	r2,8(r2)
 5080c94:	e0bffd0d 	sth	r2,-12(fp)
 5080c98:	00800204 	movi	r2,8
 5080c9c:	e0bffd8d 	sth	r2,-10(fp)
 5080ca0:	e0bfff17 	ldw	r2,-4(fp)
 5080ca4:	10000526 	beq	r2,zero,5080cbc <AUDIO_EnableByPass+0x48>
 5080ca8:	e0fffd0b 	ldhu	r3,-12(fp)
 5080cac:	e0bffd8b 	ldhu	r2,-10(fp)
 5080cb0:	1884b03a 	or	r2,r3,r2
 5080cb4:	e0bffd0d 	sth	r2,-12(fp)
 5080cb8:	00000606 	br	5080cd4 <AUDIO_EnableByPass+0x60>
 5080cbc:	e0bffd8b 	ldhu	r2,-10(fp)
 5080cc0:	0084303a 	nor	r2,zero,r2
 5080cc4:	1007883a 	mov	r3,r2
 5080cc8:	e0bffd0b 	ldhu	r2,-12(fp)
 5080ccc:	1884703a 	and	r2,r3,r2
 5080cd0:	e0bffd0d 	sth	r2,-12(fp)
 5080cd4:	e0bffd0b 	ldhu	r2,-12(fp)
 5080cd8:	100b883a 	mov	r5,r2
 5080cdc:	01000104 	movi	r4,4
 5080ce0:	5080d8c0 	call	5080d8c <aduio_RegWrite>
 5080ce4:	e0bffe15 	stw	r2,-8(fp)
 5080ce8:	e0bffe17 	ldw	r2,-8(fp)
 5080cec:	e037883a 	mov	sp,fp
 5080cf0:	dfc00117 	ldw	ra,4(sp)
 5080cf4:	df000017 	ldw	fp,0(sp)
 5080cf8:	dec00204 	addi	sp,sp,8
 5080cfc:	f800283a 	ret

05080d00 <AUDIO_EnableSiteTone>:
 5080d00:	defffb04 	addi	sp,sp,-20
 5080d04:	dfc00415 	stw	ra,16(sp)
 5080d08:	df000315 	stw	fp,12(sp)
 5080d0c:	df000304 	addi	fp,sp,12
 5080d10:	e13fff15 	stw	r4,-4(fp)
 5080d14:	008142b4 	movhi	r2,1290
 5080d18:	10a85304 	addi	r2,r2,-24244
 5080d1c:	1080020b 	ldhu	r2,8(r2)
 5080d20:	e0bffd0d 	sth	r2,-12(fp)
 5080d24:	00800804 	movi	r2,32
 5080d28:	e0bffd8d 	sth	r2,-10(fp)
 5080d2c:	e0bfff17 	ldw	r2,-4(fp)
 5080d30:	10000526 	beq	r2,zero,5080d48 <AUDIO_EnableSiteTone+0x48>
 5080d34:	e0fffd0b 	ldhu	r3,-12(fp)
 5080d38:	e0bffd8b 	ldhu	r2,-10(fp)
 5080d3c:	1884b03a 	or	r2,r3,r2
 5080d40:	e0bffd0d 	sth	r2,-12(fp)
 5080d44:	00000606 	br	5080d60 <AUDIO_EnableSiteTone+0x60>
 5080d48:	e0bffd8b 	ldhu	r2,-10(fp)
 5080d4c:	0084303a 	nor	r2,zero,r2
 5080d50:	1007883a 	mov	r3,r2
 5080d54:	e0bffd0b 	ldhu	r2,-12(fp)
 5080d58:	1884703a 	and	r2,r3,r2
 5080d5c:	e0bffd0d 	sth	r2,-12(fp)
 5080d60:	e0bffd0b 	ldhu	r2,-12(fp)
 5080d64:	100b883a 	mov	r5,r2
 5080d68:	01000104 	movi	r4,4
 5080d6c:	5080d8c0 	call	5080d8c <aduio_RegWrite>
 5080d70:	e0bffe15 	stw	r2,-8(fp)
 5080d74:	e0bffe17 	ldw	r2,-8(fp)
 5080d78:	e037883a 	mov	sp,fp
 5080d7c:	dfc00117 	ldw	ra,4(sp)
 5080d80:	df000017 	ldw	fp,0(sp)
 5080d84:	dec00204 	addi	sp,sp,8
 5080d88:	f800283a 	ret

05080d8c <aduio_RegWrite>:
 5080d8c:	defff904 	addi	sp,sp,-28
 5080d90:	dfc00615 	stw	ra,24(sp)
 5080d94:	df000515 	stw	fp,20(sp)
 5080d98:	df000504 	addi	fp,sp,20
 5080d9c:	2007883a 	mov	r3,r4
 5080da0:	2805883a 	mov	r2,r5
 5080da4:	e0fffe05 	stb	r3,-8(fp)
 5080da8:	e0bfff0d 	sth	r2,-4(fp)
 5080dac:	e0bffe03 	ldbu	r2,-8(fp)
 5080db0:	108002e8 	cmpgeui	r2,r2,11
 5080db4:	1000071e 	bne	r2,zero,5080dd4 <aduio_RegWrite+0x48>
 5080db8:	e0fffe03 	ldbu	r3,-8(fp)
 5080dbc:	008142b4 	movhi	r2,1290
 5080dc0:	10a85304 	addi	r2,r2,-24244
 5080dc4:	18c7883a 	add	r3,r3,r3
 5080dc8:	10c5883a 	add	r2,r2,r3
 5080dcc:	e0ffff0b 	ldhu	r3,-4(fp)
 5080dd0:	10c0000d 	sth	r3,0(r2)
 5080dd4:	e0bfff0b 	ldhu	r2,-4(fp)
 5080dd8:	e0bffc05 	stb	r2,-16(fp)
 5080ddc:	e0bffe03 	ldbu	r2,-8(fp)
 5080de0:	1085883a 	add	r2,r2,r2
 5080de4:	e0bffc45 	stb	r2,-15(fp)
 5080de8:	e0bfff0b 	ldhu	r2,-4(fp)
 5080dec:	1004d23a 	srli	r2,r2,8
 5080df0:	1080004c 	andi	r2,r2,1
 5080df4:	1007883a 	mov	r3,r2
 5080df8:	e0bffc43 	ldbu	r2,-15(fp)
 5080dfc:	1884b03a 	or	r2,r3,r2
 5080e00:	e0bffc45 	stb	r2,-15(fp)
 5080e04:	e0bffe03 	ldbu	r2,-8(fp)
 5080e08:	e0ffff0b 	ldhu	r3,-4(fp)
 5080e0c:	180d883a 	mov	r6,r3
 5080e10:	100b883a 	mov	r5,r2
 5080e14:	01014274 	movhi	r4,1289
 5080e18:	21173b04 	addi	r4,r4,23788
 5080e1c:	5081b2c0 	call	5081b2c <myprintf>
 5080e20:	e0fffc43 	ldbu	r3,-15(fp)
 5080e24:	e0bffc03 	ldbu	r2,-16(fp)
 5080e28:	d8800015 	stw	r2,0(sp)
 5080e2c:	180f883a 	mov	r7,r3
 5080e30:	01800d04 	movi	r6,52
 5080e34:	01410034 	movhi	r5,1024
 5080e38:	29400804 	addi	r5,r5,32
 5080e3c:	01010034 	movhi	r4,1024
 5080e40:	21000c04 	addi	r4,r4,48
 5080e44:	5080fd00 	call	5080fd0 <I2C_Write>
 5080e48:	e0bffd15 	stw	r2,-12(fp)
 5080e4c:	e0bffd17 	ldw	r2,-12(fp)
 5080e50:	1000031e 	bne	r2,zero,5080e60 <aduio_RegWrite+0xd4>
 5080e54:	01014274 	movhi	r4,1289
 5080e58:	21174504 	addi	r4,r4,23828
 5080e5c:	5081b2c0 	call	5081b2c <myprintf>
 5080e60:	0130d414 	movui	r4,50000
 5080e64:	5093b380 	call	5093b38 <usleep>
 5080e68:	e0bffd17 	ldw	r2,-12(fp)
 5080e6c:	e037883a 	mov	sp,fp
 5080e70:	dfc00117 	ldw	ra,4(sp)
 5080e74:	df000017 	ldw	fp,0(sp)
 5080e78:	dec00204 	addi	sp,sp,8
 5080e7c:	f800283a 	ret

05080e80 <AUDIO_DacFifoNotFull>:
 5080e80:	defffe04 	addi	sp,sp,-8
 5080e84:	df000115 	stw	fp,4(sp)
 5080e88:	df000104 	addi	fp,sp,4
 5080e8c:	00814434 	movhi	r2,1296
 5080e90:	10840504 	addi	r2,r2,4116
 5080e94:	10800037 	ldwio	r2,0(r2)
 5080e98:	1080004c 	andi	r2,r2,1
 5080e9c:	1005003a 	cmpeq	r2,r2,zero
 5080ea0:	10803fcc 	andi	r2,r2,255
 5080ea4:	e0bfff15 	stw	r2,-4(fp)
 5080ea8:	e0bfff17 	ldw	r2,-4(fp)
 5080eac:	e037883a 	mov	sp,fp
 5080eb0:	df000017 	ldw	fp,0(sp)
 5080eb4:	dec00104 	addi	sp,sp,4
 5080eb8:	f800283a 	ret

05080ebc <AUDIO_DacFifoSetData>:
 5080ebc:	defffd04 	addi	sp,sp,-12
 5080ec0:	df000215 	stw	fp,8(sp)
 5080ec4:	df000204 	addi	fp,sp,8
 5080ec8:	2007883a 	mov	r3,r4
 5080ecc:	2805883a 	mov	r2,r5
 5080ed0:	e0fffe0d 	sth	r3,-8(fp)
 5080ed4:	e0bfff0d 	sth	r2,-4(fp)
 5080ed8:	e0fffe0f 	ldh	r3,-8(fp)
 5080edc:	00814434 	movhi	r2,1296
 5080ee0:	10840004 	addi	r2,r2,4096
 5080ee4:	10c00035 	stwio	r3,0(r2)
 5080ee8:	e0ffff0f 	ldh	r3,-4(fp)
 5080eec:	00814434 	movhi	r2,1296
 5080ef0:	10840104 	addi	r2,r2,4100
 5080ef4:	10c00035 	stwio	r3,0(r2)
 5080ef8:	0001883a 	nop
 5080efc:	e037883a 	mov	sp,fp
 5080f00:	df000017 	ldw	fp,0(sp)
 5080f04:	dec00104 	addi	sp,sp,4
 5080f08:	f800283a 	ret

05080f0c <AUDIO_AdcFifoNotEmpty>:
 5080f0c:	defffe04 	addi	sp,sp,-8
 5080f10:	df000115 	stw	fp,4(sp)
 5080f14:	df000104 	addi	fp,sp,4
 5080f18:	00814434 	movhi	r2,1296
 5080f1c:	10840504 	addi	r2,r2,4116
 5080f20:	10800037 	ldwio	r2,0(r2)
 5080f24:	1080008c 	andi	r2,r2,2
 5080f28:	1005003a 	cmpeq	r2,r2,zero
 5080f2c:	10803fcc 	andi	r2,r2,255
 5080f30:	e0bfff15 	stw	r2,-4(fp)
 5080f34:	e0bfff17 	ldw	r2,-4(fp)
 5080f38:	e037883a 	mov	sp,fp
 5080f3c:	df000017 	ldw	fp,0(sp)
 5080f40:	dec00104 	addi	sp,sp,4
 5080f44:	f800283a 	ret

05080f48 <AUDIO_AdcFifoGetData>:
 5080f48:	defffd04 	addi	sp,sp,-12
 5080f4c:	df000215 	stw	fp,8(sp)
 5080f50:	df000204 	addi	fp,sp,8
 5080f54:	e13ffe15 	stw	r4,-8(fp)
 5080f58:	e17fff15 	stw	r5,-4(fp)
 5080f5c:	00814434 	movhi	r2,1296
 5080f60:	10840204 	addi	r2,r2,4104
 5080f64:	10800037 	ldwio	r2,0(r2)
 5080f68:	1007883a 	mov	r3,r2
 5080f6c:	e0bffe17 	ldw	r2,-8(fp)
 5080f70:	10c0000d 	sth	r3,0(r2)
 5080f74:	00814434 	movhi	r2,1296
 5080f78:	10840304 	addi	r2,r2,4108
 5080f7c:	10800037 	ldwio	r2,0(r2)
 5080f80:	1007883a 	mov	r3,r2
 5080f84:	e0bfff17 	ldw	r2,-4(fp)
 5080f88:	10c0000d 	sth	r3,0(r2)
 5080f8c:	0001883a 	nop
 5080f90:	e037883a 	mov	sp,fp
 5080f94:	df000017 	ldw	fp,0(sp)
 5080f98:	dec00104 	addi	sp,sp,4
 5080f9c:	f800283a 	ret

05080fa0 <AUDIO_FifoClear>:
 5080fa0:	deffff04 	addi	sp,sp,-4
 5080fa4:	df000015 	stw	fp,0(sp)
 5080fa8:	d839883a 	mov	fp,sp
 5080fac:	00c00044 	movi	r3,1
 5080fb0:	00814434 	movhi	r2,1296
 5080fb4:	10840404 	addi	r2,r2,4112
 5080fb8:	10c00035 	stwio	r3,0(r2)
 5080fbc:	0001883a 	nop
 5080fc0:	e037883a 	mov	sp,fp
 5080fc4:	df000017 	ldw	fp,0(sp)
 5080fc8:	dec00104 	addi	sp,sp,4
 5080fcc:	f800283a 	ret

05080fd0 <I2C_Write>:
 5080fd0:	defff804 	addi	sp,sp,-32
 5080fd4:	dfc00715 	stw	ra,28(sp)
 5080fd8:	df000615 	stw	fp,24(sp)
 5080fdc:	df000604 	addi	fp,sp,24
 5080fe0:	e13ffb15 	stw	r4,-20(fp)
 5080fe4:	e17ffc15 	stw	r5,-16(fp)
 5080fe8:	3009883a 	mov	r4,r6
 5080fec:	3807883a 	mov	r3,r7
 5080ff0:	e0800217 	ldw	r2,8(fp)
 5080ff4:	e13ffd05 	stb	r4,-12(fp)
 5080ff8:	e0fffe05 	stb	r3,-8(fp)
 5080ffc:	e0bfff05 	stb	r2,-4(fp)
 5081000:	00800044 	movi	r2,1
 5081004:	e0bffa15 	stw	r2,-24(fp)
 5081008:	e17ffc17 	ldw	r5,-16(fp)
 508100c:	e13ffb17 	ldw	r4,-20(fp)
 5081010:	508136c0 	call	508136c <i2c_start>
 5081014:	e0bffd03 	ldbu	r2,-12(fp)
 5081018:	10803fcc 	andi	r2,r2,255
 508101c:	100d883a 	mov	r6,r2
 5081020:	e17ffc17 	ldw	r5,-16(fp)
 5081024:	e13ffb17 	ldw	r4,-20(fp)
 5081028:	50814700 	call	5081470 <i2c_write>
 508102c:	1000041e 	bne	r2,zero,5081040 <I2C_Write+0x70>
 5081030:	e03ffa15 	stw	zero,-24(fp)
 5081034:	01014274 	movhi	r4,1289
 5081038:	21174d04 	addi	r4,r4,23860
 508103c:	5081b2c0 	call	5081b2c <myprintf>
 5081040:	e0bffa17 	ldw	r2,-24(fp)
 5081044:	10000a26 	beq	r2,zero,5081070 <I2C_Write+0xa0>
 5081048:	e0bffe03 	ldbu	r2,-8(fp)
 508104c:	100d883a 	mov	r6,r2
 5081050:	e17ffc17 	ldw	r5,-16(fp)
 5081054:	e13ffb17 	ldw	r4,-20(fp)
 5081058:	50814700 	call	5081470 <i2c_write>
 508105c:	1000041e 	bne	r2,zero,5081070 <I2C_Write+0xa0>
 5081060:	e03ffa15 	stw	zero,-24(fp)
 5081064:	01014274 	movhi	r4,1289
 5081068:	21175504 	addi	r4,r4,23892
 508106c:	5081b2c0 	call	5081b2c <myprintf>
 5081070:	e0bffa17 	ldw	r2,-24(fp)
 5081074:	10000a26 	beq	r2,zero,50810a0 <I2C_Write+0xd0>
 5081078:	e0bfff03 	ldbu	r2,-4(fp)
 508107c:	100d883a 	mov	r6,r2
 5081080:	e17ffc17 	ldw	r5,-16(fp)
 5081084:	e13ffb17 	ldw	r4,-20(fp)
 5081088:	50814700 	call	5081470 <i2c_write>
 508108c:	1000041e 	bne	r2,zero,50810a0 <I2C_Write+0xd0>
 5081090:	e03ffa15 	stw	zero,-24(fp)
 5081094:	01014274 	movhi	r4,1289
 5081098:	21175e04 	addi	r4,r4,23928
 508109c:	5081b2c0 	call	5081b2c <myprintf>
 50810a0:	e17ffc17 	ldw	r5,-16(fp)
 50810a4:	e13ffb17 	ldw	r4,-20(fp)
 50810a8:	50813f80 	call	50813f8 <i2c_stop>
 50810ac:	0106d604 	movi	r4,7000
 50810b0:	5093b380 	call	5093b38 <usleep>
 50810b4:	e0bffa17 	ldw	r2,-24(fp)
 50810b8:	e037883a 	mov	sp,fp
 50810bc:	dfc00117 	ldw	ra,4(sp)
 50810c0:	df000017 	ldw	fp,0(sp)
 50810c4:	dec00204 	addi	sp,sp,8
 50810c8:	f800283a 	ret

050810cc <I2C_Read>:
 50810cc:	defff904 	addi	sp,sp,-28
 50810d0:	dfc00615 	stw	ra,24(sp)
 50810d4:	df000515 	stw	fp,20(sp)
 50810d8:	df000504 	addi	fp,sp,20
 50810dc:	e13ffc15 	stw	r4,-16(fp)
 50810e0:	e17ffd15 	stw	r5,-12(fp)
 50810e4:	3007883a 	mov	r3,r6
 50810e8:	3805883a 	mov	r2,r7
 50810ec:	e0fffe05 	stb	r3,-8(fp)
 50810f0:	e0bfff05 	stb	r2,-4(fp)
 50810f4:	00800044 	movi	r2,1
 50810f8:	e0bffb15 	stw	r2,-20(fp)
 50810fc:	e17ffd17 	ldw	r5,-12(fp)
 5081100:	e13ffc17 	ldw	r4,-16(fp)
 5081104:	508136c0 	call	508136c <i2c_start>
 5081108:	e0bffe03 	ldbu	r2,-8(fp)
 508110c:	10803fcc 	andi	r2,r2,255
 5081110:	100d883a 	mov	r6,r2
 5081114:	e17ffd17 	ldw	r5,-12(fp)
 5081118:	e13ffc17 	ldw	r4,-16(fp)
 508111c:	50814700 	call	5081470 <i2c_write>
 5081120:	1000041e 	bne	r2,zero,5081134 <I2C_Read+0x68>
 5081124:	e03ffb15 	stw	zero,-20(fp)
 5081128:	01014274 	movhi	r4,1289
 508112c:	21174d04 	addi	r4,r4,23860
 5081130:	5081b2c0 	call	5081b2c <myprintf>
 5081134:	e0bffb17 	ldw	r2,-20(fp)
 5081138:	10000a26 	beq	r2,zero,5081164 <I2C_Read+0x98>
 508113c:	e0bfff03 	ldbu	r2,-4(fp)
 5081140:	100d883a 	mov	r6,r2
 5081144:	e17ffd17 	ldw	r5,-12(fp)
 5081148:	e13ffc17 	ldw	r4,-16(fp)
 508114c:	50814700 	call	5081470 <i2c_write>
 5081150:	1000041e 	bne	r2,zero,5081164 <I2C_Read+0x98>
 5081154:	e03ffb15 	stw	zero,-20(fp)
 5081158:	01014274 	movhi	r4,1289
 508115c:	21175504 	addi	r4,r4,23892
 5081160:	5081b2c0 	call	5081b2c <myprintf>
 5081164:	e17ffd17 	ldw	r5,-12(fp)
 5081168:	e13ffc17 	ldw	r4,-16(fp)
 508116c:	508136c0 	call	508136c <i2c_start>
 5081170:	e0bffe03 	ldbu	r2,-8(fp)
 5081174:	10800054 	ori	r2,r2,1
 5081178:	e0bffe05 	stb	r2,-8(fp)
 508117c:	e0bffb17 	ldw	r2,-20(fp)
 5081180:	10000b26 	beq	r2,zero,50811b0 <I2C_Read+0xe4>
 5081184:	e0bffe03 	ldbu	r2,-8(fp)
 5081188:	10803fcc 	andi	r2,r2,255
 508118c:	100d883a 	mov	r6,r2
 5081190:	e17ffd17 	ldw	r5,-12(fp)
 5081194:	e13ffc17 	ldw	r4,-16(fp)
 5081198:	50814700 	call	5081470 <i2c_write>
 508119c:	1000041e 	bne	r2,zero,50811b0 <I2C_Read+0xe4>
 50811a0:	e03ffb15 	stw	zero,-20(fp)
 50811a4:	01014274 	movhi	r4,1289
 50811a8:	21176604 	addi	r4,r4,23960
 50811ac:	5081b2c0 	call	5081b2c <myprintf>
 50811b0:	e0bffb17 	ldw	r2,-20(fp)
 50811b4:	10000526 	beq	r2,zero,50811cc <I2C_Read+0x100>
 50811b8:	000f883a 	mov	r7,zero
 50811bc:	e1800217 	ldw	r6,8(fp)
 50811c0:	e17ffd17 	ldw	r5,-12(fp)
 50811c4:	e13ffc17 	ldw	r4,-16(fp)
 50811c8:	50815a00 	call	50815a0 <i2c_read>
 50811cc:	e17ffd17 	ldw	r5,-12(fp)
 50811d0:	e13ffc17 	ldw	r4,-16(fp)
 50811d4:	50813f80 	call	50813f8 <i2c_stop>
 50811d8:	e0bffb17 	ldw	r2,-20(fp)
 50811dc:	e037883a 	mov	sp,fp
 50811e0:	dfc00117 	ldw	ra,4(sp)
 50811e4:	df000017 	ldw	fp,0(sp)
 50811e8:	dec00204 	addi	sp,sp,8
 50811ec:	f800283a 	ret

050811f0 <I2C_MultipleRead>:
 50811f0:	defff604 	addi	sp,sp,-40
 50811f4:	dfc00915 	stw	ra,36(sp)
 50811f8:	df000815 	stw	fp,32(sp)
 50811fc:	df000804 	addi	fp,sp,32
 5081200:	e13ffb15 	stw	r4,-20(fp)
 5081204:	e17ffc15 	stw	r5,-16(fp)
 5081208:	3007883a 	mov	r3,r6
 508120c:	e1fffe15 	stw	r7,-8(fp)
 5081210:	e0800217 	ldw	r2,8(fp)
 5081214:	e0fffd05 	stb	r3,-12(fp)
 5081218:	e0bfff0d 	sth	r2,-4(fp)
 508121c:	00800044 	movi	r2,1
 5081220:	e0bff915 	stw	r2,-28(fp)
 5081224:	e03ffa05 	stb	zero,-24(fp)
 5081228:	e17ffc17 	ldw	r5,-16(fp)
 508122c:	e13ffb17 	ldw	r4,-20(fp)
 5081230:	508136c0 	call	508136c <i2c_start>
 5081234:	e0bffd03 	ldbu	r2,-12(fp)
 5081238:	10803fcc 	andi	r2,r2,255
 508123c:	100d883a 	mov	r6,r2
 5081240:	e17ffc17 	ldw	r5,-16(fp)
 5081244:	e13ffb17 	ldw	r4,-20(fp)
 5081248:	50814700 	call	5081470 <i2c_write>
 508124c:	1000041e 	bne	r2,zero,5081260 <I2C_MultipleRead+0x70>
 5081250:	e03ff915 	stw	zero,-28(fp)
 5081254:	01014274 	movhi	r4,1289
 5081258:	21174d04 	addi	r4,r4,23860
 508125c:	5081b2c0 	call	5081b2c <myprintf>
 5081260:	e0bff917 	ldw	r2,-28(fp)
 5081264:	10000a26 	beq	r2,zero,5081290 <I2C_MultipleRead+0xa0>
 5081268:	e0bffa03 	ldbu	r2,-24(fp)
 508126c:	100d883a 	mov	r6,r2
 5081270:	e17ffc17 	ldw	r5,-16(fp)
 5081274:	e13ffb17 	ldw	r4,-20(fp)
 5081278:	50814700 	call	5081470 <i2c_write>
 508127c:	1000041e 	bne	r2,zero,5081290 <I2C_MultipleRead+0xa0>
 5081280:	e03ff915 	stw	zero,-28(fp)
 5081284:	01014274 	movhi	r4,1289
 5081288:	21175504 	addi	r4,r4,23892
 508128c:	5081b2c0 	call	5081b2c <myprintf>
 5081290:	e0bff917 	ldw	r2,-28(fp)
 5081294:	10000326 	beq	r2,zero,50812a4 <I2C_MultipleRead+0xb4>
 5081298:	e17ffc17 	ldw	r5,-16(fp)
 508129c:	e13ffb17 	ldw	r4,-20(fp)
 50812a0:	508136c0 	call	508136c <i2c_start>
 50812a4:	e0bffd03 	ldbu	r2,-12(fp)
 50812a8:	10800054 	ori	r2,r2,1
 50812ac:	e0bffd05 	stb	r2,-12(fp)
 50812b0:	e0bff917 	ldw	r2,-28(fp)
 50812b4:	10000b26 	beq	r2,zero,50812e4 <I2C_MultipleRead+0xf4>
 50812b8:	e0bffd03 	ldbu	r2,-12(fp)
 50812bc:	10803fcc 	andi	r2,r2,255
 50812c0:	100d883a 	mov	r6,r2
 50812c4:	e17ffc17 	ldw	r5,-16(fp)
 50812c8:	e13ffb17 	ldw	r4,-20(fp)
 50812cc:	50814700 	call	5081470 <i2c_write>
 50812d0:	1000041e 	bne	r2,zero,50812e4 <I2C_MultipleRead+0xf4>
 50812d4:	e03ff915 	stw	zero,-28(fp)
 50812d8:	01014274 	movhi	r4,1289
 50812dc:	21176604 	addi	r4,r4,23960
 50812e0:	5081b2c0 	call	5081b2c <myprintf>
 50812e4:	e0bff917 	ldw	r2,-28(fp)
 50812e8:	10001726 	beq	r2,zero,5081348 <I2C_MultipleRead+0x158>
 50812ec:	e03ff815 	stw	zero,-32(fp)
 50812f0:	00001006 	br	5081334 <I2C_MultipleRead+0x144>
 50812f4:	e0bff817 	ldw	r2,-32(fp)
 50812f8:	e0fffe17 	ldw	r3,-8(fp)
 50812fc:	1889883a 	add	r4,r3,r2
 5081300:	e0bfff0b 	ldhu	r2,-4(fp)
 5081304:	10ffffc4 	addi	r3,r2,-1
 5081308:	e0bff817 	ldw	r2,-32(fp)
 508130c:	1884c03a 	cmpne	r2,r3,r2
 5081310:	10803fcc 	andi	r2,r2,255
 5081314:	100f883a 	mov	r7,r2
 5081318:	200d883a 	mov	r6,r4
 508131c:	e17ffc17 	ldw	r5,-16(fp)
 5081320:	e13ffb17 	ldw	r4,-20(fp)
 5081324:	50815a00 	call	50815a0 <i2c_read>
 5081328:	e0bff817 	ldw	r2,-32(fp)
 508132c:	10800044 	addi	r2,r2,1
 5081330:	e0bff815 	stw	r2,-32(fp)
 5081334:	e0bfff0b 	ldhu	r2,-4(fp)
 5081338:	e0fff817 	ldw	r3,-32(fp)
 508133c:	1880020e 	bge	r3,r2,5081348 <I2C_MultipleRead+0x158>
 5081340:	e0bff917 	ldw	r2,-28(fp)
 5081344:	103feb1e 	bne	r2,zero,50812f4 <I2C_MultipleRead+0x104>
 5081348:	e17ffc17 	ldw	r5,-16(fp)
 508134c:	e13ffb17 	ldw	r4,-20(fp)
 5081350:	50813f80 	call	50813f8 <i2c_stop>
 5081354:	e0bff917 	ldw	r2,-28(fp)
 5081358:	e037883a 	mov	sp,fp
 508135c:	dfc00117 	ldw	ra,4(sp)
 5081360:	df000017 	ldw	fp,0(sp)
 5081364:	dec00204 	addi	sp,sp,8
 5081368:	f800283a 	ret

0508136c <i2c_start>:
 508136c:	defffc04 	addi	sp,sp,-16
 5081370:	dfc00315 	stw	ra,12(sp)
 5081374:	df000215 	stw	fp,8(sp)
 5081378:	df000204 	addi	fp,sp,8
 508137c:	e13ffe15 	stw	r4,-8(fp)
 5081380:	e17fff15 	stw	r5,-4(fp)
 5081384:	e0bfff17 	ldw	r2,-4(fp)
 5081388:	10800104 	addi	r2,r2,4
 508138c:	1007883a 	mov	r3,r2
 5081390:	00800044 	movi	r2,1
 5081394:	18800035 	stwio	r2,0(r3)
 5081398:	e0bfff17 	ldw	r2,-4(fp)
 508139c:	00c00044 	movi	r3,1
 50813a0:	10c00035 	stwio	r3,0(r2)
 50813a4:	e0bffe17 	ldw	r2,-8(fp)
 50813a8:	00c00044 	movi	r3,1
 50813ac:	10c00035 	stwio	r3,0(r2)
 50813b0:	01000044 	movi	r4,1
 50813b4:	5093b380 	call	5093b38 <usleep>
 50813b8:	e0bfff17 	ldw	r2,-4(fp)
 50813bc:	0007883a 	mov	r3,zero
 50813c0:	10c00035 	stwio	r3,0(r2)
 50813c4:	01000044 	movi	r4,1
 50813c8:	5093b380 	call	5093b38 <usleep>
 50813cc:	e0bffe17 	ldw	r2,-8(fp)
 50813d0:	0007883a 	mov	r3,zero
 50813d4:	10c00035 	stwio	r3,0(r2)
 50813d8:	01000044 	movi	r4,1
 50813dc:	5093b380 	call	5093b38 <usleep>
 50813e0:	0001883a 	nop
 50813e4:	e037883a 	mov	sp,fp
 50813e8:	dfc00117 	ldw	ra,4(sp)
 50813ec:	df000017 	ldw	fp,0(sp)
 50813f0:	dec00204 	addi	sp,sp,8
 50813f4:	f800283a 	ret

050813f8 <i2c_stop>:
 50813f8:	defffc04 	addi	sp,sp,-16
 50813fc:	dfc00315 	stw	ra,12(sp)
 5081400:	df000215 	stw	fp,8(sp)
 5081404:	df000204 	addi	fp,sp,8
 5081408:	e13ffe15 	stw	r4,-8(fp)
 508140c:	e17fff15 	stw	r5,-4(fp)
 5081410:	e0bfff17 	ldw	r2,-4(fp)
 5081414:	10800104 	addi	r2,r2,4
 5081418:	1007883a 	mov	r3,r2
 508141c:	00800044 	movi	r2,1
 5081420:	18800035 	stwio	r2,0(r3)
 5081424:	e0bfff17 	ldw	r2,-4(fp)
 5081428:	0007883a 	mov	r3,zero
 508142c:	10c00035 	stwio	r3,0(r2)
 5081430:	e0bffe17 	ldw	r2,-8(fp)
 5081434:	00c00044 	movi	r3,1
 5081438:	10c00035 	stwio	r3,0(r2)
 508143c:	01000044 	movi	r4,1
 5081440:	5093b380 	call	5093b38 <usleep>
 5081444:	e0bfff17 	ldw	r2,-4(fp)
 5081448:	00c00044 	movi	r3,1
 508144c:	10c00035 	stwio	r3,0(r2)
 5081450:	01000044 	movi	r4,1
 5081454:	5093b380 	call	5093b38 <usleep>
 5081458:	0001883a 	nop
 508145c:	e037883a 	mov	sp,fp
 5081460:	dfc00117 	ldw	ra,4(sp)
 5081464:	df000017 	ldw	fp,0(sp)
 5081468:	dec00204 	addi	sp,sp,8
 508146c:	f800283a 	ret

05081470 <i2c_write>:
 5081470:	defff804 	addi	sp,sp,-32
 5081474:	dfc00715 	stw	ra,28(sp)
 5081478:	df000615 	stw	fp,24(sp)
 508147c:	df000604 	addi	fp,sp,24
 5081480:	e13ffd15 	stw	r4,-12(fp)
 5081484:	e17ffe15 	stw	r5,-8(fp)
 5081488:	3005883a 	mov	r2,r6
 508148c:	e0bfff05 	stb	r2,-4(fp)
 5081490:	00bfe004 	movi	r2,-128
 5081494:	e0bffa05 	stb	r2,-24(fp)
 5081498:	e0bffe17 	ldw	r2,-8(fp)
 508149c:	10800104 	addi	r2,r2,4
 50814a0:	1007883a 	mov	r3,r2
 50814a4:	00800044 	movi	r2,1
 50814a8:	18800035 	stwio	r2,0(r3)
 50814ac:	e03ffb15 	stw	zero,-20(fp)
 50814b0:	00001f06 	br	5081530 <i2c_write+0xc0>
 50814b4:	e0bffd17 	ldw	r2,-12(fp)
 50814b8:	0007883a 	mov	r3,zero
 50814bc:	10c00035 	stwio	r3,0(r2)
 50814c0:	e0ffff03 	ldbu	r3,-4(fp)
 50814c4:	e0bffa03 	ldbu	r2,-24(fp)
 50814c8:	1884703a 	and	r2,r3,r2
 50814cc:	10803fcc 	andi	r2,r2,255
 50814d0:	10000426 	beq	r2,zero,50814e4 <i2c_write+0x74>
 50814d4:	e0bffe17 	ldw	r2,-8(fp)
 50814d8:	00c00044 	movi	r3,1
 50814dc:	10c00035 	stwio	r3,0(r2)
 50814e0:	00000306 	br	50814f0 <i2c_write+0x80>
 50814e4:	e0bffe17 	ldw	r2,-8(fp)
 50814e8:	0007883a 	mov	r3,zero
 50814ec:	10c00035 	stwio	r3,0(r2)
 50814f0:	e0bffa03 	ldbu	r2,-24(fp)
 50814f4:	1004d07a 	srli	r2,r2,1
 50814f8:	e0bffa05 	stb	r2,-24(fp)
 50814fc:	e0bffd17 	ldw	r2,-12(fp)
 5081500:	00c00044 	movi	r3,1
 5081504:	10c00035 	stwio	r3,0(r2)
 5081508:	01000044 	movi	r4,1
 508150c:	5093b380 	call	5093b38 <usleep>
 5081510:	e0bffd17 	ldw	r2,-12(fp)
 5081514:	0007883a 	mov	r3,zero
 5081518:	10c00035 	stwio	r3,0(r2)
 508151c:	01000044 	movi	r4,1
 5081520:	5093b380 	call	5093b38 <usleep>
 5081524:	e0bffb17 	ldw	r2,-20(fp)
 5081528:	10800044 	addi	r2,r2,1
 508152c:	e0bffb15 	stw	r2,-20(fp)
 5081530:	e0bffb17 	ldw	r2,-20(fp)
 5081534:	10800210 	cmplti	r2,r2,8
 5081538:	103fde1e 	bne	r2,zero,50814b4 <i2c_write+0x44>
 508153c:	e0bffe17 	ldw	r2,-8(fp)
 5081540:	10800104 	addi	r2,r2,4
 5081544:	0007883a 	mov	r3,zero
 5081548:	10c00035 	stwio	r3,0(r2)
 508154c:	e0bffd17 	ldw	r2,-12(fp)
 5081550:	00c00044 	movi	r3,1
 5081554:	10c00035 	stwio	r3,0(r2)
 5081558:	01000044 	movi	r4,1
 508155c:	5093b380 	call	5093b38 <usleep>
 5081560:	e0bffe17 	ldw	r2,-8(fp)
 5081564:	10800037 	ldwio	r2,0(r2)
 5081568:	1005003a 	cmpeq	r2,r2,zero
 508156c:	10803fcc 	andi	r2,r2,255
 5081570:	e0bffc15 	stw	r2,-16(fp)
 5081574:	e0bffd17 	ldw	r2,-12(fp)
 5081578:	0007883a 	mov	r3,zero
 508157c:	10c00035 	stwio	r3,0(r2)
 5081580:	01000044 	movi	r4,1
 5081584:	5093b380 	call	5093b38 <usleep>
 5081588:	e0bffc17 	ldw	r2,-16(fp)
 508158c:	e037883a 	mov	sp,fp
 5081590:	dfc00117 	ldw	ra,4(sp)
 5081594:	df000017 	ldw	fp,0(sp)
 5081598:	dec00204 	addi	sp,sp,8
 508159c:	f800283a 	ret

050815a0 <i2c_read>:
 50815a0:	defff804 	addi	sp,sp,-32
 50815a4:	dfc00715 	stw	ra,28(sp)
 50815a8:	df000615 	stw	fp,24(sp)
 50815ac:	df000604 	addi	fp,sp,24
 50815b0:	e13ffc15 	stw	r4,-16(fp)
 50815b4:	e17ffd15 	stw	r5,-12(fp)
 50815b8:	e1bffe15 	stw	r6,-8(fp)
 50815bc:	e1ffff15 	stw	r7,-4(fp)
 50815c0:	e03ffa05 	stb	zero,-24(fp)
 50815c4:	e0bffd17 	ldw	r2,-12(fp)
 50815c8:	10800104 	addi	r2,r2,4
 50815cc:	0007883a 	mov	r3,zero
 50815d0:	10c00035 	stwio	r3,0(r2)
 50815d4:	e0bffc17 	ldw	r2,-16(fp)
 50815d8:	0007883a 	mov	r3,zero
 50815dc:	10c00035 	stwio	r3,0(r2)
 50815e0:	01000044 	movi	r4,1
 50815e4:	5093b380 	call	5093b38 <usleep>
 50815e8:	e03ffb15 	stw	zero,-20(fp)
 50815ec:	00001606 	br	5081648 <i2c_read+0xa8>
 50815f0:	e0bffa03 	ldbu	r2,-24(fp)
 50815f4:	1085883a 	add	r2,r2,r2
 50815f8:	e0bffa05 	stb	r2,-24(fp)
 50815fc:	e0bffc17 	ldw	r2,-16(fp)
 5081600:	00c00044 	movi	r3,1
 5081604:	10c00035 	stwio	r3,0(r2)
 5081608:	01000044 	movi	r4,1
 508160c:	5093b380 	call	5093b38 <usleep>
 5081610:	e0bffd17 	ldw	r2,-12(fp)
 5081614:	10800037 	ldwio	r2,0(r2)
 5081618:	10000326 	beq	r2,zero,5081628 <i2c_read+0x88>
 508161c:	e0bffa03 	ldbu	r2,-24(fp)
 5081620:	10800054 	ori	r2,r2,1
 5081624:	e0bffa05 	stb	r2,-24(fp)
 5081628:	e0bffc17 	ldw	r2,-16(fp)
 508162c:	0007883a 	mov	r3,zero
 5081630:	10c00035 	stwio	r3,0(r2)
 5081634:	01000044 	movi	r4,1
 5081638:	5093b380 	call	5093b38 <usleep>
 508163c:	e0bffb17 	ldw	r2,-20(fp)
 5081640:	10800044 	addi	r2,r2,1
 5081644:	e0bffb15 	stw	r2,-20(fp)
 5081648:	e0bffb17 	ldw	r2,-20(fp)
 508164c:	10800210 	cmplti	r2,r2,8
 5081650:	103fe71e 	bne	r2,zero,50815f0 <i2c_read+0x50>
 5081654:	e0bffc17 	ldw	r2,-16(fp)
 5081658:	0007883a 	mov	r3,zero
 508165c:	10c00035 	stwio	r3,0(r2)
 5081660:	e0bffd17 	ldw	r2,-12(fp)
 5081664:	10800104 	addi	r2,r2,4
 5081668:	1007883a 	mov	r3,r2
 508166c:	00800044 	movi	r2,1
 5081670:	18800035 	stwio	r2,0(r3)
 5081674:	e0bfff17 	ldw	r2,-4(fp)
 5081678:	10000426 	beq	r2,zero,508168c <i2c_read+0xec>
 508167c:	e0bffd17 	ldw	r2,-12(fp)
 5081680:	0007883a 	mov	r3,zero
 5081684:	10c00035 	stwio	r3,0(r2)
 5081688:	00000306 	br	5081698 <i2c_read+0xf8>
 508168c:	e0bffd17 	ldw	r2,-12(fp)
 5081690:	00c00044 	movi	r3,1
 5081694:	10c00035 	stwio	r3,0(r2)
 5081698:	e0bffc17 	ldw	r2,-16(fp)
 508169c:	00c00044 	movi	r3,1
 50816a0:	10c00035 	stwio	r3,0(r2)
 50816a4:	01000044 	movi	r4,1
 50816a8:	5093b380 	call	5093b38 <usleep>
 50816ac:	e0bffc17 	ldw	r2,-16(fp)
 50816b0:	0007883a 	mov	r3,zero
 50816b4:	10c00035 	stwio	r3,0(r2)
 50816b8:	01000044 	movi	r4,1
 50816bc:	5093b380 	call	5093b38 <usleep>
 50816c0:	e0bffd17 	ldw	r2,-12(fp)
 50816c4:	0007883a 	mov	r3,zero
 50816c8:	10c00035 	stwio	r3,0(r2)
 50816cc:	01000044 	movi	r4,1
 50816d0:	5093b380 	call	5093b38 <usleep>
 50816d4:	e0bffe17 	ldw	r2,-8(fp)
 50816d8:	e0fffa03 	ldbu	r3,-24(fp)
 50816dc:	10c00005 	stb	r3,0(r2)
 50816e0:	0001883a 	nop
 50816e4:	e037883a 	mov	sp,fp
 50816e8:	dfc00117 	ldw	ra,4(sp)
 50816ec:	df000017 	ldw	fp,0(sp)
 50816f0:	dec00204 	addi	sp,sp,8
 50816f4:	f800283a 	ret

050816f8 <LED_Display>:
 50816f8:	defffd04 	addi	sp,sp,-12
 50816fc:	df000215 	stw	fp,8(sp)
 5081700:	df000204 	addi	fp,sp,8
 5081704:	e13fff15 	stw	r4,-4(fp)
 5081708:	e0bfff17 	ldw	r2,-4(fp)
 508170c:	e0bffe15 	stw	r2,-8(fp)
 5081710:	e0fffe17 	ldw	r3,-8(fp)
 5081714:	00810034 	movhi	r2,1024
 5081718:	10801404 	addi	r2,r2,80
 508171c:	10c00035 	stwio	r3,0(r2)
 5081720:	0001883a 	nop
 5081724:	e037883a 	mov	sp,fp
 5081728:	df000017 	ldw	fp,0(sp)
 508172c:	dec00104 	addi	sp,sp,4
 5081730:	f800283a 	ret

05081734 <LED_AllOn>:
 5081734:	defffe04 	addi	sp,sp,-8
 5081738:	dfc00115 	stw	ra,4(sp)
 508173c:	df000015 	stw	fp,0(sp)
 5081740:	d839883a 	mov	fp,sp
 5081744:	013fffc4 	movi	r4,-1
 5081748:	50816f80 	call	50816f8 <LED_Display>
 508174c:	0001883a 	nop
 5081750:	e037883a 	mov	sp,fp
 5081754:	dfc00117 	ldw	ra,4(sp)
 5081758:	df000017 	ldw	fp,0(sp)
 508175c:	dec00204 	addi	sp,sp,8
 5081760:	f800283a 	ret

05081764 <LED_AllOff>:
 5081764:	defffe04 	addi	sp,sp,-8
 5081768:	dfc00115 	stw	ra,4(sp)
 508176c:	df000015 	stw	fp,0(sp)
 5081770:	d839883a 	mov	fp,sp
 5081774:	0009883a 	mov	r4,zero
 5081778:	50816f80 	call	50816f8 <LED_Display>
 508177c:	0001883a 	nop
 5081780:	e037883a 	mov	sp,fp
 5081784:	dfc00117 	ldw	ra,4(sp)
 5081788:	df000017 	ldw	fp,0(sp)
 508178c:	dec00204 	addi	sp,sp,8
 5081790:	f800283a 	ret

05081794 <LED_LightCount>:
 5081794:	defffb04 	addi	sp,sp,-20
 5081798:	dfc00415 	stw	ra,16(sp)
 508179c:	df000315 	stw	fp,12(sp)
 50817a0:	df000304 	addi	fp,sp,12
 50817a4:	2005883a 	mov	r2,r4
 50817a8:	e0bfff05 	stb	r2,-4(fp)
 50817ac:	e03ffd15 	stw	zero,-12(fp)
 50817b0:	e03ffe15 	stw	zero,-8(fp)
 50817b4:	00000906 	br	50817dc <LED_LightCount+0x48>
 50817b8:	e0bffd17 	ldw	r2,-12(fp)
 50817bc:	1085883a 	add	r2,r2,r2
 50817c0:	e0bffd15 	stw	r2,-12(fp)
 50817c4:	e0bffd17 	ldw	r2,-12(fp)
 50817c8:	10800054 	ori	r2,r2,1
 50817cc:	e0bffd15 	stw	r2,-12(fp)
 50817d0:	e0bffe17 	ldw	r2,-8(fp)
 50817d4:	10800044 	addi	r2,r2,1
 50817d8:	e0bffe15 	stw	r2,-8(fp)
 50817dc:	e0bfff03 	ldbu	r2,-4(fp)
 50817e0:	e0fffe17 	ldw	r3,-8(fp)
 50817e4:	18bff416 	blt	r3,r2,50817b8 <LED_LightCount+0x24>
 50817e8:	e13ffd17 	ldw	r4,-12(fp)
 50817ec:	50816f80 	call	50816f8 <LED_Display>
 50817f0:	0001883a 	nop
 50817f4:	e037883a 	mov	sp,fp
 50817f8:	dfc00117 	ldw	ra,4(sp)
 50817fc:	df000017 	ldw	fp,0(sp)
 5081800:	dec00204 	addi	sp,sp,8
 5081804:	f800283a 	ret

05081808 <SEG7_Clear>:
 5081808:	defffe04 	addi	sp,sp,-8
 508180c:	df000115 	stw	fp,4(sp)
 5081810:	df000104 	addi	fp,sp,4
 5081814:	e03fff15 	stw	zero,-4(fp)
 5081818:	00000b06 	br	5081848 <SEG7_Clear+0x40>
 508181c:	e0bfff17 	ldw	r2,-4(fp)
 5081820:	1085883a 	add	r2,r2,r2
 5081824:	1085883a 	add	r2,r2,r2
 5081828:	1007883a 	mov	r3,r2
 508182c:	00810034 	movhi	r2,1024
 5081830:	1885883a 	add	r2,r3,r2
 5081834:	0007883a 	mov	r3,zero
 5081838:	10c00035 	stwio	r3,0(r2)
 508183c:	e0bfff17 	ldw	r2,-4(fp)
 5081840:	10800044 	addi	r2,r2,1
 5081844:	e0bfff15 	stw	r2,-4(fp)
 5081848:	e0bfff17 	ldw	r2,-4(fp)
 508184c:	10800190 	cmplti	r2,r2,6
 5081850:	103ff21e 	bne	r2,zero,508181c <SEG7_Clear+0x14>
 5081854:	0001883a 	nop
 5081858:	e037883a 	mov	sp,fp
 508185c:	df000017 	ldw	fp,0(sp)
 5081860:	dec00104 	addi	sp,sp,4
 5081864:	f800283a 	ret

05081868 <SEG7_Full>:
 5081868:	defffe04 	addi	sp,sp,-8
 508186c:	df000115 	stw	fp,4(sp)
 5081870:	df000104 	addi	fp,sp,4
 5081874:	e03fff15 	stw	zero,-4(fp)
 5081878:	00000b06 	br	50818a8 <SEG7_Full+0x40>
 508187c:	e0bfff17 	ldw	r2,-4(fp)
 5081880:	1085883a 	add	r2,r2,r2
 5081884:	1085883a 	add	r2,r2,r2
 5081888:	1007883a 	mov	r3,r2
 508188c:	00810034 	movhi	r2,1024
 5081890:	1885883a 	add	r2,r3,r2
 5081894:	00c03fc4 	movi	r3,255
 5081898:	10c00035 	stwio	r3,0(r2)
 508189c:	e0bfff17 	ldw	r2,-4(fp)
 50818a0:	10800044 	addi	r2,r2,1
 50818a4:	e0bfff15 	stw	r2,-4(fp)
 50818a8:	e0bfff17 	ldw	r2,-4(fp)
 50818ac:	10800190 	cmplti	r2,r2,6
 50818b0:	103ff21e 	bne	r2,zero,508187c <SEG7_Full+0x14>
 50818b4:	0001883a 	nop
 50818b8:	e037883a 	mov	sp,fp
 50818bc:	df000017 	ldw	fp,0(sp)
 50818c0:	dec00104 	addi	sp,sp,4
 50818c4:	f800283a 	ret

050818c8 <SEG7_Number>:
 50818c8:	defffe04 	addi	sp,sp,-8
 50818cc:	df000115 	stw	fp,4(sp)
 50818d0:	df000104 	addi	fp,sp,4
 50818d4:	e03fff15 	stw	zero,-4(fp)
 50818d8:	00001006 	br	508191c <SEG7_Number+0x54>
 50818dc:	e0bfff17 	ldw	r2,-4(fp)
 50818e0:	1085883a 	add	r2,r2,r2
 50818e4:	1085883a 	add	r2,r2,r2
 50818e8:	1007883a 	mov	r3,r2
 50818ec:	00810034 	movhi	r2,1024
 50818f0:	1887883a 	add	r3,r3,r2
 50818f4:	00814274 	movhi	r2,1289
 50818f8:	109ac404 	addi	r2,r2,27408
 50818fc:	e13fff17 	ldw	r4,-4(fp)
 5081900:	1105883a 	add	r2,r2,r4
 5081904:	10800003 	ldbu	r2,0(r2)
 5081908:	10803fcc 	andi	r2,r2,255
 508190c:	18800035 	stwio	r2,0(r3)
 5081910:	e0bfff17 	ldw	r2,-4(fp)
 5081914:	10800044 	addi	r2,r2,1
 5081918:	e0bfff15 	stw	r2,-4(fp)
 508191c:	e0bfff17 	ldw	r2,-4(fp)
 5081920:	10800190 	cmplti	r2,r2,6
 5081924:	103fed1e 	bne	r2,zero,50818dc <SEG7_Number+0x14>
 5081928:	0001883a 	nop
 508192c:	e037883a 	mov	sp,fp
 5081930:	df000017 	ldw	fp,0(sp)
 5081934:	dec00104 	addi	sp,sp,4
 5081938:	f800283a 	ret

0508193c <SEG7_Hex>:
 508193c:	defffb04 	addi	sp,sp,-20
 5081940:	df000415 	stw	fp,16(sp)
 5081944:	df000404 	addi	fp,sp,16
 5081948:	e13ffe15 	stw	r4,-8(fp)
 508194c:	2805883a 	mov	r2,r5
 5081950:	e0bfff05 	stb	r2,-4(fp)
 5081954:	00800044 	movi	r2,1
 5081958:	e0bffc05 	stb	r2,-16(fp)
 508195c:	e03ffc45 	stb	zero,-15(fp)
 5081960:	e03ffd15 	stw	zero,-12(fp)
 5081964:	00002106 	br	50819ec <SEG7_Hex+0xb0>
 5081968:	e0bffe17 	ldw	r2,-8(fp)
 508196c:	10c003cc 	andi	r3,r2,15
 5081970:	00814274 	movhi	r2,1289
 5081974:	109ac404 	addi	r2,r2,27408
 5081978:	10c5883a 	add	r2,r2,r3
 508197c:	10800003 	ldbu	r2,0(r2)
 5081980:	e0bffc45 	stb	r2,-15(fp)
 5081984:	e0bffe17 	ldw	r2,-8(fp)
 5081988:	1004d13a 	srli	r2,r2,4
 508198c:	e0bffe15 	stw	r2,-8(fp)
 5081990:	e0ffff03 	ldbu	r3,-4(fp)
 5081994:	e0bffc03 	ldbu	r2,-16(fp)
 5081998:	1884703a 	and	r2,r3,r2
 508199c:	10803fcc 	andi	r2,r2,255
 50819a0:	10000426 	beq	r2,zero,50819b4 <SEG7_Hex+0x78>
 50819a4:	e0fffc43 	ldbu	r3,-15(fp)
 50819a8:	00bfe004 	movi	r2,-128
 50819ac:	1884b03a 	or	r2,r3,r2
 50819b0:	e0bffc45 	stb	r2,-15(fp)
 50819b4:	e0bffc03 	ldbu	r2,-16(fp)
 50819b8:	1085883a 	add	r2,r2,r2
 50819bc:	e0bffc05 	stb	r2,-16(fp)
 50819c0:	e0bffd17 	ldw	r2,-12(fp)
 50819c4:	1085883a 	add	r2,r2,r2
 50819c8:	1085883a 	add	r2,r2,r2
 50819cc:	1007883a 	mov	r3,r2
 50819d0:	00810034 	movhi	r2,1024
 50819d4:	1885883a 	add	r2,r3,r2
 50819d8:	e0fffc43 	ldbu	r3,-15(fp)
 50819dc:	10c00035 	stwio	r3,0(r2)
 50819e0:	e0bffd17 	ldw	r2,-12(fp)
 50819e4:	10800044 	addi	r2,r2,1
 50819e8:	e0bffd15 	stw	r2,-12(fp)
 50819ec:	e0bffd17 	ldw	r2,-12(fp)
 50819f0:	10800190 	cmplti	r2,r2,6
 50819f4:	103fdc1e 	bne	r2,zero,5081968 <SEG7_Hex+0x2c>
 50819f8:	0001883a 	nop
 50819fc:	e037883a 	mov	sp,fp
 5081a00:	df000017 	ldw	fp,0(sp)
 5081a04:	dec00104 	addi	sp,sp,4
 5081a08:	f800283a 	ret

05081a0c <SEG7_Decimal>:
 5081a0c:	defffa04 	addi	sp,sp,-24
 5081a10:	dfc00515 	stw	ra,20(sp)
 5081a14:	df000415 	stw	fp,16(sp)
 5081a18:	df000404 	addi	fp,sp,16
 5081a1c:	e13ffe15 	stw	r4,-8(fp)
 5081a20:	2805883a 	mov	r2,r5
 5081a24:	e0bfff05 	stb	r2,-4(fp)
 5081a28:	00800044 	movi	r2,1
 5081a2c:	e0bffc05 	stb	r2,-16(fp)
 5081a30:	e03ffc45 	stb	zero,-15(fp)
 5081a34:	e03ffd15 	stw	zero,-12(fp)
 5081a38:	00002606 	br	5081ad4 <SEG7_Decimal+0xc8>
 5081a3c:	e0bffe17 	ldw	r2,-8(fp)
 5081a40:	01400284 	movi	r5,10
 5081a44:	1009883a 	mov	r4,r2
 5081a48:	50832180 	call	5083218 <__umodsi3>
 5081a4c:	1007883a 	mov	r3,r2
 5081a50:	00814274 	movhi	r2,1289
 5081a54:	109ac404 	addi	r2,r2,27408
 5081a58:	10c5883a 	add	r2,r2,r3
 5081a5c:	10800003 	ldbu	r2,0(r2)
 5081a60:	e0bffc45 	stb	r2,-15(fp)
 5081a64:	e0bffe17 	ldw	r2,-8(fp)
 5081a68:	01400284 	movi	r5,10
 5081a6c:	1009883a 	mov	r4,r2
 5081a70:	50831b40 	call	50831b4 <__udivsi3>
 5081a74:	e0bffe15 	stw	r2,-8(fp)
 5081a78:	e0ffff03 	ldbu	r3,-4(fp)
 5081a7c:	e0bffc03 	ldbu	r2,-16(fp)
 5081a80:	1884703a 	and	r2,r3,r2
 5081a84:	10803fcc 	andi	r2,r2,255
 5081a88:	10000426 	beq	r2,zero,5081a9c <SEG7_Decimal+0x90>
 5081a8c:	e0fffc43 	ldbu	r3,-15(fp)
 5081a90:	00bfe004 	movi	r2,-128
 5081a94:	1884b03a 	or	r2,r3,r2
 5081a98:	e0bffc45 	stb	r2,-15(fp)
 5081a9c:	e0bffc03 	ldbu	r2,-16(fp)
 5081aa0:	1085883a 	add	r2,r2,r2
 5081aa4:	e0bffc05 	stb	r2,-16(fp)
 5081aa8:	e0bffd17 	ldw	r2,-12(fp)
 5081aac:	1085883a 	add	r2,r2,r2
 5081ab0:	1085883a 	add	r2,r2,r2
 5081ab4:	1007883a 	mov	r3,r2
 5081ab8:	00810034 	movhi	r2,1024
 5081abc:	1885883a 	add	r2,r3,r2
 5081ac0:	e0fffc43 	ldbu	r3,-15(fp)
 5081ac4:	10c00035 	stwio	r3,0(r2)
 5081ac8:	e0bffd17 	ldw	r2,-12(fp)
 5081acc:	10800044 	addi	r2,r2,1
 5081ad0:	e0bffd15 	stw	r2,-12(fp)
 5081ad4:	e0bffd17 	ldw	r2,-12(fp)
 5081ad8:	10800190 	cmplti	r2,r2,6
 5081adc:	103fd71e 	bne	r2,zero,5081a3c <SEG7_Decimal+0x30>
 5081ae0:	0001883a 	nop
 5081ae4:	e037883a 	mov	sp,fp
 5081ae8:	dfc00117 	ldw	ra,4(sp)
 5081aec:	df000017 	ldw	fp,0(sp)
 5081af0:	dec00204 	addi	sp,sp,8
 5081af4:	f800283a 	ret

05081af8 <debug_output>:
 5081af8:	defffd04 	addi	sp,sp,-12
 5081afc:	dfc00215 	stw	ra,8(sp)
 5081b00:	df000115 	stw	fp,4(sp)
 5081b04:	df000104 	addi	fp,sp,4
 5081b08:	e13fff15 	stw	r4,-4(fp)
 5081b0c:	e13fff17 	ldw	r4,-4(fp)
 5081b10:	50850380 	call	5085038 <printf>
 5081b14:	0001883a 	nop
 5081b18:	e037883a 	mov	sp,fp
 5081b1c:	dfc00117 	ldw	ra,4(sp)
 5081b20:	df000017 	ldw	fp,0(sp)
 5081b24:	dec00204 	addi	sp,sp,8
 5081b28:	f800283a 	ret

05081b2c <myprintf>:
 5081b2c:	deff7804 	addi	sp,sp,-544
 5081b30:	dfc08415 	stw	ra,528(sp)
 5081b34:	df008315 	stw	fp,524(sp)
 5081b38:	df008304 	addi	fp,sp,524
 5081b3c:	e13fff15 	stw	r4,-4(fp)
 5081b40:	e1400215 	stw	r5,8(fp)
 5081b44:	e1800315 	stw	r6,12(fp)
 5081b48:	e1c00415 	stw	r7,16(fp)
 5081b4c:	e0800204 	addi	r2,fp,8
 5081b50:	e0bffe15 	stw	r2,-8(fp)
 5081b54:	e0fffe17 	ldw	r3,-8(fp)
 5081b58:	e0bf7e04 	addi	r2,fp,-520
 5081b5c:	180f883a 	mov	r7,r3
 5081b60:	e1bfff17 	ldw	r6,-4(fp)
 5081b64:	01408004 	movi	r5,512
 5081b68:	1009883a 	mov	r4,r2
 5081b6c:	508983c0 	call	508983c <vsnprintf>
 5081b70:	e0bf7d15 	stw	r2,-524(fp)
 5081b74:	e0bf7e04 	addi	r2,fp,-520
 5081b78:	1009883a 	mov	r4,r2
 5081b7c:	5081af80 	call	5081af8 <debug_output>
 5081b80:	e0bf7d17 	ldw	r2,-524(fp)
 5081b84:	e037883a 	mov	sp,fp
 5081b88:	dfc00117 	ldw	ra,4(sp)
 5081b8c:	df000017 	ldw	fp,0(sp)
 5081b90:	dec00504 	addi	sp,sp,20
 5081b94:	f800283a 	ret

05081b98 <myprintf_hex_array>:
 5081b98:	defff704 	addi	sp,sp,-36
 5081b9c:	dfc00815 	stw	ra,32(sp)
 5081ba0:	df000715 	stw	fp,28(sp)
 5081ba4:	df000704 	addi	fp,sp,28
 5081ba8:	e13ffe15 	stw	r4,-8(fp)
 5081bac:	e17fff15 	stw	r5,-4(fp)
 5081bb0:	e03ff915 	stw	zero,-28(fp)
 5081bb4:	00001106 	br	5081bfc <myprintf_hex_array+0x64>
 5081bb8:	e0bff917 	ldw	r2,-28(fp)
 5081bbc:	e0fffe17 	ldw	r3,-8(fp)
 5081bc0:	1885883a 	add	r2,r3,r2
 5081bc4:	10800003 	ldbu	r2,0(r2)
 5081bc8:	10c03fcc 	andi	r3,r2,255
 5081bcc:	e0bffa04 	addi	r2,fp,-24
 5081bd0:	180d883a 	mov	r6,r3
 5081bd4:	01414274 	movhi	r5,1289
 5081bd8:	29576f04 	addi	r5,r5,23996
 5081bdc:	1009883a 	mov	r4,r2
 5081be0:	50851a00 	call	50851a0 <sprintf>
 5081be4:	e0bffa04 	addi	r2,fp,-24
 5081be8:	1009883a 	mov	r4,r2
 5081bec:	5081b2c0 	call	5081b2c <myprintf>
 5081bf0:	e0bff917 	ldw	r2,-28(fp)
 5081bf4:	10800044 	addi	r2,r2,1
 5081bf8:	e0bff915 	stw	r2,-28(fp)
 5081bfc:	e0fff917 	ldw	r3,-28(fp)
 5081c00:	e0bfff17 	ldw	r2,-4(fp)
 5081c04:	18bfec16 	blt	r3,r2,5081bb8 <myprintf_hex_array+0x20>
 5081c08:	e0bfff17 	ldw	r2,-4(fp)
 5081c0c:	e037883a 	mov	sp,fp
 5081c10:	dfc00117 	ldw	ra,4(sp)
 5081c14:	df000017 	ldw	fp,0(sp)
 5081c18:	dec00204 	addi	sp,sp,8
 5081c1c:	f800283a 	ret

05081c20 <myprintf_dword_array>:
 5081c20:	defff704 	addi	sp,sp,-36
 5081c24:	dfc00815 	stw	ra,32(sp)
 5081c28:	df000715 	stw	fp,28(sp)
 5081c2c:	df000704 	addi	fp,sp,28
 5081c30:	e13ffe15 	stw	r4,-8(fp)
 5081c34:	e17fff15 	stw	r5,-4(fp)
 5081c38:	e03ff915 	stw	zero,-28(fp)
 5081c3c:	00001306 	br	5081c8c <myprintf_dword_array+0x6c>
 5081c40:	e0bff917 	ldw	r2,-28(fp)
 5081c44:	1085883a 	add	r2,r2,r2
 5081c48:	1085883a 	add	r2,r2,r2
 5081c4c:	1007883a 	mov	r3,r2
 5081c50:	e0bffe17 	ldw	r2,-8(fp)
 5081c54:	10c5883a 	add	r2,r2,r3
 5081c58:	10c00017 	ldw	r3,0(r2)
 5081c5c:	e0bffa04 	addi	r2,fp,-24
 5081c60:	180d883a 	mov	r6,r3
 5081c64:	01414274 	movhi	r5,1289
 5081c68:	29577104 	addi	r5,r5,24004
 5081c6c:	1009883a 	mov	r4,r2
 5081c70:	50851a00 	call	50851a0 <sprintf>
 5081c74:	e0bffa04 	addi	r2,fp,-24
 5081c78:	1009883a 	mov	r4,r2
 5081c7c:	5081b2c0 	call	5081b2c <myprintf>
 5081c80:	e0bff917 	ldw	r2,-28(fp)
 5081c84:	10800044 	addi	r2,r2,1
 5081c88:	e0bff915 	stw	r2,-28(fp)
 5081c8c:	e0fff917 	ldw	r3,-28(fp)
 5081c90:	e0bfff17 	ldw	r2,-4(fp)
 5081c94:	18bfea16 	blt	r3,r2,5081c40 <myprintf_dword_array+0x20>
 5081c98:	e0bfff17 	ldw	r2,-4(fp)
 5081c9c:	e037883a 	mov	sp,fp
 5081ca0:	dfc00117 	ldw	ra,4(sp)
 5081ca4:	df000017 	ldw	fp,0(sp)
 5081ca8:	dec00204 	addi	sp,sp,8
 5081cac:	f800283a 	ret

05081cb0 <ui_is_mic_record>:
int record_sample_rate;

///////////////////////////////////////////////////////////////////////////////
//////////// Internal function implement(body) ////////////////////////////////
///////////////////////////////////////////////////////////////////////////////
bool ui_is_mic_record(void){
 5081cb0:	defffe04 	addi	sp,sp,-8
 5081cb4:	df000115 	stw	fp,4(sp)
 5081cb8:	df000104 	addi	fp,sp,4
    bool bMicRecord;
    bMicRecord = (IORD(SW_BASE, 0) & 0x01)?FALSE:TRUE;
 5081cbc:	00810034 	movhi	r2,1024
 5081cc0:	10801004 	addi	r2,r2,64
 5081cc4:	10800037 	ldwio	r2,0(r2)
 5081cc8:	1080004c 	andi	r2,r2,1
 5081ccc:	1005003a 	cmpeq	r2,r2,zero
 5081cd0:	10803fcc 	andi	r2,r2,255
 5081cd4:	e0bfff15 	stw	r2,-4(fp)
    return bMicRecord;
 5081cd8:	e0bfff17 	ldw	r2,-4(fp)
}
 5081cdc:	e037883a 	mov	sp,fp
 5081ce0:	df000017 	ldw	fp,0(sp)
 5081ce4:	dec00104 	addi	sp,sp,4
 5081ce8:	f800283a 	ret

05081cec <ui_is_mic_boost>:

bool ui_is_mic_boost(void){
 5081cec:	defffe04 	addi	sp,sp,-8
 5081cf0:	df000115 	stw	fp,4(sp)
 5081cf4:	df000104 	addi	fp,sp,4
    bool bMicBoost;
    bMicBoost = (IORD(SW_BASE, 0) & (0x01 << 1))?TRUE:FALSE;
 5081cf8:	00810034 	movhi	r2,1024
 5081cfc:	10801004 	addi	r2,r2,64
 5081d00:	10800037 	ldwio	r2,0(r2)
 5081d04:	1080008c 	andi	r2,r2,2
 5081d08:	1004c03a 	cmpne	r2,r2,zero
 5081d0c:	10803fcc 	andi	r2,r2,255
 5081d10:	e0bfff15 	stw	r2,-4(fp)
    return bMicBoost;
 5081d14:	e0bfff17 	ldw	r2,-4(fp)
}
 5081d18:	e037883a 	mov	sp,fp
 5081d1c:	df000017 	ldw	fp,0(sp)
 5081d20:	dec00104 	addi	sp,sp,4
 5081d24:	f800283a 	ret

05081d28 <ui_is_dac_zero_cross>:

bool ui_is_dac_zero_cross(void){
 5081d28:	defffe04 	addi	sp,sp,-8
 5081d2c:	df000115 	stw	fp,4(sp)
 5081d30:	df000104 	addi	fp,sp,4
    bool bZeroCross;
    bZeroCross = (IORD(SW_BASE, 0) & (0x01 << 2))?TRUE:FALSE;
 5081d34:	00810034 	movhi	r2,1024
 5081d38:	10801004 	addi	r2,r2,64
 5081d3c:	10800037 	ldwio	r2,0(r2)
 5081d40:	1080010c 	andi	r2,r2,4
 5081d44:	1004c03a 	cmpne	r2,r2,zero
 5081d48:	10803fcc 	andi	r2,r2,255
 5081d4c:	e0bfff15 	stw	r2,-4(fp)
    return bZeroCross;
 5081d50:	e0bfff17 	ldw	r2,-4(fp)
}
 5081d54:	e037883a 	mov	sp,fp
 5081d58:	df000017 	ldw	fp,0(sp)
 5081d5c:	dec00104 	addi	sp,sp,4
 5081d60:	f800283a 	ret

05081d64 <ui_get_sample_rate>:

int ui_get_sample_rate(void){
 5081d64:	defffd04 	addi	sp,sp,-12
 5081d68:	df000215 	stw	fp,8(sp)
 5081d6c:	df000204 	addi	fp,sp,8
    int sample_rate = 96000;
 5081d70:	00800074 	movhi	r2,1
 5081d74:	109dc004 	addi	r2,r2,30464
 5081d78:	e0bffe15 	stw	r2,-8(fp)
    alt_u32 mask;
    mask = IORD(SW_BASE, 0);
 5081d7c:	00810034 	movhi	r2,1024
 5081d80:	10801004 	addi	r2,r2,64
 5081d84:	10800037 	ldwio	r2,0(r2)
 5081d88:	e0bfff15 	stw	r2,-4(fp)
    mask = (mask >> 3) & 0x07;
 5081d8c:	e0bfff17 	ldw	r2,-4(fp)
 5081d90:	1004d0fa 	srli	r2,r2,3
 5081d94:	108001cc 	andi	r2,r2,7
 5081d98:	e0bfff15 	stw	r2,-4(fp)
    if (mask == 1)
 5081d9c:	e0bfff17 	ldw	r2,-4(fp)
 5081da0:	10800058 	cmpnei	r2,r2,1
 5081da4:	1000031e 	bne	r2,zero,5081db4 <ui_get_sample_rate+0x50>
        sample_rate = 48000;
 5081da8:	00aee014 	movui	r2,48000
 5081dac:	e0bffe15 	stw	r2,-8(fp)
 5081db0:	00001106 	br	5081df8 <ui_get_sample_rate+0x94>
    else if (mask == 2)
 5081db4:	e0bfff17 	ldw	r2,-4(fp)
 5081db8:	10800098 	cmpnei	r2,r2,2
 5081dbc:	1000031e 	bne	r2,zero,5081dcc <ui_get_sample_rate+0x68>
        sample_rate = 44100;
 5081dc0:	00ab1114 	movui	r2,44100
 5081dc4:	e0bffe15 	stw	r2,-8(fp)
 5081dc8:	00000b06 	br	5081df8 <ui_get_sample_rate+0x94>
    else if (mask == 3)
 5081dcc:	e0bfff17 	ldw	r2,-4(fp)
 5081dd0:	108000d8 	cmpnei	r2,r2,3
 5081dd4:	1000031e 	bne	r2,zero,5081de4 <ui_get_sample_rate+0x80>
        sample_rate = 32000;
 5081dd8:	009f4004 	movi	r2,32000
 5081ddc:	e0bffe15 	stw	r2,-8(fp)
 5081de0:	00000506 	br	5081df8 <ui_get_sample_rate+0x94>
    else if (mask == 4)
 5081de4:	e0bfff17 	ldw	r2,-4(fp)
 5081de8:	10800118 	cmpnei	r2,r2,4
 5081dec:	1000021e 	bne	r2,zero,5081df8 <ui_get_sample_rate+0x94>
        sample_rate = 8000;
 5081df0:	0087d004 	movi	r2,8000
 5081df4:	e0bffe15 	stw	r2,-8(fp)
    return sample_rate;
 5081df8:	e0bffe17 	ldw	r2,-8(fp)
}
 5081dfc:	e037883a 	mov	sp,fp
 5081e00:	df000017 	ldw	fp,0(sp)
 5081e04:	dec00104 	addi	sp,sp,4
 5081e08:	f800283a 	ret

05081e0c <button_monitor_isr>:

void button_monitor_isr(void* context, alt_u32 id){
 5081e0c:	defffc04 	addi	sp,sp,-16
 5081e10:	df000315 	stw	fp,12(sp)
 5081e14:	df000304 	addi	fp,sp,12
 5081e18:	e13ffe15 	stw	r4,-8(fp)
 5081e1c:	e17fff15 	stw	r5,-4(fp)
    volatile alt_u32* pPressedMask = (volatile alt_u32*)context;
 5081e20:	e0bffe17 	ldw	r2,-8(fp)
 5081e24:	e0bffd15 	stw	r2,-12(fp)
    *pPressedMask |= IORD_ALTERA_AVALON_PIO_EDGE_CAP(KEY_BASE) & 0x0F;  // 4-button
 5081e28:	00810034 	movhi	r2,1024
 5081e2c:	10801b04 	addi	r2,r2,108
 5081e30:	10800037 	ldwio	r2,0(r2)
 5081e34:	10c003cc 	andi	r3,r2,15
 5081e38:	e0bffd17 	ldw	r2,-12(fp)
 5081e3c:	10800017 	ldw	r2,0(r2)
 5081e40:	10c6b03a 	or	r3,r2,r3
 5081e44:	e0bffd17 	ldw	r2,-12(fp)
 5081e48:	10c00015 	stw	r3,0(r2)

    IOWR_ALTERA_AVALON_PIO_EDGE_CAP(KEY_BASE,0);
 5081e4c:	0007883a 	mov	r3,zero
 5081e50:	00810034 	movhi	r2,1024
 5081e54:	10801b04 	addi	r2,r2,108
 5081e58:	10c00035 	stwio	r3,0(r2)
}
 5081e5c:	0001883a 	nop
 5081e60:	e037883a 	mov	sp,fp
 5081e64:	df000017 	ldw	fp,0(sp)
 5081e68:	dec00104 	addi	sp,sp,4
 5081e6c:	f800283a 	ret

05081e70 <button_monitor_start>:

bool button_monitor_start(volatile alt_u32 *pPressedMask){
 5081e70:	defffc04 	addi	sp,sp,-16
 5081e74:	dfc00315 	stw	ra,12(sp)
 5081e78:	df000215 	stw	fp,8(sp)
 5081e7c:	df000204 	addi	fp,sp,8
 5081e80:	e13fff15 	stw	r4,-4(fp)
    bool bSuccess = TRUE;
 5081e84:	00800044 	movi	r2,1
 5081e88:	e0bffe15 	stw	r2,-8(fp)
    // enable interrupt
    IOWR_ALTERA_AVALON_PIO_IRQ_MASK(KEY_BASE, 0x0F); // 4-button
 5081e8c:	00c003c4 	movi	r3,15
 5081e90:	00810034 	movhi	r2,1024
 5081e94:	10801a04 	addi	r2,r2,104
 5081e98:	10c00035 	stwio	r3,0(r2)

    // Reset the edge catpure register
    IOWR_ALTERA_AVALON_PIO_EDGE_CAP(KEY_BASE,0);
 5081e9c:	0007883a 	mov	r3,zero
 5081ea0:	00810034 	movhi	r2,1024
 5081ea4:	10801b04 	addi	r2,r2,108
 5081ea8:	10c00035 	stwio	r3,0(r2)

    // register IRQ
    if (bSuccess && (alt_irq_register(KEY_IRQ, (void *)pPressedMask, button_monitor_isr) != 0)){
 5081eac:	e0bffe17 	ldw	r2,-8(fp)
 5081eb0:	10000a26 	beq	r2,zero,5081edc <button_monitor_start+0x6c>
 5081eb4:	01814234 	movhi	r6,1288
 5081eb8:	31878304 	addi	r6,r6,7692
 5081ebc:	e17fff17 	ldw	r5,-4(fp)
 5081ec0:	01000084 	movi	r4,2
 5081ec4:	50933cc0 	call	50933cc <alt_irq_register>
 5081ec8:	10000426 	beq	r2,zero,5081edc <button_monitor_start+0x6c>
        printf("[SW-MONITOR]register button IRQ fail\r\n");
 5081ecc:	01014274 	movhi	r4,1289
 5081ed0:	21177304 	addi	r4,r4,24012
 5081ed4:	50851340 	call	5085134 <puts>
        bSuccess = FALSE;
 5081ed8:	e03ffe15 	stw	zero,-8(fp)
    }

    return bSuccess;
 5081edc:	e0bffe17 	ldw	r2,-8(fp)
}
 5081ee0:	e037883a 	mov	sp,fp
 5081ee4:	dfc00117 	ldw	ra,4(sp)
 5081ee8:	df000017 	ldw	fp,0(sp)
 5081eec:	dec00204 	addi	sp,sp,8
 5081ef0:	f800283a 	ret

05081ef4 <init_audio>:




bool init_audio(AUDIO_FUNC audio_func){
 5081ef4:	defffb04 	addi	sp,sp,-20
 5081ef8:	dfc00415 	stw	ra,16(sp)
 5081efc:	df000315 	stw	fp,12(sp)
 5081f00:	df000304 	addi	fp,sp,12
 5081f04:	e13fff15 	stw	r4,-4(fp)
    bool bSuccess = TRUE;
 5081f08:	00800044 	movi	r2,1
 5081f0c:	e0bffd15 	stw	r2,-12(fp)
    AUDIO_InterfaceActive(FALSE);
 5081f10:	0009883a 	mov	r4,zero
 5081f14:	50804180 	call	5080418 <AUDIO_InterfaceActive>
    //
    if (audio_func == MIC_RECORD){
 5081f18:	e0bfff17 	ldw	r2,-4(fp)
 5081f1c:	10000f1e 	bne	r2,zero,5081f5c <init_audio+0x68>
        bool bMicBoost;
        bMicBoost = ui_is_mic_boost();
 5081f20:	5081cec0 	call	5081cec <ui_is_mic_boost>
 5081f24:	e0bffe15 	stw	r2,-8(fp)
        AUDIO_SetInputSource(SOURCE_MIC);
 5081f28:	0009883a 	mov	r4,zero
 5081f2c:	50808d80 	call	50808d8 <AUDIO_SetInputSource>
        AUDIO_DacEnableSoftMute(TRUE);
 5081f30:	01000044 	movi	r4,1
 5081f34:	50806e00 	call	50806e0 <AUDIO_DacEnableSoftMute>
        AUDIO_AdcEnableHighPassFilter(FALSE);
 5081f38:	0009883a 	mov	r4,zero
 5081f3c:	50804d80 	call	50804d8 <AUDIO_AdcEnableHighPassFilter>
        AUDIO_MicBoost(bMicBoost);
 5081f40:	e13ffe17 	ldw	r4,-8(fp)
 5081f44:	50804600 	call	5080460 <AUDIO_MicBoost>
        AUDIO_MicMute(FALSE);
 5081f48:	0009883a 	mov	r4,zero
 5081f4c:	508076c0 	call	508076c <AUDIO_MicMute>
        AUDIO_LineInMute(TRUE);
 5081f50:	01000044 	movi	r4,1
 5081f54:	50807f80 	call	50807f8 <AUDIO_LineInMute>
 5081f58:	00002606 	br	5081ff4 <init_audio+0x100>
    }else if (audio_func == LINEIN_RECORD){
 5081f5c:	e0bfff17 	ldw	r2,-4(fp)
 5081f60:	10800058 	cmpnei	r2,r2,1
 5081f64:	10000e1e 	bne	r2,zero,5081fa0 <init_audio+0xac>
        AUDIO_SetInputSource(SOURCE_LINEIN);
 5081f68:	01000044 	movi	r4,1
 5081f6c:	50808d80 	call	50808d8 <AUDIO_SetInputSource>
        AUDIO_DacEnableSoftMute(TRUE);
 5081f70:	01000044 	movi	r4,1
 5081f74:	50806e00 	call	50806e0 <AUDIO_DacEnableSoftMute>
        AUDIO_AdcEnableHighPassFilter(FALSE);
 5081f78:	0009883a 	mov	r4,zero
 5081f7c:	50804d80 	call	50804d8 <AUDIO_AdcEnableHighPassFilter>
        AUDIO_MicMute(TRUE);
 5081f80:	01000044 	movi	r4,1
 5081f84:	508076c0 	call	508076c <AUDIO_MicMute>
        AUDIO_LineInMute(FALSE);
 5081f88:	0009883a 	mov	r4,zero
 5081f8c:	50807f80 	call	50807f8 <AUDIO_LineInMute>
        AUDIO_SetLineInVol(0x17, 0x17);  // max 0x1F, min:0; 0x17: 0dB (assume max input is 2.0v rms)
 5081f90:	014005c4 	movi	r5,23
 5081f94:	010005c4 	movi	r4,23
 5081f98:	5080a4c0 	call	5080a4c <AUDIO_SetLineInVol>
 5081f9c:	00001506 	br	5081ff4 <init_audio+0x100>
    }else if (audio_func == LINEOUT_PLAY){
 5081fa0:	e0bfff17 	ldw	r2,-4(fp)
 5081fa4:	10800098 	cmpnei	r2,r2,2
 5081fa8:	1000121e 	bne	r2,zero,5081ff4 <init_audio+0x100>
        AUDIO_DacEnableSoftMute(TRUE);
 5081fac:	01000044 	movi	r4,1
 5081fb0:	50806e00 	call	50806e0 <AUDIO_DacEnableSoftMute>
        AUDIO_MicBoost(FALSE);
 5081fb4:	0009883a 	mov	r4,zero
 5081fb8:	50804600 	call	5080460 <AUDIO_MicBoost>
        AUDIO_MicMute(TRUE);
 5081fbc:	01000044 	movi	r4,1
 5081fc0:	508076c0 	call	508076c <AUDIO_MicMute>
        AUDIO_LineInMute(FALSE);
 5081fc4:	0009883a 	mov	r4,zero
 5081fc8:	50807f80 	call	50807f8 <AUDIO_LineInMute>
        AUDIO_DacEnableSoftMute(FALSE);
 5081fcc:	0009883a 	mov	r4,zero
 5081fd0:	50806e00 	call	50806e0 <AUDIO_DacEnableSoftMute>
        //AUDIO_DacDeemphasisControl(DEEMPHASIS_48K);
        AUDIO_DacEnableZeroCross(ui_is_dac_zero_cross());
 5081fd4:	5081d280 	call	5081d28 <ui_is_dac_zero_cross>
 5081fd8:	1009883a 	mov	r4,r2
 5081fdc:	50806000 	call	5080600 <AUDIO_DacEnableZeroCross>
        AUDIO_SetLineOutVol(LINEOUT_DEFUALT_VOL, LINEOUT_DEFUALT_VOL); // max 7F, min: 30, 0x79: 0 db
 5081fe0:	01401e44 	movi	r5,121
 5081fe4:	01001e44 	movi	r4,121
 5081fe8:	5080b600 	call	5080b60 <AUDIO_SetLineOutVol>
        AUDIO_DacEnableSoftMute(FALSE);
 5081fec:	0009883a 	mov	r4,zero
 5081ff0:	50806e00 	call	50806e0 <AUDIO_DacEnableSoftMute>
    }

    if (record_sample_rate == 8000)
 5081ff4:	d0a6d117 	ldw	r2,-25788(gp)
 5081ff8:	1087d018 	cmpnei	r2,r2,8000
 5081ffc:	1000031e 	bne	r2,zero,508200c <init_audio+0x118>
        AUDIO_SetSampleRate(RATE_ADC8K_DAC8K);
 5082000:	010000c4 	movi	r4,3
 5082004:	50809680 	call	5080968 <AUDIO_SetSampleRate>
 5082008:	00001406 	br	508205c <init_audio+0x168>
    else if (record_sample_rate == 32000)
 508200c:	d0a6d117 	ldw	r2,-25788(gp)
 5082010:	109f4018 	cmpnei	r2,r2,32000
 5082014:	1000031e 	bne	r2,zero,5082024 <init_audio+0x130>
        AUDIO_SetSampleRate(RATE_ADC32K_DAC32K);
 5082018:	01000104 	movi	r4,4
 508201c:	50809680 	call	5080968 <AUDIO_SetSampleRate>
 5082020:	00000e06 	br	508205c <init_audio+0x168>
    else if (record_sample_rate == 48000)
 5082024:	d0e6d117 	ldw	r3,-25788(gp)
 5082028:	00aee014 	movui	r2,48000
 508202c:	1880031e 	bne	r3,r2,508203c <init_audio+0x148>
        AUDIO_SetSampleRate(RATE_ADC48K_DAC48K);
 5082030:	0009883a 	mov	r4,zero
 5082034:	50809680 	call	5080968 <AUDIO_SetSampleRate>
 5082038:	00000806 	br	508205c <init_audio+0x168>
    else if (record_sample_rate == 44100)
 508203c:	d0e6d117 	ldw	r3,-25788(gp)
 5082040:	00ab1114 	movui	r2,44100
 5082044:	1880031e 	bne	r3,r2,5082054 <init_audio+0x160>
        AUDIO_SetSampleRate(RATE_ADC44K1_DAC44K1);
 5082048:	01000184 	movi	r4,6
 508204c:	50809680 	call	5080968 <AUDIO_SetSampleRate>
 5082050:	00000206 	br	508205c <init_audio+0x168>
    else
        AUDIO_SetSampleRate(RATE_ADC96K_DAC96K);
 5082054:	01000144 	movi	r4,5
 5082058:	50809680 	call	5080968 <AUDIO_SetSampleRate>
    //
    AUDIO_InterfaceActive(TRUE);
 508205c:	01000044 	movi	r4,1
 5082060:	50804180 	call	5080418 <AUDIO_InterfaceActive>

    return bSuccess;
 5082064:	e0bffd17 	ldw	r2,-12(fp)
}
 5082068:	e037883a 	mov	sp,fp
 508206c:	dfc00117 	ldw	ra,4(sp)
 5082070:	df000017 	ldw	fp,0(sp)
 5082074:	dec00204 	addi	sp,sp,8
 5082078:	f800283a 	ret

0508207c <display_time_elapsed>:


void display_time_elapsed(alt_u32 sample_num){
 508207c:	defffc04 	addi	sp,sp,-16
 5082080:	dfc00315 	stw	ra,12(sp)
 5082084:	df000215 	stw	fp,8(sp)
 5082088:	df000204 	addi	fp,sp,8
 508208c:	e13fff15 	stw	r4,-4(fp)
    // assume sample rate is 48K
    alt_u32 time;
    time = sample_num * 100 / record_sample_rate;
 5082090:	e0bfff17 	ldw	r2,-4(fp)
 5082094:	10801924 	muli	r2,r2,100
 5082098:	d0e6d117 	ldw	r3,-25788(gp)
 508209c:	180b883a 	mov	r5,r3
 50820a0:	1009883a 	mov	r4,r2
 50820a4:	50831b40 	call	50831b4 <__udivsi3>
 50820a8:	e0bffe15 	stw	r2,-8(fp)
    SEG7_Decimal(time, 0x04);
 50820ac:	01400104 	movi	r5,4
 50820b0:	e13ffe17 	ldw	r4,-8(fp)
 50820b4:	5081a0c0 	call	5081a0c <SEG7_Decimal>
}
 50820b8:	0001883a 	nop
 50820bc:	e037883a 	mov	sp,fp
 50820c0:	dfc00117 	ldw	ra,4(sp)
 50820c4:	df000017 	ldw	fp,0(sp)
 50820c8:	dec00204 	addi	sp,sp,8
 50820cc:	f800283a 	ret

050820d0 <show_power>:

void show_power(short sample){
 50820d0:	defffc04 	addi	sp,sp,-16
 50820d4:	dfc00315 	stw	ra,12(sp)
 50820d8:	df000215 	stw	fp,8(sp)
 50820dc:	df000204 	addi	fp,sp,8
 50820e0:	2005883a 	mov	r2,r4
 50820e4:	e0bfff0d 	sth	r2,-4(fp)
    static alt_u32 sum = 0;
    static alt_u16   cnt = 0;
    alt_u16 power = 0;
 50820e8:	e03ffe0d 	sth	zero,-8(fp)
    sum += (sample >= 0)?sample:-sample;
 50820ec:	e0bfff0f 	ldh	r2,-4(fp)
 50820f0:	10000216 	blt	r2,zero,50820fc <show_power+0x2c>
 50820f4:	e0bfff0f 	ldh	r2,-4(fp)
 50820f8:	00000206 	br	5082104 <show_power+0x34>
 50820fc:	e0bfff0f 	ldh	r2,-4(fp)
 5082100:	0085c83a 	sub	r2,zero,r2
 5082104:	d0e6cf17 	ldw	r3,-25796(gp)
 5082108:	10c5883a 	add	r2,r2,r3
 508210c:	d0a6cf15 	stw	r2,-25796(gp)
    cnt++;
 5082110:	d0a6d00b 	ldhu	r2,-25792(gp)
 5082114:	10800044 	addi	r2,r2,1
 5082118:	d0a6d00d 	sth	r2,-25792(gp)
    if (cnt == 32){
 508211c:	d0a6d00b 	ldhu	r2,-25792(gp)
 5082120:	10bfffcc 	andi	r2,r2,65535
 5082124:	10800818 	cmpnei	r2,r2,32
 5082128:	1000091e 	bne	r2,zero,5082150 <show_power+0x80>
        power = sum >> 13;
 508212c:	d0a6cf17 	ldw	r2,-25796(gp)
 5082130:	1004d37a 	srli	r2,r2,13
 5082134:	e0bffe0d 	sth	r2,-8(fp)
        LED_LightCount(power);
 5082138:	e0bffe0b 	ldhu	r2,-8(fp)
 508213c:	10803fcc 	andi	r2,r2,255
 5082140:	1009883a 	mov	r4,r2
 5082144:	50817940 	call	5081794 <LED_LightCount>
        sum = 0;
 5082148:	d026cf15 	stw	zero,-25796(gp)
        cnt = 0;
 508214c:	d026d00d 	sth	zero,-25792(gp)
    }
}
 5082150:	0001883a 	nop
 5082154:	e037883a 	mov	sp,fp
 5082158:	dfc00117 	ldw	ra,4(sp)
 508215c:	df000017 	ldw	fp,0(sp)
 5082160:	dec00204 	addi	sp,sp,8
 5082164:	f800283a 	ret

05082168 <init>:


bool init(void){
 5082168:	defffd04 	addi	sp,sp,-12
 508216c:	dfc00215 	stw	ra,8(sp)
 5082170:	df000115 	stw	fp,4(sp)
 5082174:	df000104 	addi	fp,sp,4
    bool bSuccess = TRUE;
 5082178:	00800044 	movi	r2,1
 508217c:	e0bfff15 	stw	r2,-4(fp)

    SEG7_Clear();
 5082180:	50818080 	call	5081808 <SEG7_Clear>


    SEG7_Decimal(0x00000000, 0x00);
 5082184:	000b883a 	mov	r5,zero
 5082188:	0009883a 	mov	r4,zero
 508218c:	5081a0c0 	call	5081a0c <SEG7_Decimal>

    // prepare
    if (!AUDIO_Init()){
 5082190:	50802900 	call	5080290 <AUDIO_Init>
 5082194:	1000041e 	bne	r2,zero,50821a8 <init+0x40>

        printf("Audio Init Error\r\n");
 5082198:	01014274 	movhi	r4,1289
 508219c:	21177d04 	addi	r4,r4,24052
 50821a0:	50851340 	call	5085134 <puts>
        bSuccess = FALSE;
 50821a4:	e03fff15 	stw	zero,-4(fp)
    }


    return bSuccess;
 50821a8:	e0bfff17 	ldw	r2,-4(fp)
}
 50821ac:	e037883a 	mov	sp,fp
 50821b0:	dfc00117 	ldw	ra,4(sp)
 50821b4:	df000017 	ldw	fp,0(sp)
 50821b8:	dec00204 	addi	sp,sp,8
 50821bc:	f800283a 	ret

050821c0 <dump_record_data>:

void dump_record_data(alt_u32 *pData, alt_u32 len){
 50821c0:	defff804 	addi	sp,sp,-32
 50821c4:	dfc00715 	stw	ra,28(sp)
 50821c8:	df000615 	stw	fp,24(sp)
 50821cc:	df000604 	addi	fp,sp,24
 50821d0:	e13ffe15 	stw	r4,-8(fp)
 50821d4:	e17fff15 	stw	r5,-4(fp)
    short sample_l, sample_r, sample_max = 0;
 50821d8:	e03ffa0d 	sth	zero,-24(fp)
    alt_u32 data;
    int i;
    //return ;
    for(i=0;i<len;i++){
 50821dc:	e03ffb15 	stw	zero,-20(fp)
 50821e0:	00002d06 	br	5082298 <dump_record_data+0xd8>
        data = *pData++;
 50821e4:	e0bffe17 	ldw	r2,-8(fp)
 50821e8:	10c00104 	addi	r3,r2,4
 50821ec:	e0fffe15 	stw	r3,-8(fp)
 50821f0:	10800017 	ldw	r2,0(r2)
 50821f4:	e0bffc15 	stw	r2,-16(fp)
        sample_l = (short)((data >> 16) & 0xFFFF);
 50821f8:	e0bffc17 	ldw	r2,-16(fp)
 50821fc:	1004d43a 	srli	r2,r2,16
 5082200:	e0bffd0d 	sth	r2,-12(fp)
        sample_r = (short)(data & 0xFFFF);
 5082204:	e0bffc17 	ldw	r2,-16(fp)
 5082208:	e0bffd8d 	sth	r2,-10(fp)
        //printf("[%d]%d/%d\n", i, sample_l, sample_r);
        if (sample_l > 0 && sample_max <  sample_l)
 508220c:	e0bffd0f 	ldh	r2,-12(fp)
 5082210:	0080050e 	bge	zero,r2,5082228 <dump_record_data+0x68>
 5082214:	e0fffa0f 	ldh	r3,-24(fp)
 5082218:	e0bffd0f 	ldh	r2,-12(fp)
 508221c:	1880020e 	bge	r3,r2,5082228 <dump_record_data+0x68>
            sample_max = sample_l;
 5082220:	e0bffd0b 	ldhu	r2,-12(fp)
 5082224:	e0bffa0d 	sth	r2,-24(fp)
        if (sample_l < 0 && sample_max <  -sample_l)
 5082228:	e0bffd0f 	ldh	r2,-12(fp)
 508222c:	1000070e 	bge	r2,zero,508224c <dump_record_data+0x8c>
 5082230:	e0fffa0f 	ldh	r3,-24(fp)
 5082234:	e0bffd0f 	ldh	r2,-12(fp)
 5082238:	0085c83a 	sub	r2,zero,r2
 508223c:	1880030e 	bge	r3,r2,508224c <dump_record_data+0x8c>
            sample_max = -sample_l;
 5082240:	e0bffd0b 	ldhu	r2,-12(fp)
 5082244:	0085c83a 	sub	r2,zero,r2
 5082248:	e0bffa0d 	sth	r2,-24(fp)
        if (sample_r > 0 && sample_max <  sample_r)
 508224c:	e0bffd8f 	ldh	r2,-10(fp)
 5082250:	0080050e 	bge	zero,r2,5082268 <dump_record_data+0xa8>
 5082254:	e0fffa0f 	ldh	r3,-24(fp)
 5082258:	e0bffd8f 	ldh	r2,-10(fp)
 508225c:	1880020e 	bge	r3,r2,5082268 <dump_record_data+0xa8>
            sample_max = sample_r;
 5082260:	e0bffd8b 	ldhu	r2,-10(fp)
 5082264:	e0bffa0d 	sth	r2,-24(fp)
        if (sample_r < 0 && sample_max <  -sample_r)
 5082268:	e0bffd8f 	ldh	r2,-10(fp)
 508226c:	1000070e 	bge	r2,zero,508228c <dump_record_data+0xcc>
 5082270:	e0fffa0f 	ldh	r3,-24(fp)
 5082274:	e0bffd8f 	ldh	r2,-10(fp)
 5082278:	0085c83a 	sub	r2,zero,r2
 508227c:	1880030e 	bge	r3,r2,508228c <dump_record_data+0xcc>
            sample_max = -sample_r;
 5082280:	e0bffd8b 	ldhu	r2,-10(fp)
 5082284:	0085c83a 	sub	r2,zero,r2
 5082288:	e0bffa0d 	sth	r2,-24(fp)
void dump_record_data(alt_u32 *pData, alt_u32 len){
    short sample_l, sample_r, sample_max = 0;
    alt_u32 data;
    int i;
    //return ;
    for(i=0;i<len;i++){
 508228c:	e0bffb17 	ldw	r2,-20(fp)
 5082290:	10800044 	addi	r2,r2,1
 5082294:	e0bffb15 	stw	r2,-20(fp)
 5082298:	e0fffb17 	ldw	r3,-20(fp)
 508229c:	e0bfff17 	ldw	r2,-4(fp)
 50822a0:	18bfd036 	bltu	r3,r2,50821e4 <dump_record_data+0x24>
        if (sample_r > 0 && sample_max <  sample_r)
            sample_max = sample_r;
        if (sample_r < 0 && sample_max <  -sample_r)
            sample_max = -sample_r;
    }
    printf("max=%d\n", sample_max);
 50822a4:	e0bffa0f 	ldh	r2,-24(fp)
 50822a8:	100b883a 	mov	r5,r2
 50822ac:	01014274 	movhi	r4,1289
 50822b0:	21178204 	addi	r4,r4,24072
 50822b4:	50850380 	call	5085038 <printf>
}
 50822b8:	0001883a 	nop
 50822bc:	e037883a 	mov	sp,fp
 50822c0:	dfc00117 	ldw	ra,4(sp)
 50822c4:	df000017 	ldw	fp,0(sp)
 50822c8:	dec00204 	addi	sp,sp,8
 50822cc:	f800283a 	ret

050822d0 <show_menu>:
    "  LED:  Display audio singal strength.\n",
    "  SEG7: Display time elapsed for playing/recording.\n"
    "\n\n"
};

void show_menu(void){
 50822d0:	defffd04 	addi	sp,sp,-12
 50822d4:	dfc00215 	stw	ra,8(sp)
 50822d8:	df000115 	stw	fp,4(sp)
 50822dc:	df000104 	addi	fp,sp,4
    int i;
    for(i=0;i<sizeof(szMenu)/sizeof(szMenu[0]);i++)
 50822e0:	e03fff15 	stw	zero,-4(fp)
 50822e4:	00000a06 	br	5082310 <show_menu+0x40>
        printf(szMenu[i]);
 50822e8:	e0bfff17 	ldw	r2,-4(fp)
 50822ec:	100691fa 	slli	r3,r2,7
 50822f0:	00814274 	movhi	r2,1289
 50822f4:	10978404 	addi	r2,r2,24080
 50822f8:	1885883a 	add	r2,r3,r2
 50822fc:	1009883a 	mov	r4,r2
 5082300:	50850380 	call	5085038 <printf>
    "\n\n"
};

void show_menu(void){
    int i;
    for(i=0;i<sizeof(szMenu)/sizeof(szMenu[0]);i++)
 5082304:	e0bfff17 	ldw	r2,-4(fp)
 5082308:	10800044 	addi	r2,r2,1
 508230c:	e0bfff15 	stw	r2,-4(fp)
 5082310:	e0bfff17 	ldw	r2,-4(fp)
 5082314:	10800430 	cmpltui	r2,r2,16
 5082318:	103ff31e 	bne	r2,zero,50822e8 <show_menu+0x18>
        printf(szMenu[i]);
}
 508231c:	0001883a 	nop
 5082320:	e037883a 	mov	sp,fp
 5082324:	dfc00117 	ldw	ra,4(sp)
 5082328:	df000017 	ldw	fp,0(sp)
 508232c:	dec00204 	addi	sp,sp,8
 5082330:	f800283a 	ret

05082334 <main>:

int main()
{
 5082334:	defffe04 	addi	sp,sp,-8
 5082338:	dfc00115 	stw	ra,4(sp)
 508233c:	df000015 	stw	fp,0(sp)
 5082340:	d839883a 	mov	fp,sp
 5082344:	023ffff4 	movhi	r8,65535
 5082348:	4217d404 	addi	r8,r8,24400
 508234c:	da37883a 	add	sp,sp,r8
    typedef enum{
        ST_STANDY,
        ST_RECODING,
        ST_PLAYING
    }STATE;
    STATE state = ST_STANDY;
 5082350:	00bffff4 	movhi	r2,65535
 5082354:	1097d404 	addi	r2,r2,24400
 5082358:	1705883a 	add	r2,r2,fp
 508235c:	10000015 	stw	zero,0(r2)
    volatile alt_u32 button_mask=0;
 5082360:	00fffff4 	movhi	r3,65535
 5082364:	18d80f04 	addi	r3,r3,24636
 5082368:	1f07883a 	add	r3,r3,fp
 508236c:	18000015 	stw	zero,0(r3)
    bool bRecordPressed, bPlayPressed, bError = FALSE;
 5082370:	013ffff4 	movhi	r4,65535
 5082374:	2117d504 	addi	r4,r4,24404
 5082378:	2709883a 	add	r4,r4,fp
 508237c:	20000015 	stw	zero,0(r4)
    alt_u32 *pBuf, *pPlaying, *pRecording, RecordLen, PlayLen, data, try_cnt, buf_sample_size;
    alt_u16 ch_right, ch_left;



    printf("\nHello World\n");
 5082380:	01014274 	movhi	r4,1289
 5082384:	21198404 	addi	r4,r4,26128
 5082388:	50851340 	call	5085134 <puts>

    show_menu();
 508238c:	50822d00 	call	50822d0 <show_menu>
    if (!init())
 5082390:	50821680 	call	5082168 <init>
 5082394:	1000021e 	bne	r2,zero,50823a0 <main+0x6c>
        return 0;
 5082398:	0005883a 	mov	r2,zero
 508239c:	00030006 	br	5082fa0 <main+0xc6c>


#ifdef USE_SDRAM_FOR_DATA
    pBuf = (alt_u32 *)SDRAM_BASE;
 50823a0:	017ffff4 	movhi	r5,65535
 50823a4:	2957de04 	addi	r5,r5,24440
 50823a8:	2f0b883a 	add	r5,r5,fp
 50823ac:	28000015 	stw	zero,0(r5)
    buf_sample_size = SDRAM_SPAN/sizeof(alt_u32);
 50823b0:	00804034 	movhi	r2,256
 50823b4:	00fffff4 	movhi	r3,65535
 50823b8:	18d7df04 	addi	r3,r3,24444
 50823bc:	1f07883a 	add	r3,r3,fp
 50823c0:	18800015 	stw	r2,0(r3)
    #define MAX_FLT_LEN     17
#define MAX_FLT_LEN_2     11
    // buffer to hold all of the input samples
    #define BUFFER_LEN      (MAX_FLT_LEN - 1 + MAX_INPUT_LEN)

    double coeffs[ MAX_FLT_LEN ] =
 50823c4:	00814274 	movhi	r2,1289
 50823c8:	1099be04 	addi	r2,r2,26360
 50823cc:	013ffff4 	movhi	r4,65535
 50823d0:	21181104 	addi	r4,r4,24644
 50823d4:	e107883a 	add	r3,fp,r4
 50823d8:	1009883a 	mov	r4,r2
 50823dc:	00802204 	movi	r2,136
 50823e0:	100d883a 	mov	r6,r2
 50823e4:	200b883a 	mov	r5,r4
 50823e8:	1809883a 	mov	r4,r3
 50823ec:	5084d640 	call	5084d64 <memcpy>
			0.10699462890625,0.1240234375, 0.13018798828125,
			0.1240234375,0.10699462890625,0.083160400390625,
			0.0576171875,0.034942626953125,0.017974853515625,
			0.007354736328125, 0.0020751953125
    };
    double coeffs_2[ MAX_FLT_LEN_2 ] ={
 50823f0:	00814274 	movhi	r2,1289
 50823f4:	1099e004 	addi	r2,r2,26496
 50823f8:	017ffff4 	movhi	r5,65535
 50823fc:	29583304 	addi	r5,r5,24780
 5082400:	e147883a 	add	r3,fp,r5
 5082404:	1009883a 	mov	r4,r2
 5082408:	00801604 	movi	r2,88
 508240c:	100d883a 	mov	r6,r2
 5082410:	200b883a 	mov	r5,r4
 5082414:	1809883a 	mov	r4,r3
 5082418:	5084d640 	call	5084d64 <memcpy>
    double tudo[2000];
    double tudo_meio[2000];
    double floatOutput[1024];
    double vector[MAX_FLT_LEN];
    int vector_out[MAX_FLT_LEN];
    double final = 0;
 508241c:	00bffff4 	movhi	r2,65535
 5082420:	1097e004 	addi	r2,r2,24448
 5082424:	1705883a 	add	r2,r2,fp
 5082428:	10000015 	stw	zero,0(r2)
 508242c:	00fffff4 	movhi	r3,65535
 5082430:	18d7e104 	addi	r3,r3,24452
 5082434:	1f07883a 	add	r3,r3,fp
 5082438:	18000015 	stw	zero,0(r3)

    button_monitor_start(&button_mask);  // button IRQ
 508243c:	013ffff4 	movhi	r4,65535
 5082440:	21180f04 	addi	r4,r4,24636
 5082444:	e105883a 	add	r2,fp,r4
 5082448:	1009883a 	mov	r4,r2
 508244c:	5081e700 	call	5081e70 <button_monitor_start>
    printf("ready\n");
 5082450:	01014274 	movhi	r4,1289
 5082454:	21198804 	addi	r4,r4,26144
 5082458:	50851340 	call	5085134 <puts>


    // test
    record_sample_rate = ui_get_sample_rate();
 508245c:	5081d640 	call	5081d64 <ui_get_sample_rate>
 5082460:	d0a6d115 	stw	r2,-25788(gp)
    RecordLen = buf_sample_size;
 5082464:	017ffff4 	movhi	r5,65535
 5082468:	2957df04 	addi	r5,r5,24444
 508246c:	2f0b883a 	add	r5,r5,fp
 5082470:	28800017 	ldw	r2,0(r5)
 5082474:	00fffff4 	movhi	r3,65535
 5082478:	18d7d804 	addi	r3,r3,24416
 508247c:	1f07883a 	add	r3,r3,fp
 5082480:	18800015 	stw	r2,0(r3)
    //
    int j = 0;
 5082484:	013ffff4 	movhi	r4,65535
 5082488:	2117db04 	addi	r4,r4,24428
 508248c:	2709883a 	add	r4,r4,fp
 5082490:	20000015 	stw	zero,0(r4)
    int lugar = 0;
 5082494:	017ffff4 	movhi	r5,65535
 5082498:	2957e204 	addi	r5,r5,24456
 508249c:	2f0b883a 	add	r5,r5,fp
 50824a0:	28000015 	stw	zero,0(r5)

    // infinite loop
    while(1){
        //
        bRecordPressed = (button_mask & RECORD_BUTTON)?TRUE:FALSE;
 50824a4:	00fffff4 	movhi	r3,65535
 50824a8:	18d80f04 	addi	r3,r3,24636
 50824ac:	1f07883a 	add	r3,r3,fp
 50824b0:	18800017 	ldw	r2,0(r3)
 50824b4:	1080020c 	andi	r2,r2,8
 50824b8:	1004c03a 	cmpne	r2,r2,zero
 50824bc:	10803fcc 	andi	r2,r2,255
 50824c0:	013ffff4 	movhi	r4,65535
 50824c4:	2117e304 	addi	r4,r4,24460
 50824c8:	2709883a 	add	r4,r4,fp
 50824cc:	20800015 	stw	r2,0(r4)
        bPlayPressed = (button_mask & PLAY_BUTTON)?TRUE:FALSE;
 50824d0:	017ffff4 	movhi	r5,65535
 50824d4:	29580f04 	addi	r5,r5,24636
 50824d8:	2f0b883a 	add	r5,r5,fp
 50824dc:	28800017 	ldw	r2,0(r5)
 50824e0:	1080010c 	andi	r2,r2,4
 50824e4:	1004c03a 	cmpne	r2,r2,zero
 50824e8:	10803fcc 	andi	r2,r2,255
 50824ec:	00fffff4 	movhi	r3,65535
 50824f0:	18d7e404 	addi	r3,r3,24464
 50824f4:	1f07883a 	add	r3,r3,fp
 50824f8:	18800015 	stw	r2,0(r3)
        if (bPlayPressed || bRecordPressed)
 50824fc:	013ffff4 	movhi	r4,65535
 5082500:	2117e404 	addi	r4,r4,24464
 5082504:	2709883a 	add	r4,r4,fp
 5082508:	20800017 	ldw	r2,0(r4)
 508250c:	1000051e 	bne	r2,zero,5082524 <main+0x1f0>
 5082510:	017ffff4 	movhi	r5,65535
 5082514:	2957e304 	addi	r5,r5,24460
 5082518:	2f0b883a 	add	r5,r5,fp
 508251c:	28800017 	ldw	r2,0(r5)
 5082520:	10000426 	beq	r2,zero,5082534 <main+0x200>
            button_mask = 0;
 5082524:	00bffff4 	movhi	r2,65535
 5082528:	10980f04 	addi	r2,r2,24636
 508252c:	1705883a 	add	r2,r2,fp
 5082530:	10000015 	stw	zero,0(r2)
        if (state == ST_STANDY){
 5082534:	00fffff4 	movhi	r3,65535
 5082538:	18d7d404 	addi	r3,r3,24400
 508253c:	1f07883a 	add	r3,r3,fp
 5082540:	18800017 	ldw	r2,0(r3)
 5082544:	1000791e 	bne	r2,zero,508272c <main+0x3f8>
            if (bRecordPressed){
 5082548:	013ffff4 	movhi	r4,65535
 508254c:	2117e304 	addi	r4,r4,24460
 5082550:	2709883a 	add	r4,r4,fp
 5082554:	20800017 	ldw	r2,0(r4)
 5082558:	10004326 	beq	r2,zero,5082668 <main+0x334>
                bool bMicRecord;
                record_sample_rate = ui_get_sample_rate();
 508255c:	5081d640 	call	5081d64 <ui_get_sample_rate>
 5082560:	d0a6d115 	stw	r2,-25788(gp)
                bMicRecord = ui_is_mic_record();
 5082564:	5081cb00 	call	5081cb0 <ui_is_mic_record>
 5082568:	017ffff4 	movhi	r5,65535
 508256c:	2957e504 	addi	r5,r5,24468
 5082570:	2f0b883a 	add	r5,r5,fp
 5082574:	28800015 	stw	r2,0(r5)
                AUDIO_FifoClear();
 5082578:	5080fa00 	call	5080fa0 <AUDIO_FifoClear>
                init_audio(bMicRecord?MIC_RECORD:LINEIN_RECORD);
 508257c:	00fffff4 	movhi	r3,65535
 5082580:	18d7e504 	addi	r3,r3,24468
 5082584:	1f07883a 	add	r3,r3,fp
 5082588:	18800017 	ldw	r2,0(r3)
 508258c:	1005003a 	cmpeq	r2,r2,zero
 5082590:	10803fcc 	andi	r2,r2,255
 5082594:	1009883a 	mov	r4,r2
 5082598:	5081ef40 	call	5081ef4 <init_audio>
                AUDIO_FifoClear();
 508259c:	5080fa00 	call	5080fa0 <AUDIO_FifoClear>
                state = ST_RECODING;
 50825a0:	00800044 	movi	r2,1
 50825a4:	013ffff4 	movhi	r4,65535
 50825a8:	2117d404 	addi	r4,r4,24400
 50825ac:	2709883a 	add	r4,r4,fp
 50825b0:	20800015 	stw	r2,0(r4)
                if (bMicRecord){
 50825b4:	017ffff4 	movhi	r5,65535
 50825b8:	2957e504 	addi	r5,r5,24468
 50825bc:	2f0b883a 	add	r5,r5,fp
 50825c0:	28800017 	ldw	r2,0(r5)
 50825c4:	10001626 	beq	r2,zero,5082620 <main+0x2ec>
                    bool bMicBoost = ui_is_mic_boost();
 50825c8:	5081cec0 	call	5081cec <ui_is_mic_boost>
 50825cc:	00fffff4 	movhi	r3,65535
 50825d0:	18d7e604 	addi	r3,r3,24472
 50825d4:	1f07883a 	add	r3,r3,fp
 50825d8:	18800015 	stw	r2,0(r3)
                    printf("MIC %srecording (sample rate = %d)...\r\n", bMicBoost?"Boost ":"", record_sample_rate);
 50825dc:	013ffff4 	movhi	r4,65535
 50825e0:	2117e604 	addi	r4,r4,24472
 50825e4:	2709883a 	add	r4,r4,fp
 50825e8:	20800017 	ldw	r2,0(r4)
 50825ec:	10000326 	beq	r2,zero,50825fc <main+0x2c8>
 50825f0:	00814274 	movhi	r2,1289
 50825f4:	10998a04 	addi	r2,r2,26152
 50825f8:	00000206 	br	5082604 <main+0x2d0>
 50825fc:	00814274 	movhi	r2,1289
 5082600:	10998c04 	addi	r2,r2,26160
 5082604:	d0e6d117 	ldw	r3,-25788(gp)
 5082608:	180d883a 	mov	r6,r3
 508260c:	100b883a 	mov	r5,r2
 5082610:	01014274 	movhi	r4,1289
 5082614:	21198d04 	addi	r4,r4,26164
 5082618:	50850380 	call	5085038 <printf>
 508261c:	00000506 	br	5082634 <main+0x300>

                }else{
                    printf("LINE-IN recording (sample rate = %d)...\r\n", record_sample_rate);
 5082620:	d0a6d117 	ldw	r2,-25788(gp)
 5082624:	100b883a 	mov	r5,r2
 5082628:	01014274 	movhi	r4,1289
 508262c:	21199704 	addi	r4,r4,26204
 5082630:	50850380 	call	5085038 <printf>


                }
                pRecording = pBuf;
 5082634:	017ffff4 	movhi	r5,65535
 5082638:	2957de04 	addi	r5,r5,24440
 508263c:	2f0b883a 	add	r5,r5,fp
 5082640:	28800017 	ldw	r2,0(r5)
 5082644:	00fffff4 	movhi	r3,65535
 5082648:	18d7d704 	addi	r3,r3,24412
 508264c:	1f07883a 	add	r3,r3,fp
 5082650:	18800015 	stw	r2,0(r3)
                RecordLen = 0;
 5082654:	013ffff4 	movhi	r4,65535
 5082658:	2117d804 	addi	r4,r4,24416
 508265c:	2709883a 	add	r4,r4,fp
 5082660:	20000015 	stw	zero,0(r4)
 5082664:	00002c06 	br	5082718 <main+0x3e4>
            }else if (bPlayPressed){
 5082668:	017ffff4 	movhi	r5,65535
 508266c:	2957e404 	addi	r5,r5,24464
 5082670:	2f0b883a 	add	r5,r5,fp
 5082674:	28800017 	ldw	r2,0(r5)
 5082678:	10002726 	beq	r2,zero,5082718 <main+0x3e4>
                if (RecordLen == 0){
 508267c:	00fffff4 	movhi	r3,65535
 5082680:	18d7d804 	addi	r3,r3,24416
 5082684:	1f07883a 	add	r3,r3,fp
 5082688:	18800017 	ldw	r2,0(r3)
 508268c:	1000041e 	bne	r2,zero,50826a0 <main+0x36c>
                    printf("Please record before play audio\r\n");
 5082690:	01014274 	movhi	r4,1289
 5082694:	2119a204 	addi	r4,r4,26248
 5082698:	50851340 	call	5085134 <puts>
 508269c:	00001e06 	br	5082718 <main+0x3e4>

                }else{
                    bool bZeroCross = ui_is_dac_zero_cross();
 50826a0:	5081d280 	call	5081d28 <ui_is_dac_zero_cross>
 50826a4:	013ffff4 	movhi	r4,65535
 50826a8:	2117e704 	addi	r4,r4,24476
 50826ac:	2709883a 	add	r4,r4,fp
 50826b0:	20800015 	stw	r2,0(r4)
                    AUDIO_FifoClear();
 50826b4:	5080fa00 	call	5080fa0 <AUDIO_FifoClear>
                    init_audio(LINEOUT_PLAY);
 50826b8:	01000084 	movi	r4,2
 50826bc:	5081ef40 	call	5081ef4 <init_audio>
                    state = ST_PLAYING;
 50826c0:	00800084 	movi	r2,2
 50826c4:	017ffff4 	movhi	r5,65535
 50826c8:	2957d404 	addi	r5,r5,24400
 50826cc:	2f0b883a 	add	r5,r5,fp
 50826d0:	28800015 	stw	r2,0(r5)
                    printf("playing (sample rate = %d)...\r\n", record_sample_rate);
 50826d4:	d0a6d117 	ldw	r2,-25788(gp)
 50826d8:	100b883a 	mov	r5,r2
 50826dc:	01014274 	movhi	r4,1289
 50826e0:	2119ab04 	addi	r4,r4,26284
 50826e4:	50850380 	call	5085038 <printf>


                    pPlaying = pBuf;
 50826e8:	00fffff4 	movhi	r3,65535
 50826ec:	18d7de04 	addi	r3,r3,24440
 50826f0:	1f07883a 	add	r3,r3,fp
 50826f4:	18800017 	ldw	r2,0(r3)
 50826f8:	013ffff4 	movhi	r4,65535
 50826fc:	2117d604 	addi	r4,r4,24408
 5082700:	2709883a 	add	r4,r4,fp
 5082704:	20800015 	stw	r2,0(r4)
                    PlayLen = 0;
 5082708:	017ffff4 	movhi	r5,65535
 508270c:	2957d904 	addi	r5,r5,24420
 5082710:	2f0b883a 	add	r5,r5,fp
 5082714:	28000015 	stw	zero,0(r5)
                }
            }
            bError = FALSE;
 5082718:	00bffff4 	movhi	r2,65535
 508271c:	1097d504 	addi	r2,r2,24404
 5082720:	1705883a 	add	r2,r2,fp
 5082724:	10000015 	stw	zero,0(r2)
 5082728:	003f5e06 	br	50824a4 <main+0x170>
        }else if (state == ST_RECODING){
 508272c:	00fffff4 	movhi	r3,65535
 5082730:	18d7d404 	addi	r3,r3,24400
 5082734:	1f07883a 	add	r3,r3,fp
 5082738:	18800017 	ldw	r2,0(r3)
 508273c:	10800058 	cmpnei	r2,r2,1
 5082740:	1000ad1e 	bne	r2,zero,50829f8 <main+0x6c4>
            if (bRecordPressed || (RecordLen >= buf_sample_size) || bError){
 5082744:	013ffff4 	movhi	r4,65535
 5082748:	2117e304 	addi	r4,r4,24460
 508274c:	2709883a 	add	r4,r4,fp
 5082750:	20800017 	ldw	r2,0(r4)
 5082754:	10000e1e 	bne	r2,zero,5082790 <main+0x45c>
 5082758:	017ffff4 	movhi	r5,65535
 508275c:	2957d804 	addi	r5,r5,24416
 5082760:	2f0b883a 	add	r5,r5,fp
 5082764:	28c00017 	ldw	r3,0(r5)
 5082768:	013ffff4 	movhi	r4,65535
 508276c:	2117df04 	addi	r4,r4,24444
 5082770:	2709883a 	add	r4,r4,fp
 5082774:	20800017 	ldw	r2,0(r4)
 5082778:	1880052e 	bgeu	r3,r2,5082790 <main+0x45c>
 508277c:	017ffff4 	movhi	r5,65535
 5082780:	2957d504 	addi	r5,r5,24404
 5082784:	2f0b883a 	add	r5,r5,fp
 5082788:	28800017 	ldw	r2,0(r5)
 508278c:	10001726 	beq	r2,zero,50827ec <main+0x4b8>
                // stop record
                printf("record %d samples\n", (int)RecordLen);
 5082790:	00fffff4 	movhi	r3,65535
 5082794:	18d7d804 	addi	r3,r3,24416
 5082798:	1f07883a 	add	r3,r3,fp
 508279c:	18800017 	ldw	r2,0(r3)
 50827a0:	100b883a 	mov	r5,r2
 50827a4:	01014274 	movhi	r4,1289
 50827a8:	2119b304 	addi	r4,r4,26316
 50827ac:	50850380 	call	5085038 <printf>


                state = ST_STANDY;
 50827b0:	013ffff4 	movhi	r4,65535
 50827b4:	2117d404 	addi	r4,r4,24400
 50827b8:	2709883a 	add	r4,r4,fp
 50827bc:	20000015 	stw	zero,0(r4)
                LED_AllOff();
 50827c0:	50817640 	call	5081764 <LED_AllOff>
                dump_record_data(pBuf, RecordLen);
 50827c4:	00bffff4 	movhi	r2,65535
 50827c8:	1097d804 	addi	r2,r2,24416
 50827cc:	1705883a 	add	r2,r2,fp
 50827d0:	11400017 	ldw	r5,0(r2)
 50827d4:	00fffff4 	movhi	r3,65535
 50827d8:	18d7de04 	addi	r3,r3,24440
 50827dc:	1f07883a 	add	r3,r3,fp
 50827e0:	19000017 	ldw	r4,0(r3)
 50827e4:	50821c00 	call	50821c0 <dump_record_data>
 50827e8:	0001ec06 	br	5082f9c <main+0xc68>

            }else{
                // continue recoding
                int i = 0;
 50827ec:	013ffff4 	movhi	r4,65535
 50827f0:	2117dc04 	addi	r4,r4,24432
 50827f4:	2709883a 	add	r4,r4,fp
 50827f8:	20000015 	stw	zero,0(r4)
                int *pram0 = (int *) ONCHIP_MEMORY2_BASE;
 50827fc:	00814234 	movhi	r2,1288
 5082800:	017ffff4 	movhi	r5,65535
 5082804:	2957e804 	addi	r5,r5,24480
 5082808:	2f0b883a 	add	r5,r5,fp
 508280c:	28800015 	stw	r2,0(r5)

                while ((i < RECORD_BLOCK_SIZE) && (RecordLen < buf_sample_size)){
 5082810:	00006406 	br	50829a4 <main+0x670>
                    try_cnt = 0;
 5082814:	00bffff4 	movhi	r2,65535
 5082818:	1097da04 	addi	r2,r2,24424
 508281c:	1705883a 	add	r2,r2,fp
 5082820:	10000015 	stw	zero,0(r2)
                    while (!AUDIO_AdcFifoNotEmpty() && try_cnt < MAX_TRY_CNT){ // wait while empty
 5082824:	00000906 	br	508284c <main+0x518>
                        try_cnt++;
 5082828:	00fffff4 	movhi	r3,65535
 508282c:	18d7da04 	addi	r3,r3,24424
 5082830:	1f07883a 	add	r3,r3,fp
 5082834:	18800017 	ldw	r2,0(r3)
 5082838:	10800044 	addi	r2,r2,1
 508283c:	013ffff4 	movhi	r4,65535
 5082840:	2117da04 	addi	r4,r4,24424
 5082844:	2709883a 	add	r4,r4,fp
 5082848:	20800015 	stw	r2,0(r4)
                int i = 0;
                int *pram0 = (int *) ONCHIP_MEMORY2_BASE;

                while ((i < RECORD_BLOCK_SIZE) && (RecordLen < buf_sample_size)){
                    try_cnt = 0;
                    while (!AUDIO_AdcFifoNotEmpty() && try_cnt < MAX_TRY_CNT){ // wait while empty
 508284c:	5080f0c0 	call	5080f0c <AUDIO_AdcFifoNotEmpty>
 5082850:	1000061e 	bne	r2,zero,508286c <main+0x538>
 5082854:	017ffff4 	movhi	r5,65535
 5082858:	2957da04 	addi	r5,r5,24424
 508285c:	2f0b883a 	add	r5,r5,fp
 5082860:	28800017 	ldw	r2,0(r5)
 5082864:	10810030 	cmpltui	r2,r2,1024
 5082868:	103fef1e 	bne	r2,zero,5082828 <main+0x4f4>
                        try_cnt++;
                    }
                    if (try_cnt >= MAX_TRY_CNT){
 508286c:	00fffff4 	movhi	r3,65535
 5082870:	18d7da04 	addi	r3,r3,24424
 5082874:	1f07883a 	add	r3,r3,fp
 5082878:	18800017 	ldw	r2,0(r3)
 508287c:	10810030 	cmpltui	r2,r2,1024
 5082880:	1000061e 	bne	r2,zero,508289c <main+0x568>
                        bError = TRUE;
 5082884:	00800044 	movi	r2,1
 5082888:	013ffff4 	movhi	r4,65535
 508288c:	2117d504 	addi	r4,r4,24404
 5082890:	2709883a 	add	r4,r4,fp
 5082894:	20800015 	stw	r2,0(r4)
                        break;
 5082898:	00005106 	br	50829e0 <main+0x6ac>
                    }
                    AUDIO_AdcFifoGetData(&ch_left, &ch_right);
 508289c:	017ffff4 	movhi	r5,65535
 50828a0:	29581004 	addi	r5,r5,24640
 50828a4:	e147883a 	add	r3,fp,r5
 50828a8:	013ffff4 	movhi	r4,65535
 50828ac:	21181084 	addi	r4,r4,24642
 50828b0:	e105883a 	add	r2,fp,r4
 50828b4:	180b883a 	mov	r5,r3
 50828b8:	1009883a 	mov	r4,r2
 50828bc:	5080f480 	call	5080f48 <AUDIO_AdcFifoGetData>
                    data = (ch_left << 16) | ch_right;
 50828c0:	017ffff4 	movhi	r5,65535
 50828c4:	29581084 	addi	r5,r5,24642
 50828c8:	2f0b883a 	add	r5,r5,fp
 50828cc:	2880000b 	ldhu	r2,0(r5)
 50828d0:	10bfffcc 	andi	r2,r2,65535
 50828d4:	1006943a 	slli	r3,r2,16
 50828d8:	013ffff4 	movhi	r4,65535
 50828dc:	21181004 	addi	r4,r4,24640
 50828e0:	2709883a 	add	r4,r4,fp
 50828e4:	2080000b 	ldhu	r2,0(r4)
 50828e8:	10bfffcc 	andi	r2,r2,65535
 50828ec:	1884b03a 	or	r2,r3,r2
 50828f0:	017ffff4 	movhi	r5,65535
 50828f4:	2957e904 	addi	r5,r5,24484
 50828f8:	2f0b883a 	add	r5,r5,fp
 50828fc:	28800015 	stw	r2,0(r5)
//                    *(pram0 + i  +1) = data
                    *pRecording++ = data;
 5082900:	00fffff4 	movhi	r3,65535
 5082904:	18d7d704 	addi	r3,r3,24412
 5082908:	1f07883a 	add	r3,r3,fp
 508290c:	18800017 	ldw	r2,0(r3)
 5082910:	10c00104 	addi	r3,r2,4
 5082914:	013ffff4 	movhi	r4,65535
 5082918:	2117d704 	addi	r4,r4,24412
 508291c:	2709883a 	add	r4,r4,fp
 5082920:	20c00015 	stw	r3,0(r4)
 5082924:	017ffff4 	movhi	r5,65535
 5082928:	2957e904 	addi	r5,r5,24484
 508292c:	2f0b883a 	add	r5,r5,fp
 5082930:	28c00017 	ldw	r3,0(r5)
 5082934:	10c00015 	stw	r3,0(r2)
                    RecordLen++;
 5082938:	00fffff4 	movhi	r3,65535
 508293c:	18d7d804 	addi	r3,r3,24416
 5082940:	1f07883a 	add	r3,r3,fp
 5082944:	18800017 	ldw	r2,0(r3)
 5082948:	10800044 	addi	r2,r2,1
 508294c:	013ffff4 	movhi	r4,65535
 5082950:	2117d804 	addi	r4,r4,24416
 5082954:	2709883a 	add	r4,r4,fp
 5082958:	20800015 	stw	r2,0(r4)
                    i++;
 508295c:	017ffff4 	movhi	r5,65535
 5082960:	2957dc04 	addi	r5,r5,24432
 5082964:	2f0b883a 	add	r5,r5,fp
 5082968:	28800017 	ldw	r2,0(r5)
 508296c:	10800044 	addi	r2,r2,1
 5082970:	00fffff4 	movhi	r3,65535
 5082974:	18d7dc04 	addi	r3,r3,24432
 5082978:	1f07883a 	add	r3,r3,fp
 508297c:	18800015 	stw	r2,0(r3)
                    show_power(data & 0xFFFF);
 5082980:	013ffff4 	movhi	r4,65535
 5082984:	2117e904 	addi	r4,r4,24484
 5082988:	2709883a 	add	r4,r4,fp
 508298c:	20800017 	ldw	r2,0(r4)
 5082990:	10bfffcc 	andi	r2,r2,65535
 5082994:	10a0001c 	xori	r2,r2,32768
 5082998:	10a00004 	addi	r2,r2,-32768
 508299c:	1009883a 	mov	r4,r2
 50829a0:	50820d00 	call	50820d0 <show_power>
            }else{
                // continue recoding
                int i = 0;
                int *pram0 = (int *) ONCHIP_MEMORY2_BASE;

                while ((i < RECORD_BLOCK_SIZE) && (RecordLen < buf_sample_size)){
 50829a4:	017ffff4 	movhi	r5,65535
 50829a8:	2957dc04 	addi	r5,r5,24432
 50829ac:	2f0b883a 	add	r5,r5,fp
 50829b0:	28800017 	ldw	r2,0(r5)
 50829b4:	10803e88 	cmpgei	r2,r2,250
 50829b8:	1000091e 	bne	r2,zero,50829e0 <main+0x6ac>
 50829bc:	00bffff4 	movhi	r2,65535
 50829c0:	1097d804 	addi	r2,r2,24416
 50829c4:	1705883a 	add	r2,r2,fp
 50829c8:	10c00017 	ldw	r3,0(r2)
 50829cc:	013ffff4 	movhi	r4,65535
 50829d0:	2117df04 	addi	r4,r4,24444
 50829d4:	2709883a 	add	r4,r4,fp
 50829d8:	20800017 	ldw	r2,0(r4)
 50829dc:	18bf8d36 	bltu	r3,r2,5082814 <main+0x4e0>
                    *pRecording++ = data;
                    RecordLen++;
                    i++;
                    show_power(data & 0xFFFF);
                }  // while
                display_time_elapsed(RecordLen);
 50829e0:	017ffff4 	movhi	r5,65535
 50829e4:	2957d804 	addi	r5,r5,24416
 50829e8:	2f0b883a 	add	r5,r5,fp
 50829ec:	29000017 	ldw	r4,0(r5)
 50829f0:	508207c0 	call	508207c <display_time_elapsed>
 50829f4:	003eab06 	br	50824a4 <main+0x170>
            }

        }else if (state == ST_PLAYING){
 50829f8:	00fffff4 	movhi	r3,65535
 50829fc:	18d7d404 	addi	r3,r3,24400
 5082a00:	1f07883a 	add	r3,r3,fp
 5082a04:	18800017 	ldw	r2,0(r3)
 5082a08:	10800098 	cmpnei	r2,r2,2
 5082a0c:	103ea51e 	bne	r2,zero,50824a4 <main+0x170>
            if (bPlayPressed || (PlayLen >= RecordLen) || bError){
 5082a10:	013ffff4 	movhi	r4,65535
 5082a14:	2117e404 	addi	r4,r4,24464
 5082a18:	2709883a 	add	r4,r4,fp
 5082a1c:	20800017 	ldw	r2,0(r4)
 5082a20:	10000e1e 	bne	r2,zero,5082a5c <main+0x728>
 5082a24:	017ffff4 	movhi	r5,65535
 5082a28:	2957d904 	addi	r5,r5,24420
 5082a2c:	2f0b883a 	add	r5,r5,fp
 5082a30:	28c00017 	ldw	r3,0(r5)
 5082a34:	013ffff4 	movhi	r4,65535
 5082a38:	2117d804 	addi	r4,r4,24416
 5082a3c:	2709883a 	add	r4,r4,fp
 5082a40:	20800017 	ldw	r2,0(r4)
 5082a44:	1880052e 	bgeu	r3,r2,5082a5c <main+0x728>
 5082a48:	017ffff4 	movhi	r5,65535
 5082a4c:	2957d504 	addi	r5,r5,24404
 5082a50:	2f0b883a 	add	r5,r5,fp
 5082a54:	28800017 	ldw	r2,0(r5)
 5082a58:	10002026 	beq	r2,zero,5082adc <main+0x7a8>
                // stop playing
                printf("Play Stop %s\r\n", bError?"(Error)":"");
 5082a5c:	00fffff4 	movhi	r3,65535
 5082a60:	18d7d504 	addi	r3,r3,24404
 5082a64:	1f07883a 	add	r3,r3,fp
 5082a68:	18800017 	ldw	r2,0(r3)
 5082a6c:	10000326 	beq	r2,zero,5082a7c <main+0x748>
 5082a70:	00814274 	movhi	r2,1289
 5082a74:	1099b804 	addi	r2,r2,26336
 5082a78:	00000206 	br	5082a84 <main+0x750>
 5082a7c:	00814274 	movhi	r2,1289
 5082a80:	10998c04 	addi	r2,r2,26160
 5082a84:	100b883a 	mov	r5,r2
 5082a88:	01014274 	movhi	r4,1289
 5082a8c:	2119ba04 	addi	r4,r4,26344
 5082a90:	50850380 	call	5085038 <printf>
//                		printf("\n");
//                	}
//				}


                final = 0;
 5082a94:	013ffff4 	movhi	r4,65535
 5082a98:	2117e004 	addi	r4,r4,24448
 5082a9c:	2709883a 	add	r4,r4,fp
 5082aa0:	20000015 	stw	zero,0(r4)
 5082aa4:	017ffff4 	movhi	r5,65535
 5082aa8:	2957e104 	addi	r5,r5,24452
 5082aac:	2f0b883a 	add	r5,r5,fp
 5082ab0:	28000015 	stw	zero,0(r5)
                j = 0 ;
 5082ab4:	00bffff4 	movhi	r2,65535
 5082ab8:	1097db04 	addi	r2,r2,24428
 5082abc:	1705883a 	add	r2,r2,fp
 5082ac0:	10000015 	stw	zero,0(r2)
                state = ST_STANDY;
 5082ac4:	00fffff4 	movhi	r3,65535
 5082ac8:	18d7d404 	addi	r3,r3,24400
 5082acc:	1f07883a 	add	r3,r3,fp
 5082ad0:	18000015 	stw	zero,0(r3)
                LED_AllOff();
 5082ad4:	50817640 	call	5081764 <LED_AllOff>
 5082ad8:	00013006 	br	5082f9c <main+0xc68>
            }else{
                // continue playing
                int i = 0;
 5082adc:	013ffff4 	movhi	r4,65535
 5082ae0:	2117dd04 	addi	r4,r4,24436
 5082ae4:	2709883a 	add	r4,r4,fp
 5082ae8:	20000015 	stw	zero,0(r4)


                while ((i < PLAY_BLOCK_SIZE) && (PlayLen < RecordLen)){
 5082aec:	00011706 	br	5082f4c <main+0xc18>
                    try_cnt = 0;
 5082af0:	017ffff4 	movhi	r5,65535
 5082af4:	2957da04 	addi	r5,r5,24424
 5082af8:	2f0b883a 	add	r5,r5,fp
 5082afc:	28000015 	stw	zero,0(r5)
                    while (!AUDIO_DacFifoNotFull() && try_cnt < MAX_TRY_CNT){  // wait while full
 5082b00:	00000906 	br	5082b28 <main+0x7f4>
                        try_cnt++;
 5082b04:	00fffff4 	movhi	r3,65535
 5082b08:	18d7da04 	addi	r3,r3,24424
 5082b0c:	1f07883a 	add	r3,r3,fp
 5082b10:	18800017 	ldw	r2,0(r3)
 5082b14:	10800044 	addi	r2,r2,1
 5082b18:	013ffff4 	movhi	r4,65535
 5082b1c:	2117da04 	addi	r4,r4,24424
 5082b20:	2709883a 	add	r4,r4,fp
 5082b24:	20800015 	stw	r2,0(r4)
                int i = 0;


                while ((i < PLAY_BLOCK_SIZE) && (PlayLen < RecordLen)){
                    try_cnt = 0;
                    while (!AUDIO_DacFifoNotFull() && try_cnt < MAX_TRY_CNT){  // wait while full
 5082b28:	5080e800 	call	5080e80 <AUDIO_DacFifoNotFull>
 5082b2c:	1000061e 	bne	r2,zero,5082b48 <main+0x814>
 5082b30:	017ffff4 	movhi	r5,65535
 5082b34:	2957da04 	addi	r5,r5,24424
 5082b38:	2f0b883a 	add	r5,r5,fp
 5082b3c:	28800017 	ldw	r2,0(r5)
 5082b40:	10810030 	cmpltui	r2,r2,1024
 5082b44:	103fef1e 	bne	r2,zero,5082b04 <main+0x7d0>
                        try_cnt++;
                    }
                    if (try_cnt >= MAX_TRY_CNT){
 5082b48:	00fffff4 	movhi	r3,65535
 5082b4c:	18d7da04 	addi	r3,r3,24424
 5082b50:	1f07883a 	add	r3,r3,fp
 5082b54:	18800017 	ldw	r2,0(r3)
 5082b58:	10810030 	cmpltui	r2,r2,1024
 5082b5c:	1000061e 	bne	r2,zero,5082b78 <main+0x844>
                        bError = TRUE;
 5082b60:	00800044 	movi	r2,1
 5082b64:	013ffff4 	movhi	r4,65535
 5082b68:	2117d504 	addi	r4,r4,24404
 5082b6c:	2709883a 	add	r4,r4,fp
 5082b70:	20800015 	stw	r2,0(r4)
                        break;
 5082b74:	00010406 	br	5082f88 <main+0xc54>
                    }
                    data = *pPlaying++;
 5082b78:	017ffff4 	movhi	r5,65535
 5082b7c:	2957d604 	addi	r5,r5,24408
 5082b80:	2f0b883a 	add	r5,r5,fp
 5082b84:	28800017 	ldw	r2,0(r5)
 5082b88:	10c00104 	addi	r3,r2,4
 5082b8c:	013ffff4 	movhi	r4,65535
 5082b90:	2117d604 	addi	r4,r4,24408
 5082b94:	2709883a 	add	r4,r4,fp
 5082b98:	20c00015 	stw	r3,0(r4)
 5082b9c:	10800017 	ldw	r2,0(r2)
 5082ba0:	017ffff4 	movhi	r5,65535
 5082ba4:	2957e904 	addi	r5,r5,24484
 5082ba8:	2f0b883a 	add	r5,r5,fp
 5082bac:	28800015 	stw	r2,0(r5)

                    //data = 0;
                    ch_left = data >> 16;
 5082bb0:	00fffff4 	movhi	r3,65535
 5082bb4:	18d7e904 	addi	r3,r3,24484
 5082bb8:	1f07883a 	add	r3,r3,fp
 5082bbc:	18800017 	ldw	r2,0(r3)
 5082bc0:	1004d43a 	srli	r2,r2,16
 5082bc4:	013ffff4 	movhi	r4,65535
 5082bc8:	21181084 	addi	r4,r4,24642
 5082bcc:	2709883a 	add	r4,r4,fp
 5082bd0:	2080000d 	sth	r2,0(r4)
                    ch_right = data & 0xFFFF;
 5082bd4:	017ffff4 	movhi	r5,65535
 5082bd8:	2957e904 	addi	r5,r5,24484
 5082bdc:	2f0b883a 	add	r5,r5,fp
 5082be0:	28800017 	ldw	r2,0(r5)
 5082be4:	00fffff4 	movhi	r3,65535
 5082be8:	18d81004 	addi	r3,r3,24640
 5082bec:	1f07883a 	add	r3,r3,fp
 5082bf0:	1880000d 	sth	r2,0(r3)


                    AUDIO_DacFifoSetData(ch_left, ch_right);
 5082bf4:	013ffff4 	movhi	r4,65535
 5082bf8:	21181084 	addi	r4,r4,24642
 5082bfc:	2709883a 	add	r4,r4,fp
 5082c00:	2080000b 	ldhu	r2,0(r4)
 5082c04:	10bfffcc 	andi	r2,r2,65535
 5082c08:	10a0001c 	xori	r2,r2,32768
 5082c0c:	10a00004 	addi	r2,r2,-32768
 5082c10:	017ffff4 	movhi	r5,65535
 5082c14:	29581004 	addi	r5,r5,24640
 5082c18:	2f0b883a 	add	r5,r5,fp
 5082c1c:	28c0000b 	ldhu	r3,0(r5)
 5082c20:	18ffffcc 	andi	r3,r3,65535
 5082c24:	18e0001c 	xori	r3,r3,32768
 5082c28:	18e00004 	addi	r3,r3,-32768
 5082c2c:	180b883a 	mov	r5,r3
 5082c30:	1009883a 	mov	r4,r2
 5082c34:	5080ebc0 	call	5080ebc <AUDIO_DacFifoSetData>

 					i++;
 5082c38:	00fffff4 	movhi	r3,65535
 5082c3c:	18d7dd04 	addi	r3,r3,24436
 5082c40:	1f07883a 	add	r3,r3,fp
 5082c44:	18800017 	ldw	r2,0(r3)
 5082c48:	10800044 	addi	r2,r2,1
 5082c4c:	013ffff4 	movhi	r4,65535
 5082c50:	2117dd04 	addi	r4,r4,24436
 5082c54:	2709883a 	add	r4,r4,fp
 5082c58:	20800015 	stw	r2,0(r4)

 					PlayLen++;
 5082c5c:	017ffff4 	movhi	r5,65535
 5082c60:	2957d904 	addi	r5,r5,24420
 5082c64:	2f0b883a 	add	r5,r5,fp
 5082c68:	28800017 	ldw	r2,0(r5)
 5082c6c:	10800044 	addi	r2,r2,1
 5082c70:	00fffff4 	movhi	r3,65535
 5082c74:	18d7d904 	addi	r3,r3,24420
 5082c78:	1f07883a 	add	r3,r3,fp
 5082c7c:	18800015 	stw	r2,0(r3)
 					show_power(data & 0xFFFF);
 5082c80:	013ffff4 	movhi	r4,65535
 5082c84:	2117e904 	addi	r4,r4,24484
 5082c88:	2709883a 	add	r4,r4,fp
 5082c8c:	20800017 	ldw	r2,0(r4)
 5082c90:	10bfffcc 	andi	r2,r2,65535
 5082c94:	10a0001c 	xori	r2,r2,32768
 5082c98:	10a00004 	addi	r2,r2,-32768
 5082c9c:	1009883a 	mov	r4,r2
 5082ca0:	50820d00 	call	50820d0 <show_power>

 					memmove(vector, vector + 1, (MAX_FLT_LEN - 1) * sizeof(double));
 5082ca4:	00a7f914 	movui	r2,40932
 5082ca8:	017ffff4 	movhi	r5,65535
 5082cac:	2957d404 	addi	r5,r5,24400
 5082cb0:	2f0b883a 	add	r5,r5,fp
 5082cb4:	2885883a 	add	r2,r5,r2
 5082cb8:	10800204 	addi	r2,r2,8
 5082cbc:	00e7f914 	movui	r3,40932
 5082cc0:	013ffff4 	movhi	r4,65535
 5082cc4:	2117d404 	addi	r4,r4,24400
 5082cc8:	2709883a 	add	r4,r4,fp
 5082ccc:	20c7883a 	add	r3,r4,r3
 5082cd0:	01802004 	movi	r6,128
 5082cd4:	100b883a 	mov	r5,r2
 5082cd8:	1809883a 	mov	r4,r3
 5082cdc:	5084eac0 	call	5084eac <memmove>




                    int size = MAX_FLT_LEN;
 5082ce0:	00800444 	movi	r2,17
 5082ce4:	017ffff4 	movhi	r5,65535
 5082ce8:	2957ea04 	addi	r5,r5,24488
 5082cec:	2f0b883a 	add	r5,r5,fp
 5082cf0:	28800015 	stw	r2,0(r5)

                        // perform the filtering
//                        floatToInt(floatOutput, vector_out, size);
                    if (i % 2 == 0){
 5082cf4:	00fffff4 	movhi	r3,65535
 5082cf8:	18d7dd04 	addi	r3,r3,24436
 5082cfc:	1f07883a 	add	r3,r3,fp
 5082d00:	18800017 	ldw	r2,0(r3)
 5082d04:	1080004c 	andi	r2,r2,1
 5082d08:	1000901e 	bne	r2,zero,5082f4c <main+0xc18>
                    	double freq = (double)(ch_left - 64774.7);
 5082d0c:	013ffff4 	movhi	r4,65535
 5082d10:	21181084 	addi	r4,r4,24642
 5082d14:	2709883a 	add	r4,r4,fp
 5082d18:	2080000b 	ldhu	r2,0(r4)
 5082d1c:	10bfffcc 	andi	r2,r2,65535
 5082d20:	1009883a 	mov	r4,r2
 5082d24:	5084c240 	call	5084c24 <__floatsidf>
 5082d28:	1011883a 	mov	r8,r2
 5082d2c:	1813883a 	mov	r9,r3
 5082d30:	019999b4 	movhi	r6,26214
 5082d34:	31999984 	addi	r6,r6,26214
 5082d38:	01d03c34 	movhi	r7,16624
 5082d3c:	39e83584 	addi	r7,r7,-24362
 5082d40:	4009883a 	mov	r4,r8
 5082d44:	480b883a 	mov	r5,r9
 5082d48:	50843280 	call	5084328 <__subdf3>
 5082d4c:	1009883a 	mov	r4,r2
 5082d50:	180b883a 	mov	r5,r3
 5082d54:	00bffff4 	movhi	r2,65535
 5082d58:	1097eb04 	addi	r2,r2,24492
 5082d5c:	1705883a 	add	r2,r2,fp
 5082d60:	11000015 	stw	r4,0(r2)
 5082d64:	00fffff4 	movhi	r3,65535
 5082d68:	18d7ec04 	addi	r3,r3,24496
 5082d6c:	1f07883a 	add	r3,r3,fp
 5082d70:	19400015 	stw	r5,0(r3)
						if (freq < 20000){
 5082d74:	000d883a 	mov	r6,zero
 5082d78:	01d03534 	movhi	r7,16596
 5082d7c:	39e20004 	addi	r7,r7,-30720
 5082d80:	017ffff4 	movhi	r5,65535
 5082d84:	2957eb04 	addi	r5,r5,24492
 5082d88:	2f0b883a 	add	r5,r5,fp
 5082d8c:	29000017 	ldw	r4,0(r5)
 5082d90:	00bffff4 	movhi	r2,65535
 5082d94:	1097ec04 	addi	r2,r2,24496
 5082d98:	1705883a 	add	r2,r2,fp
 5082d9c:	11400017 	ldw	r5,0(r2)
 5082da0:	5083b1c0 	call	5083b1c <__ledf2>
 5082da4:	1000100e 	bge	r2,zero,5082de8 <main+0xab4>
							vector[0] = freq;
 5082da8:	00a7f914 	movui	r2,40932
 5082dac:	00fffff4 	movhi	r3,65535
 5082db0:	18d7d404 	addi	r3,r3,24400
 5082db4:	1f07883a 	add	r3,r3,fp
 5082db8:	1885883a 	add	r2,r3,r2
 5082dbc:	013ffff4 	movhi	r4,65535
 5082dc0:	2117eb04 	addi	r4,r4,24492
 5082dc4:	2709883a 	add	r4,r4,fp
 5082dc8:	20c00017 	ldw	r3,0(r4)
 5082dcc:	10c00015 	stw	r3,0(r2)
 5082dd0:	017ffff4 	movhi	r5,65535
 5082dd4:	2957ec04 	addi	r5,r5,24496
 5082dd8:	2f0b883a 	add	r5,r5,fp
 5082ddc:	28c00017 	ldw	r3,0(r5)
 5082de0:	10c00115 	stw	r3,4(r2)
 5082de4:	00000706 	br	5082e04 <main+0xad0>
						}
						else{
							vector[0] = 0;
 5082de8:	00a7f914 	movui	r2,40932
 5082dec:	00fffff4 	movhi	r3,65535
 5082df0:	18d7d404 	addi	r3,r3,24400
 5082df4:	1f07883a 	add	r3,r3,fp
 5082df8:	1885883a 	add	r2,r3,r2
 5082dfc:	10000015 	stw	zero,0(r2)
 5082e00:	10000115 	stw	zero,4(r2)
						}
                    	tudo[j] = (convolve(vector,coeffs,MAX_FLT_LEN , MAX_FLT_LEN));
 5082e04:	013ffff4 	movhi	r4,65535
 5082e08:	21181104 	addi	r4,r4,24644
 5082e0c:	e107883a 	add	r3,fp,r4
 5082e10:	00a7f914 	movui	r2,40932
 5082e14:	017ffff4 	movhi	r5,65535
 5082e18:	2957d404 	addi	r5,r5,24400
 5082e1c:	2f0b883a 	add	r5,r5,fp
 5082e20:	2885883a 	add	r2,r5,r2
 5082e24:	017ffff4 	movhi	r5,65535
 5082e28:	2957ed04 	addi	r5,r5,24500
 5082e2c:	e149883a 	add	r4,fp,r5
 5082e30:	2019883a 	mov	r12,r4
 5082e34:	01c00444 	movi	r7,17
 5082e38:	01800444 	movi	r6,17
 5082e3c:	180b883a 	mov	r5,r3
 5082e40:	1009883a 	mov	r4,r2
 5082e44:	5082fb40 	call	5082fb4 <convolve.4513>
 5082e48:	1009883a 	mov	r4,r2
 5082e4c:	180b883a 	mov	r5,r3
 5082e50:	00fffff4 	movhi	r3,65535
 5082e54:	18d7db04 	addi	r3,r3,24428
 5082e58:	1f07883a 	add	r3,r3,fp
 5082e5c:	18800017 	ldw	r2,0(r3)
 5082e60:	100490fa 	slli	r2,r2,3
 5082e64:	00fffff4 	movhi	r3,65535
 5082e68:	18d7d404 	addi	r3,r3,24400
 5082e6c:	1f07883a 	add	r3,r3,fp
 5082e70:	1885883a 	add	r2,r3,r2
 5082e74:	1080b904 	addi	r2,r2,740
 5082e78:	11000015 	stw	r4,0(r2)
 5082e7c:	11400115 	stw	r5,4(r2)
                    	tudo_meio[j] = (convolve(vector,coeffs_2,MAX_FLT_LEN_2 , MAX_FLT_LEN));
 5082e80:	013ffff4 	movhi	r4,65535
 5082e84:	21183304 	addi	r4,r4,24780
 5082e88:	e107883a 	add	r3,fp,r4
 5082e8c:	00a7f914 	movui	r2,40932
 5082e90:	017ffff4 	movhi	r5,65535
 5082e94:	2957d404 	addi	r5,r5,24400
 5082e98:	2f0b883a 	add	r5,r5,fp
 5082e9c:	2885883a 	add	r2,r5,r2
 5082ea0:	017ffff4 	movhi	r5,65535
 5082ea4:	2957ed04 	addi	r5,r5,24500
 5082ea8:	e149883a 	add	r4,fp,r5
 5082eac:	2019883a 	mov	r12,r4
 5082eb0:	01c00444 	movi	r7,17
 5082eb4:	018002c4 	movi	r6,11
 5082eb8:	180b883a 	mov	r5,r3
 5082ebc:	1009883a 	mov	r4,r2
 5082ec0:	5082fb40 	call	5082fb4 <convolve.4513>
 5082ec4:	1009883a 	mov	r4,r2
 5082ec8:	180b883a 	mov	r5,r3
 5082ecc:	00fffff4 	movhi	r3,65535
 5082ed0:	18d7db04 	addi	r3,r3,24428
 5082ed4:	1f07883a 	add	r3,r3,fp
 5082ed8:	18800017 	ldw	r2,0(r3)
 5082edc:	100490fa 	slli	r2,r2,3
 5082ee0:	00fffff4 	movhi	r3,65535
 5082ee4:	18d7d404 	addi	r3,r3,24400
 5082ee8:	1f07883a 	add	r3,r3,fp
 5082eec:	1885883a 	add	r2,r3,r2
 5082ef0:	10905904 	addi	r2,r2,16740
 5082ef4:	11000015 	stw	r4,0(r2)
 5082ef8:	11400115 	stw	r5,4(r2)
                    	 j++;
 5082efc:	013ffff4 	movhi	r4,65535
 5082f00:	2117db04 	addi	r4,r4,24428
 5082f04:	2709883a 	add	r4,r4,fp
 5082f08:	20800017 	ldw	r2,0(r4)
 5082f0c:	10800044 	addi	r2,r2,1
 5082f10:	017ffff4 	movhi	r5,65535
 5082f14:	2957db04 	addi	r5,r5,24428
 5082f18:	2f0b883a 	add	r5,r5,fp
 5082f1c:	28800015 	stw	r2,0(r5)
                    	 j = j %2000;
 5082f20:	00fffff4 	movhi	r3,65535
 5082f24:	18d7db04 	addi	r3,r3,24428
 5082f28:	1f07883a 	add	r3,r3,fp
 5082f2c:	18800017 	ldw	r2,0(r3)
 5082f30:	0141f404 	movi	r5,2000
 5082f34:	1009883a 	mov	r4,r2
 5082f38:	50831400 	call	5083140 <__modsi3>
 5082f3c:	013ffff4 	movhi	r4,65535
 5082f40:	2117db04 	addi	r4,r4,24428
 5082f44:	2709883a 	add	r4,r4,fp
 5082f48:	20800015 	stw	r2,0(r4)
            }else{
                // continue playing
                int i = 0;


                while ((i < PLAY_BLOCK_SIZE) && (PlayLen < RecordLen)){
 5082f4c:	017ffff4 	movhi	r5,65535
 5082f50:	2957dd04 	addi	r5,r5,24436
 5082f54:	2f0b883a 	add	r5,r5,fp
 5082f58:	28800017 	ldw	r2,0(r5)
 5082f5c:	10803e88 	cmpgei	r2,r2,250
 5082f60:	1000091e 	bne	r2,zero,5082f88 <main+0xc54>
 5082f64:	00bffff4 	movhi	r2,65535
 5082f68:	1097d904 	addi	r2,r2,24420
 5082f6c:	1705883a 	add	r2,r2,fp
 5082f70:	10c00017 	ldw	r3,0(r2)
 5082f74:	013ffff4 	movhi	r4,65535
 5082f78:	2117d804 	addi	r4,r4,24416
 5082f7c:	2709883a 	add	r4,r4,fp
 5082f80:	20800017 	ldw	r2,0(r4)
 5082f84:	18beda36 	bltu	r3,r2,5082af0 <main+0x7bc>



//                    printf("[%d] %d/%d\n", PlayLen, (short)((data >> 16) & 0xFFFF), (short)(data & 0xFFFF));
                }
                display_time_elapsed(PlayLen);
 5082f88:	017ffff4 	movhi	r5,65535
 5082f8c:	2957d904 	addi	r5,r5,24420
 5082f90:	2f0b883a 	add	r5,r5,fp
 5082f94:	29000017 	ldw	r4,0(r5)
 5082f98:	508207c0 	call	508207c <display_time_elapsed>
            }
        }
    }
 5082f9c:	003d4106 	br	50824a4 <main+0x170>

}
 5082fa0:	e037883a 	mov	sp,fp
 5082fa4:	dfc00117 	ldw	ra,4(sp)
 5082fa8:	df000017 	ldw	fp,0(sp)
 5082fac:	dec00204 	addi	sp,sp,8
 5082fb0:	f800283a 	ret

05082fb4 <convolve.4513>:
        memset( insamp, 0, sizeof( insamp ) );
    }

    // the FIR filter function
    // Function to perform convolution
    double convolve(double *input,double *kernel, int dataSize, int kernelSize) {
 5082fb4:	defff504 	addi	sp,sp,-44
 5082fb8:	dfc00a15 	stw	ra,40(sp)
 5082fbc:	df000915 	stw	fp,36(sp)
 5082fc0:	df000904 	addi	fp,sp,36
 5082fc4:	e13ffb15 	stw	r4,-20(fp)
 5082fc8:	e17ffc15 	stw	r5,-16(fp)
 5082fcc:	e1bffd15 	stw	r6,-12(fp)
 5082fd0:	e1fffe15 	stw	r7,-8(fp)
 5082fd4:	e33fff15 	stw	r12,-4(fp)
        int i, j;
            double output = 0;
 5082fd8:	e03ff815 	stw	zero,-32(fp)
 5082fdc:	e03ff915 	stw	zero,-28(fp)
            for (j = 0; j < kernelSize; ++j) {
 5082fe0:	e03ff715 	stw	zero,-36(fp)
 5082fe4:	00002706 	br	5083084 <convolve.4513+0xd0>
                if (i - j >= 0) {
 5082fe8:	e0fffa17 	ldw	r3,-24(fp)
 5082fec:	e0bff717 	ldw	r2,-36(fp)
 5082ff0:	1885c83a 	sub	r2,r3,r2
 5082ff4:	10002016 	blt	r2,zero,5083078 <convolve.4513+0xc4>
                    output += input[i - j] * kernel[j];
 5082ff8:	e0fffa17 	ldw	r3,-24(fp)
 5082ffc:	e0bff717 	ldw	r2,-36(fp)
 5083000:	1885c83a 	sub	r2,r3,r2
 5083004:	100490fa 	slli	r2,r2,3
 5083008:	e0fffb17 	ldw	r3,-20(fp)
 508300c:	1889883a 	add	r4,r3,r2
 5083010:	20800017 	ldw	r2,0(r4)
 5083014:	20c00117 	ldw	r3,4(r4)
 5083018:	e13ff717 	ldw	r4,-36(fp)
 508301c:	200890fa 	slli	r4,r4,3
 5083020:	e17ffc17 	ldw	r5,-16(fp)
 5083024:	290d883a 	add	r6,r5,r4
 5083028:	31000017 	ldw	r4,0(r6)
 508302c:	31400117 	ldw	r5,4(r6)
 5083030:	200d883a 	mov	r6,r4
 5083034:	280f883a 	mov	r7,r5
 5083038:	1009883a 	mov	r4,r2
 508303c:	180b883a 	mov	r5,r3
 5083040:	5083c100 	call	5083c10 <__muldf3>
 5083044:	1009883a 	mov	r4,r2
 5083048:	180b883a 	mov	r5,r3
 508304c:	2005883a 	mov	r2,r4
 5083050:	2807883a 	mov	r3,r5
 5083054:	100d883a 	mov	r6,r2
 5083058:	180f883a 	mov	r7,r3
 508305c:	e13ff817 	ldw	r4,-32(fp)
 5083060:	e17ff917 	ldw	r5,-28(fp)
 5083064:	50832700 	call	5083270 <__adddf3>
 5083068:	1009883a 	mov	r4,r2
 508306c:	180b883a 	mov	r5,r3
 5083070:	e13ff815 	stw	r4,-32(fp)
 5083074:	e17ff915 	stw	r5,-28(fp)
    // the FIR filter function
    // Function to perform convolution
    double convolve(double *input,double *kernel, int dataSize, int kernelSize) {
        int i, j;
            double output = 0;
            for (j = 0; j < kernelSize; ++j) {
 5083078:	e0bff717 	ldw	r2,-36(fp)
 508307c:	10800044 	addi	r2,r2,1
 5083080:	e0bff715 	stw	r2,-36(fp)
 5083084:	e0fff717 	ldw	r3,-36(fp)
 5083088:	e0bffe17 	ldw	r2,-8(fp)
 508308c:	18bfd616 	blt	r3,r2,5082fe8 <convolve.4513+0x34>
                if (i - j >= 0) {
                    output += input[i - j] * kernel[j];
                }
            }
            return output;
 5083090:	e0bff817 	ldw	r2,-32(fp)
 5083094:	e0fff917 	ldw	r3,-28(fp)
 5083098:	1009883a 	mov	r4,r2
 508309c:	180b883a 	mov	r5,r3
    }
 50830a0:	2005883a 	mov	r2,r4
 50830a4:	2807883a 	mov	r3,r5
 50830a8:	e037883a 	mov	sp,fp
 50830ac:	dfc00117 	ldw	ra,4(sp)
 50830b0:	df000017 	ldw	fp,0(sp)
 50830b4:	dec00204 	addi	sp,sp,8
 50830b8:	f800283a 	ret

050830bc <__divsi3>:
 50830bc:	20001b16 	blt	r4,zero,508312c <__divsi3+0x70>
 50830c0:	000f883a 	mov	r7,zero
 50830c4:	28001616 	blt	r5,zero,5083120 <__divsi3+0x64>
 50830c8:	200d883a 	mov	r6,r4
 50830cc:	29001a2e 	bgeu	r5,r4,5083138 <__divsi3+0x7c>
 50830d0:	00800804 	movi	r2,32
 50830d4:	00c00044 	movi	r3,1
 50830d8:	00000106 	br	50830e0 <__divsi3+0x24>
 50830dc:	10000d26 	beq	r2,zero,5083114 <__divsi3+0x58>
 50830e0:	294b883a 	add	r5,r5,r5
 50830e4:	10bfffc4 	addi	r2,r2,-1
 50830e8:	18c7883a 	add	r3,r3,r3
 50830ec:	293ffb36 	bltu	r5,r4,50830dc <__divsi3+0x20>
 50830f0:	0005883a 	mov	r2,zero
 50830f4:	18000726 	beq	r3,zero,5083114 <__divsi3+0x58>
 50830f8:	0005883a 	mov	r2,zero
 50830fc:	31400236 	bltu	r6,r5,5083108 <__divsi3+0x4c>
 5083100:	314dc83a 	sub	r6,r6,r5
 5083104:	10c4b03a 	or	r2,r2,r3
 5083108:	1806d07a 	srli	r3,r3,1
 508310c:	280ad07a 	srli	r5,r5,1
 5083110:	183ffa1e 	bne	r3,zero,50830fc <__divsi3+0x40>
 5083114:	38000126 	beq	r7,zero,508311c <__divsi3+0x60>
 5083118:	0085c83a 	sub	r2,zero,r2
 508311c:	f800283a 	ret
 5083120:	014bc83a 	sub	r5,zero,r5
 5083124:	39c0005c 	xori	r7,r7,1
 5083128:	003fe706 	br	50830c8 <__divsi3+0xc>
 508312c:	0109c83a 	sub	r4,zero,r4
 5083130:	01c00044 	movi	r7,1
 5083134:	003fe306 	br	50830c4 <__divsi3+0x8>
 5083138:	00c00044 	movi	r3,1
 508313c:	003fee06 	br	50830f8 <__divsi3+0x3c>

05083140 <__modsi3>:
 5083140:	20001716 	blt	r4,zero,50831a0 <__modsi3+0x60>
 5083144:	000f883a 	mov	r7,zero
 5083148:	2005883a 	mov	r2,r4
 508314c:	28001216 	blt	r5,zero,5083198 <__modsi3+0x58>
 5083150:	2900162e 	bgeu	r5,r4,50831ac <__modsi3+0x6c>
 5083154:	01800804 	movi	r6,32
 5083158:	00c00044 	movi	r3,1
 508315c:	00000106 	br	5083164 <__modsi3+0x24>
 5083160:	30000a26 	beq	r6,zero,508318c <__modsi3+0x4c>
 5083164:	294b883a 	add	r5,r5,r5
 5083168:	31bfffc4 	addi	r6,r6,-1
 508316c:	18c7883a 	add	r3,r3,r3
 5083170:	293ffb36 	bltu	r5,r4,5083160 <__modsi3+0x20>
 5083174:	18000526 	beq	r3,zero,508318c <__modsi3+0x4c>
 5083178:	1806d07a 	srli	r3,r3,1
 508317c:	11400136 	bltu	r2,r5,5083184 <__modsi3+0x44>
 5083180:	1145c83a 	sub	r2,r2,r5
 5083184:	280ad07a 	srli	r5,r5,1
 5083188:	183ffb1e 	bne	r3,zero,5083178 <__modsi3+0x38>
 508318c:	38000126 	beq	r7,zero,5083194 <__modsi3+0x54>
 5083190:	0085c83a 	sub	r2,zero,r2
 5083194:	f800283a 	ret
 5083198:	014bc83a 	sub	r5,zero,r5
 508319c:	003fec06 	br	5083150 <__modsi3+0x10>
 50831a0:	0109c83a 	sub	r4,zero,r4
 50831a4:	01c00044 	movi	r7,1
 50831a8:	003fe706 	br	5083148 <__modsi3+0x8>
 50831ac:	00c00044 	movi	r3,1
 50831b0:	003ff106 	br	5083178 <__modsi3+0x38>

050831b4 <__udivsi3>:
 50831b4:	200d883a 	mov	r6,r4
 50831b8:	2900152e 	bgeu	r5,r4,5083210 <__udivsi3+0x5c>
 50831bc:	28001416 	blt	r5,zero,5083210 <__udivsi3+0x5c>
 50831c0:	00800804 	movi	r2,32
 50831c4:	00c00044 	movi	r3,1
 50831c8:	00000206 	br	50831d4 <__udivsi3+0x20>
 50831cc:	10000e26 	beq	r2,zero,5083208 <__udivsi3+0x54>
 50831d0:	28000516 	blt	r5,zero,50831e8 <__udivsi3+0x34>
 50831d4:	294b883a 	add	r5,r5,r5
 50831d8:	10bfffc4 	addi	r2,r2,-1
 50831dc:	18c7883a 	add	r3,r3,r3
 50831e0:	293ffa36 	bltu	r5,r4,50831cc <__udivsi3+0x18>
 50831e4:	18000826 	beq	r3,zero,5083208 <__udivsi3+0x54>
 50831e8:	0005883a 	mov	r2,zero
 50831ec:	31400236 	bltu	r6,r5,50831f8 <__udivsi3+0x44>
 50831f0:	314dc83a 	sub	r6,r6,r5
 50831f4:	10c4b03a 	or	r2,r2,r3
 50831f8:	1806d07a 	srli	r3,r3,1
 50831fc:	280ad07a 	srli	r5,r5,1
 5083200:	183ffa1e 	bne	r3,zero,50831ec <__udivsi3+0x38>
 5083204:	f800283a 	ret
 5083208:	0005883a 	mov	r2,zero
 508320c:	f800283a 	ret
 5083210:	00c00044 	movi	r3,1
 5083214:	003ff406 	br	50831e8 <__udivsi3+0x34>

05083218 <__umodsi3>:
 5083218:	2005883a 	mov	r2,r4
 508321c:	2900122e 	bgeu	r5,r4,5083268 <__umodsi3+0x50>
 5083220:	28001116 	blt	r5,zero,5083268 <__umodsi3+0x50>
 5083224:	01800804 	movi	r6,32
 5083228:	00c00044 	movi	r3,1
 508322c:	00000206 	br	5083238 <__umodsi3+0x20>
 5083230:	30000c26 	beq	r6,zero,5083264 <__umodsi3+0x4c>
 5083234:	28000516 	blt	r5,zero,508324c <__umodsi3+0x34>
 5083238:	294b883a 	add	r5,r5,r5
 508323c:	31bfffc4 	addi	r6,r6,-1
 5083240:	18c7883a 	add	r3,r3,r3
 5083244:	293ffa36 	bltu	r5,r4,5083230 <__umodsi3+0x18>
 5083248:	18000626 	beq	r3,zero,5083264 <__umodsi3+0x4c>
 508324c:	1806d07a 	srli	r3,r3,1
 5083250:	11400136 	bltu	r2,r5,5083258 <__umodsi3+0x40>
 5083254:	1145c83a 	sub	r2,r2,r5
 5083258:	280ad07a 	srli	r5,r5,1
 508325c:	183ffb1e 	bne	r3,zero,508324c <__umodsi3+0x34>
 5083260:	f800283a 	ret
 5083264:	f800283a 	ret
 5083268:	00c00044 	movi	r3,1
 508326c:	003ff706 	br	508324c <__umodsi3+0x34>

05083270 <__adddf3>:
 5083270:	02c00434 	movhi	r11,16
 5083274:	5affffc4 	addi	r11,r11,-1
 5083278:	2806d7fa 	srli	r3,r5,31
 508327c:	2ad4703a 	and	r10,r5,r11
 5083280:	3ad2703a 	and	r9,r7,r11
 5083284:	3804d53a 	srli	r2,r7,20
 5083288:	3018d77a 	srli	r12,r6,29
 508328c:	280ad53a 	srli	r5,r5,20
 5083290:	501490fa 	slli	r10,r10,3
 5083294:	2010d77a 	srli	r8,r4,29
 5083298:	481290fa 	slli	r9,r9,3
 508329c:	380ed7fa 	srli	r7,r7,31
 50832a0:	defffb04 	addi	sp,sp,-20
 50832a4:	dc800215 	stw	r18,8(sp)
 50832a8:	dc400115 	stw	r17,4(sp)
 50832ac:	dc000015 	stw	r16,0(sp)
 50832b0:	dfc00415 	stw	ra,16(sp)
 50832b4:	dcc00315 	stw	r19,12(sp)
 50832b8:	1c803fcc 	andi	r18,r3,255
 50832bc:	2c01ffcc 	andi	r16,r5,2047
 50832c0:	5210b03a 	or	r8,r10,r8
 50832c4:	202290fa 	slli	r17,r4,3
 50832c8:	1081ffcc 	andi	r2,r2,2047
 50832cc:	4b12b03a 	or	r9,r9,r12
 50832d0:	300c90fa 	slli	r6,r6,3
 50832d4:	91c07526 	beq	r18,r7,50834ac <__adddf3+0x23c>
 50832d8:	8087c83a 	sub	r3,r16,r2
 50832dc:	00c0ab0e 	bge	zero,r3,508358c <__adddf3+0x31c>
 50832e0:	10002a1e 	bne	r2,zero,508338c <__adddf3+0x11c>
 50832e4:	4984b03a 	or	r2,r9,r6
 50832e8:	1000961e 	bne	r2,zero,5083544 <__adddf3+0x2d4>
 50832ec:	888001cc 	andi	r2,r17,7
 50832f0:	10000726 	beq	r2,zero,5083310 <__adddf3+0xa0>
 50832f4:	888003cc 	andi	r2,r17,15
 50832f8:	00c00104 	movi	r3,4
 50832fc:	10c00426 	beq	r2,r3,5083310 <__adddf3+0xa0>
 5083300:	88c7883a 	add	r3,r17,r3
 5083304:	1c63803a 	cmpltu	r17,r3,r17
 5083308:	4451883a 	add	r8,r8,r17
 508330c:	1823883a 	mov	r17,r3
 5083310:	4080202c 	andhi	r2,r8,128
 5083314:	10005926 	beq	r2,zero,508347c <__adddf3+0x20c>
 5083318:	84000044 	addi	r16,r16,1
 508331c:	0081ffc4 	movi	r2,2047
 5083320:	8080ba26 	beq	r16,r2,508360c <__adddf3+0x39c>
 5083324:	00bfe034 	movhi	r2,65408
 5083328:	10bfffc4 	addi	r2,r2,-1
 508332c:	4090703a 	and	r8,r8,r2
 5083330:	4004977a 	slli	r2,r8,29
 5083334:	4010927a 	slli	r8,r8,9
 5083338:	8822d0fa 	srli	r17,r17,3
 508333c:	8401ffcc 	andi	r16,r16,2047
 5083340:	4010d33a 	srli	r8,r8,12
 5083344:	9007883a 	mov	r3,r18
 5083348:	1444b03a 	or	r2,r2,r17
 508334c:	8401ffcc 	andi	r16,r16,2047
 5083350:	8020953a 	slli	r16,r16,20
 5083354:	18c03fcc 	andi	r3,r3,255
 5083358:	01000434 	movhi	r4,16
 508335c:	213fffc4 	addi	r4,r4,-1
 5083360:	180697fa 	slli	r3,r3,31
 5083364:	4110703a 	and	r8,r8,r4
 5083368:	4410b03a 	or	r8,r8,r16
 508336c:	40c6b03a 	or	r3,r8,r3
 5083370:	dfc00417 	ldw	ra,16(sp)
 5083374:	dcc00317 	ldw	r19,12(sp)
 5083378:	dc800217 	ldw	r18,8(sp)
 508337c:	dc400117 	ldw	r17,4(sp)
 5083380:	dc000017 	ldw	r16,0(sp)
 5083384:	dec00504 	addi	sp,sp,20
 5083388:	f800283a 	ret
 508338c:	0081ffc4 	movi	r2,2047
 5083390:	80bfd626 	beq	r16,r2,50832ec <__adddf3+0x7c>
 5083394:	4a402034 	orhi	r9,r9,128
 5083398:	00800e04 	movi	r2,56
 508339c:	10c09f16 	blt	r2,r3,508361c <__adddf3+0x3ac>
 50833a0:	008007c4 	movi	r2,31
 50833a4:	10c0c216 	blt	r2,r3,50836b0 <__adddf3+0x440>
 50833a8:	00800804 	movi	r2,32
 50833ac:	10c5c83a 	sub	r2,r2,r3
 50833b0:	488a983a 	sll	r5,r9,r2
 50833b4:	30c8d83a 	srl	r4,r6,r3
 50833b8:	3084983a 	sll	r2,r6,r2
 50833bc:	48c6d83a 	srl	r3,r9,r3
 50833c0:	290cb03a 	or	r6,r5,r4
 50833c4:	1004c03a 	cmpne	r2,r2,zero
 50833c8:	308cb03a 	or	r6,r6,r2
 50833cc:	898dc83a 	sub	r6,r17,r6
 50833d0:	89a3803a 	cmpltu	r17,r17,r6
 50833d4:	40d1c83a 	sub	r8,r8,r3
 50833d8:	4451c83a 	sub	r8,r8,r17
 50833dc:	3023883a 	mov	r17,r6
 50833e0:	4080202c 	andhi	r2,r8,128
 50833e4:	10002326 	beq	r2,zero,5083474 <__adddf3+0x204>
 50833e8:	04c02034 	movhi	r19,128
 50833ec:	9cffffc4 	addi	r19,r19,-1
 50833f0:	44e6703a 	and	r19,r8,r19
 50833f4:	98007626 	beq	r19,zero,50835d0 <__adddf3+0x360>
 50833f8:	9809883a 	mov	r4,r19
 50833fc:	5084d000 	call	5084d00 <__clzsi2>
 5083400:	10fffe04 	addi	r3,r2,-8
 5083404:	010007c4 	movi	r4,31
 5083408:	20c07716 	blt	r4,r3,50835e8 <__adddf3+0x378>
 508340c:	00800804 	movi	r2,32
 5083410:	10c5c83a 	sub	r2,r2,r3
 5083414:	8884d83a 	srl	r2,r17,r2
 5083418:	98d0983a 	sll	r8,r19,r3
 508341c:	88e2983a 	sll	r17,r17,r3
 5083420:	1204b03a 	or	r2,r2,r8
 5083424:	1c007416 	blt	r3,r16,50835f8 <__adddf3+0x388>
 5083428:	1c21c83a 	sub	r16,r3,r16
 508342c:	82000044 	addi	r8,r16,1
 5083430:	00c007c4 	movi	r3,31
 5083434:	1a009116 	blt	r3,r8,508367c <__adddf3+0x40c>
 5083438:	00c00804 	movi	r3,32
 508343c:	1a07c83a 	sub	r3,r3,r8
 5083440:	8a08d83a 	srl	r4,r17,r8
 5083444:	88e2983a 	sll	r17,r17,r3
 5083448:	10c6983a 	sll	r3,r2,r3
 508344c:	1210d83a 	srl	r8,r2,r8
 5083450:	8804c03a 	cmpne	r2,r17,zero
 5083454:	1906b03a 	or	r3,r3,r4
 5083458:	18a2b03a 	or	r17,r3,r2
 508345c:	0021883a 	mov	r16,zero
 5083460:	003fa206 	br	50832ec <__adddf3+0x7c>
 5083464:	1890b03a 	or	r8,r3,r2
 5083468:	40017d26 	beq	r8,zero,5083a60 <__adddf3+0x7f0>
 508346c:	1011883a 	mov	r8,r2
 5083470:	1823883a 	mov	r17,r3
 5083474:	888001cc 	andi	r2,r17,7
 5083478:	103f9e1e 	bne	r2,zero,50832f4 <__adddf3+0x84>
 508347c:	4004977a 	slli	r2,r8,29
 5083480:	8822d0fa 	srli	r17,r17,3
 5083484:	4010d0fa 	srli	r8,r8,3
 5083488:	9007883a 	mov	r3,r18
 508348c:	1444b03a 	or	r2,r2,r17
 5083490:	0101ffc4 	movi	r4,2047
 5083494:	81002426 	beq	r16,r4,5083528 <__adddf3+0x2b8>
 5083498:	8120703a 	and	r16,r16,r4
 508349c:	01000434 	movhi	r4,16
 50834a0:	213fffc4 	addi	r4,r4,-1
 50834a4:	4110703a 	and	r8,r8,r4
 50834a8:	003fa806 	br	508334c <__adddf3+0xdc>
 50834ac:	8089c83a 	sub	r4,r16,r2
 50834b0:	01005e0e 	bge	zero,r4,508362c <__adddf3+0x3bc>
 50834b4:	10002b26 	beq	r2,zero,5083564 <__adddf3+0x2f4>
 50834b8:	0081ffc4 	movi	r2,2047
 50834bc:	80bf8b26 	beq	r16,r2,50832ec <__adddf3+0x7c>
 50834c0:	4a402034 	orhi	r9,r9,128
 50834c4:	00800e04 	movi	r2,56
 50834c8:	1100a40e 	bge	r2,r4,508375c <__adddf3+0x4ec>
 50834cc:	498cb03a 	or	r6,r9,r6
 50834d0:	300ac03a 	cmpne	r5,r6,zero
 50834d4:	0013883a 	mov	r9,zero
 50834d8:	2c4b883a 	add	r5,r5,r17
 50834dc:	2c63803a 	cmpltu	r17,r5,r17
 50834e0:	4a11883a 	add	r8,r9,r8
 50834e4:	8a11883a 	add	r8,r17,r8
 50834e8:	2823883a 	mov	r17,r5
 50834ec:	4080202c 	andhi	r2,r8,128
 50834f0:	103fe026 	beq	r2,zero,5083474 <__adddf3+0x204>
 50834f4:	84000044 	addi	r16,r16,1
 50834f8:	0081ffc4 	movi	r2,2047
 50834fc:	8080d226 	beq	r16,r2,5083848 <__adddf3+0x5d8>
 5083500:	00bfe034 	movhi	r2,65408
 5083504:	10bfffc4 	addi	r2,r2,-1
 5083508:	4090703a 	and	r8,r8,r2
 508350c:	880ad07a 	srli	r5,r17,1
 5083510:	400897fa 	slli	r4,r8,31
 5083514:	88c0004c 	andi	r3,r17,1
 5083518:	28e2b03a 	or	r17,r5,r3
 508351c:	4010d07a 	srli	r8,r8,1
 5083520:	2462b03a 	or	r17,r4,r17
 5083524:	003f7106 	br	50832ec <__adddf3+0x7c>
 5083528:	4088b03a 	or	r4,r8,r2
 508352c:	20014526 	beq	r4,zero,5083a44 <__adddf3+0x7d4>
 5083530:	01000434 	movhi	r4,16
 5083534:	42000234 	orhi	r8,r8,8
 5083538:	213fffc4 	addi	r4,r4,-1
 508353c:	4110703a 	and	r8,r8,r4
 5083540:	003f8206 	br	508334c <__adddf3+0xdc>
 5083544:	18ffffc4 	addi	r3,r3,-1
 5083548:	1800491e 	bne	r3,zero,5083670 <__adddf3+0x400>
 508354c:	898bc83a 	sub	r5,r17,r6
 5083550:	8963803a 	cmpltu	r17,r17,r5
 5083554:	4251c83a 	sub	r8,r8,r9
 5083558:	4451c83a 	sub	r8,r8,r17
 508355c:	2823883a 	mov	r17,r5
 5083560:	003f9f06 	br	50833e0 <__adddf3+0x170>
 5083564:	4984b03a 	or	r2,r9,r6
 5083568:	103f6026 	beq	r2,zero,50832ec <__adddf3+0x7c>
 508356c:	213fffc4 	addi	r4,r4,-1
 5083570:	2000931e 	bne	r4,zero,50837c0 <__adddf3+0x550>
 5083574:	898d883a 	add	r6,r17,r6
 5083578:	3463803a 	cmpltu	r17,r6,r17
 508357c:	4251883a 	add	r8,r8,r9
 5083580:	8a11883a 	add	r8,r17,r8
 5083584:	3023883a 	mov	r17,r6
 5083588:	003fd806 	br	50834ec <__adddf3+0x27c>
 508358c:	1800541e 	bne	r3,zero,50836e0 <__adddf3+0x470>
 5083590:	80800044 	addi	r2,r16,1
 5083594:	1081ffcc 	andi	r2,r2,2047
 5083598:	00c00044 	movi	r3,1
 508359c:	1880a00e 	bge	r3,r2,5083820 <__adddf3+0x5b0>
 50835a0:	8989c83a 	sub	r4,r17,r6
 50835a4:	8905803a 	cmpltu	r2,r17,r4
 50835a8:	4267c83a 	sub	r19,r8,r9
 50835ac:	98a7c83a 	sub	r19,r19,r2
 50835b0:	9880202c 	andhi	r2,r19,128
 50835b4:	10006326 	beq	r2,zero,5083744 <__adddf3+0x4d4>
 50835b8:	3463c83a 	sub	r17,r6,r17
 50835bc:	4a07c83a 	sub	r3,r9,r8
 50835c0:	344d803a 	cmpltu	r6,r6,r17
 50835c4:	19a7c83a 	sub	r19,r3,r6
 50835c8:	3825883a 	mov	r18,r7
 50835cc:	983f8a1e 	bne	r19,zero,50833f8 <__adddf3+0x188>
 50835d0:	8809883a 	mov	r4,r17
 50835d4:	5084d000 	call	5084d00 <__clzsi2>
 50835d8:	10800804 	addi	r2,r2,32
 50835dc:	10fffe04 	addi	r3,r2,-8
 50835e0:	010007c4 	movi	r4,31
 50835e4:	20ff890e 	bge	r4,r3,508340c <__adddf3+0x19c>
 50835e8:	10bff604 	addi	r2,r2,-40
 50835ec:	8884983a 	sll	r2,r17,r2
 50835f0:	0023883a 	mov	r17,zero
 50835f4:	1c3f8c0e 	bge	r3,r16,5083428 <__adddf3+0x1b8>
 50835f8:	023fe034 	movhi	r8,65408
 50835fc:	423fffc4 	addi	r8,r8,-1
 5083600:	80e1c83a 	sub	r16,r16,r3
 5083604:	1210703a 	and	r8,r2,r8
 5083608:	003f3806 	br	50832ec <__adddf3+0x7c>
 508360c:	9007883a 	mov	r3,r18
 5083610:	0011883a 	mov	r8,zero
 5083614:	0005883a 	mov	r2,zero
 5083618:	003f4c06 	br	508334c <__adddf3+0xdc>
 508361c:	498cb03a 	or	r6,r9,r6
 5083620:	300cc03a 	cmpne	r6,r6,zero
 5083624:	0007883a 	mov	r3,zero
 5083628:	003f6806 	br	50833cc <__adddf3+0x15c>
 508362c:	20009c1e 	bne	r4,zero,50838a0 <__adddf3+0x630>
 5083630:	80800044 	addi	r2,r16,1
 5083634:	1141ffcc 	andi	r5,r2,2047
 5083638:	01000044 	movi	r4,1
 508363c:	2140670e 	bge	r4,r5,50837dc <__adddf3+0x56c>
 5083640:	0101ffc4 	movi	r4,2047
 5083644:	11007f26 	beq	r2,r4,5083844 <__adddf3+0x5d4>
 5083648:	898d883a 	add	r6,r17,r6
 508364c:	4247883a 	add	r3,r8,r9
 5083650:	3451803a 	cmpltu	r8,r6,r17
 5083654:	40d1883a 	add	r8,r8,r3
 5083658:	402297fa 	slli	r17,r8,31
 508365c:	300cd07a 	srli	r6,r6,1
 5083660:	4010d07a 	srli	r8,r8,1
 5083664:	1021883a 	mov	r16,r2
 5083668:	89a2b03a 	or	r17,r17,r6
 508366c:	003f1f06 	br	50832ec <__adddf3+0x7c>
 5083670:	0081ffc4 	movi	r2,2047
 5083674:	80bf481e 	bne	r16,r2,5083398 <__adddf3+0x128>
 5083678:	003f1c06 	br	50832ec <__adddf3+0x7c>
 508367c:	843ff844 	addi	r16,r16,-31
 5083680:	01000804 	movi	r4,32
 5083684:	1406d83a 	srl	r3,r2,r16
 5083688:	41005026 	beq	r8,r4,50837cc <__adddf3+0x55c>
 508368c:	01001004 	movi	r4,64
 5083690:	2211c83a 	sub	r8,r4,r8
 5083694:	1204983a 	sll	r2,r2,r8
 5083698:	88a2b03a 	or	r17,r17,r2
 508369c:	8822c03a 	cmpne	r17,r17,zero
 50836a0:	1c62b03a 	or	r17,r3,r17
 50836a4:	0011883a 	mov	r8,zero
 50836a8:	0021883a 	mov	r16,zero
 50836ac:	003f7106 	br	5083474 <__adddf3+0x204>
 50836b0:	193ff804 	addi	r4,r3,-32
 50836b4:	00800804 	movi	r2,32
 50836b8:	4908d83a 	srl	r4,r9,r4
 50836bc:	18804526 	beq	r3,r2,50837d4 <__adddf3+0x564>
 50836c0:	00801004 	movi	r2,64
 50836c4:	10c5c83a 	sub	r2,r2,r3
 50836c8:	4886983a 	sll	r3,r9,r2
 50836cc:	198cb03a 	or	r6,r3,r6
 50836d0:	300cc03a 	cmpne	r6,r6,zero
 50836d4:	218cb03a 	or	r6,r4,r6
 50836d8:	0007883a 	mov	r3,zero
 50836dc:	003f3b06 	br	50833cc <__adddf3+0x15c>
 50836e0:	80002a26 	beq	r16,zero,508378c <__adddf3+0x51c>
 50836e4:	0101ffc4 	movi	r4,2047
 50836e8:	11006826 	beq	r2,r4,508388c <__adddf3+0x61c>
 50836ec:	00c7c83a 	sub	r3,zero,r3
 50836f0:	42002034 	orhi	r8,r8,128
 50836f4:	01000e04 	movi	r4,56
 50836f8:	20c07c16 	blt	r4,r3,50838ec <__adddf3+0x67c>
 50836fc:	010007c4 	movi	r4,31
 5083700:	20c0da16 	blt	r4,r3,5083a6c <__adddf3+0x7fc>
 5083704:	01000804 	movi	r4,32
 5083708:	20c9c83a 	sub	r4,r4,r3
 508370c:	4114983a 	sll	r10,r8,r4
 5083710:	88cad83a 	srl	r5,r17,r3
 5083714:	8908983a 	sll	r4,r17,r4
 5083718:	40c6d83a 	srl	r3,r8,r3
 508371c:	5162b03a 	or	r17,r10,r5
 5083720:	2008c03a 	cmpne	r4,r4,zero
 5083724:	8922b03a 	or	r17,r17,r4
 5083728:	3463c83a 	sub	r17,r6,r17
 508372c:	48c7c83a 	sub	r3,r9,r3
 5083730:	344d803a 	cmpltu	r6,r6,r17
 5083734:	1991c83a 	sub	r8,r3,r6
 5083738:	1021883a 	mov	r16,r2
 508373c:	3825883a 	mov	r18,r7
 5083740:	003f2706 	br	50833e0 <__adddf3+0x170>
 5083744:	24d0b03a 	or	r8,r4,r19
 5083748:	40001b1e 	bne	r8,zero,50837b8 <__adddf3+0x548>
 508374c:	0005883a 	mov	r2,zero
 5083750:	0007883a 	mov	r3,zero
 5083754:	0021883a 	mov	r16,zero
 5083758:	003f4d06 	br	5083490 <__adddf3+0x220>
 508375c:	008007c4 	movi	r2,31
 5083760:	11003c16 	blt	r2,r4,5083854 <__adddf3+0x5e4>
 5083764:	00800804 	movi	r2,32
 5083768:	1105c83a 	sub	r2,r2,r4
 508376c:	488e983a 	sll	r7,r9,r2
 5083770:	310ad83a 	srl	r5,r6,r4
 5083774:	3084983a 	sll	r2,r6,r2
 5083778:	4912d83a 	srl	r9,r9,r4
 508377c:	394ab03a 	or	r5,r7,r5
 5083780:	1004c03a 	cmpne	r2,r2,zero
 5083784:	288ab03a 	or	r5,r5,r2
 5083788:	003f5306 	br	50834d8 <__adddf3+0x268>
 508378c:	4448b03a 	or	r4,r8,r17
 5083790:	20003e26 	beq	r4,zero,508388c <__adddf3+0x61c>
 5083794:	00c6303a 	nor	r3,zero,r3
 5083798:	18003a1e 	bne	r3,zero,5083884 <__adddf3+0x614>
 508379c:	3463c83a 	sub	r17,r6,r17
 50837a0:	4a07c83a 	sub	r3,r9,r8
 50837a4:	344d803a 	cmpltu	r6,r6,r17
 50837a8:	1991c83a 	sub	r8,r3,r6
 50837ac:	1021883a 	mov	r16,r2
 50837b0:	3825883a 	mov	r18,r7
 50837b4:	003f0a06 	br	50833e0 <__adddf3+0x170>
 50837b8:	2023883a 	mov	r17,r4
 50837bc:	003f0d06 	br	50833f4 <__adddf3+0x184>
 50837c0:	0081ffc4 	movi	r2,2047
 50837c4:	80bf3f1e 	bne	r16,r2,50834c4 <__adddf3+0x254>
 50837c8:	003ec806 	br	50832ec <__adddf3+0x7c>
 50837cc:	0005883a 	mov	r2,zero
 50837d0:	003fb106 	br	5083698 <__adddf3+0x428>
 50837d4:	0007883a 	mov	r3,zero
 50837d8:	003fbc06 	br	50836cc <__adddf3+0x45c>
 50837dc:	4444b03a 	or	r2,r8,r17
 50837e0:	8000871e 	bne	r16,zero,5083a00 <__adddf3+0x790>
 50837e4:	1000ba26 	beq	r2,zero,5083ad0 <__adddf3+0x860>
 50837e8:	4984b03a 	or	r2,r9,r6
 50837ec:	103ebf26 	beq	r2,zero,50832ec <__adddf3+0x7c>
 50837f0:	8985883a 	add	r2,r17,r6
 50837f4:	4247883a 	add	r3,r8,r9
 50837f8:	1451803a 	cmpltu	r8,r2,r17
 50837fc:	40d1883a 	add	r8,r8,r3
 5083800:	40c0202c 	andhi	r3,r8,128
 5083804:	1023883a 	mov	r17,r2
 5083808:	183f1a26 	beq	r3,zero,5083474 <__adddf3+0x204>
 508380c:	00bfe034 	movhi	r2,65408
 5083810:	10bfffc4 	addi	r2,r2,-1
 5083814:	2021883a 	mov	r16,r4
 5083818:	4090703a 	and	r8,r8,r2
 508381c:	003eb306 	br	50832ec <__adddf3+0x7c>
 5083820:	4444b03a 	or	r2,r8,r17
 5083824:	8000291e 	bne	r16,zero,50838cc <__adddf3+0x65c>
 5083828:	10004b1e 	bne	r2,zero,5083958 <__adddf3+0x6e8>
 508382c:	4990b03a 	or	r8,r9,r6
 5083830:	40008b26 	beq	r8,zero,5083a60 <__adddf3+0x7f0>
 5083834:	4811883a 	mov	r8,r9
 5083838:	3023883a 	mov	r17,r6
 508383c:	3825883a 	mov	r18,r7
 5083840:	003eaa06 	br	50832ec <__adddf3+0x7c>
 5083844:	1021883a 	mov	r16,r2
 5083848:	0011883a 	mov	r8,zero
 508384c:	0005883a 	mov	r2,zero
 5083850:	003f0f06 	br	5083490 <__adddf3+0x220>
 5083854:	217ff804 	addi	r5,r4,-32
 5083858:	00800804 	movi	r2,32
 508385c:	494ad83a 	srl	r5,r9,r5
 5083860:	20807d26 	beq	r4,r2,5083a58 <__adddf3+0x7e8>
 5083864:	00801004 	movi	r2,64
 5083868:	1109c83a 	sub	r4,r2,r4
 508386c:	4912983a 	sll	r9,r9,r4
 5083870:	498cb03a 	or	r6,r9,r6
 5083874:	300cc03a 	cmpne	r6,r6,zero
 5083878:	298ab03a 	or	r5,r5,r6
 508387c:	0013883a 	mov	r9,zero
 5083880:	003f1506 	br	50834d8 <__adddf3+0x268>
 5083884:	0101ffc4 	movi	r4,2047
 5083888:	113f9a1e 	bne	r2,r4,50836f4 <__adddf3+0x484>
 508388c:	4811883a 	mov	r8,r9
 5083890:	3023883a 	mov	r17,r6
 5083894:	1021883a 	mov	r16,r2
 5083898:	3825883a 	mov	r18,r7
 508389c:	003e9306 	br	50832ec <__adddf3+0x7c>
 50838a0:	8000161e 	bne	r16,zero,50838fc <__adddf3+0x68c>
 50838a4:	444ab03a 	or	r5,r8,r17
 50838a8:	28005126 	beq	r5,zero,50839f0 <__adddf3+0x780>
 50838ac:	0108303a 	nor	r4,zero,r4
 50838b0:	20004d1e 	bne	r4,zero,50839e8 <__adddf3+0x778>
 50838b4:	89a3883a 	add	r17,r17,r6
 50838b8:	4253883a 	add	r9,r8,r9
 50838bc:	898d803a 	cmpltu	r6,r17,r6
 50838c0:	3251883a 	add	r8,r6,r9
 50838c4:	1021883a 	mov	r16,r2
 50838c8:	003f0806 	br	50834ec <__adddf3+0x27c>
 50838cc:	1000301e 	bne	r2,zero,5083990 <__adddf3+0x720>
 50838d0:	4984b03a 	or	r2,r9,r6
 50838d4:	10007126 	beq	r2,zero,5083a9c <__adddf3+0x82c>
 50838d8:	4811883a 	mov	r8,r9
 50838dc:	3023883a 	mov	r17,r6
 50838e0:	3825883a 	mov	r18,r7
 50838e4:	0401ffc4 	movi	r16,2047
 50838e8:	003e8006 	br	50832ec <__adddf3+0x7c>
 50838ec:	4462b03a 	or	r17,r8,r17
 50838f0:	8822c03a 	cmpne	r17,r17,zero
 50838f4:	0007883a 	mov	r3,zero
 50838f8:	003f8b06 	br	5083728 <__adddf3+0x4b8>
 50838fc:	0141ffc4 	movi	r5,2047
 5083900:	11403b26 	beq	r2,r5,50839f0 <__adddf3+0x780>
 5083904:	0109c83a 	sub	r4,zero,r4
 5083908:	42002034 	orhi	r8,r8,128
 508390c:	01400e04 	movi	r5,56
 5083910:	29006716 	blt	r5,r4,5083ab0 <__adddf3+0x840>
 5083914:	014007c4 	movi	r5,31
 5083918:	29007016 	blt	r5,r4,5083adc <__adddf3+0x86c>
 508391c:	01400804 	movi	r5,32
 5083920:	290bc83a 	sub	r5,r5,r4
 5083924:	4154983a 	sll	r10,r8,r5
 5083928:	890ed83a 	srl	r7,r17,r4
 508392c:	894a983a 	sll	r5,r17,r5
 5083930:	4108d83a 	srl	r4,r8,r4
 5083934:	51e2b03a 	or	r17,r10,r7
 5083938:	280ac03a 	cmpne	r5,r5,zero
 508393c:	8962b03a 	or	r17,r17,r5
 5083940:	89a3883a 	add	r17,r17,r6
 5083944:	2253883a 	add	r9,r4,r9
 5083948:	898d803a 	cmpltu	r6,r17,r6
 508394c:	3251883a 	add	r8,r6,r9
 5083950:	1021883a 	mov	r16,r2
 5083954:	003ee506 	br	50834ec <__adddf3+0x27c>
 5083958:	4984b03a 	or	r2,r9,r6
 508395c:	103e6326 	beq	r2,zero,50832ec <__adddf3+0x7c>
 5083960:	8987c83a 	sub	r3,r17,r6
 5083964:	88c9803a 	cmpltu	r4,r17,r3
 5083968:	4245c83a 	sub	r2,r8,r9
 508396c:	1105c83a 	sub	r2,r2,r4
 5083970:	1100202c 	andhi	r4,r2,128
 5083974:	203ebb26 	beq	r4,zero,5083464 <__adddf3+0x1f4>
 5083978:	3463c83a 	sub	r17,r6,r17
 508397c:	4a07c83a 	sub	r3,r9,r8
 5083980:	344d803a 	cmpltu	r6,r6,r17
 5083984:	1991c83a 	sub	r8,r3,r6
 5083988:	3825883a 	mov	r18,r7
 508398c:	003e5706 	br	50832ec <__adddf3+0x7c>
 5083990:	4984b03a 	or	r2,r9,r6
 5083994:	10002e26 	beq	r2,zero,5083a50 <__adddf3+0x7e0>
 5083998:	4004d0fa 	srli	r2,r8,3
 508399c:	8822d0fa 	srli	r17,r17,3
 50839a0:	4010977a 	slli	r8,r8,29
 50839a4:	10c0022c 	andhi	r3,r2,8
 50839a8:	4462b03a 	or	r17,r8,r17
 50839ac:	18000826 	beq	r3,zero,50839d0 <__adddf3+0x760>
 50839b0:	4808d0fa 	srli	r4,r9,3
 50839b4:	20c0022c 	andhi	r3,r4,8
 50839b8:	1800051e 	bne	r3,zero,50839d0 <__adddf3+0x760>
 50839bc:	300cd0fa 	srli	r6,r6,3
 50839c0:	4806977a 	slli	r3,r9,29
 50839c4:	2005883a 	mov	r2,r4
 50839c8:	3825883a 	mov	r18,r7
 50839cc:	19a2b03a 	or	r17,r3,r6
 50839d0:	8810d77a 	srli	r8,r17,29
 50839d4:	100490fa 	slli	r2,r2,3
 50839d8:	882290fa 	slli	r17,r17,3
 50839dc:	0401ffc4 	movi	r16,2047
 50839e0:	4090b03a 	or	r8,r8,r2
 50839e4:	003e4106 	br	50832ec <__adddf3+0x7c>
 50839e8:	0141ffc4 	movi	r5,2047
 50839ec:	117fc71e 	bne	r2,r5,508390c <__adddf3+0x69c>
 50839f0:	4811883a 	mov	r8,r9
 50839f4:	3023883a 	mov	r17,r6
 50839f8:	1021883a 	mov	r16,r2
 50839fc:	003e3b06 	br	50832ec <__adddf3+0x7c>
 5083a00:	10002f26 	beq	r2,zero,5083ac0 <__adddf3+0x850>
 5083a04:	4984b03a 	or	r2,r9,r6
 5083a08:	10001126 	beq	r2,zero,5083a50 <__adddf3+0x7e0>
 5083a0c:	4004d0fa 	srli	r2,r8,3
 5083a10:	8822d0fa 	srli	r17,r17,3
 5083a14:	4010977a 	slli	r8,r8,29
 5083a18:	10c0022c 	andhi	r3,r2,8
 5083a1c:	4462b03a 	or	r17,r8,r17
 5083a20:	183feb26 	beq	r3,zero,50839d0 <__adddf3+0x760>
 5083a24:	4808d0fa 	srli	r4,r9,3
 5083a28:	20c0022c 	andhi	r3,r4,8
 5083a2c:	183fe81e 	bne	r3,zero,50839d0 <__adddf3+0x760>
 5083a30:	300cd0fa 	srli	r6,r6,3
 5083a34:	4806977a 	slli	r3,r9,29
 5083a38:	2005883a 	mov	r2,r4
 5083a3c:	19a2b03a 	or	r17,r3,r6
 5083a40:	003fe306 	br	50839d0 <__adddf3+0x760>
 5083a44:	0011883a 	mov	r8,zero
 5083a48:	0005883a 	mov	r2,zero
 5083a4c:	003e3f06 	br	508334c <__adddf3+0xdc>
 5083a50:	0401ffc4 	movi	r16,2047
 5083a54:	003e2506 	br	50832ec <__adddf3+0x7c>
 5083a58:	0013883a 	mov	r9,zero
 5083a5c:	003f8406 	br	5083870 <__adddf3+0x600>
 5083a60:	0005883a 	mov	r2,zero
 5083a64:	0007883a 	mov	r3,zero
 5083a68:	003e8906 	br	5083490 <__adddf3+0x220>
 5083a6c:	197ff804 	addi	r5,r3,-32
 5083a70:	01000804 	movi	r4,32
 5083a74:	414ad83a 	srl	r5,r8,r5
 5083a78:	19002426 	beq	r3,r4,5083b0c <__adddf3+0x89c>
 5083a7c:	01001004 	movi	r4,64
 5083a80:	20c7c83a 	sub	r3,r4,r3
 5083a84:	40c6983a 	sll	r3,r8,r3
 5083a88:	1c46b03a 	or	r3,r3,r17
 5083a8c:	1806c03a 	cmpne	r3,r3,zero
 5083a90:	28e2b03a 	or	r17,r5,r3
 5083a94:	0007883a 	mov	r3,zero
 5083a98:	003f2306 	br	5083728 <__adddf3+0x4b8>
 5083a9c:	0007883a 	mov	r3,zero
 5083aa0:	5811883a 	mov	r8,r11
 5083aa4:	00bfffc4 	movi	r2,-1
 5083aa8:	0401ffc4 	movi	r16,2047
 5083aac:	003e7806 	br	5083490 <__adddf3+0x220>
 5083ab0:	4462b03a 	or	r17,r8,r17
 5083ab4:	8822c03a 	cmpne	r17,r17,zero
 5083ab8:	0009883a 	mov	r4,zero
 5083abc:	003fa006 	br	5083940 <__adddf3+0x6d0>
 5083ac0:	4811883a 	mov	r8,r9
 5083ac4:	3023883a 	mov	r17,r6
 5083ac8:	0401ffc4 	movi	r16,2047
 5083acc:	003e0706 	br	50832ec <__adddf3+0x7c>
 5083ad0:	4811883a 	mov	r8,r9
 5083ad4:	3023883a 	mov	r17,r6
 5083ad8:	003e0406 	br	50832ec <__adddf3+0x7c>
 5083adc:	21fff804 	addi	r7,r4,-32
 5083ae0:	01400804 	movi	r5,32
 5083ae4:	41ced83a 	srl	r7,r8,r7
 5083ae8:	21400a26 	beq	r4,r5,5083b14 <__adddf3+0x8a4>
 5083aec:	01401004 	movi	r5,64
 5083af0:	2909c83a 	sub	r4,r5,r4
 5083af4:	4108983a 	sll	r4,r8,r4
 5083af8:	2448b03a 	or	r4,r4,r17
 5083afc:	2008c03a 	cmpne	r4,r4,zero
 5083b00:	3922b03a 	or	r17,r7,r4
 5083b04:	0009883a 	mov	r4,zero
 5083b08:	003f8d06 	br	5083940 <__adddf3+0x6d0>
 5083b0c:	0007883a 	mov	r3,zero
 5083b10:	003fdd06 	br	5083a88 <__adddf3+0x818>
 5083b14:	0009883a 	mov	r4,zero
 5083b18:	003ff706 	br	5083af8 <__adddf3+0x888>

05083b1c <__ledf2>:
 5083b1c:	2804d53a 	srli	r2,r5,20
 5083b20:	3810d53a 	srli	r8,r7,20
 5083b24:	00c00434 	movhi	r3,16
 5083b28:	18ffffc4 	addi	r3,r3,-1
 5083b2c:	1081ffcc 	andi	r2,r2,2047
 5083b30:	0241ffc4 	movi	r9,2047
 5083b34:	28d4703a 	and	r10,r5,r3
 5083b38:	4201ffcc 	andi	r8,r8,2047
 5083b3c:	38c6703a 	and	r3,r7,r3
 5083b40:	280ad7fa 	srli	r5,r5,31
 5083b44:	380ed7fa 	srli	r7,r7,31
 5083b48:	12401f26 	beq	r2,r9,5083bc8 <__ledf2+0xac>
 5083b4c:	0241ffc4 	movi	r9,2047
 5083b50:	42401426 	beq	r8,r9,5083ba4 <__ledf2+0x88>
 5083b54:	1000091e 	bne	r2,zero,5083b7c <__ledf2+0x60>
 5083b58:	2296b03a 	or	r11,r4,r10
 5083b5c:	5813003a 	cmpeq	r9,r11,zero
 5083b60:	29403fcc 	andi	r5,r5,255
 5083b64:	40000a1e 	bne	r8,zero,5083b90 <__ledf2+0x74>
 5083b68:	30d8b03a 	or	r12,r6,r3
 5083b6c:	6000081e 	bne	r12,zero,5083b90 <__ledf2+0x74>
 5083b70:	0005883a 	mov	r2,zero
 5083b74:	5800111e 	bne	r11,zero,5083bbc <__ledf2+0xa0>
 5083b78:	f800283a 	ret
 5083b7c:	29403fcc 	andi	r5,r5,255
 5083b80:	40000c1e 	bne	r8,zero,5083bb4 <__ledf2+0x98>
 5083b84:	30d2b03a 	or	r9,r6,r3
 5083b88:	48000c26 	beq	r9,zero,5083bbc <__ledf2+0xa0>
 5083b8c:	0013883a 	mov	r9,zero
 5083b90:	39c03fcc 	andi	r7,r7,255
 5083b94:	48000826 	beq	r9,zero,5083bb8 <__ledf2+0x9c>
 5083b98:	38001126 	beq	r7,zero,5083be0 <__ledf2+0xc4>
 5083b9c:	00800044 	movi	r2,1
 5083ba0:	f800283a 	ret
 5083ba4:	30d2b03a 	or	r9,r6,r3
 5083ba8:	483fea26 	beq	r9,zero,5083b54 <__ledf2+0x38>
 5083bac:	00800084 	movi	r2,2
 5083bb0:	f800283a 	ret
 5083bb4:	39c03fcc 	andi	r7,r7,255
 5083bb8:	39400726 	beq	r7,r5,5083bd8 <__ledf2+0xbc>
 5083bbc:	2800081e 	bne	r5,zero,5083be0 <__ledf2+0xc4>
 5083bc0:	00800044 	movi	r2,1
 5083bc4:	f800283a 	ret
 5083bc8:	2292b03a 	or	r9,r4,r10
 5083bcc:	483fdf26 	beq	r9,zero,5083b4c <__ledf2+0x30>
 5083bd0:	00800084 	movi	r2,2
 5083bd4:	f800283a 	ret
 5083bd8:	4080030e 	bge	r8,r2,5083be8 <__ledf2+0xcc>
 5083bdc:	383fef26 	beq	r7,zero,5083b9c <__ledf2+0x80>
 5083be0:	00bfffc4 	movi	r2,-1
 5083be4:	f800283a 	ret
 5083be8:	123feb16 	blt	r2,r8,5083b98 <__ledf2+0x7c>
 5083bec:	1abff336 	bltu	r3,r10,5083bbc <__ledf2+0xa0>
 5083bf0:	50c00326 	beq	r10,r3,5083c00 <__ledf2+0xe4>
 5083bf4:	50c0042e 	bgeu	r10,r3,5083c08 <__ledf2+0xec>
 5083bf8:	283fe81e 	bne	r5,zero,5083b9c <__ledf2+0x80>
 5083bfc:	003ff806 	br	5083be0 <__ledf2+0xc4>
 5083c00:	313fee36 	bltu	r6,r4,5083bbc <__ledf2+0xa0>
 5083c04:	21bffc36 	bltu	r4,r6,5083bf8 <__ledf2+0xdc>
 5083c08:	0005883a 	mov	r2,zero
 5083c0c:	f800283a 	ret

05083c10 <__muldf3>:
 5083c10:	defff304 	addi	sp,sp,-52
 5083c14:	2804d53a 	srli	r2,r5,20
 5083c18:	dd800915 	stw	r22,36(sp)
 5083c1c:	282cd7fa 	srli	r22,r5,31
 5083c20:	dc000315 	stw	r16,12(sp)
 5083c24:	04000434 	movhi	r16,16
 5083c28:	dd400815 	stw	r21,32(sp)
 5083c2c:	dc800515 	stw	r18,20(sp)
 5083c30:	843fffc4 	addi	r16,r16,-1
 5083c34:	dfc00c15 	stw	ra,48(sp)
 5083c38:	df000b15 	stw	fp,44(sp)
 5083c3c:	ddc00a15 	stw	r23,40(sp)
 5083c40:	dd000715 	stw	r20,28(sp)
 5083c44:	dcc00615 	stw	r19,24(sp)
 5083c48:	dc400415 	stw	r17,16(sp)
 5083c4c:	1481ffcc 	andi	r18,r2,2047
 5083c50:	2c20703a 	and	r16,r5,r16
 5083c54:	b02b883a 	mov	r21,r22
 5083c58:	b2403fcc 	andi	r9,r22,255
 5083c5c:	90006026 	beq	r18,zero,5083de0 <__muldf3+0x1d0>
 5083c60:	0081ffc4 	movi	r2,2047
 5083c64:	2029883a 	mov	r20,r4
 5083c68:	90803626 	beq	r18,r2,5083d44 <__muldf3+0x134>
 5083c6c:	80800434 	orhi	r2,r16,16
 5083c70:	100490fa 	slli	r2,r2,3
 5083c74:	2020d77a 	srli	r16,r4,29
 5083c78:	202890fa 	slli	r20,r4,3
 5083c7c:	94bf0044 	addi	r18,r18,-1023
 5083c80:	80a0b03a 	or	r16,r16,r2
 5083c84:	0027883a 	mov	r19,zero
 5083c88:	0039883a 	mov	fp,zero
 5083c8c:	3804d53a 	srli	r2,r7,20
 5083c90:	382ed7fa 	srli	r23,r7,31
 5083c94:	04400434 	movhi	r17,16
 5083c98:	8c7fffc4 	addi	r17,r17,-1
 5083c9c:	1081ffcc 	andi	r2,r2,2047
 5083ca0:	3011883a 	mov	r8,r6
 5083ca4:	3c62703a 	and	r17,r7,r17
 5083ca8:	ba803fcc 	andi	r10,r23,255
 5083cac:	10006d26 	beq	r2,zero,5083e64 <__muldf3+0x254>
 5083cb0:	00c1ffc4 	movi	r3,2047
 5083cb4:	10c06526 	beq	r2,r3,5083e4c <__muldf3+0x23c>
 5083cb8:	88c00434 	orhi	r3,r17,16
 5083cbc:	180690fa 	slli	r3,r3,3
 5083cc0:	3022d77a 	srli	r17,r6,29
 5083cc4:	301090fa 	slli	r8,r6,3
 5083cc8:	10bf0044 	addi	r2,r2,-1023
 5083ccc:	88e2b03a 	or	r17,r17,r3
 5083cd0:	000b883a 	mov	r5,zero
 5083cd4:	9085883a 	add	r2,r18,r2
 5083cd8:	2cc8b03a 	or	r4,r5,r19
 5083cdc:	00c003c4 	movi	r3,15
 5083ce0:	bdacf03a 	xor	r22,r23,r22
 5083ce4:	12c00044 	addi	r11,r2,1
 5083ce8:	19009936 	bltu	r3,r4,5083f50 <__muldf3+0x340>
 5083cec:	200890ba 	slli	r4,r4,2
 5083cf0:	00c14234 	movhi	r3,1288
 5083cf4:	18cf4104 	addi	r3,r3,15620
 5083cf8:	20c9883a 	add	r4,r4,r3
 5083cfc:	20c00017 	ldw	r3,0(r4)
 5083d00:	1800683a 	jmp	r3
 5083d04:	05083f50 	cmplti	r20,zero,8445
 5083d08:	05083d64 	muli	r20,zero,8437
 5083d0c:	05083d64 	muli	r20,zero,8437
 5083d10:	05083d60 	cmpeqi	r20,zero,8437
 5083d14:	05083f2c 	andhi	r20,zero,8444
 5083d18:	05083f2c 	andhi	r20,zero,8444
 5083d1c:	05083f14 	movui	r20,8444
 5083d20:	05083d60 	cmpeqi	r20,zero,8437
 5083d24:	05083f2c 	andhi	r20,zero,8444
 5083d28:	05083f14 	movui	r20,8444
 5083d2c:	05083f2c 	andhi	r20,zero,8444
 5083d30:	05083d60 	cmpeqi	r20,zero,8437
 5083d34:	05083f3c 	xorhi	r20,zero,8444
 5083d38:	05083f3c 	xorhi	r20,zero,8444
 5083d3c:	05083f3c 	xorhi	r20,zero,8444
 5083d40:	05084158 	cmpnei	r20,zero,8453
 5083d44:	2404b03a 	or	r2,r4,r16
 5083d48:	10006f1e 	bne	r2,zero,5083f08 <__muldf3+0x2f8>
 5083d4c:	04c00204 	movi	r19,8
 5083d50:	0021883a 	mov	r16,zero
 5083d54:	0029883a 	mov	r20,zero
 5083d58:	07000084 	movi	fp,2
 5083d5c:	003fcb06 	br	5083c8c <__muldf3+0x7c>
 5083d60:	502d883a 	mov	r22,r10
 5083d64:	00800084 	movi	r2,2
 5083d68:	28805726 	beq	r5,r2,5083ec8 <__muldf3+0x2b8>
 5083d6c:	008000c4 	movi	r2,3
 5083d70:	28816626 	beq	r5,r2,508430c <__muldf3+0x6fc>
 5083d74:	00800044 	movi	r2,1
 5083d78:	2881411e 	bne	r5,r2,5084280 <__muldf3+0x670>
 5083d7c:	b02b883a 	mov	r21,r22
 5083d80:	0005883a 	mov	r2,zero
 5083d84:	000b883a 	mov	r5,zero
 5083d88:	0029883a 	mov	r20,zero
 5083d8c:	1004953a 	slli	r2,r2,20
 5083d90:	a8c03fcc 	andi	r3,r21,255
 5083d94:	04400434 	movhi	r17,16
 5083d98:	8c7fffc4 	addi	r17,r17,-1
 5083d9c:	180697fa 	slli	r3,r3,31
 5083da0:	2c4a703a 	and	r5,r5,r17
 5083da4:	288ab03a 	or	r5,r5,r2
 5083da8:	28c6b03a 	or	r3,r5,r3
 5083dac:	a005883a 	mov	r2,r20
 5083db0:	dfc00c17 	ldw	ra,48(sp)
 5083db4:	df000b17 	ldw	fp,44(sp)
 5083db8:	ddc00a17 	ldw	r23,40(sp)
 5083dbc:	dd800917 	ldw	r22,36(sp)
 5083dc0:	dd400817 	ldw	r21,32(sp)
 5083dc4:	dd000717 	ldw	r20,28(sp)
 5083dc8:	dcc00617 	ldw	r19,24(sp)
 5083dcc:	dc800517 	ldw	r18,20(sp)
 5083dd0:	dc400417 	ldw	r17,16(sp)
 5083dd4:	dc000317 	ldw	r16,12(sp)
 5083dd8:	dec00d04 	addi	sp,sp,52
 5083ddc:	f800283a 	ret
 5083de0:	2404b03a 	or	r2,r4,r16
 5083de4:	2027883a 	mov	r19,r4
 5083de8:	10004226 	beq	r2,zero,5083ef4 <__muldf3+0x2e4>
 5083dec:	8000fc26 	beq	r16,zero,50841e0 <__muldf3+0x5d0>
 5083df0:	8009883a 	mov	r4,r16
 5083df4:	d9800215 	stw	r6,8(sp)
 5083df8:	d9c00015 	stw	r7,0(sp)
 5083dfc:	da400115 	stw	r9,4(sp)
 5083e00:	5084d000 	call	5084d00 <__clzsi2>
 5083e04:	d9800217 	ldw	r6,8(sp)
 5083e08:	d9c00017 	ldw	r7,0(sp)
 5083e0c:	da400117 	ldw	r9,4(sp)
 5083e10:	113ffd44 	addi	r4,r2,-11
 5083e14:	00c00704 	movi	r3,28
 5083e18:	1900ed16 	blt	r3,r4,50841d0 <__muldf3+0x5c0>
 5083e1c:	00c00744 	movi	r3,29
 5083e20:	147ffe04 	addi	r17,r2,-8
 5083e24:	1907c83a 	sub	r3,r3,r4
 5083e28:	8460983a 	sll	r16,r16,r17
 5083e2c:	98c6d83a 	srl	r3,r19,r3
 5083e30:	9c68983a 	sll	r20,r19,r17
 5083e34:	1c20b03a 	or	r16,r3,r16
 5083e38:	1080fcc4 	addi	r2,r2,1011
 5083e3c:	00a5c83a 	sub	r18,zero,r2
 5083e40:	0027883a 	mov	r19,zero
 5083e44:	0039883a 	mov	fp,zero
 5083e48:	003f9006 	br	5083c8c <__muldf3+0x7c>
 5083e4c:	3446b03a 	or	r3,r6,r17
 5083e50:	1800261e 	bne	r3,zero,5083eec <__muldf3+0x2dc>
 5083e54:	0023883a 	mov	r17,zero
 5083e58:	0011883a 	mov	r8,zero
 5083e5c:	01400084 	movi	r5,2
 5083e60:	003f9c06 	br	5083cd4 <__muldf3+0xc4>
 5083e64:	3446b03a 	or	r3,r6,r17
 5083e68:	18001c26 	beq	r3,zero,5083edc <__muldf3+0x2cc>
 5083e6c:	8800ce26 	beq	r17,zero,50841a8 <__muldf3+0x598>
 5083e70:	8809883a 	mov	r4,r17
 5083e74:	d9800215 	stw	r6,8(sp)
 5083e78:	da400115 	stw	r9,4(sp)
 5083e7c:	da800015 	stw	r10,0(sp)
 5083e80:	5084d000 	call	5084d00 <__clzsi2>
 5083e84:	d9800217 	ldw	r6,8(sp)
 5083e88:	da400117 	ldw	r9,4(sp)
 5083e8c:	da800017 	ldw	r10,0(sp)
 5083e90:	113ffd44 	addi	r4,r2,-11
 5083e94:	00c00704 	movi	r3,28
 5083e98:	1900bf16 	blt	r3,r4,5084198 <__muldf3+0x588>
 5083e9c:	00c00744 	movi	r3,29
 5083ea0:	123ffe04 	addi	r8,r2,-8
 5083ea4:	1907c83a 	sub	r3,r3,r4
 5083ea8:	8a22983a 	sll	r17,r17,r8
 5083eac:	30c6d83a 	srl	r3,r6,r3
 5083eb0:	3210983a 	sll	r8,r6,r8
 5083eb4:	1c62b03a 	or	r17,r3,r17
 5083eb8:	1080fcc4 	addi	r2,r2,1011
 5083ebc:	0085c83a 	sub	r2,zero,r2
 5083ec0:	000b883a 	mov	r5,zero
 5083ec4:	003f8306 	br	5083cd4 <__muldf3+0xc4>
 5083ec8:	b02b883a 	mov	r21,r22
 5083ecc:	0081ffc4 	movi	r2,2047
 5083ed0:	000b883a 	mov	r5,zero
 5083ed4:	0029883a 	mov	r20,zero
 5083ed8:	003fac06 	br	5083d8c <__muldf3+0x17c>
 5083edc:	0023883a 	mov	r17,zero
 5083ee0:	0011883a 	mov	r8,zero
 5083ee4:	01400044 	movi	r5,1
 5083ee8:	003f7a06 	br	5083cd4 <__muldf3+0xc4>
 5083eec:	014000c4 	movi	r5,3
 5083ef0:	003f7806 	br	5083cd4 <__muldf3+0xc4>
 5083ef4:	04c00104 	movi	r19,4
 5083ef8:	0021883a 	mov	r16,zero
 5083efc:	0029883a 	mov	r20,zero
 5083f00:	07000044 	movi	fp,1
 5083f04:	003f6106 	br	5083c8c <__muldf3+0x7c>
 5083f08:	04c00304 	movi	r19,12
 5083f0c:	070000c4 	movi	fp,3
 5083f10:	003f5e06 	br	5083c8c <__muldf3+0x7c>
 5083f14:	01400434 	movhi	r5,16
 5083f18:	002b883a 	mov	r21,zero
 5083f1c:	297fffc4 	addi	r5,r5,-1
 5083f20:	053fffc4 	movi	r20,-1
 5083f24:	0081ffc4 	movi	r2,2047
 5083f28:	003f9806 	br	5083d8c <__muldf3+0x17c>
 5083f2c:	8023883a 	mov	r17,r16
 5083f30:	a011883a 	mov	r8,r20
 5083f34:	e00b883a 	mov	r5,fp
 5083f38:	003f8a06 	br	5083d64 <__muldf3+0x154>
 5083f3c:	8023883a 	mov	r17,r16
 5083f40:	a011883a 	mov	r8,r20
 5083f44:	482d883a 	mov	r22,r9
 5083f48:	e00b883a 	mov	r5,fp
 5083f4c:	003f8506 	br	5083d64 <__muldf3+0x154>
 5083f50:	a00ad43a 	srli	r5,r20,16
 5083f54:	401ad43a 	srli	r13,r8,16
 5083f58:	a53fffcc 	andi	r20,r20,65535
 5083f5c:	423fffcc 	andi	r8,r8,65535
 5083f60:	4519383a 	mul	r12,r8,r20
 5083f64:	4147383a 	mul	r3,r8,r5
 5083f68:	6d09383a 	mul	r4,r13,r20
 5083f6c:	600cd43a 	srli	r6,r12,16
 5083f70:	2b5d383a 	mul	r14,r5,r13
 5083f74:	20c9883a 	add	r4,r4,r3
 5083f78:	310d883a 	add	r6,r6,r4
 5083f7c:	30c0022e 	bgeu	r6,r3,5083f88 <__muldf3+0x378>
 5083f80:	00c00074 	movhi	r3,1
 5083f84:	70dd883a 	add	r14,r14,r3
 5083f88:	8826d43a 	srli	r19,r17,16
 5083f8c:	8bffffcc 	andi	r15,r17,65535
 5083f90:	7d23383a 	mul	r17,r15,r20
 5083f94:	7949383a 	mul	r4,r15,r5
 5083f98:	9d29383a 	mul	r20,r19,r20
 5083f9c:	8814d43a 	srli	r10,r17,16
 5083fa0:	3012943a 	slli	r9,r6,16
 5083fa4:	a129883a 	add	r20,r20,r4
 5083fa8:	633fffcc 	andi	r12,r12,65535
 5083fac:	5515883a 	add	r10,r10,r20
 5083fb0:	3006d43a 	srli	r3,r6,16
 5083fb4:	4b13883a 	add	r9,r9,r12
 5083fb8:	2ccb383a 	mul	r5,r5,r19
 5083fbc:	5100022e 	bgeu	r10,r4,5083fc8 <__muldf3+0x3b8>
 5083fc0:	01000074 	movhi	r4,1
 5083fc4:	290b883a 	add	r5,r5,r4
 5083fc8:	802ad43a 	srli	r21,r16,16
 5083fcc:	843fffcc 	andi	r16,r16,65535
 5083fd0:	440d383a 	mul	r6,r8,r16
 5083fd4:	4565383a 	mul	r18,r8,r21
 5083fd8:	8349383a 	mul	r4,r16,r13
 5083fdc:	500e943a 	slli	r7,r10,16
 5083fe0:	3010d43a 	srli	r8,r6,16
 5083fe4:	5028d43a 	srli	r20,r10,16
 5083fe8:	2489883a 	add	r4,r4,r18
 5083fec:	8abfffcc 	andi	r10,r17,65535
 5083ff0:	3a95883a 	add	r10,r7,r10
 5083ff4:	4119883a 	add	r12,r8,r4
 5083ff8:	a169883a 	add	r20,r20,r5
 5083ffc:	1a87883a 	add	r3,r3,r10
 5084000:	6d5b383a 	mul	r13,r13,r21
 5084004:	6480022e 	bgeu	r12,r18,5084010 <__muldf3+0x400>
 5084008:	01000074 	movhi	r4,1
 508400c:	691b883a 	add	r13,r13,r4
 5084010:	7c25383a 	mul	r18,r15,r16
 5084014:	7d4b383a 	mul	r5,r15,r21
 5084018:	84cf383a 	mul	r7,r16,r19
 508401c:	901ed43a 	srli	r15,r18,16
 5084020:	6008d43a 	srli	r4,r12,16
 5084024:	6010943a 	slli	r8,r12,16
 5084028:	394f883a 	add	r7,r7,r5
 508402c:	333fffcc 	andi	r12,r6,65535
 5084030:	79df883a 	add	r15,r15,r7
 5084034:	235b883a 	add	r13,r4,r13
 5084038:	9d63383a 	mul	r17,r19,r21
 508403c:	4309883a 	add	r4,r8,r12
 5084040:	7940022e 	bgeu	r15,r5,508404c <__muldf3+0x43c>
 5084044:	01400074 	movhi	r5,1
 5084048:	8963883a 	add	r17,r17,r5
 508404c:	780a943a 	slli	r5,r15,16
 5084050:	91bfffcc 	andi	r6,r18,65535
 5084054:	70c7883a 	add	r3,r14,r3
 5084058:	298d883a 	add	r6,r5,r6
 508405c:	1a8f803a 	cmpltu	r7,r3,r10
 5084060:	350b883a 	add	r5,r6,r20
 5084064:	20c7883a 	add	r3,r4,r3
 5084068:	3955883a 	add	r10,r7,r5
 508406c:	1909803a 	cmpltu	r4,r3,r4
 5084070:	6a91883a 	add	r8,r13,r10
 5084074:	780cd43a 	srli	r6,r15,16
 5084078:	2219883a 	add	r12,r4,r8
 508407c:	2d0b803a 	cmpltu	r5,r5,r20
 5084080:	51cf803a 	cmpltu	r7,r10,r7
 5084084:	29ceb03a 	or	r7,r5,r7
 5084088:	4351803a 	cmpltu	r8,r8,r13
 508408c:	610b803a 	cmpltu	r5,r12,r4
 5084090:	4148b03a 	or	r4,r8,r5
 5084094:	398f883a 	add	r7,r7,r6
 5084098:	3909883a 	add	r4,r7,r4
 508409c:	1810927a 	slli	r8,r3,9
 50840a0:	2449883a 	add	r4,r4,r17
 50840a4:	2008927a 	slli	r4,r4,9
 50840a8:	6022d5fa 	srli	r17,r12,23
 50840ac:	1806d5fa 	srli	r3,r3,23
 50840b0:	4252b03a 	or	r9,r8,r9
 50840b4:	600a927a 	slli	r5,r12,9
 50840b8:	4810c03a 	cmpne	r8,r9,zero
 50840bc:	2462b03a 	or	r17,r4,r17
 50840c0:	40c6b03a 	or	r3,r8,r3
 50840c4:	8900402c 	andhi	r4,r17,256
 50840c8:	1950b03a 	or	r8,r3,r5
 50840cc:	20000726 	beq	r4,zero,50840ec <__muldf3+0x4dc>
 50840d0:	4006d07a 	srli	r3,r8,1
 50840d4:	880497fa 	slli	r2,r17,31
 50840d8:	4200004c 	andi	r8,r8,1
 50840dc:	8822d07a 	srli	r17,r17,1
 50840e0:	1a10b03a 	or	r8,r3,r8
 50840e4:	1210b03a 	or	r8,r2,r8
 50840e8:	5805883a 	mov	r2,r11
 50840ec:	1140ffc4 	addi	r5,r2,1023
 50840f0:	0140440e 	bge	zero,r5,5084204 <__muldf3+0x5f4>
 50840f4:	40c001cc 	andi	r3,r8,7
 50840f8:	18000726 	beq	r3,zero,5084118 <__muldf3+0x508>
 50840fc:	40c003cc 	andi	r3,r8,15
 5084100:	01000104 	movi	r4,4
 5084104:	19000426 	beq	r3,r4,5084118 <__muldf3+0x508>
 5084108:	4107883a 	add	r3,r8,r4
 508410c:	1a11803a 	cmpltu	r8,r3,r8
 5084110:	8a23883a 	add	r17,r17,r8
 5084114:	1811883a 	mov	r8,r3
 5084118:	88c0402c 	andhi	r3,r17,256
 508411c:	18000426 	beq	r3,zero,5084130 <__muldf3+0x520>
 5084120:	11410004 	addi	r5,r2,1024
 5084124:	00bfc034 	movhi	r2,65280
 5084128:	10bfffc4 	addi	r2,r2,-1
 508412c:	88a2703a 	and	r17,r17,r2
 5084130:	0081ff84 	movi	r2,2046
 5084134:	117f6416 	blt	r2,r5,5083ec8 <__muldf3+0x2b8>
 5084138:	8828977a 	slli	r20,r17,29
 508413c:	4010d0fa 	srli	r8,r8,3
 5084140:	8822927a 	slli	r17,r17,9
 5084144:	2881ffcc 	andi	r2,r5,2047
 5084148:	a228b03a 	or	r20,r20,r8
 508414c:	880ad33a 	srli	r5,r17,12
 5084150:	b02b883a 	mov	r21,r22
 5084154:	003f0d06 	br	5083d8c <__muldf3+0x17c>
 5084158:	8080022c 	andhi	r2,r16,8
 508415c:	10000926 	beq	r2,zero,5084184 <__muldf3+0x574>
 5084160:	8880022c 	andhi	r2,r17,8
 5084164:	1000071e 	bne	r2,zero,5084184 <__muldf3+0x574>
 5084168:	00800434 	movhi	r2,16
 508416c:	89400234 	orhi	r5,r17,8
 5084170:	10bfffc4 	addi	r2,r2,-1
 5084174:	b82b883a 	mov	r21,r23
 5084178:	288a703a 	and	r5,r5,r2
 508417c:	4029883a 	mov	r20,r8
 5084180:	003f6806 	br	5083f24 <__muldf3+0x314>
 5084184:	00800434 	movhi	r2,16
 5084188:	81400234 	orhi	r5,r16,8
 508418c:	10bfffc4 	addi	r2,r2,-1
 5084190:	288a703a 	and	r5,r5,r2
 5084194:	003f6306 	br	5083f24 <__muldf3+0x314>
 5084198:	147ff604 	addi	r17,r2,-40
 508419c:	3462983a 	sll	r17,r6,r17
 50841a0:	0011883a 	mov	r8,zero
 50841a4:	003f4406 	br	5083eb8 <__muldf3+0x2a8>
 50841a8:	3009883a 	mov	r4,r6
 50841ac:	d9800215 	stw	r6,8(sp)
 50841b0:	da400115 	stw	r9,4(sp)
 50841b4:	da800015 	stw	r10,0(sp)
 50841b8:	5084d000 	call	5084d00 <__clzsi2>
 50841bc:	10800804 	addi	r2,r2,32
 50841c0:	da800017 	ldw	r10,0(sp)
 50841c4:	da400117 	ldw	r9,4(sp)
 50841c8:	d9800217 	ldw	r6,8(sp)
 50841cc:	003f3006 	br	5083e90 <__muldf3+0x280>
 50841d0:	143ff604 	addi	r16,r2,-40
 50841d4:	9c20983a 	sll	r16,r19,r16
 50841d8:	0029883a 	mov	r20,zero
 50841dc:	003f1606 	br	5083e38 <__muldf3+0x228>
 50841e0:	d9800215 	stw	r6,8(sp)
 50841e4:	d9c00015 	stw	r7,0(sp)
 50841e8:	da400115 	stw	r9,4(sp)
 50841ec:	5084d000 	call	5084d00 <__clzsi2>
 50841f0:	10800804 	addi	r2,r2,32
 50841f4:	da400117 	ldw	r9,4(sp)
 50841f8:	d9c00017 	ldw	r7,0(sp)
 50841fc:	d9800217 	ldw	r6,8(sp)
 5084200:	003f0306 	br	5083e10 <__muldf3+0x200>
 5084204:	00c00044 	movi	r3,1
 5084208:	1947c83a 	sub	r3,r3,r5
 508420c:	00800e04 	movi	r2,56
 5084210:	10feda16 	blt	r2,r3,5083d7c <__muldf3+0x16c>
 5084214:	008007c4 	movi	r2,31
 5084218:	10c01b16 	blt	r2,r3,5084288 <__muldf3+0x678>
 508421c:	00800804 	movi	r2,32
 5084220:	10c5c83a 	sub	r2,r2,r3
 5084224:	888a983a 	sll	r5,r17,r2
 5084228:	40c8d83a 	srl	r4,r8,r3
 508422c:	4084983a 	sll	r2,r8,r2
 5084230:	88e2d83a 	srl	r17,r17,r3
 5084234:	2906b03a 	or	r3,r5,r4
 5084238:	1004c03a 	cmpne	r2,r2,zero
 508423c:	1886b03a 	or	r3,r3,r2
 5084240:	188001cc 	andi	r2,r3,7
 5084244:	10000726 	beq	r2,zero,5084264 <__muldf3+0x654>
 5084248:	188003cc 	andi	r2,r3,15
 508424c:	01000104 	movi	r4,4
 5084250:	11000426 	beq	r2,r4,5084264 <__muldf3+0x654>
 5084254:	1805883a 	mov	r2,r3
 5084258:	10c00104 	addi	r3,r2,4
 508425c:	1885803a 	cmpltu	r2,r3,r2
 5084260:	88a3883a 	add	r17,r17,r2
 5084264:	8880202c 	andhi	r2,r17,128
 5084268:	10001c26 	beq	r2,zero,50842dc <__muldf3+0x6cc>
 508426c:	b02b883a 	mov	r21,r22
 5084270:	00800044 	movi	r2,1
 5084274:	000b883a 	mov	r5,zero
 5084278:	0029883a 	mov	r20,zero
 508427c:	003ec306 	br	5083d8c <__muldf3+0x17c>
 5084280:	5805883a 	mov	r2,r11
 5084284:	003f9906 	br	50840ec <__muldf3+0x4dc>
 5084288:	00bff844 	movi	r2,-31
 508428c:	1145c83a 	sub	r2,r2,r5
 5084290:	8888d83a 	srl	r4,r17,r2
 5084294:	00800804 	movi	r2,32
 5084298:	18801a26 	beq	r3,r2,5084304 <__muldf3+0x6f4>
 508429c:	00801004 	movi	r2,64
 50842a0:	10c5c83a 	sub	r2,r2,r3
 50842a4:	8884983a 	sll	r2,r17,r2
 50842a8:	1204b03a 	or	r2,r2,r8
 50842ac:	1004c03a 	cmpne	r2,r2,zero
 50842b0:	2084b03a 	or	r2,r4,r2
 50842b4:	144001cc 	andi	r17,r2,7
 50842b8:	88000d1e 	bne	r17,zero,50842f0 <__muldf3+0x6e0>
 50842bc:	000b883a 	mov	r5,zero
 50842c0:	1028d0fa 	srli	r20,r2,3
 50842c4:	b02b883a 	mov	r21,r22
 50842c8:	0005883a 	mov	r2,zero
 50842cc:	a468b03a 	or	r20,r20,r17
 50842d0:	003eae06 	br	5083d8c <__muldf3+0x17c>
 50842d4:	1007883a 	mov	r3,r2
 50842d8:	0023883a 	mov	r17,zero
 50842dc:	880a927a 	slli	r5,r17,9
 50842e0:	1805883a 	mov	r2,r3
 50842e4:	8822977a 	slli	r17,r17,29
 50842e8:	280ad33a 	srli	r5,r5,12
 50842ec:	003ff406 	br	50842c0 <__muldf3+0x6b0>
 50842f0:	10c003cc 	andi	r3,r2,15
 50842f4:	01000104 	movi	r4,4
 50842f8:	193ff626 	beq	r3,r4,50842d4 <__muldf3+0x6c4>
 50842fc:	0023883a 	mov	r17,zero
 5084300:	003fd506 	br	5084258 <__muldf3+0x648>
 5084304:	0005883a 	mov	r2,zero
 5084308:	003fe706 	br	50842a8 <__muldf3+0x698>
 508430c:	00800434 	movhi	r2,16
 5084310:	89400234 	orhi	r5,r17,8
 5084314:	10bfffc4 	addi	r2,r2,-1
 5084318:	b02b883a 	mov	r21,r22
 508431c:	288a703a 	and	r5,r5,r2
 5084320:	4029883a 	mov	r20,r8
 5084324:	003eff06 	br	5083f24 <__muldf3+0x314>

05084328 <__subdf3>:
 5084328:	02000434 	movhi	r8,16
 508432c:	423fffc4 	addi	r8,r8,-1
 5084330:	defffb04 	addi	sp,sp,-20
 5084334:	2a14703a 	and	r10,r5,r8
 5084338:	3812d53a 	srli	r9,r7,20
 508433c:	3a10703a 	and	r8,r7,r8
 5084340:	2006d77a 	srli	r3,r4,29
 5084344:	3004d77a 	srli	r2,r6,29
 5084348:	dc000015 	stw	r16,0(sp)
 508434c:	501490fa 	slli	r10,r10,3
 5084350:	2820d53a 	srli	r16,r5,20
 5084354:	401090fa 	slli	r8,r8,3
 5084358:	dc800215 	stw	r18,8(sp)
 508435c:	dc400115 	stw	r17,4(sp)
 5084360:	dfc00415 	stw	ra,16(sp)
 5084364:	202290fa 	slli	r17,r4,3
 5084368:	dcc00315 	stw	r19,12(sp)
 508436c:	4a41ffcc 	andi	r9,r9,2047
 5084370:	0101ffc4 	movi	r4,2047
 5084374:	2824d7fa 	srli	r18,r5,31
 5084378:	8401ffcc 	andi	r16,r16,2047
 508437c:	50c6b03a 	or	r3,r10,r3
 5084380:	380ed7fa 	srli	r7,r7,31
 5084384:	408ab03a 	or	r5,r8,r2
 5084388:	300c90fa 	slli	r6,r6,3
 508438c:	49009626 	beq	r9,r4,50845e8 <__subdf3+0x2c0>
 5084390:	39c0005c 	xori	r7,r7,1
 5084394:	8245c83a 	sub	r2,r16,r9
 5084398:	3c807426 	beq	r7,r18,508456c <__subdf3+0x244>
 508439c:	0080af0e 	bge	zero,r2,508465c <__subdf3+0x334>
 50843a0:	48002a1e 	bne	r9,zero,508444c <__subdf3+0x124>
 50843a4:	2988b03a 	or	r4,r5,r6
 50843a8:	20009a1e 	bne	r4,zero,5084614 <__subdf3+0x2ec>
 50843ac:	888001cc 	andi	r2,r17,7
 50843b0:	10000726 	beq	r2,zero,50843d0 <__subdf3+0xa8>
 50843b4:	888003cc 	andi	r2,r17,15
 50843b8:	01000104 	movi	r4,4
 50843bc:	11000426 	beq	r2,r4,50843d0 <__subdf3+0xa8>
 50843c0:	890b883a 	add	r5,r17,r4
 50843c4:	2c63803a 	cmpltu	r17,r5,r17
 50843c8:	1c47883a 	add	r3,r3,r17
 50843cc:	2823883a 	mov	r17,r5
 50843d0:	1880202c 	andhi	r2,r3,128
 50843d4:	10005926 	beq	r2,zero,508453c <__subdf3+0x214>
 50843d8:	84000044 	addi	r16,r16,1
 50843dc:	0081ffc4 	movi	r2,2047
 50843e0:	8080be26 	beq	r16,r2,50846dc <__subdf3+0x3b4>
 50843e4:	017fe034 	movhi	r5,65408
 50843e8:	297fffc4 	addi	r5,r5,-1
 50843ec:	1946703a 	and	r3,r3,r5
 50843f0:	1804977a 	slli	r2,r3,29
 50843f4:	1806927a 	slli	r3,r3,9
 50843f8:	8822d0fa 	srli	r17,r17,3
 50843fc:	8401ffcc 	andi	r16,r16,2047
 5084400:	180ad33a 	srli	r5,r3,12
 5084404:	9100004c 	andi	r4,r18,1
 5084408:	1444b03a 	or	r2,r2,r17
 508440c:	80c1ffcc 	andi	r3,r16,2047
 5084410:	1820953a 	slli	r16,r3,20
 5084414:	20c03fcc 	andi	r3,r4,255
 5084418:	180897fa 	slli	r4,r3,31
 508441c:	00c00434 	movhi	r3,16
 5084420:	18ffffc4 	addi	r3,r3,-1
 5084424:	28c6703a 	and	r3,r5,r3
 5084428:	1c06b03a 	or	r3,r3,r16
 508442c:	1906b03a 	or	r3,r3,r4
 5084430:	dfc00417 	ldw	ra,16(sp)
 5084434:	dcc00317 	ldw	r19,12(sp)
 5084438:	dc800217 	ldw	r18,8(sp)
 508443c:	dc400117 	ldw	r17,4(sp)
 5084440:	dc000017 	ldw	r16,0(sp)
 5084444:	dec00504 	addi	sp,sp,20
 5084448:	f800283a 	ret
 508444c:	0101ffc4 	movi	r4,2047
 5084450:	813fd626 	beq	r16,r4,50843ac <__subdf3+0x84>
 5084454:	29402034 	orhi	r5,r5,128
 5084458:	01000e04 	movi	r4,56
 508445c:	2080a316 	blt	r4,r2,50846ec <__subdf3+0x3c4>
 5084460:	010007c4 	movi	r4,31
 5084464:	2080c616 	blt	r4,r2,5084780 <__subdf3+0x458>
 5084468:	01000804 	movi	r4,32
 508446c:	2089c83a 	sub	r4,r4,r2
 5084470:	2910983a 	sll	r8,r5,r4
 5084474:	308ed83a 	srl	r7,r6,r2
 5084478:	3108983a 	sll	r4,r6,r4
 508447c:	2884d83a 	srl	r2,r5,r2
 5084480:	41ccb03a 	or	r6,r8,r7
 5084484:	2008c03a 	cmpne	r4,r4,zero
 5084488:	310cb03a 	or	r6,r6,r4
 508448c:	898dc83a 	sub	r6,r17,r6
 5084490:	89a3803a 	cmpltu	r17,r17,r6
 5084494:	1887c83a 	sub	r3,r3,r2
 5084498:	1c47c83a 	sub	r3,r3,r17
 508449c:	3023883a 	mov	r17,r6
 50844a0:	1880202c 	andhi	r2,r3,128
 50844a4:	10002326 	beq	r2,zero,5084534 <__subdf3+0x20c>
 50844a8:	04c02034 	movhi	r19,128
 50844ac:	9cffffc4 	addi	r19,r19,-1
 50844b0:	1ce6703a 	and	r19,r3,r19
 50844b4:	98007a26 	beq	r19,zero,50846a0 <__subdf3+0x378>
 50844b8:	9809883a 	mov	r4,r19
 50844bc:	5084d000 	call	5084d00 <__clzsi2>
 50844c0:	113ffe04 	addi	r4,r2,-8
 50844c4:	00c007c4 	movi	r3,31
 50844c8:	19007b16 	blt	r3,r4,50846b8 <__subdf3+0x390>
 50844cc:	00800804 	movi	r2,32
 50844d0:	1105c83a 	sub	r2,r2,r4
 50844d4:	8884d83a 	srl	r2,r17,r2
 50844d8:	9906983a 	sll	r3,r19,r4
 50844dc:	8922983a 	sll	r17,r17,r4
 50844e0:	10c4b03a 	or	r2,r2,r3
 50844e4:	24007816 	blt	r4,r16,50846c8 <__subdf3+0x3a0>
 50844e8:	2421c83a 	sub	r16,r4,r16
 50844ec:	80c00044 	addi	r3,r16,1
 50844f0:	010007c4 	movi	r4,31
 50844f4:	20c09516 	blt	r4,r3,508474c <__subdf3+0x424>
 50844f8:	01400804 	movi	r5,32
 50844fc:	28cbc83a 	sub	r5,r5,r3
 5084500:	88c8d83a 	srl	r4,r17,r3
 5084504:	8962983a 	sll	r17,r17,r5
 5084508:	114a983a 	sll	r5,r2,r5
 508450c:	10c6d83a 	srl	r3,r2,r3
 5084510:	8804c03a 	cmpne	r2,r17,zero
 5084514:	290ab03a 	or	r5,r5,r4
 5084518:	28a2b03a 	or	r17,r5,r2
 508451c:	0021883a 	mov	r16,zero
 5084520:	003fa206 	br	50843ac <__subdf3+0x84>
 5084524:	2090b03a 	or	r8,r4,r2
 5084528:	40018e26 	beq	r8,zero,5084b64 <__subdf3+0x83c>
 508452c:	1007883a 	mov	r3,r2
 5084530:	2023883a 	mov	r17,r4
 5084534:	888001cc 	andi	r2,r17,7
 5084538:	103f9e1e 	bne	r2,zero,50843b4 <__subdf3+0x8c>
 508453c:	1804977a 	slli	r2,r3,29
 5084540:	8822d0fa 	srli	r17,r17,3
 5084544:	1810d0fa 	srli	r8,r3,3
 5084548:	9100004c 	andi	r4,r18,1
 508454c:	1444b03a 	or	r2,r2,r17
 5084550:	00c1ffc4 	movi	r3,2047
 5084554:	80c02826 	beq	r16,r3,50845f8 <__subdf3+0x2d0>
 5084558:	01400434 	movhi	r5,16
 508455c:	297fffc4 	addi	r5,r5,-1
 5084560:	80e0703a 	and	r16,r16,r3
 5084564:	414a703a 	and	r5,r8,r5
 5084568:	003fa806 	br	508440c <__subdf3+0xe4>
 508456c:	0080630e 	bge	zero,r2,50846fc <__subdf3+0x3d4>
 5084570:	48003026 	beq	r9,zero,5084634 <__subdf3+0x30c>
 5084574:	0101ffc4 	movi	r4,2047
 5084578:	813f8c26 	beq	r16,r4,50843ac <__subdf3+0x84>
 508457c:	29402034 	orhi	r5,r5,128
 5084580:	01000e04 	movi	r4,56
 5084584:	2080a90e 	bge	r4,r2,508482c <__subdf3+0x504>
 5084588:	298cb03a 	or	r6,r5,r6
 508458c:	3012c03a 	cmpne	r9,r6,zero
 5084590:	0005883a 	mov	r2,zero
 5084594:	4c53883a 	add	r9,r9,r17
 5084598:	4c63803a 	cmpltu	r17,r9,r17
 508459c:	10c7883a 	add	r3,r2,r3
 50845a0:	88c7883a 	add	r3,r17,r3
 50845a4:	4823883a 	mov	r17,r9
 50845a8:	1880202c 	andhi	r2,r3,128
 50845ac:	1000d026 	beq	r2,zero,50848f0 <__subdf3+0x5c8>
 50845b0:	84000044 	addi	r16,r16,1
 50845b4:	0081ffc4 	movi	r2,2047
 50845b8:	8080fe26 	beq	r16,r2,50849b4 <__subdf3+0x68c>
 50845bc:	00bfe034 	movhi	r2,65408
 50845c0:	10bfffc4 	addi	r2,r2,-1
 50845c4:	1886703a 	and	r3,r3,r2
 50845c8:	880ad07a 	srli	r5,r17,1
 50845cc:	180497fa 	slli	r2,r3,31
 50845d0:	8900004c 	andi	r4,r17,1
 50845d4:	2922b03a 	or	r17,r5,r4
 50845d8:	1806d07a 	srli	r3,r3,1
 50845dc:	1462b03a 	or	r17,r2,r17
 50845e0:	3825883a 	mov	r18,r7
 50845e4:	003f7106 	br	50843ac <__subdf3+0x84>
 50845e8:	2984b03a 	or	r2,r5,r6
 50845ec:	103f6826 	beq	r2,zero,5084390 <__subdf3+0x68>
 50845f0:	39c03fcc 	andi	r7,r7,255
 50845f4:	003f6706 	br	5084394 <__subdf3+0x6c>
 50845f8:	4086b03a 	or	r3,r8,r2
 50845fc:	18015226 	beq	r3,zero,5084b48 <__subdf3+0x820>
 5084600:	00c00434 	movhi	r3,16
 5084604:	41400234 	orhi	r5,r8,8
 5084608:	18ffffc4 	addi	r3,r3,-1
 508460c:	28ca703a 	and	r5,r5,r3
 5084610:	003f7e06 	br	508440c <__subdf3+0xe4>
 5084614:	10bfffc4 	addi	r2,r2,-1
 5084618:	1000491e 	bne	r2,zero,5084740 <__subdf3+0x418>
 508461c:	898fc83a 	sub	r7,r17,r6
 5084620:	89e3803a 	cmpltu	r17,r17,r7
 5084624:	1947c83a 	sub	r3,r3,r5
 5084628:	1c47c83a 	sub	r3,r3,r17
 508462c:	3823883a 	mov	r17,r7
 5084630:	003f9b06 	br	50844a0 <__subdf3+0x178>
 5084634:	2988b03a 	or	r4,r5,r6
 5084638:	203f5c26 	beq	r4,zero,50843ac <__subdf3+0x84>
 508463c:	10bfffc4 	addi	r2,r2,-1
 5084640:	1000931e 	bne	r2,zero,5084890 <__subdf3+0x568>
 5084644:	898d883a 	add	r6,r17,r6
 5084648:	3463803a 	cmpltu	r17,r6,r17
 508464c:	1947883a 	add	r3,r3,r5
 5084650:	88c7883a 	add	r3,r17,r3
 5084654:	3023883a 	mov	r17,r6
 5084658:	003fd306 	br	50845a8 <__subdf3+0x280>
 508465c:	1000541e 	bne	r2,zero,50847b0 <__subdf3+0x488>
 5084660:	80800044 	addi	r2,r16,1
 5084664:	1081ffcc 	andi	r2,r2,2047
 5084668:	01000044 	movi	r4,1
 508466c:	2080a20e 	bge	r4,r2,50848f8 <__subdf3+0x5d0>
 5084670:	8989c83a 	sub	r4,r17,r6
 5084674:	8905803a 	cmpltu	r2,r17,r4
 5084678:	1967c83a 	sub	r19,r3,r5
 508467c:	98a7c83a 	sub	r19,r19,r2
 5084680:	9880202c 	andhi	r2,r19,128
 5084684:	10006326 	beq	r2,zero,5084814 <__subdf3+0x4ec>
 5084688:	3463c83a 	sub	r17,r6,r17
 508468c:	28c7c83a 	sub	r3,r5,r3
 5084690:	344d803a 	cmpltu	r6,r6,r17
 5084694:	19a7c83a 	sub	r19,r3,r6
 5084698:	3825883a 	mov	r18,r7
 508469c:	983f861e 	bne	r19,zero,50844b8 <__subdf3+0x190>
 50846a0:	8809883a 	mov	r4,r17
 50846a4:	5084d000 	call	5084d00 <__clzsi2>
 50846a8:	10800804 	addi	r2,r2,32
 50846ac:	113ffe04 	addi	r4,r2,-8
 50846b0:	00c007c4 	movi	r3,31
 50846b4:	193f850e 	bge	r3,r4,50844cc <__subdf3+0x1a4>
 50846b8:	10bff604 	addi	r2,r2,-40
 50846bc:	8884983a 	sll	r2,r17,r2
 50846c0:	0023883a 	mov	r17,zero
 50846c4:	243f880e 	bge	r4,r16,50844e8 <__subdf3+0x1c0>
 50846c8:	00ffe034 	movhi	r3,65408
 50846cc:	18ffffc4 	addi	r3,r3,-1
 50846d0:	8121c83a 	sub	r16,r16,r4
 50846d4:	10c6703a 	and	r3,r2,r3
 50846d8:	003f3406 	br	50843ac <__subdf3+0x84>
 50846dc:	9100004c 	andi	r4,r18,1
 50846e0:	000b883a 	mov	r5,zero
 50846e4:	0005883a 	mov	r2,zero
 50846e8:	003f4806 	br	508440c <__subdf3+0xe4>
 50846ec:	298cb03a 	or	r6,r5,r6
 50846f0:	300cc03a 	cmpne	r6,r6,zero
 50846f4:	0005883a 	mov	r2,zero
 50846f8:	003f6406 	br	508448c <__subdf3+0x164>
 50846fc:	10009a1e 	bne	r2,zero,5084968 <__subdf3+0x640>
 5084700:	82400044 	addi	r9,r16,1
 5084704:	4881ffcc 	andi	r2,r9,2047
 5084708:	02800044 	movi	r10,1
 508470c:	5080670e 	bge	r10,r2,50848ac <__subdf3+0x584>
 5084710:	0081ffc4 	movi	r2,2047
 5084714:	4880af26 	beq	r9,r2,50849d4 <__subdf3+0x6ac>
 5084718:	898d883a 	add	r6,r17,r6
 508471c:	1945883a 	add	r2,r3,r5
 5084720:	3447803a 	cmpltu	r3,r6,r17
 5084724:	1887883a 	add	r3,r3,r2
 5084728:	182297fa 	slli	r17,r3,31
 508472c:	300cd07a 	srli	r6,r6,1
 5084730:	1806d07a 	srli	r3,r3,1
 5084734:	4821883a 	mov	r16,r9
 5084738:	89a2b03a 	or	r17,r17,r6
 508473c:	003f1b06 	br	50843ac <__subdf3+0x84>
 5084740:	0101ffc4 	movi	r4,2047
 5084744:	813f441e 	bne	r16,r4,5084458 <__subdf3+0x130>
 5084748:	003f1806 	br	50843ac <__subdf3+0x84>
 508474c:	843ff844 	addi	r16,r16,-31
 5084750:	01400804 	movi	r5,32
 5084754:	1408d83a 	srl	r4,r2,r16
 5084758:	19405026 	beq	r3,r5,508489c <__subdf3+0x574>
 508475c:	01401004 	movi	r5,64
 5084760:	28c7c83a 	sub	r3,r5,r3
 5084764:	10c4983a 	sll	r2,r2,r3
 5084768:	88a2b03a 	or	r17,r17,r2
 508476c:	8822c03a 	cmpne	r17,r17,zero
 5084770:	2462b03a 	or	r17,r4,r17
 5084774:	0007883a 	mov	r3,zero
 5084778:	0021883a 	mov	r16,zero
 508477c:	003f6d06 	br	5084534 <__subdf3+0x20c>
 5084780:	11fff804 	addi	r7,r2,-32
 5084784:	01000804 	movi	r4,32
 5084788:	29ced83a 	srl	r7,r5,r7
 508478c:	11004526 	beq	r2,r4,50848a4 <__subdf3+0x57c>
 5084790:	01001004 	movi	r4,64
 5084794:	2089c83a 	sub	r4,r4,r2
 5084798:	2904983a 	sll	r2,r5,r4
 508479c:	118cb03a 	or	r6,r2,r6
 50847a0:	300cc03a 	cmpne	r6,r6,zero
 50847a4:	398cb03a 	or	r6,r7,r6
 50847a8:	0005883a 	mov	r2,zero
 50847ac:	003f3706 	br	508448c <__subdf3+0x164>
 50847b0:	80002a26 	beq	r16,zero,508485c <__subdf3+0x534>
 50847b4:	0101ffc4 	movi	r4,2047
 50847b8:	49006626 	beq	r9,r4,5084954 <__subdf3+0x62c>
 50847bc:	0085c83a 	sub	r2,zero,r2
 50847c0:	18c02034 	orhi	r3,r3,128
 50847c4:	01000e04 	movi	r4,56
 50847c8:	20807e16 	blt	r4,r2,50849c4 <__subdf3+0x69c>
 50847cc:	010007c4 	movi	r4,31
 50847d0:	2080e716 	blt	r4,r2,5084b70 <__subdf3+0x848>
 50847d4:	01000804 	movi	r4,32
 50847d8:	2089c83a 	sub	r4,r4,r2
 50847dc:	1914983a 	sll	r10,r3,r4
 50847e0:	8890d83a 	srl	r8,r17,r2
 50847e4:	8908983a 	sll	r4,r17,r4
 50847e8:	1884d83a 	srl	r2,r3,r2
 50847ec:	5222b03a 	or	r17,r10,r8
 50847f0:	2006c03a 	cmpne	r3,r4,zero
 50847f4:	88e2b03a 	or	r17,r17,r3
 50847f8:	3463c83a 	sub	r17,r6,r17
 50847fc:	2885c83a 	sub	r2,r5,r2
 5084800:	344d803a 	cmpltu	r6,r6,r17
 5084804:	1187c83a 	sub	r3,r2,r6
 5084808:	4821883a 	mov	r16,r9
 508480c:	3825883a 	mov	r18,r7
 5084810:	003f2306 	br	50844a0 <__subdf3+0x178>
 5084814:	24d0b03a 	or	r8,r4,r19
 5084818:	40001b1e 	bne	r8,zero,5084888 <__subdf3+0x560>
 508481c:	0005883a 	mov	r2,zero
 5084820:	0009883a 	mov	r4,zero
 5084824:	0021883a 	mov	r16,zero
 5084828:	003f4906 	br	5084550 <__subdf3+0x228>
 508482c:	010007c4 	movi	r4,31
 5084830:	20803a16 	blt	r4,r2,508491c <__subdf3+0x5f4>
 5084834:	01000804 	movi	r4,32
 5084838:	2089c83a 	sub	r4,r4,r2
 508483c:	2912983a 	sll	r9,r5,r4
 5084840:	3090d83a 	srl	r8,r6,r2
 5084844:	3108983a 	sll	r4,r6,r4
 5084848:	2884d83a 	srl	r2,r5,r2
 508484c:	4a12b03a 	or	r9,r9,r8
 5084850:	2008c03a 	cmpne	r4,r4,zero
 5084854:	4912b03a 	or	r9,r9,r4
 5084858:	003f4e06 	br	5084594 <__subdf3+0x26c>
 508485c:	1c48b03a 	or	r4,r3,r17
 5084860:	20003c26 	beq	r4,zero,5084954 <__subdf3+0x62c>
 5084864:	0084303a 	nor	r2,zero,r2
 5084868:	1000381e 	bne	r2,zero,508494c <__subdf3+0x624>
 508486c:	3463c83a 	sub	r17,r6,r17
 5084870:	28c5c83a 	sub	r2,r5,r3
 5084874:	344d803a 	cmpltu	r6,r6,r17
 5084878:	1187c83a 	sub	r3,r2,r6
 508487c:	4821883a 	mov	r16,r9
 5084880:	3825883a 	mov	r18,r7
 5084884:	003f0606 	br	50844a0 <__subdf3+0x178>
 5084888:	2023883a 	mov	r17,r4
 508488c:	003f0906 	br	50844b4 <__subdf3+0x18c>
 5084890:	0101ffc4 	movi	r4,2047
 5084894:	813f3a1e 	bne	r16,r4,5084580 <__subdf3+0x258>
 5084898:	003ec406 	br	50843ac <__subdf3+0x84>
 508489c:	0005883a 	mov	r2,zero
 50848a0:	003fb106 	br	5084768 <__subdf3+0x440>
 50848a4:	0005883a 	mov	r2,zero
 50848a8:	003fbc06 	br	508479c <__subdf3+0x474>
 50848ac:	1c44b03a 	or	r2,r3,r17
 50848b0:	80008e1e 	bne	r16,zero,5084aec <__subdf3+0x7c4>
 50848b4:	1000c826 	beq	r2,zero,5084bd8 <__subdf3+0x8b0>
 50848b8:	2984b03a 	or	r2,r5,r6
 50848bc:	103ebb26 	beq	r2,zero,50843ac <__subdf3+0x84>
 50848c0:	8989883a 	add	r4,r17,r6
 50848c4:	1945883a 	add	r2,r3,r5
 50848c8:	2447803a 	cmpltu	r3,r4,r17
 50848cc:	1887883a 	add	r3,r3,r2
 50848d0:	1880202c 	andhi	r2,r3,128
 50848d4:	2023883a 	mov	r17,r4
 50848d8:	103f1626 	beq	r2,zero,5084534 <__subdf3+0x20c>
 50848dc:	00bfe034 	movhi	r2,65408
 50848e0:	10bfffc4 	addi	r2,r2,-1
 50848e4:	5021883a 	mov	r16,r10
 50848e8:	1886703a 	and	r3,r3,r2
 50848ec:	003eaf06 	br	50843ac <__subdf3+0x84>
 50848f0:	3825883a 	mov	r18,r7
 50848f4:	003f0f06 	br	5084534 <__subdf3+0x20c>
 50848f8:	1c44b03a 	or	r2,r3,r17
 50848fc:	8000251e 	bne	r16,zero,5084994 <__subdf3+0x66c>
 5084900:	1000661e 	bne	r2,zero,5084a9c <__subdf3+0x774>
 5084904:	2990b03a 	or	r8,r5,r6
 5084908:	40009626 	beq	r8,zero,5084b64 <__subdf3+0x83c>
 508490c:	2807883a 	mov	r3,r5
 5084910:	3023883a 	mov	r17,r6
 5084914:	3825883a 	mov	r18,r7
 5084918:	003ea406 	br	50843ac <__subdf3+0x84>
 508491c:	127ff804 	addi	r9,r2,-32
 5084920:	01000804 	movi	r4,32
 5084924:	2a52d83a 	srl	r9,r5,r9
 5084928:	11008c26 	beq	r2,r4,5084b5c <__subdf3+0x834>
 508492c:	01001004 	movi	r4,64
 5084930:	2085c83a 	sub	r2,r4,r2
 5084934:	2884983a 	sll	r2,r5,r2
 5084938:	118cb03a 	or	r6,r2,r6
 508493c:	300cc03a 	cmpne	r6,r6,zero
 5084940:	4992b03a 	or	r9,r9,r6
 5084944:	0005883a 	mov	r2,zero
 5084948:	003f1206 	br	5084594 <__subdf3+0x26c>
 508494c:	0101ffc4 	movi	r4,2047
 5084950:	493f9c1e 	bne	r9,r4,50847c4 <__subdf3+0x49c>
 5084954:	2807883a 	mov	r3,r5
 5084958:	3023883a 	mov	r17,r6
 508495c:	4821883a 	mov	r16,r9
 5084960:	3825883a 	mov	r18,r7
 5084964:	003e9106 	br	50843ac <__subdf3+0x84>
 5084968:	80001f1e 	bne	r16,zero,50849e8 <__subdf3+0x6c0>
 508496c:	1c48b03a 	or	r4,r3,r17
 5084970:	20005a26 	beq	r4,zero,5084adc <__subdf3+0x7b4>
 5084974:	0084303a 	nor	r2,zero,r2
 5084978:	1000561e 	bne	r2,zero,5084ad4 <__subdf3+0x7ac>
 508497c:	89a3883a 	add	r17,r17,r6
 5084980:	1945883a 	add	r2,r3,r5
 5084984:	898d803a 	cmpltu	r6,r17,r6
 5084988:	3087883a 	add	r3,r6,r2
 508498c:	4821883a 	mov	r16,r9
 5084990:	003f0506 	br	50845a8 <__subdf3+0x280>
 5084994:	10002b1e 	bne	r2,zero,5084a44 <__subdf3+0x71c>
 5084998:	2984b03a 	or	r2,r5,r6
 508499c:	10008026 	beq	r2,zero,5084ba0 <__subdf3+0x878>
 50849a0:	2807883a 	mov	r3,r5
 50849a4:	3023883a 	mov	r17,r6
 50849a8:	3825883a 	mov	r18,r7
 50849ac:	0401ffc4 	movi	r16,2047
 50849b0:	003e7e06 	br	50843ac <__subdf3+0x84>
 50849b4:	3809883a 	mov	r4,r7
 50849b8:	0011883a 	mov	r8,zero
 50849bc:	0005883a 	mov	r2,zero
 50849c0:	003ee306 	br	5084550 <__subdf3+0x228>
 50849c4:	1c62b03a 	or	r17,r3,r17
 50849c8:	8822c03a 	cmpne	r17,r17,zero
 50849cc:	0005883a 	mov	r2,zero
 50849d0:	003f8906 	br	50847f8 <__subdf3+0x4d0>
 50849d4:	3809883a 	mov	r4,r7
 50849d8:	4821883a 	mov	r16,r9
 50849dc:	0011883a 	mov	r8,zero
 50849e0:	0005883a 	mov	r2,zero
 50849e4:	003eda06 	br	5084550 <__subdf3+0x228>
 50849e8:	0101ffc4 	movi	r4,2047
 50849ec:	49003b26 	beq	r9,r4,5084adc <__subdf3+0x7b4>
 50849f0:	0085c83a 	sub	r2,zero,r2
 50849f4:	18c02034 	orhi	r3,r3,128
 50849f8:	01000e04 	movi	r4,56
 50849fc:	20806e16 	blt	r4,r2,5084bb8 <__subdf3+0x890>
 5084a00:	010007c4 	movi	r4,31
 5084a04:	20807716 	blt	r4,r2,5084be4 <__subdf3+0x8bc>
 5084a08:	01000804 	movi	r4,32
 5084a0c:	2089c83a 	sub	r4,r4,r2
 5084a10:	1914983a 	sll	r10,r3,r4
 5084a14:	8890d83a 	srl	r8,r17,r2
 5084a18:	8908983a 	sll	r4,r17,r4
 5084a1c:	1884d83a 	srl	r2,r3,r2
 5084a20:	5222b03a 	or	r17,r10,r8
 5084a24:	2006c03a 	cmpne	r3,r4,zero
 5084a28:	88e2b03a 	or	r17,r17,r3
 5084a2c:	89a3883a 	add	r17,r17,r6
 5084a30:	1145883a 	add	r2,r2,r5
 5084a34:	898d803a 	cmpltu	r6,r17,r6
 5084a38:	3087883a 	add	r3,r6,r2
 5084a3c:	4821883a 	mov	r16,r9
 5084a40:	003ed906 	br	50845a8 <__subdf3+0x280>
 5084a44:	2984b03a 	or	r2,r5,r6
 5084a48:	10004226 	beq	r2,zero,5084b54 <__subdf3+0x82c>
 5084a4c:	1808d0fa 	srli	r4,r3,3
 5084a50:	8822d0fa 	srli	r17,r17,3
 5084a54:	1806977a 	slli	r3,r3,29
 5084a58:	2080022c 	andhi	r2,r4,8
 5084a5c:	1c62b03a 	or	r17,r3,r17
 5084a60:	10000826 	beq	r2,zero,5084a84 <__subdf3+0x75c>
 5084a64:	2812d0fa 	srli	r9,r5,3
 5084a68:	4880022c 	andhi	r2,r9,8
 5084a6c:	1000051e 	bne	r2,zero,5084a84 <__subdf3+0x75c>
 5084a70:	300cd0fa 	srli	r6,r6,3
 5084a74:	2804977a 	slli	r2,r5,29
 5084a78:	4809883a 	mov	r4,r9
 5084a7c:	3825883a 	mov	r18,r7
 5084a80:	11a2b03a 	or	r17,r2,r6
 5084a84:	8806d77a 	srli	r3,r17,29
 5084a88:	200890fa 	slli	r4,r4,3
 5084a8c:	882290fa 	slli	r17,r17,3
 5084a90:	0401ffc4 	movi	r16,2047
 5084a94:	1906b03a 	or	r3,r3,r4
 5084a98:	003e4406 	br	50843ac <__subdf3+0x84>
 5084a9c:	2984b03a 	or	r2,r5,r6
 5084aa0:	103e4226 	beq	r2,zero,50843ac <__subdf3+0x84>
 5084aa4:	8989c83a 	sub	r4,r17,r6
 5084aa8:	8911803a 	cmpltu	r8,r17,r4
 5084aac:	1945c83a 	sub	r2,r3,r5
 5084ab0:	1205c83a 	sub	r2,r2,r8
 5084ab4:	1200202c 	andhi	r8,r2,128
 5084ab8:	403e9a26 	beq	r8,zero,5084524 <__subdf3+0x1fc>
 5084abc:	3463c83a 	sub	r17,r6,r17
 5084ac0:	28c5c83a 	sub	r2,r5,r3
 5084ac4:	344d803a 	cmpltu	r6,r6,r17
 5084ac8:	1187c83a 	sub	r3,r2,r6
 5084acc:	3825883a 	mov	r18,r7
 5084ad0:	003e3606 	br	50843ac <__subdf3+0x84>
 5084ad4:	0101ffc4 	movi	r4,2047
 5084ad8:	493fc71e 	bne	r9,r4,50849f8 <__subdf3+0x6d0>
 5084adc:	2807883a 	mov	r3,r5
 5084ae0:	3023883a 	mov	r17,r6
 5084ae4:	4821883a 	mov	r16,r9
 5084ae8:	003e3006 	br	50843ac <__subdf3+0x84>
 5084aec:	10003626 	beq	r2,zero,5084bc8 <__subdf3+0x8a0>
 5084af0:	2984b03a 	or	r2,r5,r6
 5084af4:	10001726 	beq	r2,zero,5084b54 <__subdf3+0x82c>
 5084af8:	1808d0fa 	srli	r4,r3,3
 5084afc:	8822d0fa 	srli	r17,r17,3
 5084b00:	1806977a 	slli	r3,r3,29
 5084b04:	2080022c 	andhi	r2,r4,8
 5084b08:	1c62b03a 	or	r17,r3,r17
 5084b0c:	10000726 	beq	r2,zero,5084b2c <__subdf3+0x804>
 5084b10:	2812d0fa 	srli	r9,r5,3
 5084b14:	4880022c 	andhi	r2,r9,8
 5084b18:	1000041e 	bne	r2,zero,5084b2c <__subdf3+0x804>
 5084b1c:	300cd0fa 	srli	r6,r6,3
 5084b20:	2804977a 	slli	r2,r5,29
 5084b24:	4809883a 	mov	r4,r9
 5084b28:	11a2b03a 	or	r17,r2,r6
 5084b2c:	8806d77a 	srli	r3,r17,29
 5084b30:	200890fa 	slli	r4,r4,3
 5084b34:	882290fa 	slli	r17,r17,3
 5084b38:	3825883a 	mov	r18,r7
 5084b3c:	1906b03a 	or	r3,r3,r4
 5084b40:	0401ffc4 	movi	r16,2047
 5084b44:	003e1906 	br	50843ac <__subdf3+0x84>
 5084b48:	000b883a 	mov	r5,zero
 5084b4c:	0005883a 	mov	r2,zero
 5084b50:	003e2e06 	br	508440c <__subdf3+0xe4>
 5084b54:	0401ffc4 	movi	r16,2047
 5084b58:	003e1406 	br	50843ac <__subdf3+0x84>
 5084b5c:	0005883a 	mov	r2,zero
 5084b60:	003f7506 	br	5084938 <__subdf3+0x610>
 5084b64:	0005883a 	mov	r2,zero
 5084b68:	0009883a 	mov	r4,zero
 5084b6c:	003e7806 	br	5084550 <__subdf3+0x228>
 5084b70:	123ff804 	addi	r8,r2,-32
 5084b74:	01000804 	movi	r4,32
 5084b78:	1a10d83a 	srl	r8,r3,r8
 5084b7c:	11002526 	beq	r2,r4,5084c14 <__subdf3+0x8ec>
 5084b80:	01001004 	movi	r4,64
 5084b84:	2085c83a 	sub	r2,r4,r2
 5084b88:	1884983a 	sll	r2,r3,r2
 5084b8c:	1444b03a 	or	r2,r2,r17
 5084b90:	1004c03a 	cmpne	r2,r2,zero
 5084b94:	40a2b03a 	or	r17,r8,r2
 5084b98:	0005883a 	mov	r2,zero
 5084b9c:	003f1606 	br	50847f8 <__subdf3+0x4d0>
 5084ba0:	02000434 	movhi	r8,16
 5084ba4:	0009883a 	mov	r4,zero
 5084ba8:	423fffc4 	addi	r8,r8,-1
 5084bac:	00bfffc4 	movi	r2,-1
 5084bb0:	0401ffc4 	movi	r16,2047
 5084bb4:	003e6606 	br	5084550 <__subdf3+0x228>
 5084bb8:	1c62b03a 	or	r17,r3,r17
 5084bbc:	8822c03a 	cmpne	r17,r17,zero
 5084bc0:	0005883a 	mov	r2,zero
 5084bc4:	003f9906 	br	5084a2c <__subdf3+0x704>
 5084bc8:	2807883a 	mov	r3,r5
 5084bcc:	3023883a 	mov	r17,r6
 5084bd0:	0401ffc4 	movi	r16,2047
 5084bd4:	003df506 	br	50843ac <__subdf3+0x84>
 5084bd8:	2807883a 	mov	r3,r5
 5084bdc:	3023883a 	mov	r17,r6
 5084be0:	003df206 	br	50843ac <__subdf3+0x84>
 5084be4:	123ff804 	addi	r8,r2,-32
 5084be8:	01000804 	movi	r4,32
 5084bec:	1a10d83a 	srl	r8,r3,r8
 5084bf0:	11000a26 	beq	r2,r4,5084c1c <__subdf3+0x8f4>
 5084bf4:	01001004 	movi	r4,64
 5084bf8:	2085c83a 	sub	r2,r4,r2
 5084bfc:	1884983a 	sll	r2,r3,r2
 5084c00:	1444b03a 	or	r2,r2,r17
 5084c04:	1004c03a 	cmpne	r2,r2,zero
 5084c08:	40a2b03a 	or	r17,r8,r2
 5084c0c:	0005883a 	mov	r2,zero
 5084c10:	003f8606 	br	5084a2c <__subdf3+0x704>
 5084c14:	0005883a 	mov	r2,zero
 5084c18:	003fdc06 	br	5084b8c <__subdf3+0x864>
 5084c1c:	0005883a 	mov	r2,zero
 5084c20:	003ff706 	br	5084c00 <__subdf3+0x8d8>

05084c24 <__floatsidf>:
 5084c24:	defffd04 	addi	sp,sp,-12
 5084c28:	dfc00215 	stw	ra,8(sp)
 5084c2c:	dc400115 	stw	r17,4(sp)
 5084c30:	dc000015 	stw	r16,0(sp)
 5084c34:	20002b26 	beq	r4,zero,5084ce4 <__floatsidf+0xc0>
 5084c38:	2023883a 	mov	r17,r4
 5084c3c:	2020d7fa 	srli	r16,r4,31
 5084c40:	20002d16 	blt	r4,zero,5084cf8 <__floatsidf+0xd4>
 5084c44:	8809883a 	mov	r4,r17
 5084c48:	5084d000 	call	5084d00 <__clzsi2>
 5084c4c:	01410784 	movi	r5,1054
 5084c50:	288bc83a 	sub	r5,r5,r2
 5084c54:	01010cc4 	movi	r4,1075
 5084c58:	2149c83a 	sub	r4,r4,r5
 5084c5c:	00c007c4 	movi	r3,31
 5084c60:	1900160e 	bge	r3,r4,5084cbc <__floatsidf+0x98>
 5084c64:	00c104c4 	movi	r3,1043
 5084c68:	1947c83a 	sub	r3,r3,r5
 5084c6c:	88c6983a 	sll	r3,r17,r3
 5084c70:	00800434 	movhi	r2,16
 5084c74:	10bfffc4 	addi	r2,r2,-1
 5084c78:	1886703a 	and	r3,r3,r2
 5084c7c:	2941ffcc 	andi	r5,r5,2047
 5084c80:	800d883a 	mov	r6,r16
 5084c84:	0005883a 	mov	r2,zero
 5084c88:	280a953a 	slli	r5,r5,20
 5084c8c:	31803fcc 	andi	r6,r6,255
 5084c90:	01000434 	movhi	r4,16
 5084c94:	300c97fa 	slli	r6,r6,31
 5084c98:	213fffc4 	addi	r4,r4,-1
 5084c9c:	1906703a 	and	r3,r3,r4
 5084ca0:	1946b03a 	or	r3,r3,r5
 5084ca4:	1986b03a 	or	r3,r3,r6
 5084ca8:	dfc00217 	ldw	ra,8(sp)
 5084cac:	dc400117 	ldw	r17,4(sp)
 5084cb0:	dc000017 	ldw	r16,0(sp)
 5084cb4:	dec00304 	addi	sp,sp,12
 5084cb8:	f800283a 	ret
 5084cbc:	00c002c4 	movi	r3,11
 5084cc0:	1887c83a 	sub	r3,r3,r2
 5084cc4:	88c6d83a 	srl	r3,r17,r3
 5084cc8:	8904983a 	sll	r2,r17,r4
 5084ccc:	01000434 	movhi	r4,16
 5084cd0:	213fffc4 	addi	r4,r4,-1
 5084cd4:	2941ffcc 	andi	r5,r5,2047
 5084cd8:	1906703a 	and	r3,r3,r4
 5084cdc:	800d883a 	mov	r6,r16
 5084ce0:	003fe906 	br	5084c88 <__floatsidf+0x64>
 5084ce4:	000d883a 	mov	r6,zero
 5084ce8:	000b883a 	mov	r5,zero
 5084cec:	0007883a 	mov	r3,zero
 5084cf0:	0005883a 	mov	r2,zero
 5084cf4:	003fe406 	br	5084c88 <__floatsidf+0x64>
 5084cf8:	0123c83a 	sub	r17,zero,r4
 5084cfc:	003fd106 	br	5084c44 <__floatsidf+0x20>

05084d00 <__clzsi2>:
 5084d00:	00bfffd4 	movui	r2,65535
 5084d04:	11000536 	bltu	r2,r4,5084d1c <__clzsi2+0x1c>
 5084d08:	00803fc4 	movi	r2,255
 5084d0c:	11000f36 	bltu	r2,r4,5084d4c <__clzsi2+0x4c>
 5084d10:	00800804 	movi	r2,32
 5084d14:	0007883a 	mov	r3,zero
 5084d18:	00000506 	br	5084d30 <__clzsi2+0x30>
 5084d1c:	00804034 	movhi	r2,256
 5084d20:	10bfffc4 	addi	r2,r2,-1
 5084d24:	11000c2e 	bgeu	r2,r4,5084d58 <__clzsi2+0x58>
 5084d28:	00800204 	movi	r2,8
 5084d2c:	00c00604 	movi	r3,24
 5084d30:	20c8d83a 	srl	r4,r4,r3
 5084d34:	00c14274 	movhi	r3,1289
 5084d38:	18d9f604 	addi	r3,r3,26584
 5084d3c:	1909883a 	add	r4,r3,r4
 5084d40:	20c00003 	ldbu	r3,0(r4)
 5084d44:	10c5c83a 	sub	r2,r2,r3
 5084d48:	f800283a 	ret
 5084d4c:	00800604 	movi	r2,24
 5084d50:	00c00204 	movi	r3,8
 5084d54:	003ff606 	br	5084d30 <__clzsi2+0x30>
 5084d58:	00800404 	movi	r2,16
 5084d5c:	1007883a 	mov	r3,r2
 5084d60:	003ff306 	br	5084d30 <__clzsi2+0x30>

05084d64 <memcpy>:
 5084d64:	defffd04 	addi	sp,sp,-12
 5084d68:	dfc00215 	stw	ra,8(sp)
 5084d6c:	dc400115 	stw	r17,4(sp)
 5084d70:	dc000015 	stw	r16,0(sp)
 5084d74:	00c003c4 	movi	r3,15
 5084d78:	2005883a 	mov	r2,r4
 5084d7c:	1980452e 	bgeu	r3,r6,5084e94 <memcpy+0x130>
 5084d80:	2906b03a 	or	r3,r5,r4
 5084d84:	18c000cc 	andi	r3,r3,3
 5084d88:	1800441e 	bne	r3,zero,5084e9c <memcpy+0x138>
 5084d8c:	347ffc04 	addi	r17,r6,-16
 5084d90:	8822d13a 	srli	r17,r17,4
 5084d94:	28c00104 	addi	r3,r5,4
 5084d98:	23400104 	addi	r13,r4,4
 5084d9c:	8820913a 	slli	r16,r17,4
 5084da0:	2b000204 	addi	r12,r5,8
 5084da4:	22c00204 	addi	r11,r4,8
 5084da8:	84000504 	addi	r16,r16,20
 5084dac:	2a800304 	addi	r10,r5,12
 5084db0:	22400304 	addi	r9,r4,12
 5084db4:	2c21883a 	add	r16,r5,r16
 5084db8:	2811883a 	mov	r8,r5
 5084dbc:	200f883a 	mov	r7,r4
 5084dc0:	41000017 	ldw	r4,0(r8)
 5084dc4:	1fc00017 	ldw	ra,0(r3)
 5084dc8:	63c00017 	ldw	r15,0(r12)
 5084dcc:	39000015 	stw	r4,0(r7)
 5084dd0:	53800017 	ldw	r14,0(r10)
 5084dd4:	6fc00015 	stw	ra,0(r13)
 5084dd8:	5bc00015 	stw	r15,0(r11)
 5084ddc:	4b800015 	stw	r14,0(r9)
 5084de0:	18c00404 	addi	r3,r3,16
 5084de4:	39c00404 	addi	r7,r7,16
 5084de8:	42000404 	addi	r8,r8,16
 5084dec:	6b400404 	addi	r13,r13,16
 5084df0:	63000404 	addi	r12,r12,16
 5084df4:	5ac00404 	addi	r11,r11,16
 5084df8:	52800404 	addi	r10,r10,16
 5084dfc:	4a400404 	addi	r9,r9,16
 5084e00:	1c3fef1e 	bne	r3,r16,5084dc0 <memcpy+0x5c>
 5084e04:	89c00044 	addi	r7,r17,1
 5084e08:	380e913a 	slli	r7,r7,4
 5084e0c:	310003cc 	andi	r4,r6,15
 5084e10:	02c000c4 	movi	r11,3
 5084e14:	11c7883a 	add	r3,r2,r7
 5084e18:	29cb883a 	add	r5,r5,r7
 5084e1c:	5900212e 	bgeu	r11,r4,5084ea4 <memcpy+0x140>
 5084e20:	1813883a 	mov	r9,r3
 5084e24:	2811883a 	mov	r8,r5
 5084e28:	200f883a 	mov	r7,r4
 5084e2c:	42800017 	ldw	r10,0(r8)
 5084e30:	4a400104 	addi	r9,r9,4
 5084e34:	39ffff04 	addi	r7,r7,-4
 5084e38:	4abfff15 	stw	r10,-4(r9)
 5084e3c:	42000104 	addi	r8,r8,4
 5084e40:	59fffa36 	bltu	r11,r7,5084e2c <memcpy+0xc8>
 5084e44:	213fff04 	addi	r4,r4,-4
 5084e48:	2008d0ba 	srli	r4,r4,2
 5084e4c:	318000cc 	andi	r6,r6,3
 5084e50:	21000044 	addi	r4,r4,1
 5084e54:	2109883a 	add	r4,r4,r4
 5084e58:	2109883a 	add	r4,r4,r4
 5084e5c:	1907883a 	add	r3,r3,r4
 5084e60:	290b883a 	add	r5,r5,r4
 5084e64:	30000626 	beq	r6,zero,5084e80 <memcpy+0x11c>
 5084e68:	198d883a 	add	r6,r3,r6
 5084e6c:	29c00003 	ldbu	r7,0(r5)
 5084e70:	18c00044 	addi	r3,r3,1
 5084e74:	29400044 	addi	r5,r5,1
 5084e78:	19ffffc5 	stb	r7,-1(r3)
 5084e7c:	19bffb1e 	bne	r3,r6,5084e6c <memcpy+0x108>
 5084e80:	dfc00217 	ldw	ra,8(sp)
 5084e84:	dc400117 	ldw	r17,4(sp)
 5084e88:	dc000017 	ldw	r16,0(sp)
 5084e8c:	dec00304 	addi	sp,sp,12
 5084e90:	f800283a 	ret
 5084e94:	2007883a 	mov	r3,r4
 5084e98:	003ff206 	br	5084e64 <memcpy+0x100>
 5084e9c:	2007883a 	mov	r3,r4
 5084ea0:	003ff106 	br	5084e68 <memcpy+0x104>
 5084ea4:	200d883a 	mov	r6,r4
 5084ea8:	003fee06 	br	5084e64 <memcpy+0x100>

05084eac <memmove>:
 5084eac:	2005883a 	mov	r2,r4
 5084eb0:	29000b2e 	bgeu	r5,r4,5084ee0 <memmove+0x34>
 5084eb4:	298f883a 	add	r7,r5,r6
 5084eb8:	21c0092e 	bgeu	r4,r7,5084ee0 <memmove+0x34>
 5084ebc:	2187883a 	add	r3,r4,r6
 5084ec0:	198bc83a 	sub	r5,r3,r6
 5084ec4:	30004826 	beq	r6,zero,5084fe8 <memmove+0x13c>
 5084ec8:	39ffffc4 	addi	r7,r7,-1
 5084ecc:	39000003 	ldbu	r4,0(r7)
 5084ed0:	18ffffc4 	addi	r3,r3,-1
 5084ed4:	19000005 	stb	r4,0(r3)
 5084ed8:	28fffb1e 	bne	r5,r3,5084ec8 <memmove+0x1c>
 5084edc:	f800283a 	ret
 5084ee0:	00c003c4 	movi	r3,15
 5084ee4:	1980412e 	bgeu	r3,r6,5084fec <memmove+0x140>
 5084ee8:	2886b03a 	or	r3,r5,r2
 5084eec:	18c000cc 	andi	r3,r3,3
 5084ef0:	1800401e 	bne	r3,zero,5084ff4 <memmove+0x148>
 5084ef4:	33fffc04 	addi	r15,r6,-16
 5084ef8:	781ed13a 	srli	r15,r15,4
 5084efc:	28c00104 	addi	r3,r5,4
 5084f00:	13400104 	addi	r13,r2,4
 5084f04:	781c913a 	slli	r14,r15,4
 5084f08:	2b000204 	addi	r12,r5,8
 5084f0c:	12c00204 	addi	r11,r2,8
 5084f10:	73800504 	addi	r14,r14,20
 5084f14:	2a800304 	addi	r10,r5,12
 5084f18:	12400304 	addi	r9,r2,12
 5084f1c:	2b9d883a 	add	r14,r5,r14
 5084f20:	2811883a 	mov	r8,r5
 5084f24:	100f883a 	mov	r7,r2
 5084f28:	41000017 	ldw	r4,0(r8)
 5084f2c:	39c00404 	addi	r7,r7,16
 5084f30:	18c00404 	addi	r3,r3,16
 5084f34:	393ffc15 	stw	r4,-16(r7)
 5084f38:	193ffc17 	ldw	r4,-16(r3)
 5084f3c:	6b400404 	addi	r13,r13,16
 5084f40:	5ac00404 	addi	r11,r11,16
 5084f44:	693ffc15 	stw	r4,-16(r13)
 5084f48:	61000017 	ldw	r4,0(r12)
 5084f4c:	4a400404 	addi	r9,r9,16
 5084f50:	42000404 	addi	r8,r8,16
 5084f54:	593ffc15 	stw	r4,-16(r11)
 5084f58:	51000017 	ldw	r4,0(r10)
 5084f5c:	63000404 	addi	r12,r12,16
 5084f60:	52800404 	addi	r10,r10,16
 5084f64:	493ffc15 	stw	r4,-16(r9)
 5084f68:	1bbfef1e 	bne	r3,r14,5084f28 <memmove+0x7c>
 5084f6c:	79000044 	addi	r4,r15,1
 5084f70:	2008913a 	slli	r4,r4,4
 5084f74:	328003cc 	andi	r10,r6,15
 5084f78:	02c000c4 	movi	r11,3
 5084f7c:	1107883a 	add	r3,r2,r4
 5084f80:	290b883a 	add	r5,r5,r4
 5084f84:	5a801e2e 	bgeu	r11,r10,5085000 <memmove+0x154>
 5084f88:	1813883a 	mov	r9,r3
 5084f8c:	2811883a 	mov	r8,r5
 5084f90:	500f883a 	mov	r7,r10
 5084f94:	41000017 	ldw	r4,0(r8)
 5084f98:	4a400104 	addi	r9,r9,4
 5084f9c:	39ffff04 	addi	r7,r7,-4
 5084fa0:	493fff15 	stw	r4,-4(r9)
 5084fa4:	42000104 	addi	r8,r8,4
 5084fa8:	59fffa36 	bltu	r11,r7,5084f94 <memmove+0xe8>
 5084fac:	513fff04 	addi	r4,r10,-4
 5084fb0:	2008d0ba 	srli	r4,r4,2
 5084fb4:	318000cc 	andi	r6,r6,3
 5084fb8:	21000044 	addi	r4,r4,1
 5084fbc:	2109883a 	add	r4,r4,r4
 5084fc0:	2109883a 	add	r4,r4,r4
 5084fc4:	1907883a 	add	r3,r3,r4
 5084fc8:	290b883a 	add	r5,r5,r4
 5084fcc:	30000b26 	beq	r6,zero,5084ffc <memmove+0x150>
 5084fd0:	198d883a 	add	r6,r3,r6
 5084fd4:	29c00003 	ldbu	r7,0(r5)
 5084fd8:	18c00044 	addi	r3,r3,1
 5084fdc:	29400044 	addi	r5,r5,1
 5084fe0:	19ffffc5 	stb	r7,-1(r3)
 5084fe4:	19bffb1e 	bne	r3,r6,5084fd4 <memmove+0x128>
 5084fe8:	f800283a 	ret
 5084fec:	1007883a 	mov	r3,r2
 5084ff0:	003ff606 	br	5084fcc <memmove+0x120>
 5084ff4:	1007883a 	mov	r3,r2
 5084ff8:	003ff506 	br	5084fd0 <memmove+0x124>
 5084ffc:	f800283a 	ret
 5085000:	500d883a 	mov	r6,r10
 5085004:	003ff106 	br	5084fcc <memmove+0x120>

05085008 <_printf_r>:
 5085008:	defffd04 	addi	sp,sp,-12
 508500c:	2805883a 	mov	r2,r5
 5085010:	dfc00015 	stw	ra,0(sp)
 5085014:	d9800115 	stw	r6,4(sp)
 5085018:	d9c00215 	stw	r7,8(sp)
 508501c:	21400217 	ldw	r5,8(r4)
 5085020:	d9c00104 	addi	r7,sp,4
 5085024:	100d883a 	mov	r6,r2
 5085028:	508747c0 	call	508747c <___vfprintf_internal_r>
 508502c:	dfc00017 	ldw	ra,0(sp)
 5085030:	dec00304 	addi	sp,sp,12
 5085034:	f800283a 	ret

05085038 <printf>:
 5085038:	defffc04 	addi	sp,sp,-16
 508503c:	dfc00015 	stw	ra,0(sp)
 5085040:	d9400115 	stw	r5,4(sp)
 5085044:	d9800215 	stw	r6,8(sp)
 5085048:	d9c00315 	stw	r7,12(sp)
 508504c:	008142b4 	movhi	r2,1290
 5085050:	10a17404 	addi	r2,r2,-31280
 5085054:	10800017 	ldw	r2,0(r2)
 5085058:	200b883a 	mov	r5,r4
 508505c:	d9800104 	addi	r6,sp,4
 5085060:	11000217 	ldw	r4,8(r2)
 5085064:	50896740 	call	5089674 <__vfprintf_internal>
 5085068:	dfc00017 	ldw	ra,0(sp)
 508506c:	dec00404 	addi	sp,sp,16
 5085070:	f800283a 	ret

05085074 <_puts_r>:
 5085074:	defff604 	addi	sp,sp,-40
 5085078:	dc000715 	stw	r16,28(sp)
 508507c:	2021883a 	mov	r16,r4
 5085080:	2809883a 	mov	r4,r5
 5085084:	dc400815 	stw	r17,32(sp)
 5085088:	dfc00915 	stw	ra,36(sp)
 508508c:	2823883a 	mov	r17,r5
 5085090:	508520c0 	call	508520c <strlen>
 5085094:	10c00044 	addi	r3,r2,1
 5085098:	d8800115 	stw	r2,4(sp)
 508509c:	00814274 	movhi	r2,1289
 50850a0:	109a3604 	addi	r2,r2,26840
 50850a4:	d8800215 	stw	r2,8(sp)
 50850a8:	00800044 	movi	r2,1
 50850ac:	d8800315 	stw	r2,12(sp)
 50850b0:	00800084 	movi	r2,2
 50850b4:	dc400015 	stw	r17,0(sp)
 50850b8:	d8c00615 	stw	r3,24(sp)
 50850bc:	dec00415 	stw	sp,16(sp)
 50850c0:	d8800515 	stw	r2,20(sp)
 50850c4:	80000226 	beq	r16,zero,50850d0 <_puts_r+0x5c>
 50850c8:	80800e17 	ldw	r2,56(r16)
 50850cc:	10001426 	beq	r2,zero,5085120 <_puts_r+0xac>
 50850d0:	81400217 	ldw	r5,8(r16)
 50850d4:	2880030b 	ldhu	r2,12(r5)
 50850d8:	10c8000c 	andi	r3,r2,8192
 50850dc:	1800061e 	bne	r3,zero,50850f8 <_puts_r+0x84>
 50850e0:	29001917 	ldw	r4,100(r5)
 50850e4:	00f7ffc4 	movi	r3,-8193
 50850e8:	10880014 	ori	r2,r2,8192
 50850ec:	20c6703a 	and	r3,r4,r3
 50850f0:	2880030d 	sth	r2,12(r5)
 50850f4:	28c01915 	stw	r3,100(r5)
 50850f8:	d9800404 	addi	r6,sp,16
 50850fc:	8009883a 	mov	r4,r16
 5085100:	508bcc80 	call	508bcc8 <__sfvwrite_r>
 5085104:	1000091e 	bne	r2,zero,508512c <_puts_r+0xb8>
 5085108:	00800284 	movi	r2,10
 508510c:	dfc00917 	ldw	ra,36(sp)
 5085110:	dc400817 	ldw	r17,32(sp)
 5085114:	dc000717 	ldw	r16,28(sp)
 5085118:	dec00a04 	addi	sp,sp,40
 508511c:	f800283a 	ret
 5085120:	8009883a 	mov	r4,r16
 5085124:	508b8440 	call	508b844 <__sinit>
 5085128:	003fe906 	br	50850d0 <_puts_r+0x5c>
 508512c:	00bfffc4 	movi	r2,-1
 5085130:	003ff606 	br	508510c <_puts_r+0x98>

05085134 <puts>:
 5085134:	008142b4 	movhi	r2,1290
 5085138:	10a17404 	addi	r2,r2,-31280
 508513c:	200b883a 	mov	r5,r4
 5085140:	11000017 	ldw	r4,0(r2)
 5085144:	50850741 	jmpi	5085074 <_puts_r>

05085148 <_sprintf_r>:
 5085148:	deffe404 	addi	sp,sp,-112
 508514c:	2807883a 	mov	r3,r5
 5085150:	dfc01a15 	stw	ra,104(sp)
 5085154:	d9c01b15 	stw	r7,108(sp)
 5085158:	00a00034 	movhi	r2,32768
 508515c:	10bfffc4 	addi	r2,r2,-1
 5085160:	02008204 	movi	r8,520
 5085164:	d8800215 	stw	r2,8(sp)
 5085168:	d8800515 	stw	r2,20(sp)
 508516c:	d9c01b04 	addi	r7,sp,108
 5085170:	d80b883a 	mov	r5,sp
 5085174:	00bfffc4 	movi	r2,-1
 5085178:	d8c00015 	stw	r3,0(sp)
 508517c:	d8c00415 	stw	r3,16(sp)
 5085180:	da00030d 	sth	r8,12(sp)
 5085184:	d880038d 	sth	r2,14(sp)
 5085188:	50852a40 	call	50852a4 <___svfprintf_internal_r>
 508518c:	d8c00017 	ldw	r3,0(sp)
 5085190:	18000005 	stb	zero,0(r3)
 5085194:	dfc01a17 	ldw	ra,104(sp)
 5085198:	dec01c04 	addi	sp,sp,112
 508519c:	f800283a 	ret

050851a0 <sprintf>:
 50851a0:	deffe304 	addi	sp,sp,-116
 50851a4:	2007883a 	mov	r3,r4
 50851a8:	dfc01a15 	stw	ra,104(sp)
 50851ac:	d9801b15 	stw	r6,108(sp)
 50851b0:	d9c01c15 	stw	r7,112(sp)
 50851b4:	010142b4 	movhi	r4,1290
 50851b8:	21217404 	addi	r4,r4,-31280
 50851bc:	21000017 	ldw	r4,0(r4)
 50851c0:	00a00034 	movhi	r2,32768
 50851c4:	10bfffc4 	addi	r2,r2,-1
 50851c8:	280d883a 	mov	r6,r5
 50851cc:	02008204 	movi	r8,520
 50851d0:	d8800215 	stw	r2,8(sp)
 50851d4:	d8800515 	stw	r2,20(sp)
 50851d8:	d9c01b04 	addi	r7,sp,108
 50851dc:	d80b883a 	mov	r5,sp
 50851e0:	00bfffc4 	movi	r2,-1
 50851e4:	d8c00015 	stw	r3,0(sp)
 50851e8:	d8c00415 	stw	r3,16(sp)
 50851ec:	da00030d 	sth	r8,12(sp)
 50851f0:	d880038d 	sth	r2,14(sp)
 50851f4:	50852a40 	call	50852a4 <___svfprintf_internal_r>
 50851f8:	d8c00017 	ldw	r3,0(sp)
 50851fc:	18000005 	stb	zero,0(r3)
 5085200:	dfc01a17 	ldw	ra,104(sp)
 5085204:	dec01d04 	addi	sp,sp,116
 5085208:	f800283a 	ret

0508520c <strlen>:
 508520c:	208000cc 	andi	r2,r4,3
 5085210:	10002026 	beq	r2,zero,5085294 <strlen+0x88>
 5085214:	20800007 	ldb	r2,0(r4)
 5085218:	10002026 	beq	r2,zero,508529c <strlen+0x90>
 508521c:	2005883a 	mov	r2,r4
 5085220:	00000206 	br	508522c <strlen+0x20>
 5085224:	10c00007 	ldb	r3,0(r2)
 5085228:	18001826 	beq	r3,zero,508528c <strlen+0x80>
 508522c:	10800044 	addi	r2,r2,1
 5085230:	10c000cc 	andi	r3,r2,3
 5085234:	183ffb1e 	bne	r3,zero,5085224 <strlen+0x18>
 5085238:	10c00017 	ldw	r3,0(r2)
 508523c:	01ffbff4 	movhi	r7,65279
 5085240:	39ffbfc4 	addi	r7,r7,-257
 5085244:	00ca303a 	nor	r5,zero,r3
 5085248:	01a02074 	movhi	r6,32897
 508524c:	19c7883a 	add	r3,r3,r7
 5085250:	31a02004 	addi	r6,r6,-32640
 5085254:	1946703a 	and	r3,r3,r5
 5085258:	1986703a 	and	r3,r3,r6
 508525c:	1800091e 	bne	r3,zero,5085284 <strlen+0x78>
 5085260:	10800104 	addi	r2,r2,4
 5085264:	10c00017 	ldw	r3,0(r2)
 5085268:	19cb883a 	add	r5,r3,r7
 508526c:	00c6303a 	nor	r3,zero,r3
 5085270:	28c6703a 	and	r3,r5,r3
 5085274:	1986703a 	and	r3,r3,r6
 5085278:	183ff926 	beq	r3,zero,5085260 <strlen+0x54>
 508527c:	00000106 	br	5085284 <strlen+0x78>
 5085280:	10800044 	addi	r2,r2,1
 5085284:	10c00007 	ldb	r3,0(r2)
 5085288:	183ffd1e 	bne	r3,zero,5085280 <strlen+0x74>
 508528c:	1105c83a 	sub	r2,r2,r4
 5085290:	f800283a 	ret
 5085294:	2005883a 	mov	r2,r4
 5085298:	003fe706 	br	5085238 <strlen+0x2c>
 508529c:	0005883a 	mov	r2,zero
 50852a0:	f800283a 	ret

050852a4 <___svfprintf_internal_r>:
 50852a4:	deffb704 	addi	sp,sp,-292
 50852a8:	dfc04815 	stw	ra,288(sp)
 50852ac:	ddc04615 	stw	r23,280(sp)
 50852b0:	d9402c15 	stw	r5,176(sp)
 50852b4:	d9003915 	stw	r4,228(sp)
 50852b8:	302f883a 	mov	r23,r6
 50852bc:	d9c02d15 	stw	r7,180(sp)
 50852c0:	df004715 	stw	fp,284(sp)
 50852c4:	dd804515 	stw	r22,276(sp)
 50852c8:	dd404415 	stw	r21,272(sp)
 50852cc:	dd004315 	stw	r20,268(sp)
 50852d0:	dcc04215 	stw	r19,264(sp)
 50852d4:	dc804115 	stw	r18,260(sp)
 50852d8:	dc404015 	stw	r17,256(sp)
 50852dc:	dc003f15 	stw	r16,252(sp)
 50852e0:	508c3b80 	call	508c3b8 <_localeconv_r>
 50852e4:	10800017 	ldw	r2,0(r2)
 50852e8:	1009883a 	mov	r4,r2
 50852ec:	d8803415 	stw	r2,208(sp)
 50852f0:	508520c0 	call	508520c <strlen>
 50852f4:	d8c02c17 	ldw	r3,176(sp)
 50852f8:	d8803815 	stw	r2,224(sp)
 50852fc:	1880030b 	ldhu	r2,12(r3)
 5085300:	1080200c 	andi	r2,r2,128
 5085304:	10000226 	beq	r2,zero,5085310 <___svfprintf_internal_r+0x6c>
 5085308:	18800417 	ldw	r2,16(r3)
 508530c:	10067f26 	beq	r2,zero,5086d0c <___svfprintf_internal_r+0x1a68>
 5085310:	dcc03917 	ldw	r19,228(sp)
 5085314:	d8c00404 	addi	r3,sp,16
 5085318:	05414274 	movhi	r21,1289
 508531c:	d9001e04 	addi	r4,sp,120
 5085320:	ad5a4784 	addi	r21,r21,26910
 5085324:	d8c01e15 	stw	r3,120(sp)
 5085328:	d8002015 	stw	zero,128(sp)
 508532c:	d8001f15 	stw	zero,124(sp)
 5085330:	d8003315 	stw	zero,204(sp)
 5085334:	d8003615 	stw	zero,216(sp)
 5085338:	d8003715 	stw	zero,220(sp)
 508533c:	1811883a 	mov	r8,r3
 5085340:	d8003a15 	stw	zero,232(sp)
 5085344:	d8003b15 	stw	zero,236(sp)
 5085348:	d8002f15 	stw	zero,188(sp)
 508534c:	d9002815 	stw	r4,160(sp)
 5085350:	b8800007 	ldb	r2,0(r23)
 5085354:	10026726 	beq	r2,zero,5085cf4 <___svfprintf_internal_r+0xa50>
 5085358:	00c00944 	movi	r3,37
 508535c:	b821883a 	mov	r16,r23
 5085360:	10c0021e 	bne	r2,r3,508536c <___svfprintf_internal_r+0xc8>
 5085364:	00001406 	br	50853b8 <___svfprintf_internal_r+0x114>
 5085368:	10c00326 	beq	r2,r3,5085378 <___svfprintf_internal_r+0xd4>
 508536c:	84000044 	addi	r16,r16,1
 5085370:	80800007 	ldb	r2,0(r16)
 5085374:	103ffc1e 	bne	r2,zero,5085368 <___svfprintf_internal_r+0xc4>
 5085378:	85e3c83a 	sub	r17,r16,r23
 508537c:	88000e26 	beq	r17,zero,50853b8 <___svfprintf_internal_r+0x114>
 5085380:	d8c02017 	ldw	r3,128(sp)
 5085384:	d8801f17 	ldw	r2,124(sp)
 5085388:	45c00015 	stw	r23,0(r8)
 508538c:	1c47883a 	add	r3,r3,r17
 5085390:	10800044 	addi	r2,r2,1
 5085394:	d8c02015 	stw	r3,128(sp)
 5085398:	44400115 	stw	r17,4(r8)
 508539c:	d8801f15 	stw	r2,124(sp)
 50853a0:	00c001c4 	movi	r3,7
 50853a4:	18809716 	blt	r3,r2,5085604 <___svfprintf_internal_r+0x360>
 50853a8:	42000204 	addi	r8,r8,8
 50853ac:	d9402f17 	ldw	r5,188(sp)
 50853b0:	2c4b883a 	add	r5,r5,r17
 50853b4:	d9402f15 	stw	r5,188(sp)
 50853b8:	80800007 	ldb	r2,0(r16)
 50853bc:	10009826 	beq	r2,zero,5085620 <___svfprintf_internal_r+0x37c>
 50853c0:	84400047 	ldb	r17,1(r16)
 50853c4:	00bfffc4 	movi	r2,-1
 50853c8:	85c00044 	addi	r23,r16,1
 50853cc:	d8002785 	stb	zero,158(sp)
 50853d0:	0007883a 	mov	r3,zero
 50853d4:	000f883a 	mov	r7,zero
 50853d8:	d8802915 	stw	r2,164(sp)
 50853dc:	d8003115 	stw	zero,196(sp)
 50853e0:	0025883a 	mov	r18,zero
 50853e4:	01401604 	movi	r5,88
 50853e8:	01800244 	movi	r6,9
 50853ec:	02800a84 	movi	r10,42
 50853f0:	02401b04 	movi	r9,108
 50853f4:	bdc00044 	addi	r23,r23,1
 50853f8:	88bff804 	addi	r2,r17,-32
 50853fc:	2882f036 	bltu	r5,r2,5085fc0 <___svfprintf_internal_r+0xd1c>
 5085400:	100490ba 	slli	r2,r2,2
 5085404:	01014234 	movhi	r4,1288
 5085408:	21150604 	addi	r4,r4,21528
 508540c:	1105883a 	add	r2,r2,r4
 5085410:	10800017 	ldw	r2,0(r2)
 5085414:	1000683a 	jmp	r2
 5085418:	05085f28 	cmpgeui	r20,zero,8572
 508541c:	05085fc0 	call	5085fc <__alt_mem_sdram+0x5085fc>
 5085420:	05085fc0 	call	5085fc <__alt_mem_sdram+0x5085fc>
 5085424:	05085f1c 	xori	r20,zero,8572
 5085428:	05085fc0 	call	5085fc <__alt_mem_sdram+0x5085fc>
 508542c:	05085fc0 	call	5085fc <__alt_mem_sdram+0x5085fc>
 5085430:	05085fc0 	call	5085fc <__alt_mem_sdram+0x5085fc>
 5085434:	05085fc0 	call	5085fc <__alt_mem_sdram+0x5085fc>
 5085438:	05085fc0 	call	5085fc <__alt_mem_sdram+0x5085fc>
 508543c:	05085fc0 	call	5085fc <__alt_mem_sdram+0x5085fc>
 5085440:	0508567c 	xorhi	r20,zero,8537
 5085444:	05085e58 	cmpnei	r20,zero,8569
 5085448:	05085fc0 	call	5085fc <__alt_mem_sdram+0x5085fc>
 508544c:	0508558c 	andi	r20,zero,8534
 5085450:	050856a4 	muli	r20,zero,8538
 5085454:	05085fc0 	call	5085fc <__alt_mem_sdram+0x5085fc>
 5085458:	05085718 	cmpnei	r20,zero,8540
 508545c:	050856e4 	muli	r20,zero,8539
 5085460:	050856e4 	muli	r20,zero,8539
 5085464:	050856e4 	muli	r20,zero,8539
 5085468:	050856e4 	muli	r20,zero,8539
 508546c:	050856e4 	muli	r20,zero,8539
 5085470:	050856e4 	muli	r20,zero,8539
 5085474:	050856e4 	muli	r20,zero,8539
 5085478:	050856e4 	muli	r20,zero,8539
 508547c:	050856e4 	muli	r20,zero,8539
 5085480:	05085fc0 	call	5085fc <__alt_mem_sdram+0x5085fc>
 5085484:	05085fc0 	call	5085fc <__alt_mem_sdram+0x5085fc>
 5085488:	05085fc0 	call	5085fc <__alt_mem_sdram+0x5085fc>
 508548c:	05085fc0 	call	5085fc <__alt_mem_sdram+0x5085fc>
 5085490:	05085fc0 	call	5085fc <__alt_mem_sdram+0x5085fc>
 5085494:	05085fc0 	call	5085fc <__alt_mem_sdram+0x5085fc>
 5085498:	05085fc0 	call	5085fc <__alt_mem_sdram+0x5085fc>
 508549c:	05085fc0 	call	5085fc <__alt_mem_sdram+0x5085fc>
 50854a0:	05085fc0 	call	5085fc <__alt_mem_sdram+0x5085fc>
 50854a4:	05085fc0 	call	5085fc <__alt_mem_sdram+0x5085fc>
 50854a8:	050857d0 	cmplti	r20,zero,8543
 50854ac:	05085724 	muli	r20,zero,8540
 50854b0:	05085fc0 	call	5085fc <__alt_mem_sdram+0x5085fc>
 50854b4:	05085724 	muli	r20,zero,8540
 50854b8:	05085fc0 	call	5085fc <__alt_mem_sdram+0x5085fc>
 50854bc:	05085fc0 	call	5085fc <__alt_mem_sdram+0x5085fc>
 50854c0:	05085fc0 	call	5085fc <__alt_mem_sdram+0x5085fc>
 50854c4:	05085fc0 	call	5085fc <__alt_mem_sdram+0x5085fc>
 50854c8:	050857c4 	movi	r20,8543
 50854cc:	05085fc0 	call	5085fc <__alt_mem_sdram+0x5085fc>
 50854d0:	05085fc0 	call	5085fc <__alt_mem_sdram+0x5085fc>
 50854d4:	0508588c 	andi	r20,zero,8546
 50854d8:	05085fc0 	call	5085fc <__alt_mem_sdram+0x5085fc>
 50854dc:	05085fc0 	call	5085fc <__alt_mem_sdram+0x5085fc>
 50854e0:	05085fc0 	call	5085fc <__alt_mem_sdram+0x5085fc>
 50854e4:	05085fc0 	call	5085fc <__alt_mem_sdram+0x5085fc>
 50854e8:	05085fc0 	call	5085fc <__alt_mem_sdram+0x5085fc>
 50854ec:	05085cfc 	xorhi	r20,zero,8563
 50854f0:	05085fc0 	call	5085fc <__alt_mem_sdram+0x5085fc>
 50854f4:	05085fc0 	call	5085fc <__alt_mem_sdram+0x5085fc>
 50854f8:	05085d5c 	xori	r20,zero,8565
 50854fc:	05085fc0 	call	5085fc <__alt_mem_sdram+0x5085fc>
 5085500:	05085fc0 	call	5085fc <__alt_mem_sdram+0x5085fc>
 5085504:	05085fc0 	call	5085fc <__alt_mem_sdram+0x5085fc>
 5085508:	05085fc0 	call	5085fc <__alt_mem_sdram+0x5085fc>
 508550c:	05085fc0 	call	5085fc <__alt_mem_sdram+0x5085fc>
 5085510:	05085fc0 	call	5085fc <__alt_mem_sdram+0x5085fc>
 5085514:	05085fc0 	call	5085fc <__alt_mem_sdram+0x5085fc>
 5085518:	05085fc0 	call	5085fc <__alt_mem_sdram+0x5085fc>
 508551c:	05085fc0 	call	5085fc <__alt_mem_sdram+0x5085fc>
 5085520:	05085fc0 	call	5085fc <__alt_mem_sdram+0x5085fc>
 5085524:	05085e0c 	andi	r20,zero,8568
 5085528:	05085f48 	cmpgei	r20,zero,8573
 508552c:	05085724 	muli	r20,zero,8540
 5085530:	05085724 	muli	r20,zero,8540
 5085534:	05085724 	muli	r20,zero,8540
 5085538:	05085f9c 	xori	r20,zero,8574
 508553c:	05085f48 	cmpgei	r20,zero,8573
 5085540:	05085fc0 	call	5085fc <__alt_mem_sdram+0x5085fc>
 5085544:	05085fc0 	call	5085fc <__alt_mem_sdram+0x5085fc>
 5085548:	05085f58 	cmpnei	r20,zero,8573
 508554c:	05085fc0 	call	5085fc <__alt_mem_sdram+0x5085fc>
 5085550:	05085f68 	cmpgeui	r20,zero,8573
 5085554:	05085e48 	cmpgei	r20,zero,8569
 5085558:	05085598 	cmpnei	r20,zero,8534
 508555c:	05085e68 	cmpgeui	r20,zero,8569
 5085560:	05085fc0 	call	5085fc <__alt_mem_sdram+0x5085fc>
 5085564:	05085e74 	movhi	r20,8569
 5085568:	05085fc0 	call	5085fc <__alt_mem_sdram+0x5085fc>
 508556c:	05085ed0 	cmplti	r20,zero,8571
 5085570:	05085fc0 	call	5085fc <__alt_mem_sdram+0x5085fc>
 5085574:	05085fc0 	call	5085fc <__alt_mem_sdram+0x5085fc>
 5085578:	05085ee0 	cmpeqi	r20,zero,8571
 508557c:	d9003117 	ldw	r4,196(sp)
 5085580:	d8802d15 	stw	r2,180(sp)
 5085584:	0109c83a 	sub	r4,zero,r4
 5085588:	d9003115 	stw	r4,196(sp)
 508558c:	94800114 	ori	r18,r18,4
 5085590:	bc400007 	ldb	r17,0(r23)
 5085594:	003f9706 	br	50853f4 <___svfprintf_internal_r+0x150>
 5085598:	00800c04 	movi	r2,48
 508559c:	d9002d17 	ldw	r4,180(sp)
 50855a0:	d9402917 	ldw	r5,164(sp)
 50855a4:	d8802705 	stb	r2,156(sp)
 50855a8:	00801e04 	movi	r2,120
 50855ac:	d8802745 	stb	r2,157(sp)
 50855b0:	d8002785 	stb	zero,158(sp)
 50855b4:	20c00104 	addi	r3,r4,4
 50855b8:	25000017 	ldw	r20,0(r4)
 50855bc:	002d883a 	mov	r22,zero
 50855c0:	90800094 	ori	r2,r18,2
 50855c4:	28028616 	blt	r5,zero,5085fe0 <___svfprintf_internal_r+0xd3c>
 50855c8:	00bfdfc4 	movi	r2,-129
 50855cc:	90a4703a 	and	r18,r18,r2
 50855d0:	d8c02d15 	stw	r3,180(sp)
 50855d4:	94800094 	ori	r18,r18,2
 50855d8:	a002731e 	bne	r20,zero,5085fa8 <___svfprintf_internal_r+0xd04>
 50855dc:	00814274 	movhi	r2,1289
 50855e0:	109a4004 	addi	r2,r2,26880
 50855e4:	d8803a15 	stw	r2,232(sp)
 50855e8:	04401e04 	movi	r17,120
 50855ec:	d8c02917 	ldw	r3,164(sp)
 50855f0:	0039883a 	mov	fp,zero
 50855f4:	1801d526 	beq	r3,zero,5085d4c <___svfprintf_internal_r+0xaa8>
 50855f8:	0029883a 	mov	r20,zero
 50855fc:	002d883a 	mov	r22,zero
 5085600:	0001f106 	br	5085dc8 <___svfprintf_internal_r+0xb24>
 5085604:	d9402c17 	ldw	r5,176(sp)
 5085608:	d9801e04 	addi	r6,sp,120
 508560c:	9809883a 	mov	r4,r19
 5085610:	508e7fc0 	call	508e7fc <__ssprint_r>
 5085614:	1000081e 	bne	r2,zero,5085638 <___svfprintf_internal_r+0x394>
 5085618:	da000404 	addi	r8,sp,16
 508561c:	003f6306 	br	50853ac <___svfprintf_internal_r+0x108>
 5085620:	d8802017 	ldw	r2,128(sp)
 5085624:	10000426 	beq	r2,zero,5085638 <___svfprintf_internal_r+0x394>
 5085628:	d9402c17 	ldw	r5,176(sp)
 508562c:	d9003917 	ldw	r4,228(sp)
 5085630:	d9801e04 	addi	r6,sp,120
 5085634:	508e7fc0 	call	508e7fc <__ssprint_r>
 5085638:	d8802c17 	ldw	r2,176(sp)
 508563c:	10c0030b 	ldhu	r3,12(r2)
 5085640:	d8802f17 	ldw	r2,188(sp)
 5085644:	18c0100c 	andi	r3,r3,64
 5085648:	1805f51e 	bne	r3,zero,5086e20 <___svfprintf_internal_r+0x1b7c>
 508564c:	dfc04817 	ldw	ra,288(sp)
 5085650:	df004717 	ldw	fp,284(sp)
 5085654:	ddc04617 	ldw	r23,280(sp)
 5085658:	dd804517 	ldw	r22,276(sp)
 508565c:	dd404417 	ldw	r21,272(sp)
 5085660:	dd004317 	ldw	r20,268(sp)
 5085664:	dcc04217 	ldw	r19,264(sp)
 5085668:	dc804117 	ldw	r18,260(sp)
 508566c:	dc404017 	ldw	r17,256(sp)
 5085670:	dc003f17 	ldw	r16,252(sp)
 5085674:	dec04904 	addi	sp,sp,292
 5085678:	f800283a 	ret
 508567c:	d8802d17 	ldw	r2,180(sp)
 5085680:	d9002d17 	ldw	r4,180(sp)
 5085684:	10800017 	ldw	r2,0(r2)
 5085688:	d8803115 	stw	r2,196(sp)
 508568c:	20800104 	addi	r2,r4,4
 5085690:	d9003117 	ldw	r4,196(sp)
 5085694:	203fb916 	blt	r4,zero,508557c <___svfprintf_internal_r+0x2d8>
 5085698:	d8802d15 	stw	r2,180(sp)
 508569c:	bc400007 	ldb	r17,0(r23)
 50856a0:	003f5406 	br	50853f4 <___svfprintf_internal_r+0x150>
 50856a4:	bc400007 	ldb	r17,0(r23)
 50856a8:	bac00044 	addi	r11,r23,1
 50856ac:	8a873926 	beq	r17,r10,5087394 <___svfprintf_internal_r+0x20f0>
 50856b0:	88bff404 	addi	r2,r17,-48
 50856b4:	0009883a 	mov	r4,zero
 50856b8:	30868836 	bltu	r6,r2,50870dc <___svfprintf_internal_r+0x1e38>
 50856bc:	5c400007 	ldb	r17,0(r11)
 50856c0:	210002a4 	muli	r4,r4,10
 50856c4:	5dc00044 	addi	r23,r11,1
 50856c8:	b817883a 	mov	r11,r23
 50856cc:	2089883a 	add	r4,r4,r2
 50856d0:	88bff404 	addi	r2,r17,-48
 50856d4:	30bff92e 	bgeu	r6,r2,50856bc <___svfprintf_internal_r+0x418>
 50856d8:	2005d716 	blt	r4,zero,5086e38 <___svfprintf_internal_r+0x1b94>
 50856dc:	d9002915 	stw	r4,164(sp)
 50856e0:	003f4506 	br	50853f8 <___svfprintf_internal_r+0x154>
 50856e4:	b809883a 	mov	r4,r23
 50856e8:	d8003115 	stw	zero,196(sp)
 50856ec:	88bff404 	addi	r2,r17,-48
 50856f0:	0017883a 	mov	r11,zero
 50856f4:	24400007 	ldb	r17,0(r4)
 50856f8:	5ac002a4 	muli	r11,r11,10
 50856fc:	bdc00044 	addi	r23,r23,1
 5085700:	b809883a 	mov	r4,r23
 5085704:	12d7883a 	add	r11,r2,r11
 5085708:	88bff404 	addi	r2,r17,-48
 508570c:	30bff92e 	bgeu	r6,r2,50856f4 <___svfprintf_internal_r+0x450>
 5085710:	dac03115 	stw	r11,196(sp)
 5085714:	003f3806 	br	50853f8 <___svfprintf_internal_r+0x154>
 5085718:	94802014 	ori	r18,r18,128
 508571c:	bc400007 	ldb	r17,0(r23)
 5085720:	003f3406 	br	50853f4 <___svfprintf_internal_r+0x150>
 5085724:	18c03fcc 	andi	r3,r3,255
 5085728:	1807471e 	bne	r3,zero,5087448 <___svfprintf_internal_r+0x21a4>
 508572c:	9080020c 	andi	r2,r18,8
 5085730:	10047d26 	beq	r2,zero,5086928 <___svfprintf_internal_r+0x1684>
 5085734:	d8c02d17 	ldw	r3,180(sp)
 5085738:	d9002d17 	ldw	r4,180(sp)
 508573c:	d9402d17 	ldw	r5,180(sp)
 5085740:	18c00017 	ldw	r3,0(r3)
 5085744:	21000117 	ldw	r4,4(r4)
 5085748:	29400204 	addi	r5,r5,8
 508574c:	d8c03615 	stw	r3,216(sp)
 5085750:	d9003715 	stw	r4,220(sp)
 5085754:	d9402d15 	stw	r5,180(sp)
 5085758:	d9003617 	ldw	r4,216(sp)
 508575c:	d9403717 	ldw	r5,220(sp)
 5085760:	da003e15 	stw	r8,248(sp)
 5085764:	04000044 	movi	r16,1
 5085768:	508e51c0 	call	508e51c <__fpclassifyd>
 508576c:	da003e17 	ldw	r8,248(sp)
 5085770:	14044b1e 	bne	r2,r16,50868a0 <___svfprintf_internal_r+0x15fc>
 5085774:	d9003617 	ldw	r4,216(sp)
 5085778:	d9403717 	ldw	r5,220(sp)
 508577c:	000d883a 	mov	r6,zero
 5085780:	000f883a 	mov	r7,zero
 5085784:	5083b1c0 	call	5083b1c <__ledf2>
 5085788:	da003e17 	ldw	r8,248(sp)
 508578c:	1005f316 	blt	r2,zero,5086f5c <___svfprintf_internal_r+0x1cb8>
 5085790:	df002783 	ldbu	fp,158(sp)
 5085794:	008011c4 	movi	r2,71
 5085798:	1445590e 	bge	r2,r17,5086d00 <___svfprintf_internal_r+0x1a5c>
 508579c:	04014274 	movhi	r16,1289
 50857a0:	841a3804 	addi	r16,r16,26848
 50857a4:	00c000c4 	movi	r3,3
 50857a8:	00bfdfc4 	movi	r2,-129
 50857ac:	d8c02a15 	stw	r3,168(sp)
 50857b0:	90a4703a 	and	r18,r18,r2
 50857b4:	d8c02e15 	stw	r3,184(sp)
 50857b8:	d8002915 	stw	zero,164(sp)
 50857bc:	d8003215 	stw	zero,200(sp)
 50857c0:	00006606 	br	508595c <___svfprintf_internal_r+0x6b8>
 50857c4:	94800214 	ori	r18,r18,8
 50857c8:	bc400007 	ldb	r17,0(r23)
 50857cc:	003f0906 	br	50853f4 <___svfprintf_internal_r+0x150>
 50857d0:	18c03fcc 	andi	r3,r3,255
 50857d4:	1807181e 	bne	r3,zero,5087438 <___svfprintf_internal_r+0x2194>
 50857d8:	94800414 	ori	r18,r18,16
 50857dc:	9080080c 	andi	r2,r18,32
 50857e0:	10039626 	beq	r2,zero,508663c <___svfprintf_internal_r+0x1398>
 50857e4:	d9402d17 	ldw	r5,180(sp)
 50857e8:	28800117 	ldw	r2,4(r5)
