
DE10_Standard_Audio.elf:     file format elf32-littlenios2
DE10_Standard_Audio.elf
architecture: nios2:r1, flags 0x00000112:
EXEC_P, HAS_SYMS, D_PAGED
start address 0x05080244

Program Header:
    LOAD off    0x00001000 vaddr 0x05080000 paddr 0x05080000 align 2**12
         filesz 0x00000020 memsz 0x00000020 flags r-x
    LOAD off    0x00001020 vaddr 0x05080020 paddr 0x05080020 align 2**12
         filesz 0x00016af0 memsz 0x00016af0 flags r-x
    LOAD off    0x00017b10 vaddr 0x05096b10 paddr 0x0509860c align 2**12
         filesz 0x00001afc memsz 0x00001afc flags rw-
    LOAD off    0x0001a108 vaddr 0x0509a108 paddr 0x0509a108 align 2**12
         filesz 0x00000000 memsz 0x00000194 flags rw-

Sections:
Idx Name          Size      VMA       LMA       File off  Algn
  0 .entry        00000020  05080000  05080000  00001000  2**5
                  CONTENTS, ALLOC, LOAD, READONLY, CODE
  1 .exceptions   00000224  05080020  05080020  00001020  2**2
                  CONTENTS, ALLOC, LOAD, READONLY, CODE
  2 .text         00015a1c  05080244  05080244  00001244  2**2
                  CONTENTS, ALLOC, LOAD, READONLY, CODE
  3 .rodata       00000eb0  05095c60  05095c60  00016c60  2**2
                  CONTENTS, ALLOC, LOAD, READONLY, DATA
  4 .rwdata       00001afc  05096b10  0509860c  00017b10  2**2
                  CONTENTS, ALLOC, LOAD, DATA, SMALL_DATA
  5 .bss          00000194  0509a108  0509a108  0001a108  2**2
                  ALLOC, SMALL_DATA
  6 .sdram        00000000  00000000  00000000  0001960c  2**0
                  CONTENTS
  7 .onchip_memory2 00000000  0509a29c  0509a29c  0001960c  2**0
                  CONTENTS
  8 .comment      00000023  00000000  00000000  0001960c  2**0
                  CONTENTS, READONLY
  9 .debug_aranges 00001050  00000000  00000000  00019630  2**3
                  CONTENTS, READONLY, DEBUGGING
 10 .debug_info   00028b49  00000000  00000000  0001a680  2**0
                  CONTENTS, READONLY, DEBUGGING
 11 .debug_abbrev 0000a3d3  00000000  00000000  000431c9  2**0
                  CONTENTS, READONLY, DEBUGGING
 12 .debug_line   0000dc12  00000000  00000000  0004d59c  2**0
                  CONTENTS, READONLY, DEBUGGING
 13 .debug_frame  00002b38  00000000  00000000  0005b1b0  2**2
                  CONTENTS, READONLY, DEBUGGING
 14 .debug_str    0000418d  00000000  00000000  0005dce8  2**0
                  CONTENTS, READONLY, DEBUGGING
 15 .debug_loc    0001c7f9  00000000  00000000  00061e75  2**0
                  CONTENTS, READONLY, DEBUGGING
 16 .debug_alt_sim_info 00000060  00000000  00000000  0007e670  2**2
                  CONTENTS, READONLY, DEBUGGING
 17 .debug_ranges 00001aa0  00000000  00000000  0007e6d0  2**3
                  CONTENTS, READONLY, DEBUGGING
 18 .thread_model 00000003  00000000  00000000  00083cc2  2**0
                  CONTENTS, READONLY
 19 .cpu          0000000c  00000000  00000000  00083cc5  2**0
                  CONTENTS, READONLY
 20 .qsys         00000001  00000000  00000000  00083cd1  2**0
                  CONTENTS, READONLY
 21 .simulation_enabled 00000001  00000000  00000000  00083cd2  2**0
                  CONTENTS, READONLY
 22 .sysid_hash   00000004  00000000  00000000  00083cd3  2**0
                  CONTENTS, READONLY
 23 .sysid_base   00000004  00000000  00000000  00083cd7  2**0
                  CONTENTS, READONLY
 24 .sysid_time   00000004  00000000  00000000  00083cdb  2**0
                  CONTENTS, READONLY
 25 .stderr_dev   00000009  00000000  00000000  00083cdf  2**0
                  CONTENTS, READONLY
 26 .stdin_dev    00000009  00000000  00000000  00083ce8  2**0
                  CONTENTS, READONLY
 27 .stdout_dev   00000009  00000000  00000000  00083cf1  2**0
                  CONTENTS, READONLY
 28 .sopc_system_name 0000000a  00000000  00000000  00083cfa  2**0
                  CONTENTS, READONLY
 29 .quartus_project_dir 00000066  00000000  00000000  00083d04  2**0
                  CONTENTS, READONLY
 30 .jdi          0000581f  00000000  00000000  00083d6a  2**0
                  CONTENTS, READONLY
 31 .sopcinfo     000a5d38  00000000  00000000  00089589  2**0
                  CONTENTS, READONLY
SYMBOL TABLE:
05080000 l    d  .entry	00000000 .entry
05080020 l    d  .exceptions	00000000 .exceptions
05080244 l    d  .text	00000000 .text
05095c60 l    d  .rodata	00000000 .rodata
05096b10 l    d  .rwdata	00000000 .rwdata
0509a108 l    d  .bss	00000000 .bss
00000000 l    d  .sdram	00000000 .sdram
0509a29c l    d  .onchip_memory2	00000000 .onchip_memory2
00000000 l    d  .comment	00000000 .comment
00000000 l    d  .debug_aranges	00000000 .debug_aranges
00000000 l    d  .debug_info	00000000 .debug_info
00000000 l    d  .debug_abbrev	00000000 .debug_abbrev
00000000 l    d  .debug_line	00000000 .debug_line
00000000 l    d  .debug_frame	00000000 .debug_frame
00000000 l    d  .debug_str	00000000 .debug_str
00000000 l    d  .debug_loc	00000000 .debug_loc
00000000 l    d  .debug_alt_sim_info	00000000 .debug_alt_sim_info
00000000 l    d  .debug_ranges	00000000 .debug_ranges
00000000 l    df *ABS*	00000000 ../DE10_Standard_Audio_bsp//obj/HAL/src/crt0.o
0508028c l       .text	00000000 alt_after_alt_main
00000000 l    df *ABS*	00000000 alt_irq_handler.c
00000000 l    df *ABS*	00000000 alt_instruction_exception_entry.c
00000000 l    df *ABS*	00000000 AUDIO.c
0509a14c l     O .bss	00000028 reg_file
00000000 l    df *ABS*	00000000 I2C.c
00000000 l    df *ABS*	00000000 LED.c
00000000 l    df *ABS*	00000000 SEG7.c
05096b10 l     O .rwdata	00000010 szMap
00000000 l    df *ABS*	00000000 debug.c
00000000 l    df *ABS*	00000000 main.c
0509a108 l     O .bss	00000004 sum.4417
0509a10c l     O .bss	00000002 cnt.4418
05082fb4 l     F .text	00000108 convolve.4513
00000000 l    df *ABS*	00000000 lib2-divmod.c
00000000 l    df *ABS*	00000000 adddf3.c
00000000 l    df *ABS*	00000000 ledf2.c
00000000 l    df *ABS*	00000000 muldf3.c
00000000 l    df *ABS*	00000000 subdf3.c
00000000 l    df *ABS*	00000000 floatsidf.c
00000000 l    df *ABS*	00000000 libgcc2.c
00000000 l    df *ABS*	00000000 libgcc2.c
00000000 l    df *ABS*	00000000 memcpy.c
00000000 l    df *ABS*	00000000 memmove.c
00000000 l    df *ABS*	00000000 printf.c
00000000 l    df *ABS*	00000000 puts.c
00000000 l    df *ABS*	00000000 sprintf.c
00000000 l    df *ABS*	00000000 strlen.c
00000000 l    df *ABS*	00000000 vfprintf.c
0509691e l     O .rodata	00000010 zeroes.4389
0509692e l     O .rodata	00000010 blanks.4388
00000000 l    df *ABS*	00000000 vfprintf.c
0509693e l     O .rodata	00000010 zeroes.4404
05089690 l     F .text	000000bc __sbprintf
0509694e l     O .rodata	00000010 blanks.4403
00000000 l    df *ABS*	00000000 vsnprintf.c
00000000 l    df *ABS*	00000000 wsetup.c
00000000 l    df *ABS*	00000000 dtoa.c
050899c4 l     F .text	00000200 quorem
00000000 l    df *ABS*	00000000 fflush.c
00000000 l    df *ABS*	00000000 findfp.c
0508b4f4 l     F .text	00000008 __fp_unlock
0508b508 l     F .text	0000019c __sinit.part.1
0508b6a4 l     F .text	00000008 __fp_lock
00000000 l    df *ABS*	00000000 mallocr.c
00000000 l    df *ABS*	00000000 fvwrite.c
00000000 l    df *ABS*	00000000 fwalk.c
00000000 l    df *ABS*	00000000 impure.c
05096b20 l     O .rwdata	00000424 impure_data
00000000 l    df *ABS*	00000000 locale.c
05096f64 l     O .rwdata	00000020 lc_ctype_charset
05096f44 l     O .rwdata	00000020 lc_message_charset
05096f84 l     O .rwdata	00000038 lconv
00000000 l    df *ABS*	00000000 makebuf.c
00000000 l    df *ABS*	00000000 mallocr.c
00000000 l    df *ABS*	00000000 memchr.c
00000000 l    df *ABS*	00000000 memset.c
00000000 l    df *ABS*	00000000 mprec.c
05096980 l     O .rodata	0000000c p05.2768
00000000 l    df *ABS*	00000000 mallocr.c
00000000 l    df *ABS*	00000000 s_fpclassify.c
00000000 l    df *ABS*	00000000 sbrkr.c
00000000 l    df *ABS*	00000000 stdio.c
00000000 l    df *ABS*	00000000 strcmp.c
00000000 l    df *ABS*	00000000 vfprintf.c
05096ab4 l     O .rodata	00000010 blanks.4332
05096aa4 l     O .rodata	00000010 zeroes.4333
00000000 l    df *ABS*	00000000 vfprintf.c
0508fc08 l     F .text	000000fc __sprint_r.part.0
05096ad4 l     O .rodata	00000010 blanks.4348
05096ac4 l     O .rodata	00000010 zeroes.4349
05091194 l     F .text	000000bc __sbprintf
00000000 l    df *ABS*	00000000 writer.c
00000000 l    df *ABS*	00000000 closer.c
00000000 l    df *ABS*	00000000 mallocr.c
00000000 l    df *ABS*	00000000 fclose.c
00000000 l    df *ABS*	00000000 fputwc.c
00000000 l    df *ABS*	00000000 fstatr.c
00000000 l    df *ABS*	00000000 int_errno.c
00000000 l    df *ABS*	00000000 isattyr.c
00000000 l    df *ABS*	00000000 lseekr.c
00000000 l    df *ABS*	00000000 readr.c
00000000 l    df *ABS*	00000000 wbuf.c
00000000 l    df *ABS*	00000000 wcrtomb.c
00000000 l    df *ABS*	00000000 wctomb_r.c
00000000 l    df *ABS*	00000000 libgcc2.c
00000000 l    df *ABS*	00000000 libgcc2.c
00000000 l    df *ABS*	00000000 divdf3.c
00000000 l    df *ABS*	00000000 eqdf2.c
00000000 l    df *ABS*	00000000 gedf2.c
00000000 l    df *ABS*	00000000 fixdfsi.c
00000000 l    df *ABS*	00000000 floatunsidf.c
00000000 l    df *ABS*	00000000 alt_close.c
050931a8 l     F .text	0000003c alt_get_errno
00000000 l    df *ABS*	00000000 alt_dev.c
050932b4 l     F .text	0000002c alt_dev_null_write
00000000 l    df *ABS*	00000000 alt_errno.c
00000000 l    df *ABS*	00000000 alt_fstat.c
050932e0 l     F .text	0000003c alt_get_errno
00000000 l    df *ABS*	00000000 alt_irq_register.c
00000000 l    df *ABS*	00000000 alt_irq_vars.c
00000000 l    df *ABS*	00000000 alt_isatty.c
0509354c l     F .text	0000003c alt_get_errno
00000000 l    df *ABS*	00000000 alt_load.c
0509362c l     F .text	00000068 alt_load_section
00000000 l    df *ABS*	00000000 alt_lseek.c
05093718 l     F .text	0000003c alt_get_errno
00000000 l    df *ABS*	00000000 alt_main.c
00000000 l    df *ABS*	00000000 alt_malloc_lock.c
00000000 l    df *ABS*	00000000 alt_read.c
050938ec l     F .text	0000003c alt_get_errno
00000000 l    df *ABS*	00000000 alt_release_fd.c
00000000 l    df *ABS*	00000000 alt_sbrk.c
05098600 l     O .rwdata	00000004 heap_end
00000000 l    df *ABS*	00000000 alt_usleep.c
00000000 l    df *ABS*	00000000 alt_write.c
05093b68 l     F .text	0000003c alt_get_errno
00000000 l    df *ABS*	00000000 alt_sys_init.c
05093c9c l     F .text	00000034 alt_dev_reg
0509756c l     O .rwdata	00001060 jtag_uart
00000000 l    df *ABS*	00000000 altera_avalon_jtag_uart_fd.c
00000000 l    df *ABS*	00000000 altera_avalon_jtag_uart_init.c
05093f90 l     F .text	0000020c altera_avalon_jtag_uart_irq
0509419c l     F .text	000000a0 altera_avalon_jtag_uart_timeout
00000000 l    df *ABS*	00000000 altera_avalon_jtag_uart_ioctl.c
00000000 l    df *ABS*	00000000 altera_avalon_jtag_uart_read.c
00000000 l    df *ABS*	00000000 altera_avalon_jtag_uart_write.c
00000000 l    df *ABS*	00000000 altera_avalon_timer_sc.c
050947d4 l     F .text	00000078 alt_avalon_timer_sc_irq
00000000 l    df *ABS*	00000000 alt_alarm_start.c
00000000 l    df *ABS*	00000000 alt_busy_sleep.c
00000000 l    df *ABS*	00000000 alt_dcache_flush_all.c
00000000 l    df *ABS*	00000000 alt_dev_llist_insert.c
05094b94 l     F .text	0000003c alt_get_errno
00000000 l    df *ABS*	00000000 alt_do_ctors.c
00000000 l    df *ABS*	00000000 alt_do_dtors.c
00000000 l    df *ABS*	00000000 alt_icache_flush_all.c
00000000 l    df *ABS*	00000000 alt_iic.c
00000000 l    df *ABS*	00000000 alt_iic_isr_register.c
00000000 l    df *ABS*	00000000 alt_io_redirect.c
05095008 l     F .text	000000c4 alt_open_fd
00000000 l    df *ABS*	00000000 alt_open.c
05095148 l     F .text	0000003c alt_get_errno
05095184 l     F .text	000000c4 alt_file_locked
00000000 l    df *ABS*	00000000 alt_tick.c
00000000 l    df *ABS*	00000000 altera_nios2_gen2_irq.c
00000000 l    df *ABS*	00000000 alt_find_dev.c
00000000 l    df *ABS*	00000000 alt_find_file.c
00000000 l    df *ABS*	00000000 alt_get_fd.c
00000000 l    df *ABS*	00000000 alt_icache_flush.c
00000000 l    df *ABS*	00000000 atexit.c
00000000 l    df *ABS*	00000000 exit.c
00000000 l    df *ABS*	00000000 memcmp.c
00000000 l    df *ABS*	00000000 __atexit.c
00000000 l    df *ABS*	00000000 __call_atexit.c
00000000 l    df *ABS*	00000000 alt_exit.c
0509a148 g     O .bss	00000004 alt_instruction_exception_handler
0508207c g     F .text	00000054 display_time_elapsed
0508de40 g     F .text	00000074 _mprec_log10
050810cc g     F .text	00000124 I2C_Read
0508df2c g     F .text	0000008c __any_on
05091730 g     F .text	00000054 _isatty_r
0509698c g     O .rodata	00000028 __mprec_tinytens
05093828 g     F .text	0000007c alt_main
05085074 g     F .text	000000c0 _puts_r
05081e0c g     F .text	00000064 button_monitor_isr
0509a19c g     O .bss	00000100 alt_irq
05091784 g     F .text	00000060 _lseek_r
0509860c g       *ABS*	00000000 __flash_rwdata_start
05092f1c g     F .text	00000088 .hidden __eqdf2
05081cb0 g     F .text	0000003c ui_is_mic_record
0509a29c g       *ABS*	00000000 __alt_heap_start
05080290 g     F .text	00000188 AUDIO_Init
05085038 g     F .text	0000003c printf
0509199c g     F .text	0000009c _wcrtomb_r
050804d8 g     F .text	00000078 AUDIO_AdcEnableHighPassFilter
0508e6bc g     F .text	0000005c __sseek
0508b844 g     F .text	00000010 __sinit
05091844 g     F .text	00000140 __swbuf_r
0508c30c g     F .text	0000007c _setlocale_r
0508b6ac g     F .text	00000068 __sfmoreglue
050938c8 g     F .text	00000024 __malloc_unlock
05084eac g     F .text	0000015c memmove
0508b82c g     F .text	00000018 _cleanup
05080d8c g     F .text	000000f4 aduio_RegWrite
05080fa0 g     F .text	00000030 AUDIO_FifoClear
0508cfbc g     F .text	000000a8 _Balloc
05081764 g     F .text	00000030 LED_AllOff
05092fa4 g     F .text	000000dc .hidden __gtdf2
05095540 g     F .text	00000024 altera_nios2_gen2_irq_init
05080f48 g     F .text	00000058 AUDIO_AdcFifoGetData
05081470 g     F .text	00000130 i2c_write
05080000 g     F .entry	0000001c __reset
050820d0 g     F .text	00000098 show_power
05080020 g       *ABS*	00000000 __flash_exceptions_start
050916d4 g     F .text	0000005c _fstat_r
0509a12c g     O .bss	00000004 errno
0508e638 g     F .text	00000008 __seofread
0508e9cc g     F .text	0000123c ___svfiprintf_internal_r
0509a138 g     O .bss	00000004 alt_argv
050a05cc g       *ABS*	00000000 _gp
05093b38 g     F .text	00000030 usleep
050822d0 g     F .text	00000064 show_menu
050973ec g     O .rwdata	00000180 alt_fd_list
05095564 g     F .text	00000090 alt_find_dev
05084d64 g     F .text	00000148 memcpy
050816f8 g     F .text	0000003c LED_Display
0508b4fc g     F .text	0000000c _cleanup_r
05084c24 g     F .text	000000dc .hidden __floatsidf
05081e70 g     F .text	00000084 button_monitor_start
050950cc g     F .text	0000007c alt_io_redirect
05083b1c g     F .text	000000f4 .hidden __ltdf2
05095c60 g       *ABS*	00000000 __DTOR_END__
05085134 g     F .text	00000014 puts
05095830 g     F .text	0000009c alt_exception_cause_generated_bad_addr
0508e51c g     F .text	00000074 __fpclassifyd
0508dd9c g     F .text	000000a4 __ratio
05091178 g     F .text	0000001c __vfiprintf_internal
05081ef4 g     F .text	00000188 init_audio
05094394 g     F .text	0000021c altera_avalon_jtag_uart_read
05085008 g     F .text	00000030 _printf_r
050831b4 g     F .text	00000064 .hidden __udivsi3
05093588 g     F .text	000000a4 isatty
05080c74 g     F .text	0000008c AUDIO_EnableByPass
050969dc g     O .rodata	000000c8 __mprec_tens
0508c388 g     F .text	0000000c __locale_charset
0508983c g     F .text	00000034 vsnprintf
050957a0 g     F .text	00000090 alt_icache_flush
050811f0 g     F .text	0000017c I2C_MultipleRead
0509a128 g     O .bss	00000004 __malloc_top_pad
05080a4c g     F .text	00000114 AUDIO_SetLineInVol
050985d4 g     O .rwdata	00000004 __mb_cur_max
0508c3b8 g     F .text	0000000c _localeconv_r
0508d3c8 g     F .text	0000003c __i2b
0508bcc8 g     F .text	000004bc __sfvwrite_r
05081808 g     F .text	00000060 SEG7_Clear
0508e590 g     F .text	00000054 _sbrk_r
05081c20 g     F .text	00000090 myprintf_dword_array
050917e4 g     F .text	00000060 _read_r
050985f4 g     O .rwdata	00000004 alt_max_fd
050913c8 g     F .text	000000f0 _fclose_r
0508b4c4 g     F .text	00000030 fflush
05080600 g     F .text	000000e0 AUDIO_DacEnableZeroCross
0509a124 g     O .bss	00000004 __malloc_max_sbrked_mem
050933cc g     F .text	00000180 alt_irq_register
05083270 g     F .text	000008ac .hidden __adddf3
0508db44 g     F .text	0000010c __b2d
050920fc g     F .text	00000538 .hidden __umoddi3
05093754 g     F .text	000000d4 lseek
050985cc g     O .rwdata	00000004 _global_impure_ptr
0508dfb8 g     F .text	00000564 _realloc_r
0509a29c g       *ABS*	00000000 __bss_end
05094f18 g     F .text	000000f0 alt_iic_isr_register
05095438 g     F .text	00000108 alt_tick
05091b84 g     F .text	00000578 .hidden __udivdi3
05091630 g     F .text	00000024 _fputwc_r
050969b4 g     O .rodata	00000028 __mprec_bigtens
0508d1ac g     F .text	00000104 __s2b
05093100 g     F .text	000000a8 .hidden __floatunsidf
05080460 g     F .text	00000078 AUDIO_MicBoost
0508d884 g     F .text	00000060 __mcmp
0508b864 g     F .text	00000018 __fp_lock_all
05094ecc g     F .text	0000004c alt_ic_irq_enabled
05080fd0 g     F .text	000000fc I2C_Write
050818c8 g     F .text	00000074 SEG7_Number
0509539c g     F .text	0000009c alt_alarm_stop
0509a130 g     O .bss	00000004 alt_irq_active
050800fc g     F .exceptions	000000d4 alt_irq_handler
050973c4 g     O .rwdata	00000028 alt_dev_null
0508136c g     F .text	0000008c i2c_start
05094b4c g     F .text	00000048 alt_dcache_flush_all
0508d2b0 g     F .text	00000068 __hi0bits
05093080 g     F .text	00000080 .hidden __fixdfsi
0509860c g       *ABS*	00000000 __ram_rwdata_end
050985ec g     O .rwdata	00000008 alt_dev_list
05093ba4 g     F .text	000000f8 write
05096b10 g       *ABS*	00000000 __ram_rodata_end
0509331c g     F .text	000000b0 fstat
05083b1c g     F .text	000000f4 .hidden __ledf2
05081b2c g     F .text	0000006c myprintf
0508d5fc g     F .text	00000140 __pow5mult
0508fd1c g     F .text	0000145c ___vfiprintf_internal_r
0509a11c g     O .bss	00000004 __nlocale_changed
05083218 g     F .text	00000058 .hidden __umodsi3
05080d00 g     F .text	0000008c AUDIO_EnableSiteTone
0509a29c g       *ABS*	00000000 end
05081734 g     F .text	00000030 LED_AllOn
05093ed0 g     F .text	000000c0 altera_avalon_jtag_uart_init
050801d0 g     F .exceptions	00000074 alt_instruction_exception_entry
05095c60 g       *ABS*	00000000 __CTOR_LIST__
050ce200 g       *ABS*	00000000 __alt_stack_pointer
0509484c g     F .text	0000007c alt_avalon_timer_sc_init
05084d00 g     F .text	00000064 .hidden __clzsi2
050945b0 g     F .text	00000224 altera_avalon_jtag_uart_write
0508b854 g     F .text	00000004 __sfp_lock_acquire
0508cdb0 g     F .text	000000e4 memchr
0508747c g     F .text	000021f8 ___vfprintf_internal_r
05085148 g     F .text	00000058 _sprintf_r
0508b9b8 g     F .text	00000310 _free_r
0508c394 g     F .text	00000010 __locale_mb_cur_max
05095aac g     F .text	00000180 __call_exitprocs
0509a118 g     O .bss	00000004 __mlocale_changed
050985d8 g     O .rwdata	00000004 __malloc_sbrk_base
05080244 g     F .text	0000004c _start
0509a140 g     O .bss	00000004 _alt_tick_rate
0508d73c g     F .text	00000148 __lshift
0509a144 g     O .bss	00000004 _alt_nticks
05093928 g     F .text	000000fc read
05093d08 g     F .text	00000064 alt_sys_init
0508e7fc g     F .text	000001d0 __ssprint_r
05095994 g     F .text	00000118 __register_exitproc
050806e0 g     F .text	0000008c AUDIO_DacEnableSoftMute
0508d404 g     F .text	000001f8 __multiply
0509423c g     F .text	00000068 altera_avalon_jtag_uart_close
05096b10 g       *ABS*	00000000 __ram_rwdata_start
05095c60 g       *ABS*	00000000 __ram_rodata_start
0509a174 g     O .bss	00000028 __malloc_current_mallinfo
0508dc50 g     F .text	0000014c __d2b
05081d28 g     F .text	0000003c ui_is_dac_zero_cross
05093d6c g     F .text	00000060 altera_avalon_jtag_uart_read_fd
050956fc g     F .text	000000a4 alt_get_fd
050949f4 g     F .text	00000158 alt_busy_sleep
050912b0 g     F .text	00000054 _close_r
05095918 g     F .text	0000007c memcmp
05093e2c g     F .text	00000050 altera_avalon_jtag_uart_close_fd
0509a29c g       *ABS*	00000000 __alt_stack_base
05093e7c g     F .text	00000054 altera_avalon_jtag_uart_ioctl_fd
05089870 g     F .text	00000154 __swsetup_r
05082168 g     F .text	00000058 init
05092634 g     F .text	000008e8 .hidden __divdf3
0508b714 g     F .text	00000118 __sfp
0508deb4 g     F .text	00000078 __copybits
05080550 g     F .text	000000b0 AUDIO_DacDeemphasisControl
05096fbc g     O .rwdata	00000408 __malloc_av_
0508b860 g     F .text	00000004 __sinit_lock_release
0508974c g     F .text	000000f0 _vsnprintf_r
050813f8 g     F .text	00000078 i2c_stop
05083c10 g     F .text	00000718 .hidden __muldf3
0508e5e4 g     F .text	00000054 __sread
05081868 g     F .text	00000060 SEG7_Full
050955f4 g     F .text	00000108 alt_find_file
05081a0c g     F .text	000000ec SEG7_Decimal
05094bd0 g     F .text	000000a4 alt_dev_llist_insert
050938a4 g     F .text	00000024 __malloc_lock
05093a88 g     F .text	000000b0 sbrk
050852a4 g     F .text	000021d8 ___svfprintf_internal_r
050808d8 g     F .text	00000090 AUDIO_SetInputSource
0508b468 g     F .text	0000005c _fflush_r
05091304 g     F .text	000000c4 _calloc_r
05080418 g     F .text	00000048 AUDIO_InterfaceActive
0509a108 g       *ABS*	00000000 __bss_start
0508ce94 g     F .text	00000128 memset
05082334 g     F .text	00000c80 main
0509a13c g     O .bss	00000004 alt_envp
0509a120 g     O .bss	00000004 __malloc_max_total_mem
05093dcc g     F .text	00000060 altera_avalon_jtag_uart_write_fd
050815a0 g     F .text	00000158 i2c_read
05091984 g     F .text	00000018 __swbuf
0509a110 g     O .bss	00000004 record_sample_rate
0508e718 g     F .text	00000008 __sclose
050ce200 g       *ABS*	00000000 __alt_heap_limit
050914b8 g     F .text	00000014 fclose
05089bc4 g     F .text	00001688 _dtoa_r
0508c5a4 g     F .text	0000080c _malloc_r
05091af8 g     F .text	00000030 __ascii_wctomb
050985f8 g     O .rwdata	00000004 alt_errno
0508c184 g     F .text	000000c4 _fwalk
05081d64 g     F .text	000000a8 ui_get_sample_rate
050830bc g     F .text	00000084 .hidden __divsi3
0508b894 g     F .text	00000124 _malloc_trim_r
05095c60 g       *ABS*	00000000 __CTOR_END__
050807f8 g     F .text	000000e0 AUDIO_LineInMute
0508e720 g     F .text	000000dc strcmp
0508076c g     F .text	0000008c AUDIO_MicMute
05095c60 g       *ABS*	00000000 __flash_rodata_start
05095c60 g       *ABS*	00000000 __DTOR_LIST__
05092f1c g     F .text	00000088 .hidden __nedf2
05093cd0 g     F .text	00000038 alt_irq_init
05093a24 g     F .text	00000064 alt_release_fd
050851a0 g     F .text	0000006c sprintf
050967d8 g     O .rodata	00000100 .hidden __clz_tab
0508193c g     F .text	000000d0 SEG7_Hex
05081af8 g     F .text	00000034 debug_output
0509a114 g     O .bss	00000004 _PathLocale
050958cc g     F .text	00000014 atexit
050821c0 g     F .text	00000110 dump_record_data
05091250 g     F .text	00000060 _write_r
0508c3c4 g     F .text	00000018 setlocale
050985d0 g     O .rwdata	00000004 _impure_ptr
0509a134 g     O .bss	00000004 alt_argc
0508b24c g     F .text	0000021c __sflush_r
05094cd4 g     F .text	00000060 _do_dtors
0508c3b0 g     F .text	00000008 __locale_cjk_lang
05080f0c g     F .text	0000003c AUDIO_AdcFifoNotEmpty
05080020 g       .exceptions	00000000 alt_irq_entry
0508dae0 g     F .text	00000064 __ulp
0508b87c g     F .text	00000018 __fp_unlock_all
05081cec g     F .text	0000003c ui_is_mic_boost
05080ebc g     F .text	00000050 AUDIO_DacFifoSetData
050985e4 g     O .rwdata	00000008 alt_fs_list
05081b98 g     F .text	00000088 myprintf_hex_array
05080020 g       *ABS*	00000000 __ram_exceptions_start
05080968 g     F .text	000000e4 AUDIO_SetSampleRate
0508c3dc g     F .text	0000000c localeconv
05080000 g       *ABS*	00000000 __alt_mem_onchip_memory2
05094d68 g     F .text	00000050 alt_ic_isr_register
0509860c g       *ABS*	00000000 _edata
0509a29c g       *ABS*	00000000 _end
05080b60 g     F .text	00000114 AUDIO_SetLineOutVol
050914cc g     F .text	00000164 __fputwc
05080244 g       *ABS*	00000000 __ram_exceptions_end
050942a4 g     F .text	000000f0 altera_avalon_jtag_uart_ioctl
05094e40 g     F .text	0000008c alt_ic_irq_disable
0508e640 g     F .text	0000007c __swrite
050985dc g     O .rwdata	00000004 __malloc_trim_threshold
0508c3a4 g     F .text	0000000c __locale_msgcharset
050958e0 g     F .text	00000038 exit
05081794 g     F .text	00000074 LED_LightCount
0508c248 g     F .text	000000c4 _fwalk_reent
0508d8e4 g     F .text	000001fc __mdiff
05083140 g     F .text	00000074 .hidden __modsi3
050ce200 g       *ABS*	00000000 __alt_data_end
05080020 g     F .exceptions	00000000 alt_exception
0508b858 g     F .text	00000004 __sfp_lock_release
00000000 g       *ABS*	00000000 __alt_mem_sdram
05095c2c g     F .text	00000034 _exit
050948c8 g     F .text	0000012c alt_alarm_start
0508c3e8 g     F .text	000001bc __smakebuf_r
0508520c g     F .text	00000098 strlen
05095248 g     F .text	00000154 open
05080e80 g     F .text	0000003c AUDIO_DacFifoNotFull
05092fa4 g     F .text	000000dc .hidden __gedf2
050985e0 g     O .rwdata	00000004 __wctomb
0508fd04 g     F .text	00000018 __sprint_r
05094d34 g     F .text	00000034 alt_icache_flush_all
050985fc g     O .rwdata	00000004 alt_priority_mask
05094db8 g     F .text	00000088 alt_ic_irq_enable
05089674 g     F .text	0000001c __vfprintf_internal
05091b28 g     F .text	0000005c _wctomb_r
05084328 g     F .text	000008fc .hidden __subdf3
0508d318 g     F .text	000000b0 __lo0bits
05098604 g     O .rwdata	00000008 alt_alarm_list
05094c74 g     F .text	00000060 _do_ctors
05091a38 g     F .text	000000c0 wcrtomb
050931e4 g     F .text	000000d0 close
05093694 g     F .text	00000084 alt_load
05091654 g     F .text	00000080 fputwc
0508b85c g     F .text	00000004 __sinit_lock_acquire
0508d08c g     F .text	00000120 __multadd
05095e10 g     O .rodata	00000800 szMenu
0508d064 g     F .text	00000028 _Bfree



Disassembly of section .entry:

05080000 <__reset>:
 5080000:	00840014 	movui	r2,4096
 5080004:	1001483a 	initi	r2
 5080008:	10bff804 	addi	r2,r2,-32
 508000c:	00bffd16 	blt	zero,r2,5080004 <__reset+0x4>
 5080010:	00414234 	movhi	at,1288
 5080014:	08409114 	ori	at,at,580
 5080018:	0800683a 	jmp	at
 508001c:	00000000 	call	0 <__alt_mem_sdram>

Disassembly of section .exceptions:

05080020 <alt_exception>:
 5080020:	deffed04 	addi	sp,sp,-76
 5080024:	dfc00015 	stw	ra,0(sp)
 5080028:	d8400215 	stw	at,8(sp)
 508002c:	d8800315 	stw	r2,12(sp)
 5080030:	d8c00415 	stw	r3,16(sp)
 5080034:	d9000515 	stw	r4,20(sp)
 5080038:	d9400615 	stw	r5,24(sp)
 508003c:	d9800715 	stw	r6,28(sp)
 5080040:	d9c00815 	stw	r7,32(sp)
 5080044:	000b307a 	rdctl	r5,estatus
 5080048:	da000915 	stw	r8,36(sp)
 508004c:	da400a15 	stw	r9,40(sp)
 5080050:	da800b15 	stw	r10,44(sp)
 5080054:	dac00c15 	stw	r11,48(sp)
 5080058:	db000d15 	stw	r12,52(sp)
 508005c:	db400e15 	stw	r13,56(sp)
 5080060:	db800f15 	stw	r14,60(sp)
 5080064:	dbc01015 	stw	r15,64(sp)
 5080068:	d9401115 	stw	r5,68(sp)
 508006c:	ebffff04 	addi	r15,ea,-4
 5080070:	dbc01215 	stw	r15,72(sp)
 5080074:	0009313a 	rdctl	r4,ipending
 5080078:	2880004c 	andi	r2,r5,1
 508007c:	10000326 	beq	r2,zero,508008c <alt_exception+0x6c>
 5080080:	20000226 	beq	r4,zero,508008c <alt_exception+0x6c>
 5080084:	50800fc0 	call	50800fc <alt_irq_handler>
 5080088:	00000706 	br	50800a8 <alt_exception+0x88>
 508008c:	df401215 	stw	ea,72(sp)
 5080090:	e8bfff17 	ldw	r2,-4(ea)
 5080094:	e93fff04 	addi	r4,ea,-4
 5080098:	50801d00 	call	50801d0 <alt_instruction_exception_entry>
 508009c:	1000021e 	bne	r2,zero,50800a8 <alt_exception+0x88>
 50800a0:	ebffff04 	addi	r15,ea,-4
 50800a4:	dbc01215 	stw	r15,72(sp)
 50800a8:	d9401117 	ldw	r5,68(sp)
 50800ac:	df401217 	ldw	ea,72(sp)
 50800b0:	dfc00017 	ldw	ra,0(sp)
 50800b4:	2801707a 	wrctl	estatus,r5
 50800b8:	d8400217 	ldw	at,8(sp)
 50800bc:	d8800317 	ldw	r2,12(sp)
 50800c0:	d8c00417 	ldw	r3,16(sp)
 50800c4:	d9000517 	ldw	r4,20(sp)
 50800c8:	d9400617 	ldw	r5,24(sp)
 50800cc:	d9800717 	ldw	r6,28(sp)
 50800d0:	d9c00817 	ldw	r7,32(sp)
 50800d4:	da000917 	ldw	r8,36(sp)
 50800d8:	da400a17 	ldw	r9,40(sp)
 50800dc:	da800b17 	ldw	r10,44(sp)
 50800e0:	dac00c17 	ldw	r11,48(sp)
 50800e4:	db000d17 	ldw	r12,52(sp)
 50800e8:	db400e17 	ldw	r13,56(sp)
 50800ec:	db800f17 	ldw	r14,60(sp)
 50800f0:	dbc01017 	ldw	r15,64(sp)
 50800f4:	dec01304 	addi	sp,sp,76
 50800f8:	ef80083a 	eret

050800fc <alt_irq_handler>:
 50800fc:	defff904 	addi	sp,sp,-28
 5080100:	dfc00615 	stw	ra,24(sp)
 5080104:	df000515 	stw	fp,20(sp)
 5080108:	df000504 	addi	fp,sp,20
 508010c:	0001883a 	nop
 5080110:	0005313a 	rdctl	r2,ipending
 5080114:	e0bffe15 	stw	r2,-8(fp)
 5080118:	e0bffe17 	ldw	r2,-8(fp)
 508011c:	e0bffb15 	stw	r2,-20(fp)
 5080120:	e03ffd15 	stw	zero,-12(fp)
 5080124:	00800044 	movi	r2,1
 5080128:	e0bffc15 	stw	r2,-16(fp)
 508012c:	e0fffb17 	ldw	r3,-20(fp)
 5080130:	e0bffc17 	ldw	r2,-16(fp)
 5080134:	1884703a 	and	r2,r3,r2
 5080138:	10001426 	beq	r2,zero,508018c <alt_irq_handler+0x90>
 508013c:	008142b4 	movhi	r2,1290
 5080140:	10a86704 	addi	r2,r2,-24164
 5080144:	e0fffd17 	ldw	r3,-12(fp)
 5080148:	180690fa 	slli	r3,r3,3
 508014c:	10c5883a 	add	r2,r2,r3
 5080150:	10c00017 	ldw	r3,0(r2)
 5080154:	008142b4 	movhi	r2,1290
 5080158:	10a86704 	addi	r2,r2,-24164
 508015c:	e13ffd17 	ldw	r4,-12(fp)
 5080160:	200890fa 	slli	r4,r4,3
 5080164:	1105883a 	add	r2,r2,r4
 5080168:	10800104 	addi	r2,r2,4
 508016c:	10800017 	ldw	r2,0(r2)
 5080170:	1009883a 	mov	r4,r2
 5080174:	183ee83a 	callr	r3
 5080178:	0001883a 	nop
 508017c:	0005313a 	rdctl	r2,ipending
 5080180:	e0bfff15 	stw	r2,-4(fp)
 5080184:	e0bfff17 	ldw	r2,-4(fp)
 5080188:	00000706 	br	50801a8 <alt_irq_handler+0xac>
 508018c:	e0bffc17 	ldw	r2,-16(fp)
 5080190:	1085883a 	add	r2,r2,r2
 5080194:	e0bffc15 	stw	r2,-16(fp)
 5080198:	e0bffd17 	ldw	r2,-12(fp)
 508019c:	10800044 	addi	r2,r2,1
 50801a0:	e0bffd15 	stw	r2,-12(fp)
 50801a4:	003fe106 	br	508012c <alt_irq_handler+0x30>
 50801a8:	e0bffb15 	stw	r2,-20(fp)
 50801ac:	e0bffb17 	ldw	r2,-20(fp)
 50801b0:	103fdb1e 	bne	r2,zero,5080120 <alt_irq_handler+0x24>
 50801b4:	0001883a 	nop
 50801b8:	0001883a 	nop
 50801bc:	e037883a 	mov	sp,fp
 50801c0:	dfc00117 	ldw	ra,4(sp)
 50801c4:	df000017 	ldw	fp,0(sp)
 50801c8:	dec00204 	addi	sp,sp,8
 50801cc:	f800283a 	ret

050801d0 <alt_instruction_exception_entry>:
 50801d0:	defffb04 	addi	sp,sp,-20
 50801d4:	dfc00415 	stw	ra,16(sp)
 50801d8:	df000315 	stw	fp,12(sp)
 50801dc:	df000304 	addi	fp,sp,12
 50801e0:	e13fff15 	stw	r4,-4(fp)
 50801e4:	000531fa 	rdctl	r2,exception
 50801e8:	e0bffd15 	stw	r2,-12(fp)
 50801ec:	e0bffd17 	ldw	r2,-12(fp)
 50801f0:	10801f0c 	andi	r2,r2,124
 50801f4:	1004d0ba 	srli	r2,r2,2
 50801f8:	e0bffd15 	stw	r2,-12(fp)
 50801fc:	0005333a 	rdctl	r2,badaddr
 5080200:	e0bffe15 	stw	r2,-8(fp)
 5080204:	d0a6df17 	ldw	r2,-25732(gp)
 5080208:	10000726 	beq	r2,zero,5080228 <alt_instruction_exception_entry+0x58>
 508020c:	d0a6df17 	ldw	r2,-25732(gp)
 5080210:	e0fffd17 	ldw	r3,-12(fp)
 5080214:	e1bffe17 	ldw	r6,-8(fp)
 5080218:	e17fff17 	ldw	r5,-4(fp)
 508021c:	1809883a 	mov	r4,r3
 5080220:	103ee83a 	callr	r2
 5080224:	00000206 	br	5080230 <alt_instruction_exception_entry+0x60>
 5080228:	003da03a 	break	0
 508022c:	0005883a 	mov	r2,zero
 5080230:	e037883a 	mov	sp,fp
 5080234:	dfc00117 	ldw	ra,4(sp)
 5080238:	df000017 	ldw	fp,0(sp)
 508023c:	dec00204 	addi	sp,sp,8
 5080240:	f800283a 	ret

Disassembly of section .text:

05080244 <_start>:
 5080244:	00820014 	movui	r2,2048
 5080248:	10000033 	initd	0(r2)
 508024c:	10bff804 	addi	r2,r2,-32
 5080250:	00bffd16 	blt	zero,r2,5080248 <_start+0x4>
 5080254:	06c14334 	movhi	sp,1292
 5080258:	def88014 	ori	sp,sp,57856
 508025c:	068142b4 	movhi	gp,1290
 5080260:	d6817314 	ori	gp,gp,1484
 5080264:	00814274 	movhi	r2,1289
 5080268:	10a84214 	ori	r2,r2,41224
 508026c:	00c14274 	movhi	r3,1289
 5080270:	18e8a714 	ori	r3,r3,41628
 5080274:	10c00326 	beq	r2,r3,5080284 <_start+0x40>
 5080278:	10000015 	stw	zero,0(r2)
 508027c:	10800104 	addi	r2,r2,4
 5080280:	10fffd36 	bltu	r2,r3,5080278 <_start+0x34>
 5080284:	50936940 	call	5093694 <alt_load>
 5080288:	50938280 	call	5093828 <alt_main>

0508028c <alt_after_alt_main>:
 508028c:	003fff06 	br	508028c <alt_after_alt_main>

05080290 <AUDIO_Init>:
 5080290:	defffd04 	addi	sp,sp,-12
 5080294:	dfc00215 	stw	ra,8(sp)
 5080298:	df000115 	stw	fp,4(sp)
 508029c:	df000104 	addi	fp,sp,4
 50802a0:	00800044 	movi	r2,1
 50802a4:	e0bfff15 	stw	r2,-4(fp)
 50802a8:	01014274 	movhi	r4,1289
 50802ac:	21171804 	addi	r4,r4,23648
 50802b0:	5081b2c0 	call	5081b2c <myprintf>
 50802b4:	e0bfff17 	ldw	r2,-4(fp)
 50802b8:	10000426 	beq	r2,zero,50802cc <AUDIO_Init+0x3c>
 50802bc:	000b883a 	mov	r5,zero
 50802c0:	010003c4 	movi	r4,15
 50802c4:	5080d8c0 	call	5080d8c <aduio_RegWrite>
 50802c8:	e0bfff15 	stw	r2,-4(fp)
 50802cc:	e0bfff17 	ldw	r2,-4(fp)
 50802d0:	10000426 	beq	r2,zero,50802e4 <AUDIO_Init+0x54>
 50802d4:	000b883a 	mov	r5,zero
 50802d8:	01000244 	movi	r4,9
 50802dc:	5080d8c0 	call	5080d8c <aduio_RegWrite>
 50802e0:	e0bfff15 	stw	r2,-4(fp)
 50802e4:	e0bfff17 	ldw	r2,-4(fp)
 50802e8:	10000426 	beq	r2,zero,50802fc <AUDIO_Init+0x6c>
 50802ec:	014005c4 	movi	r5,23
 50802f0:	0009883a 	mov	r4,zero
 50802f4:	5080d8c0 	call	5080d8c <aduio_RegWrite>
 50802f8:	e0bfff15 	stw	r2,-4(fp)
 50802fc:	e0bfff17 	ldw	r2,-4(fp)
 5080300:	10000426 	beq	r2,zero,5080314 <AUDIO_Init+0x84>
 5080304:	014005c4 	movi	r5,23
 5080308:	01000044 	movi	r4,1
 508030c:	5080d8c0 	call	5080d8c <aduio_RegWrite>
 5080310:	e0bfff15 	stw	r2,-4(fp)
 5080314:	e0bfff17 	ldw	r2,-4(fp)
 5080318:	10000426 	beq	r2,zero,508032c <AUDIO_Init+0x9c>
 508031c:	014016c4 	movi	r5,91
 5080320:	01000084 	movi	r4,2
 5080324:	5080d8c0 	call	5080d8c <aduio_RegWrite>
 5080328:	e0bfff15 	stw	r2,-4(fp)
 508032c:	e0bfff17 	ldw	r2,-4(fp)
 5080330:	10000426 	beq	r2,zero,5080344 <AUDIO_Init+0xb4>
 5080334:	014016c4 	movi	r5,91
 5080338:	010000c4 	movi	r4,3
 508033c:	5080d8c0 	call	5080d8c <aduio_RegWrite>
 5080340:	e0bfff15 	stw	r2,-4(fp)
 5080344:	e0bfff17 	ldw	r2,-4(fp)
 5080348:	10000426 	beq	r2,zero,508035c <AUDIO_Init+0xcc>
 508034c:	01400544 	movi	r5,21
 5080350:	01000104 	movi	r4,4
 5080354:	5080d8c0 	call	5080d8c <aduio_RegWrite>
 5080358:	e0bfff15 	stw	r2,-4(fp)
 508035c:	e0bfff17 	ldw	r2,-4(fp)
 5080360:	10000426 	beq	r2,zero,5080374 <AUDIO_Init+0xe4>
 5080364:	000b883a 	mov	r5,zero
 5080368:	01000144 	movi	r4,5
 508036c:	5080d8c0 	call	5080d8c <aduio_RegWrite>
 5080370:	e0bfff15 	stw	r2,-4(fp)
 5080374:	e0bfff17 	ldw	r2,-4(fp)
 5080378:	10000426 	beq	r2,zero,508038c <AUDIO_Init+0xfc>
 508037c:	000b883a 	mov	r5,zero
 5080380:	01000184 	movi	r4,6
 5080384:	5080d8c0 	call	5080d8c <aduio_RegWrite>
 5080388:	e0bfff15 	stw	r2,-4(fp)
 508038c:	e0bfff17 	ldw	r2,-4(fp)
 5080390:	10000426 	beq	r2,zero,50803a4 <AUDIO_Init+0x114>
 5080394:	01401084 	movi	r5,66
 5080398:	010001c4 	movi	r4,7
 508039c:	5080d8c0 	call	5080d8c <aduio_RegWrite>
 50803a0:	e0bfff15 	stw	r2,-4(fp)
 50803a4:	e0bfff17 	ldw	r2,-4(fp)
 50803a8:	10000426 	beq	r2,zero,50803bc <AUDIO_Init+0x12c>
 50803ac:	01400084 	movi	r5,2
 50803b0:	01000204 	movi	r4,8
 50803b4:	5080d8c0 	call	5080d8c <aduio_RegWrite>
 50803b8:	e0bfff15 	stw	r2,-4(fp)
 50803bc:	e0bfff17 	ldw	r2,-4(fp)
 50803c0:	10000426 	beq	r2,zero,50803d4 <AUDIO_Init+0x144>
 50803c4:	01400044 	movi	r5,1
 50803c8:	01000244 	movi	r4,9
 50803cc:	5080d8c0 	call	5080d8c <aduio_RegWrite>
 50803d0:	e0bfff15 	stw	r2,-4(fp)
 50803d4:	e0bfff17 	ldw	r2,-4(fp)
 50803d8:	10000326 	beq	r2,zero,50803e8 <AUDIO_Init+0x158>
 50803dc:	00814274 	movhi	r2,1289
 50803e0:	10971e04 	addi	r2,r2,23672
 50803e4:	00000206 	br	50803f0 <AUDIO_Init+0x160>
 50803e8:	00814274 	movhi	r2,1289
 50803ec:	10972004 	addi	r2,r2,23680
 50803f0:	100b883a 	mov	r5,r2
 50803f4:	01014274 	movhi	r4,1289
 50803f8:	21172204 	addi	r4,r4,23688
 50803fc:	5081b2c0 	call	5081b2c <myprintf>
 5080400:	e0bfff17 	ldw	r2,-4(fp)
 5080404:	e037883a 	mov	sp,fp
 5080408:	dfc00117 	ldw	ra,4(sp)
 508040c:	df000017 	ldw	fp,0(sp)
 5080410:	dec00204 	addi	sp,sp,8
 5080414:	f800283a 	ret

05080418 <AUDIO_InterfaceActive>:
 5080418:	defffc04 	addi	sp,sp,-16
 508041c:	dfc00315 	stw	ra,12(sp)
 5080420:	df000215 	stw	fp,8(sp)
 5080424:	df000204 	addi	fp,sp,8
 5080428:	e13fff15 	stw	r4,-4(fp)
 508042c:	e0bfff17 	ldw	r2,-4(fp)
 5080430:	1004c03a 	cmpne	r2,r2,zero
 5080434:	10803fcc 	andi	r2,r2,255
 5080438:	100b883a 	mov	r5,r2
 508043c:	01000244 	movi	r4,9
 5080440:	5080d8c0 	call	5080d8c <aduio_RegWrite>
 5080444:	e0bffe15 	stw	r2,-8(fp)
 5080448:	e0bffe17 	ldw	r2,-8(fp)
 508044c:	e037883a 	mov	sp,fp
 5080450:	dfc00117 	ldw	ra,4(sp)
 5080454:	df000017 	ldw	fp,0(sp)
 5080458:	dec00204 	addi	sp,sp,8
 508045c:	f800283a 	ret

05080460 <AUDIO_MicBoost>:
 5080460:	defffb04 	addi	sp,sp,-20
 5080464:	dfc00415 	stw	ra,16(sp)
 5080468:	df000315 	stw	fp,12(sp)
 508046c:	df000304 	addi	fp,sp,12
 5080470:	e13fff15 	stw	r4,-4(fp)
 5080474:	008142b4 	movhi	r2,1290
 5080478:	10a85304 	addi	r2,r2,-24244
 508047c:	1080020b 	ldhu	r2,8(r2)
 5080480:	e0bffd0d 	sth	r2,-12(fp)
 5080484:	e0bfff17 	ldw	r2,-4(fp)
 5080488:	10000426 	beq	r2,zero,508049c <AUDIO_MicBoost+0x3c>
 508048c:	e0bffd0b 	ldhu	r2,-12(fp)
 5080490:	10800054 	ori	r2,r2,1
 5080494:	e0bffd0d 	sth	r2,-12(fp)
 5080498:	00000406 	br	50804ac <AUDIO_MicBoost+0x4c>
 508049c:	e0fffd0b 	ldhu	r3,-12(fp)
 50804a0:	00bfff84 	movi	r2,-2
 50804a4:	1884703a 	and	r2,r3,r2
 50804a8:	e0bffd0d 	sth	r2,-12(fp)
 50804ac:	e0bffd0b 	ldhu	r2,-12(fp)
 50804b0:	100b883a 	mov	r5,r2
 50804b4:	01000104 	movi	r4,4
 50804b8:	5080d8c0 	call	5080d8c <aduio_RegWrite>
 50804bc:	e0bffe15 	stw	r2,-8(fp)
 50804c0:	e0bffe17 	ldw	r2,-8(fp)
 50804c4:	e037883a 	mov	sp,fp
 50804c8:	dfc00117 	ldw	ra,4(sp)
 50804cc:	df000017 	ldw	fp,0(sp)
 50804d0:	dec00204 	addi	sp,sp,8
 50804d4:	f800283a 	ret

050804d8 <AUDIO_AdcEnableHighPassFilter>:
 50804d8:	defffb04 	addi	sp,sp,-20
 50804dc:	dfc00415 	stw	ra,16(sp)
 50804e0:	df000315 	stw	fp,12(sp)
 50804e4:	df000304 	addi	fp,sp,12
 50804e8:	e13fff15 	stw	r4,-4(fp)
 50804ec:	008142b4 	movhi	r2,1290
 50804f0:	10a85304 	addi	r2,r2,-24244
 50804f4:	1080028b 	ldhu	r2,10(r2)
 50804f8:	e0bffd0d 	sth	r2,-12(fp)
 50804fc:	e0bfff17 	ldw	r2,-4(fp)
 5080500:	10000526 	beq	r2,zero,5080518 <AUDIO_AdcEnableHighPassFilter+0x40>
 5080504:	e0fffd0b 	ldhu	r3,-12(fp)
 5080508:	00bfff84 	movi	r2,-2
 508050c:	1884703a 	and	r2,r3,r2
 5080510:	e0bffd0d 	sth	r2,-12(fp)
 5080514:	00000306 	br	5080524 <AUDIO_AdcEnableHighPassFilter+0x4c>
 5080518:	e0bffd0b 	ldhu	r2,-12(fp)
 508051c:	10800054 	ori	r2,r2,1
 5080520:	e0bffd0d 	sth	r2,-12(fp)
 5080524:	e0bffd0b 	ldhu	r2,-12(fp)
 5080528:	100b883a 	mov	r5,r2
 508052c:	01000144 	movi	r4,5
 5080530:	5080d8c0 	call	5080d8c <aduio_RegWrite>
 5080534:	e0bffe15 	stw	r2,-8(fp)
 5080538:	e0bffe17 	ldw	r2,-8(fp)
 508053c:	e037883a 	mov	sp,fp
 5080540:	dfc00117 	ldw	ra,4(sp)
 5080544:	df000017 	ldw	fp,0(sp)
 5080548:	dec00204 	addi	sp,sp,8
 508054c:	f800283a 	ret

05080550 <AUDIO_DacDeemphasisControl>:
 5080550:	defffb04 	addi	sp,sp,-20
 5080554:	dfc00415 	stw	ra,16(sp)
 5080558:	df000315 	stw	fp,12(sp)
 508055c:	df000304 	addi	fp,sp,12
 5080560:	2005883a 	mov	r2,r4
 5080564:	e0bfff05 	stb	r2,-4(fp)
 5080568:	008142b4 	movhi	r2,1290
 508056c:	10a85304 	addi	r2,r2,-24244
 5080570:	1080028b 	ldhu	r2,10(r2)
 5080574:	e0bffd0d 	sth	r2,-12(fp)
 5080578:	e0fffd0b 	ldhu	r3,-12(fp)
 508057c:	00bffe44 	movi	r2,-7
 5080580:	1884703a 	and	r2,r3,r2
 5080584:	e0bffd0d 	sth	r2,-12(fp)
 5080588:	e0bfff03 	ldbu	r2,-4(fp)
 508058c:	10c000a0 	cmpeqi	r3,r2,2
 5080590:	1800081e 	bne	r3,zero,50805b4 <AUDIO_DacDeemphasisControl+0x64>
 5080594:	10c000e0 	cmpeqi	r3,r2,3
 5080598:	18000a1e 	bne	r3,zero,50805c4 <AUDIO_DacDeemphasisControl+0x74>
 508059c:	10800060 	cmpeqi	r2,r2,1
 50805a0:	10000c26 	beq	r2,zero,50805d4 <AUDIO_DacDeemphasisControl+0x84>
 50805a4:	e0bffd0b 	ldhu	r2,-12(fp)
 50805a8:	10800194 	ori	r2,r2,6
 50805ac:	e0bffd0d 	sth	r2,-12(fp)
 50805b0:	00000806 	br	50805d4 <AUDIO_DacDeemphasisControl+0x84>
 50805b4:	e0bffd0b 	ldhu	r2,-12(fp)
 50805b8:	10800114 	ori	r2,r2,4
 50805bc:	e0bffd0d 	sth	r2,-12(fp)
 50805c0:	00000406 	br	50805d4 <AUDIO_DacDeemphasisControl+0x84>
 50805c4:	e0bffd0b 	ldhu	r2,-12(fp)
 50805c8:	10800094 	ori	r2,r2,2
 50805cc:	e0bffd0d 	sth	r2,-12(fp)
 50805d0:	0001883a 	nop
 50805d4:	e0bffd0b 	ldhu	r2,-12(fp)
 50805d8:	100b883a 	mov	r5,r2
 50805dc:	01000144 	movi	r4,5
 50805e0:	5080d8c0 	call	5080d8c <aduio_RegWrite>
 50805e4:	e0bffe15 	stw	r2,-8(fp)
 50805e8:	e0bffe17 	ldw	r2,-8(fp)
 50805ec:	e037883a 	mov	sp,fp
 50805f0:	dfc00117 	ldw	ra,4(sp)
 50805f4:	df000017 	ldw	fp,0(sp)
 50805f8:	dec00204 	addi	sp,sp,8
 50805fc:	f800283a 	ret

05080600 <AUDIO_DacEnableZeroCross>:
 5080600:	defffa04 	addi	sp,sp,-24
 5080604:	dfc00515 	stw	ra,20(sp)
 5080608:	df000415 	stw	fp,16(sp)
 508060c:	df000404 	addi	fp,sp,16
 5080610:	e13fff15 	stw	r4,-4(fp)
 5080614:	008142b4 	movhi	r2,1290
 5080618:	10a85304 	addi	r2,r2,-24244
 508061c:	1080010b 	ldhu	r2,4(r2)
 5080620:	e0bffd0d 	sth	r2,-12(fp)
 5080624:	008142b4 	movhi	r2,1290
 5080628:	10a85304 	addi	r2,r2,-24244
 508062c:	1080018b 	ldhu	r2,6(r2)
 5080630:	e0bffd8d 	sth	r2,-10(fp)
 5080634:	00802004 	movi	r2,128
 5080638:	e0bffe0d 	sth	r2,-8(fp)
 508063c:	e0bfff17 	ldw	r2,-4(fp)
 5080640:	10000926 	beq	r2,zero,5080668 <AUDIO_DacEnableZeroCross+0x68>
 5080644:	e0fffd0b 	ldhu	r3,-12(fp)
 5080648:	e0bffe0b 	ldhu	r2,-8(fp)
 508064c:	1884b03a 	or	r2,r3,r2
 5080650:	e0bffd0d 	sth	r2,-12(fp)
 5080654:	e0fffd8b 	ldhu	r3,-10(fp)
 5080658:	e0bffe0b 	ldhu	r2,-8(fp)
 508065c:	1884b03a 	or	r2,r3,r2
 5080660:	e0bffd8d 	sth	r2,-10(fp)
 5080664:	00000c06 	br	5080698 <AUDIO_DacEnableZeroCross+0x98>
 5080668:	e0bffe0b 	ldhu	r2,-8(fp)
 508066c:	0084303a 	nor	r2,zero,r2
 5080670:	1007883a 	mov	r3,r2
 5080674:	e0bffd0b 	ldhu	r2,-12(fp)
 5080678:	1884703a 	and	r2,r3,r2
 508067c:	e0bffd0d 	sth	r2,-12(fp)
 5080680:	e0bffe0b 	ldhu	r2,-8(fp)
 5080684:	0084303a 	nor	r2,zero,r2
 5080688:	1007883a 	mov	r3,r2
 508068c:	e0bffd8b 	ldhu	r2,-10(fp)
 5080690:	1884703a 	and	r2,r3,r2
 5080694:	e0bffd8d 	sth	r2,-10(fp)
 5080698:	e0bffd0b 	ldhu	r2,-12(fp)
 508069c:	100b883a 	mov	r5,r2
 50806a0:	01000084 	movi	r4,2
 50806a4:	5080d8c0 	call	5080d8c <aduio_RegWrite>
 50806a8:	e0bffc15 	stw	r2,-16(fp)
 50806ac:	e0bffc17 	ldw	r2,-16(fp)
 50806b0:	10000526 	beq	r2,zero,50806c8 <AUDIO_DacEnableZeroCross+0xc8>
 50806b4:	e0bffd8b 	ldhu	r2,-10(fp)
 50806b8:	100b883a 	mov	r5,r2
 50806bc:	010000c4 	movi	r4,3
 50806c0:	5080d8c0 	call	5080d8c <aduio_RegWrite>
 50806c4:	e0bffc15 	stw	r2,-16(fp)
 50806c8:	e0bffc17 	ldw	r2,-16(fp)
 50806cc:	e037883a 	mov	sp,fp
 50806d0:	dfc00117 	ldw	ra,4(sp)
 50806d4:	df000017 	ldw	fp,0(sp)
 50806d8:	dec00204 	addi	sp,sp,8
 50806dc:	f800283a 	ret

050806e0 <AUDIO_DacEnableSoftMute>:
 50806e0:	defffb04 	addi	sp,sp,-20
 50806e4:	dfc00415 	stw	ra,16(sp)
 50806e8:	df000315 	stw	fp,12(sp)
 50806ec:	df000304 	addi	fp,sp,12
 50806f0:	e13fff15 	stw	r4,-4(fp)
 50806f4:	008142b4 	movhi	r2,1290
 50806f8:	10a85304 	addi	r2,r2,-24244
 50806fc:	1080028b 	ldhu	r2,10(r2)
 5080700:	e0bffd0d 	sth	r2,-12(fp)
 5080704:	00800204 	movi	r2,8
 5080708:	e0bffd8d 	sth	r2,-10(fp)
 508070c:	e0bfff17 	ldw	r2,-4(fp)
 5080710:	10000526 	beq	r2,zero,5080728 <AUDIO_DacEnableSoftMute+0x48>
 5080714:	e0fffd0b 	ldhu	r3,-12(fp)
 5080718:	e0bffd8b 	ldhu	r2,-10(fp)
 508071c:	1884b03a 	or	r2,r3,r2
 5080720:	e0bffd0d 	sth	r2,-12(fp)
 5080724:	00000606 	br	5080740 <AUDIO_DacEnableSoftMute+0x60>
 5080728:	e0bffd8b 	ldhu	r2,-10(fp)
 508072c:	0084303a 	nor	r2,zero,r2
 5080730:	1007883a 	mov	r3,r2
 5080734:	e0bffd0b 	ldhu	r2,-12(fp)
 5080738:	1884703a 	and	r2,r3,r2
 508073c:	e0bffd0d 	sth	r2,-12(fp)
 5080740:	e0bffd0b 	ldhu	r2,-12(fp)
 5080744:	100b883a 	mov	r5,r2
 5080748:	01000144 	movi	r4,5
 508074c:	5080d8c0 	call	5080d8c <aduio_RegWrite>
 5080750:	e0bffe15 	stw	r2,-8(fp)
 5080754:	e0bffe17 	ldw	r2,-8(fp)
 5080758:	e037883a 	mov	sp,fp
 508075c:	dfc00117 	ldw	ra,4(sp)
 5080760:	df000017 	ldw	fp,0(sp)
 5080764:	dec00204 	addi	sp,sp,8
 5080768:	f800283a 	ret

0508076c <AUDIO_MicMute>:
 508076c:	defffb04 	addi	sp,sp,-20
 5080770:	dfc00415 	stw	ra,16(sp)
 5080774:	df000315 	stw	fp,12(sp)
 5080778:	df000304 	addi	fp,sp,12
 508077c:	e13fff15 	stw	r4,-4(fp)
 5080780:	008142b4 	movhi	r2,1290
 5080784:	10a85304 	addi	r2,r2,-24244
 5080788:	1080020b 	ldhu	r2,8(r2)
 508078c:	e0bffd0d 	sth	r2,-12(fp)
 5080790:	00800084 	movi	r2,2
 5080794:	e0bffd8d 	sth	r2,-10(fp)
 5080798:	e0bfff17 	ldw	r2,-4(fp)
 508079c:	10000526 	beq	r2,zero,50807b4 <AUDIO_MicMute+0x48>
 50807a0:	e0fffd0b 	ldhu	r3,-12(fp)
 50807a4:	e0bffd8b 	ldhu	r2,-10(fp)
 50807a8:	1884b03a 	or	r2,r3,r2
 50807ac:	e0bffd0d 	sth	r2,-12(fp)
 50807b0:	00000606 	br	50807cc <AUDIO_MicMute+0x60>
 50807b4:	e0bffd8b 	ldhu	r2,-10(fp)
 50807b8:	0084303a 	nor	r2,zero,r2
 50807bc:	1007883a 	mov	r3,r2
 50807c0:	e0bffd0b 	ldhu	r2,-12(fp)
 50807c4:	1884703a 	and	r2,r3,r2
 50807c8:	e0bffd0d 	sth	r2,-12(fp)
 50807cc:	e0bffd0b 	ldhu	r2,-12(fp)
 50807d0:	100b883a 	mov	r5,r2
 50807d4:	01000104 	movi	r4,4
 50807d8:	5080d8c0 	call	5080d8c <aduio_RegWrite>
 50807dc:	e0bffe15 	stw	r2,-8(fp)
 50807e0:	e0bffe17 	ldw	r2,-8(fp)
 50807e4:	e037883a 	mov	sp,fp
 50807e8:	dfc00117 	ldw	ra,4(sp)
 50807ec:	df000017 	ldw	fp,0(sp)
 50807f0:	dec00204 	addi	sp,sp,8
 50807f4:	f800283a 	ret

050807f8 <AUDIO_LineInMute>:
 50807f8:	defffa04 	addi	sp,sp,-24
 50807fc:	dfc00515 	stw	ra,20(sp)
 5080800:	df000415 	stw	fp,16(sp)
 5080804:	df000404 	addi	fp,sp,16
 5080808:	e13fff15 	stw	r4,-4(fp)
 508080c:	008142b4 	movhi	r2,1290
 5080810:	10a85304 	addi	r2,r2,-24244
 5080814:	1080000b 	ldhu	r2,0(r2)
 5080818:	e0bffd0d 	sth	r2,-12(fp)
 508081c:	008142b4 	movhi	r2,1290
 5080820:	10a85304 	addi	r2,r2,-24244
 5080824:	1080008b 	ldhu	r2,2(r2)
 5080828:	e0bffd8d 	sth	r2,-10(fp)
 508082c:	00802004 	movi	r2,128
 5080830:	e0bffe0d 	sth	r2,-8(fp)
 5080834:	e0bfff17 	ldw	r2,-4(fp)
 5080838:	10000926 	beq	r2,zero,5080860 <AUDIO_LineInMute+0x68>
 508083c:	e0fffd0b 	ldhu	r3,-12(fp)
 5080840:	e0bffe0b 	ldhu	r2,-8(fp)
 5080844:	1884b03a 	or	r2,r3,r2
 5080848:	e0bffd0d 	sth	r2,-12(fp)
 508084c:	e0fffd8b 	ldhu	r3,-10(fp)
 5080850:	e0bffe0b 	ldhu	r2,-8(fp)
 5080854:	1884b03a 	or	r2,r3,r2
 5080858:	e0bffd8d 	sth	r2,-10(fp)
 508085c:	00000c06 	br	5080890 <AUDIO_LineInMute+0x98>
 5080860:	e0bffe0b 	ldhu	r2,-8(fp)
 5080864:	0084303a 	nor	r2,zero,r2
 5080868:	1007883a 	mov	r3,r2
 508086c:	e0bffd0b 	ldhu	r2,-12(fp)
 5080870:	1884703a 	and	r2,r3,r2
 5080874:	e0bffd0d 	sth	r2,-12(fp)
 5080878:	e0bffe0b 	ldhu	r2,-8(fp)
 508087c:	0084303a 	nor	r2,zero,r2
 5080880:	1007883a 	mov	r3,r2
 5080884:	e0bffd8b 	ldhu	r2,-10(fp)
 5080888:	1884703a 	and	r2,r3,r2
 508088c:	e0bffd8d 	sth	r2,-10(fp)
 5080890:	e0bffd0b 	ldhu	r2,-12(fp)
 5080894:	100b883a 	mov	r5,r2
 5080898:	0009883a 	mov	r4,zero
 508089c:	5080d8c0 	call	5080d8c <aduio_RegWrite>
 50808a0:	e0bffc15 	stw	r2,-16(fp)
 50808a4:	e0bffc17 	ldw	r2,-16(fp)
 50808a8:	10000526 	beq	r2,zero,50808c0 <AUDIO_LineInMute+0xc8>
 50808ac:	e0bffd8b 	ldhu	r2,-10(fp)
 50808b0:	100b883a 	mov	r5,r2
 50808b4:	01000044 	movi	r4,1
 50808b8:	5080d8c0 	call	5080d8c <aduio_RegWrite>
 50808bc:	e0bffc15 	stw	r2,-16(fp)
 50808c0:	e0bffc17 	ldw	r2,-16(fp)
 50808c4:	e037883a 	mov	sp,fp
 50808c8:	dfc00117 	ldw	ra,4(sp)
 50808cc:	df000017 	ldw	fp,0(sp)
 50808d0:	dec00204 	addi	sp,sp,8
 50808d4:	f800283a 	ret

050808d8 <AUDIO_SetInputSource>:
 50808d8:	defffb04 	addi	sp,sp,-20
 50808dc:	dfc00415 	stw	ra,16(sp)
 50808e0:	df000315 	stw	fp,12(sp)
 50808e4:	df000304 	addi	fp,sp,12
 50808e8:	2005883a 	mov	r2,r4
 50808ec:	e0bfff05 	stb	r2,-4(fp)
 50808f0:	008142b4 	movhi	r2,1290
 50808f4:	10a85304 	addi	r2,r2,-24244
 50808f8:	1080020b 	ldhu	r2,8(r2)
 50808fc:	e0bffd0d 	sth	r2,-12(fp)
 5080900:	00800104 	movi	r2,4
 5080904:	e0bffd8d 	sth	r2,-10(fp)
 5080908:	e0bfff03 	ldbu	r2,-4(fp)
 508090c:	1000051e 	bne	r2,zero,5080924 <AUDIO_SetInputSource+0x4c>
 5080910:	e0fffd0b 	ldhu	r3,-12(fp)
 5080914:	e0bffd8b 	ldhu	r2,-10(fp)
 5080918:	1884b03a 	or	r2,r3,r2
 508091c:	e0bffd0d 	sth	r2,-12(fp)
 5080920:	00000606 	br	508093c <AUDIO_SetInputSource+0x64>
 5080924:	e0bffd8b 	ldhu	r2,-10(fp)
 5080928:	0084303a 	nor	r2,zero,r2
 508092c:	1007883a 	mov	r3,r2
 5080930:	e0bffd0b 	ldhu	r2,-12(fp)
 5080934:	1884703a 	and	r2,r3,r2
 5080938:	e0bffd0d 	sth	r2,-12(fp)
 508093c:	e0bffd0b 	ldhu	r2,-12(fp)
 5080940:	100b883a 	mov	r5,r2
 5080944:	01000104 	movi	r4,4
 5080948:	5080d8c0 	call	5080d8c <aduio_RegWrite>
 508094c:	e0bffe15 	stw	r2,-8(fp)
 5080950:	e0bffe17 	ldw	r2,-8(fp)
 5080954:	e037883a 	mov	sp,fp
 5080958:	dfc00117 	ldw	ra,4(sp)
 508095c:	df000017 	ldw	fp,0(sp)
 5080960:	dec00204 	addi	sp,sp,8
 5080964:	f800283a 	ret

05080968 <AUDIO_SetSampleRate>:
 5080968:	defffb04 	addi	sp,sp,-20
 508096c:	dfc00415 	stw	ra,16(sp)
 5080970:	df000315 	stw	fp,12(sp)
 5080974:	df000304 	addi	fp,sp,12
 5080978:	2005883a 	mov	r2,r4
 508097c:	e0bfff05 	stb	r2,-4(fp)
 5080980:	e03ffd0d 	sth	zero,-12(fp)
 5080984:	e0bfff03 	ldbu	r2,-4(fp)
 5080988:	10c001e8 	cmpgeui	r3,r2,7
 508098c:	1800211e 	bne	r3,zero,5080a14 <AUDIO_SetSampleRate+0xac>
 5080990:	100690ba 	slli	r3,r2,2
 5080994:	00814234 	movhi	r2,1288
 5080998:	10826a04 	addi	r2,r2,2472
 508099c:	1885883a 	add	r2,r3,r2
 50809a0:	10800017 	ldw	r2,0(r2)
 50809a4:	1000683a 	jmp	r2
 50809a8:	050809c4 	movi	r20,8231
 50809ac:	050809cc 	andi	r20,zero,8231
 50809b0:	050809d8 	cmpnei	r20,zero,8231
 50809b4:	050809e4 	muli	r20,zero,8231
 50809b8:	050809f0 	cmpltui	r20,zero,8231
 50809bc:	050809fc 	xorhi	r20,zero,8231
 50809c0:	05080a08 	cmpgei	r20,zero,8232
 50809c4:	e03ffd0d 	sth	zero,-12(fp)
 50809c8:	00001206 	br	5080a14 <AUDIO_SetSampleRate+0xac>
 50809cc:	00800104 	movi	r2,4
 50809d0:	e0bffd0d 	sth	r2,-12(fp)
 50809d4:	00000f06 	br	5080a14 <AUDIO_SetSampleRate+0xac>
 50809d8:	00800204 	movi	r2,8
 50809dc:	e0bffd0d 	sth	r2,-12(fp)
 50809e0:	00000c06 	br	5080a14 <AUDIO_SetSampleRate+0xac>
 50809e4:	00800304 	movi	r2,12
 50809e8:	e0bffd0d 	sth	r2,-12(fp)
 50809ec:	00000906 	br	5080a14 <AUDIO_SetSampleRate+0xac>
 50809f0:	00800604 	movi	r2,24
 50809f4:	e0bffd0d 	sth	r2,-12(fp)
 50809f8:	00000606 	br	5080a14 <AUDIO_SetSampleRate+0xac>
 50809fc:	00800704 	movi	r2,28
 5080a00:	e0bffd0d 	sth	r2,-12(fp)
 5080a04:	00000306 	br	5080a14 <AUDIO_SetSampleRate+0xac>
 5080a08:	00800804 	movi	r2,32
 5080a0c:	e0bffd0d 	sth	r2,-12(fp)
 5080a10:	0001883a 	nop
 5080a14:	e0bffd0b 	ldhu	r2,-12(fp)
 5080a18:	10800094 	ori	r2,r2,2
 5080a1c:	e0bffd0d 	sth	r2,-12(fp)
 5080a20:	e0bffd0b 	ldhu	r2,-12(fp)
 5080a24:	100b883a 	mov	r5,r2
 5080a28:	01000204 	movi	r4,8
 5080a2c:	5080d8c0 	call	5080d8c <aduio_RegWrite>
 5080a30:	e0bffe15 	stw	r2,-8(fp)
 5080a34:	e0bffe17 	ldw	r2,-8(fp)
 5080a38:	e037883a 	mov	sp,fp
 5080a3c:	dfc00117 	ldw	ra,4(sp)
 5080a40:	df000017 	ldw	fp,0(sp)
 5080a44:	dec00204 	addi	sp,sp,8
 5080a48:	f800283a 	ret

05080a4c <AUDIO_SetLineInVol>:
 5080a4c:	defffa04 	addi	sp,sp,-24
 5080a50:	dfc00515 	stw	ra,20(sp)
 5080a54:	df000415 	stw	fp,16(sp)
 5080a58:	df000404 	addi	fp,sp,16
 5080a5c:	2007883a 	mov	r3,r4
 5080a60:	2805883a 	mov	r2,r5
 5080a64:	e0fffe0d 	sth	r3,-8(fp)
 5080a68:	e0bfff0d 	sth	r2,-4(fp)
 5080a6c:	008142b4 	movhi	r2,1290
 5080a70:	10a85304 	addi	r2,r2,-24244
 5080a74:	1080000b 	ldhu	r2,0(r2)
 5080a78:	e0bffd0d 	sth	r2,-12(fp)
 5080a7c:	e0fffd0b 	ldhu	r3,-12(fp)
 5080a80:	00bff804 	movi	r2,-32
 5080a84:	1884703a 	and	r2,r3,r2
 5080a88:	e0bffd0d 	sth	r2,-12(fp)
 5080a8c:	e0bffe0b 	ldhu	r2,-8(fp)
 5080a90:	108007cc 	andi	r2,r2,31
 5080a94:	1007883a 	mov	r3,r2
 5080a98:	e0bffd0b 	ldhu	r2,-12(fp)
 5080a9c:	1885883a 	add	r2,r3,r2
 5080aa0:	e0bffd0d 	sth	r2,-12(fp)
 5080aa4:	e0bffd0b 	ldhu	r2,-12(fp)
 5080aa8:	100b883a 	mov	r5,r2
 5080aac:	0009883a 	mov	r4,zero
 5080ab0:	5080d8c0 	call	5080d8c <aduio_RegWrite>
 5080ab4:	e0bffc15 	stw	r2,-16(fp)
 5080ab8:	e0bffc17 	ldw	r2,-16(fp)
 5080abc:	10001326 	beq	r2,zero,5080b0c <AUDIO_SetLineInVol+0xc0>
 5080ac0:	008142b4 	movhi	r2,1290
 5080ac4:	10a85304 	addi	r2,r2,-24244
 5080ac8:	1080008b 	ldhu	r2,2(r2)
 5080acc:	e0bffd0d 	sth	r2,-12(fp)
 5080ad0:	e0fffd0b 	ldhu	r3,-12(fp)
 5080ad4:	00bff804 	movi	r2,-32
 5080ad8:	1884703a 	and	r2,r3,r2
 5080adc:	e0bffd0d 	sth	r2,-12(fp)
 5080ae0:	e0bfff0b 	ldhu	r2,-4(fp)
 5080ae4:	108007cc 	andi	r2,r2,31
 5080ae8:	1007883a 	mov	r3,r2
 5080aec:	e0bffd0b 	ldhu	r2,-12(fp)
 5080af0:	1885883a 	add	r2,r3,r2
 5080af4:	e0bffd0d 	sth	r2,-12(fp)
 5080af8:	e0bffd0b 	ldhu	r2,-12(fp)
 5080afc:	100b883a 	mov	r5,r2
 5080b00:	01000044 	movi	r4,1
 5080b04:	5080d8c0 	call	5080d8c <aduio_RegWrite>
 5080b08:	e0bffc15 	stw	r2,-16(fp)
 5080b0c:	e0fffe0b 	ldhu	r3,-8(fp)
 5080b10:	e13fff0b 	ldhu	r4,-4(fp)
 5080b14:	e0bffc17 	ldw	r2,-16(fp)
 5080b18:	10000326 	beq	r2,zero,5080b28 <AUDIO_SetLineInVol+0xdc>
 5080b1c:	00814274 	movhi	r2,1289
 5080b20:	10971e04 	addi	r2,r2,23672
 5080b24:	00000206 	br	5080b30 <AUDIO_SetLineInVol+0xe4>
 5080b28:	00814274 	movhi	r2,1289
 5080b2c:	10972004 	addi	r2,r2,23680
 5080b30:	100f883a 	mov	r7,r2
 5080b34:	200d883a 	mov	r6,r4
 5080b38:	180b883a 	mov	r5,r3
 5080b3c:	01014274 	movhi	r4,1289
 5080b40:	21172804 	addi	r4,r4,23712
 5080b44:	5081b2c0 	call	5081b2c <myprintf>
 5080b48:	e0bffc17 	ldw	r2,-16(fp)
 5080b4c:	e037883a 	mov	sp,fp
 5080b50:	dfc00117 	ldw	ra,4(sp)
 5080b54:	df000017 	ldw	fp,0(sp)
 5080b58:	dec00204 	addi	sp,sp,8
 5080b5c:	f800283a 	ret

05080b60 <AUDIO_SetLineOutVol>:
 5080b60:	defffa04 	addi	sp,sp,-24
 5080b64:	dfc00515 	stw	ra,20(sp)
 5080b68:	df000415 	stw	fp,16(sp)
 5080b6c:	df000404 	addi	fp,sp,16
 5080b70:	2007883a 	mov	r3,r4
 5080b74:	2805883a 	mov	r2,r5
 5080b78:	e0fffe0d 	sth	r3,-8(fp)
 5080b7c:	e0bfff0d 	sth	r2,-4(fp)
 5080b80:	008142b4 	movhi	r2,1290
 5080b84:	10a85304 	addi	r2,r2,-24244
 5080b88:	1080010b 	ldhu	r2,4(r2)
 5080b8c:	e0bffd0d 	sth	r2,-12(fp)
 5080b90:	e0fffd0b 	ldhu	r3,-12(fp)
 5080b94:	00bfe004 	movi	r2,-128
 5080b98:	1884703a 	and	r2,r3,r2
 5080b9c:	e0bffd0d 	sth	r2,-12(fp)
 5080ba0:	e0bffe0b 	ldhu	r2,-8(fp)
 5080ba4:	10801fcc 	andi	r2,r2,127
 5080ba8:	1007883a 	mov	r3,r2
 5080bac:	e0bffd0b 	ldhu	r2,-12(fp)
 5080bb0:	1885883a 	add	r2,r3,r2
 5080bb4:	e0bffd0d 	sth	r2,-12(fp)
 5080bb8:	e0bffd0b 	ldhu	r2,-12(fp)
 5080bbc:	100b883a 	mov	r5,r2
 5080bc0:	01000084 	movi	r4,2
 5080bc4:	5080d8c0 	call	5080d8c <aduio_RegWrite>
 5080bc8:	e0bffc15 	stw	r2,-16(fp)
 5080bcc:	e0bffc17 	ldw	r2,-16(fp)
 5080bd0:	10001326 	beq	r2,zero,5080c20 <AUDIO_SetLineOutVol+0xc0>
 5080bd4:	008142b4 	movhi	r2,1290
 5080bd8:	10a85304 	addi	r2,r2,-24244
 5080bdc:	1080018b 	ldhu	r2,6(r2)
 5080be0:	e0bffd0d 	sth	r2,-12(fp)
 5080be4:	e0fffd0b 	ldhu	r3,-12(fp)
 5080be8:	00bfe004 	movi	r2,-128
 5080bec:	1884703a 	and	r2,r3,r2
 5080bf0:	e0bffd0d 	sth	r2,-12(fp)
 5080bf4:	e0bfff0b 	ldhu	r2,-4(fp)
 5080bf8:	10801fcc 	andi	r2,r2,127
 5080bfc:	1007883a 	mov	r3,r2
 5080c00:	e0bffd0b 	ldhu	r2,-12(fp)
 5080c04:	1885883a 	add	r2,r3,r2
 5080c08:	e0bffd0d 	sth	r2,-12(fp)
 5080c0c:	e0bffd0b 	ldhu	r2,-12(fp)
 5080c10:	100b883a 	mov	r5,r2
 5080c14:	010000c4 	movi	r4,3
 5080c18:	5080d8c0 	call	5080d8c <aduio_RegWrite>
 5080c1c:	e0bffc15 	stw	r2,-16(fp)
 5080c20:	e0fffe0b 	ldhu	r3,-8(fp)
 5080c24:	e13fff0b 	ldhu	r4,-4(fp)
 5080c28:	e0bffc17 	ldw	r2,-16(fp)
 5080c2c:	10000326 	beq	r2,zero,5080c3c <AUDIO_SetLineOutVol+0xdc>
 5080c30:	00814274 	movhi	r2,1289
 5080c34:	10971e04 	addi	r2,r2,23672
 5080c38:	00000206 	br	5080c44 <AUDIO_SetLineOutVol+0xe4>
 5080c3c:	00814274 	movhi	r2,1289
 5080c40:	10972004 	addi	r2,r2,23680
 5080c44:	100f883a 	mov	r7,r2
 5080c48:	200d883a 	mov	r6,r4
 5080c4c:	180b883a 	mov	r5,r3
 5080c50:	01014274 	movhi	r4,1289
 5080c54:	21173104 	addi	r4,r4,23748
 5080c58:	5081b2c0 	call	5081b2c <myprintf>
 5080c5c:	e0bffc17 	ldw	r2,-16(fp)
 5080c60:	e037883a 	mov	sp,fp
 5080c64:	dfc00117 	ldw	ra,4(sp)
 5080c68:	df000017 	ldw	fp,0(sp)
 5080c6c:	dec00204 	addi	sp,sp,8
 5080c70:	f800283a 	ret

05080c74 <AUDIO_EnableByPass>:
 5080c74:	defffb04 	addi	sp,sp,-20
 5080c78:	dfc00415 	stw	ra,16(sp)
 5080c7c:	df000315 	stw	fp,12(sp)
 5080c80:	df000304 	addi	fp,sp,12
 5080c84:	e13fff15 	stw	r4,-4(fp)
 5080c88:	008142b4 	movhi	r2,1290
 5080c8c:	10a85304 	addi	r2,r2,-24244
 5080c90:	1080020b 	ldhu	r2,8(r2)
 5080c94:	e0bffd0d 	sth	r2,-12(fp)
 5080c98:	00800204 	movi	r2,8
 5080c9c:	e0bffd8d 	sth	r2,-10(fp)
 5080ca0:	e0bfff17 	ldw	r2,-4(fp)
 5080ca4:	10000526 	beq	r2,zero,5080cbc <AUDIO_EnableByPass+0x48>
 5080ca8:	e0fffd0b 	ldhu	r3,-12(fp)
 5080cac:	e0bffd8b 	ldhu	r2,-10(fp)
 5080cb0:	1884b03a 	or	r2,r3,r2
 5080cb4:	e0bffd0d 	sth	r2,-12(fp)
 5080cb8:	00000606 	br	5080cd4 <AUDIO_EnableByPass+0x60>
 5080cbc:	e0bffd8b 	ldhu	r2,-10(fp)
 5080cc0:	0084303a 	nor	r2,zero,r2
 5080cc4:	1007883a 	mov	r3,r2
 5080cc8:	e0bffd0b 	ldhu	r2,-12(fp)
 5080ccc:	1884703a 	and	r2,r3,r2
 5080cd0:	e0bffd0d 	sth	r2,-12(fp)
 5080cd4:	e0bffd0b 	ldhu	r2,-12(fp)
 5080cd8:	100b883a 	mov	r5,r2
 5080cdc:	01000104 	movi	r4,4
 5080ce0:	5080d8c0 	call	5080d8c <aduio_RegWrite>
 5080ce4:	e0bffe15 	stw	r2,-8(fp)
 5080ce8:	e0bffe17 	ldw	r2,-8(fp)
 5080cec:	e037883a 	mov	sp,fp
 5080cf0:	dfc00117 	ldw	ra,4(sp)
 5080cf4:	df000017 	ldw	fp,0(sp)
 5080cf8:	dec00204 	addi	sp,sp,8
 5080cfc:	f800283a 	ret

05080d00 <AUDIO_EnableSiteTone>:
 5080d00:	defffb04 	addi	sp,sp,-20
 5080d04:	dfc00415 	stw	ra,16(sp)
 5080d08:	df000315 	stw	fp,12(sp)
 5080d0c:	df000304 	addi	fp,sp,12
 5080d10:	e13fff15 	stw	r4,-4(fp)
 5080d14:	008142b4 	movhi	r2,1290
 5080d18:	10a85304 	addi	r2,r2,-24244
 5080d1c:	1080020b 	ldhu	r2,8(r2)
 5080d20:	e0bffd0d 	sth	r2,-12(fp)
 5080d24:	00800804 	movi	r2,32
 5080d28:	e0bffd8d 	sth	r2,-10(fp)
 5080d2c:	e0bfff17 	ldw	r2,-4(fp)
 5080d30:	10000526 	beq	r2,zero,5080d48 <AUDIO_EnableSiteTone+0x48>
 5080d34:	e0fffd0b 	ldhu	r3,-12(fp)
 5080d38:	e0bffd8b 	ldhu	r2,-10(fp)
 5080d3c:	1884b03a 	or	r2,r3,r2
 5080d40:	e0bffd0d 	sth	r2,-12(fp)
 5080d44:	00000606 	br	5080d60 <AUDIO_EnableSiteTone+0x60>
 5080d48:	e0bffd8b 	ldhu	r2,-10(fp)
 5080d4c:	0084303a 	nor	r2,zero,r2
 5080d50:	1007883a 	mov	r3,r2
 5080d54:	e0bffd0b 	ldhu	r2,-12(fp)
 5080d58:	1884703a 	and	r2,r3,r2
 5080d5c:	e0bffd0d 	sth	r2,-12(fp)
 5080d60:	e0bffd0b 	ldhu	r2,-12(fp)
 5080d64:	100b883a 	mov	r5,r2
 5080d68:	01000104 	movi	r4,4
 5080d6c:	5080d8c0 	call	5080d8c <aduio_RegWrite>
 5080d70:	e0bffe15 	stw	r2,-8(fp)
 5080d74:	e0bffe17 	ldw	r2,-8(fp)
 5080d78:	e037883a 	mov	sp,fp
 5080d7c:	dfc00117 	ldw	ra,4(sp)
 5080d80:	df000017 	ldw	fp,0(sp)
 5080d84:	dec00204 	addi	sp,sp,8
 5080d88:	f800283a 	ret

05080d8c <aduio_RegWrite>:
 5080d8c:	defff904 	addi	sp,sp,-28
 5080d90:	dfc00615 	stw	ra,24(sp)
 5080d94:	df000515 	stw	fp,20(sp)
 5080d98:	df000504 	addi	fp,sp,20
 5080d9c:	2007883a 	mov	r3,r4
 5080da0:	2805883a 	mov	r2,r5
 5080da4:	e0fffe05 	stb	r3,-8(fp)
 5080da8:	e0bfff0d 	sth	r2,-4(fp)
 5080dac:	e0bffe03 	ldbu	r2,-8(fp)
 5080db0:	108002e8 	cmpgeui	r2,r2,11
 5080db4:	1000071e 	bne	r2,zero,5080dd4 <aduio_RegWrite+0x48>
 5080db8:	e0fffe03 	ldbu	r3,-8(fp)
 5080dbc:	008142b4 	movhi	r2,1290
 5080dc0:	10a85304 	addi	r2,r2,-24244
 5080dc4:	18c7883a 	add	r3,r3,r3
 5080dc8:	10c5883a 	add	r2,r2,r3
 5080dcc:	e0ffff0b 	ldhu	r3,-4(fp)
 5080dd0:	10c0000d 	sth	r3,0(r2)
 5080dd4:	e0bfff0b 	ldhu	r2,-4(fp)
 5080dd8:	e0bffc05 	stb	r2,-16(fp)
 5080ddc:	e0bffe03 	ldbu	r2,-8(fp)
 5080de0:	1085883a 	add	r2,r2,r2
 5080de4:	e0bffc45 	stb	r2,-15(fp)
 5080de8:	e0bfff0b 	ldhu	r2,-4(fp)
 5080dec:	1004d23a 	srli	r2,r2,8
 5080df0:	1080004c 	andi	r2,r2,1
 5080df4:	1007883a 	mov	r3,r2
 5080df8:	e0bffc43 	ldbu	r2,-15(fp)
 5080dfc:	1884b03a 	or	r2,r3,r2
 5080e00:	e0bffc45 	stb	r2,-15(fp)
 5080e04:	e0bffe03 	ldbu	r2,-8(fp)
 5080e08:	e0ffff0b 	ldhu	r3,-4(fp)
 5080e0c:	180d883a 	mov	r6,r3
 5080e10:	100b883a 	mov	r5,r2
 5080e14:	01014274 	movhi	r4,1289
 5080e18:	21173b04 	addi	r4,r4,23788
 5080e1c:	5081b2c0 	call	5081b2c <myprintf>
 5080e20:	e0fffc43 	ldbu	r3,-15(fp)
 5080e24:	e0bffc03 	ldbu	r2,-16(fp)
 5080e28:	d8800015 	stw	r2,0(sp)
 5080e2c:	180f883a 	mov	r7,r3
 5080e30:	01800d04 	movi	r6,52
 5080e34:	01410034 	movhi	r5,1024
 5080e38:	29400804 	addi	r5,r5,32
 5080e3c:	01010034 	movhi	r4,1024
 5080e40:	21000c04 	addi	r4,r4,48
 5080e44:	5080fd00 	call	5080fd0 <I2C_Write>
 5080e48:	e0bffd15 	stw	r2,-12(fp)
 5080e4c:	e0bffd17 	ldw	r2,-12(fp)
 5080e50:	1000031e 	bne	r2,zero,5080e60 <aduio_RegWrite+0xd4>
 5080e54:	01014274 	movhi	r4,1289
 5080e58:	21174504 	addi	r4,r4,23828
 5080e5c:	5081b2c0 	call	5081b2c <myprintf>
 5080e60:	0130d414 	movui	r4,50000
 5080e64:	5093b380 	call	5093b38 <usleep>
 5080e68:	e0bffd17 	ldw	r2,-12(fp)
 5080e6c:	e037883a 	mov	sp,fp
 5080e70:	dfc00117 	ldw	ra,4(sp)
 5080e74:	df000017 	ldw	fp,0(sp)
 5080e78:	dec00204 	addi	sp,sp,8
 5080e7c:	f800283a 	ret

05080e80 <AUDIO_DacFifoNotFull>:
 5080e80:	defffe04 	addi	sp,sp,-8
 5080e84:	df000115 	stw	fp,4(sp)
 5080e88:	df000104 	addi	fp,sp,4
 5080e8c:	00814434 	movhi	r2,1296
 5080e90:	10840504 	addi	r2,r2,4116
 5080e94:	10800037 	ldwio	r2,0(r2)
 5080e98:	1080004c 	andi	r2,r2,1
 5080e9c:	1005003a 	cmpeq	r2,r2,zero
 5080ea0:	10803fcc 	andi	r2,r2,255
 5080ea4:	e0bfff15 	stw	r2,-4(fp)
 5080ea8:	e0bfff17 	ldw	r2,-4(fp)
 5080eac:	e037883a 	mov	sp,fp
 5080eb0:	df000017 	ldw	fp,0(sp)
 5080eb4:	dec00104 	addi	sp,sp,4
 5080eb8:	f800283a 	ret

05080ebc <AUDIO_DacFifoSetData>:
 5080ebc:	defffd04 	addi	sp,sp,-12
 5080ec0:	df000215 	stw	fp,8(sp)
 5080ec4:	df000204 	addi	fp,sp,8
 5080ec8:	2007883a 	mov	r3,r4
 5080ecc:	2805883a 	mov	r2,r5
 5080ed0:	e0fffe0d 	sth	r3,-8(fp)
 5080ed4:	e0bfff0d 	sth	r2,-4(fp)
 5080ed8:	e0fffe0f 	ldh	r3,-8(fp)
 5080edc:	00814434 	movhi	r2,1296
 5080ee0:	10840004 	addi	r2,r2,4096
 5080ee4:	10c00035 	stwio	r3,0(r2)
 5080ee8:	e0ffff0f 	ldh	r3,-4(fp)
 5080eec:	00814434 	movhi	r2,1296
 5080ef0:	10840104 	addi	r2,r2,4100
 5080ef4:	10c00035 	stwio	r3,0(r2)
 5080ef8:	0001883a 	nop
 5080efc:	e037883a 	mov	sp,fp
 5080f00:	df000017 	ldw	fp,0(sp)
 5080f04:	dec00104 	addi	sp,sp,4
 5080f08:	f800283a 	ret

05080f0c <AUDIO_AdcFifoNotEmpty>:
 5080f0c:	defffe04 	addi	sp,sp,-8
 5080f10:	df000115 	stw	fp,4(sp)
 5080f14:	df000104 	addi	fp,sp,4
 5080f18:	00814434 	movhi	r2,1296
 5080f1c:	10840504 	addi	r2,r2,4116
 5080f20:	10800037 	ldwio	r2,0(r2)
 5080f24:	1080008c 	andi	r2,r2,2
 5080f28:	1005003a 	cmpeq	r2,r2,zero
 5080f2c:	10803fcc 	andi	r2,r2,255
 5080f30:	e0bfff15 	stw	r2,-4(fp)
 5080f34:	e0bfff17 	ldw	r2,-4(fp)
 5080f38:	e037883a 	mov	sp,fp
 5080f3c:	df000017 	ldw	fp,0(sp)
 5080f40:	dec00104 	addi	sp,sp,4
 5080f44:	f800283a 	ret

05080f48 <AUDIO_AdcFifoGetData>:
 5080f48:	defffd04 	addi	sp,sp,-12
 5080f4c:	df000215 	stw	fp,8(sp)
 5080f50:	df000204 	addi	fp,sp,8
 5080f54:	e13ffe15 	stw	r4,-8(fp)
 5080f58:	e17fff15 	stw	r5,-4(fp)
 5080f5c:	00814434 	movhi	r2,1296
 5080f60:	10840204 	addi	r2,r2,4104
 5080f64:	10800037 	ldwio	r2,0(r2)
 5080f68:	1007883a 	mov	r3,r2
 5080f6c:	e0bffe17 	ldw	r2,-8(fp)
 5080f70:	10c0000d 	sth	r3,0(r2)
 5080f74:	00814434 	movhi	r2,1296
 5080f78:	10840304 	addi	r2,r2,4108
 5080f7c:	10800037 	ldwio	r2,0(r2)
 5080f80:	1007883a 	mov	r3,r2
 5080f84:	e0bfff17 	ldw	r2,-4(fp)
 5080f88:	10c0000d 	sth	r3,0(r2)
 5080f8c:	0001883a 	nop
 5080f90:	e037883a 	mov	sp,fp
 5080f94:	df000017 	ldw	fp,0(sp)
 5080f98:	dec00104 	addi	sp,sp,4
 5080f9c:	f800283a 	ret

05080fa0 <AUDIO_FifoClear>:
 5080fa0:	deffff04 	addi	sp,sp,-4
 5080fa4:	df000015 	stw	fp,0(sp)
 5080fa8:	d839883a 	mov	fp,sp
 5080fac:	00c00044 	movi	r3,1
 5080fb0:	00814434 	movhi	r2,1296
 5080fb4:	10840404 	addi	r2,r2,4112
 5080fb8:	10c00035 	stwio	r3,0(r2)
 5080fbc:	0001883a 	nop
 5080fc0:	e037883a 	mov	sp,fp
 5080fc4:	df000017 	ldw	fp,0(sp)
 5080fc8:	dec00104 	addi	sp,sp,4
 5080fcc:	f800283a 	ret

05080fd0 <I2C_Write>:
 5080fd0:	defff804 	addi	sp,sp,-32
 5080fd4:	dfc00715 	stw	ra,28(sp)
 5080fd8:	df000615 	stw	fp,24(sp)
 5080fdc:	df000604 	addi	fp,sp,24
 5080fe0:	e13ffb15 	stw	r4,-20(fp)
 5080fe4:	e17ffc15 	stw	r5,-16(fp)
 5080fe8:	3009883a 	mov	r4,r6
 5080fec:	3807883a 	mov	r3,r7
 5080ff0:	e0800217 	ldw	r2,8(fp)
 5080ff4:	e13ffd05 	stb	r4,-12(fp)
 5080ff8:	e0fffe05 	stb	r3,-8(fp)
 5080ffc:	e0bfff05 	stb	r2,-4(fp)
 5081000:	00800044 	movi	r2,1
 5081004:	e0bffa15 	stw	r2,-24(fp)
 5081008:	e17ffc17 	ldw	r5,-16(fp)
 508100c:	e13ffb17 	ldw	r4,-20(fp)
 5081010:	508136c0 	call	508136c <i2c_start>
 5081014:	e0bffd03 	ldbu	r2,-12(fp)
 5081018:	10803fcc 	andi	r2,r2,255
 508101c:	100d883a 	mov	r6,r2
 5081020:	e17ffc17 	ldw	r5,-16(fp)
 5081024:	e13ffb17 	ldw	r4,-20(fp)
 5081028:	50814700 	call	5081470 <i2c_write>
 508102c:	1000041e 	bne	r2,zero,5081040 <I2C_Write+0x70>
 5081030:	e03ffa15 	stw	zero,-24(fp)
 5081034:	01014274 	movhi	r4,1289
 5081038:	21174d04 	addi	r4,r4,23860
 508103c:	5081b2c0 	call	5081b2c <myprintf>
 5081040:	e0bffa17 	ldw	r2,-24(fp)
 5081044:	10000a26 	beq	r2,zero,5081070 <I2C_Write+0xa0>
 5081048:	e0bffe03 	ldbu	r2,-8(fp)
 508104c:	100d883a 	mov	r6,r2
 5081050:	e17ffc17 	ldw	r5,-16(fp)
 5081054:	e13ffb17 	ldw	r4,-20(fp)
 5081058:	50814700 	call	5081470 <i2c_write>
 508105c:	1000041e 	bne	r2,zero,5081070 <I2C_Write+0xa0>
 5081060:	e03ffa15 	stw	zero,-24(fp)
 5081064:	01014274 	movhi	r4,1289
 5081068:	21175504 	addi	r4,r4,23892
 508106c:	5081b2c0 	call	5081b2c <myprintf>
 5081070:	e0bffa17 	ldw	r2,-24(fp)
 5081074:	10000a26 	beq	r2,zero,50810a0 <I2C_Write+0xd0>
 5081078:	e0bfff03 	ldbu	r2,-4(fp)
 508107c:	100d883a 	mov	r6,r2
 5081080:	e17ffc17 	ldw	r5,-16(fp)
 5081084:	e13ffb17 	ldw	r4,-20(fp)
 5081088:	50814700 	call	5081470 <i2c_write>
 508108c:	1000041e 	bne	r2,zero,50810a0 <I2C_Write+0xd0>
 5081090:	e03ffa15 	stw	zero,-24(fp)
 5081094:	01014274 	movhi	r4,1289
 5081098:	21175e04 	addi	r4,r4,23928
 508109c:	5081b2c0 	call	5081b2c <myprintf>
 50810a0:	e17ffc17 	ldw	r5,-16(fp)
 50810a4:	e13ffb17 	ldw	r4,-20(fp)
 50810a8:	50813f80 	call	50813f8 <i2c_stop>
 50810ac:	0106d604 	movi	r4,7000
 50810b0:	5093b380 	call	5093b38 <usleep>
 50810b4:	e0bffa17 	ldw	r2,-24(fp)
 50810b8:	e037883a 	mov	sp,fp
 50810bc:	dfc00117 	ldw	ra,4(sp)
 50810c0:	df000017 	ldw	fp,0(sp)
 50810c4:	dec00204 	addi	sp,sp,8
 50810c8:	f800283a 	ret

050810cc <I2C_Read>:
 50810cc:	defff904 	addi	sp,sp,-28
 50810d0:	dfc00615 	stw	ra,24(sp)
 50810d4:	df000515 	stw	fp,20(sp)
 50810d8:	df000504 	addi	fp,sp,20
 50810dc:	e13ffc15 	stw	r4,-16(fp)
 50810e0:	e17ffd15 	stw	r5,-12(fp)
 50810e4:	3007883a 	mov	r3,r6
 50810e8:	3805883a 	mov	r2,r7
 50810ec:	e0fffe05 	stb	r3,-8(fp)
 50810f0:	e0bfff05 	stb	r2,-4(fp)
 50810f4:	00800044 	movi	r2,1
 50810f8:	e0bffb15 	stw	r2,-20(fp)
 50810fc:	e17ffd17 	ldw	r5,-12(fp)
 5081100:	e13ffc17 	ldw	r4,-16(fp)
 5081104:	508136c0 	call	508136c <i2c_start>
 5081108:	e0bffe03 	ldbu	r2,-8(fp)
 508110c:	10803fcc 	andi	r2,r2,255
 5081110:	100d883a 	mov	r6,r2
 5081114:	e17ffd17 	ldw	r5,-12(fp)
 5081118:	e13ffc17 	ldw	r4,-16(fp)
 508111c:	50814700 	call	5081470 <i2c_write>
 5081120:	1000041e 	bne	r2,zero,5081134 <I2C_Read+0x68>
 5081124:	e03ffb15 	stw	zero,-20(fp)
 5081128:	01014274 	movhi	r4,1289
 508112c:	21174d04 	addi	r4,r4,23860
 5081130:	5081b2c0 	call	5081b2c <myprintf>
 5081134:	e0bffb17 	ldw	r2,-20(fp)
 5081138:	10000a26 	beq	r2,zero,5081164 <I2C_Read+0x98>
 508113c:	e0bfff03 	ldbu	r2,-4(fp)
 5081140:	100d883a 	mov	r6,r2
 5081144:	e17ffd17 	ldw	r5,-12(fp)
 5081148:	e13ffc17 	ldw	r4,-16(fp)
 508114c:	50814700 	call	5081470 <i2c_write>
 5081150:	1000041e 	bne	r2,zero,5081164 <I2C_Read+0x98>
 5081154:	e03ffb15 	stw	zero,-20(fp)
 5081158:	01014274 	movhi	r4,1289
 508115c:	21175504 	addi	r4,r4,23892
 5081160:	5081b2c0 	call	5081b2c <myprintf>
 5081164:	e17ffd17 	ldw	r5,-12(fp)
 5081168:	e13ffc17 	ldw	r4,-16(fp)
 508116c:	508136c0 	call	508136c <i2c_start>
 5081170:	e0bffe03 	ldbu	r2,-8(fp)
 5081174:	10800054 	ori	r2,r2,1
 5081178:	e0bffe05 	stb	r2,-8(fp)
 508117c:	e0bffb17 	ldw	r2,-20(fp)
 5081180:	10000b26 	beq	r2,zero,50811b0 <I2C_Read+0xe4>
 5081184:	e0bffe03 	ldbu	r2,-8(fp)
 5081188:	10803fcc 	andi	r2,r2,255
 508118c:	100d883a 	mov	r6,r2
 5081190:	e17ffd17 	ldw	r5,-12(fp)
 5081194:	e13ffc17 	ldw	r4,-16(fp)
 5081198:	50814700 	call	5081470 <i2c_write>
 508119c:	1000041e 	bne	r2,zero,50811b0 <I2C_Read+0xe4>
 50811a0:	e03ffb15 	stw	zero,-20(fp)
 50811a4:	01014274 	movhi	r4,1289
 50811a8:	21176604 	addi	r4,r4,23960
 50811ac:	5081b2c0 	call	5081b2c <myprintf>
 50811b0:	e0bffb17 	ldw	r2,-20(fp)
 50811b4:	10000526 	beq	r2,zero,50811cc <I2C_Read+0x100>
 50811b8:	000f883a 	mov	r7,zero
 50811bc:	e1800217 	ldw	r6,8(fp)
 50811c0:	e17ffd17 	ldw	r5,-12(fp)
 50811c4:	e13ffc17 	ldw	r4,-16(fp)
 50811c8:	50815a00 	call	50815a0 <i2c_read>
 50811cc:	e17ffd17 	ldw	r5,-12(fp)
 50811d0:	e13ffc17 	ldw	r4,-16(fp)
 50811d4:	50813f80 	call	50813f8 <i2c_stop>
 50811d8:	e0bffb17 	ldw	r2,-20(fp)
 50811dc:	e037883a 	mov	sp,fp
 50811e0:	dfc00117 	ldw	ra,4(sp)
 50811e4:	df000017 	ldw	fp,0(sp)
 50811e8:	dec00204 	addi	sp,sp,8
 50811ec:	f800283a 	ret

050811f0 <I2C_MultipleRead>:
 50811f0:	defff604 	addi	sp,sp,-40
 50811f4:	dfc00915 	stw	ra,36(sp)
 50811f8:	df000815 	stw	fp,32(sp)
 50811fc:	df000804 	addi	fp,sp,32
 5081200:	e13ffb15 	stw	r4,-20(fp)
 5081204:	e17ffc15 	stw	r5,-16(fp)
 5081208:	3007883a 	mov	r3,r6
 508120c:	e1fffe15 	stw	r7,-8(fp)
 5081210:	e0800217 	ldw	r2,8(fp)
 5081214:	e0fffd05 	stb	r3,-12(fp)
 5081218:	e0bfff0d 	sth	r2,-4(fp)
 508121c:	00800044 	movi	r2,1
 5081220:	e0bff915 	stw	r2,-28(fp)
 5081224:	e03ffa05 	stb	zero,-24(fp)
 5081228:	e17ffc17 	ldw	r5,-16(fp)
 508122c:	e13ffb17 	ldw	r4,-20(fp)
 5081230:	508136c0 	call	508136c <i2c_start>
 5081234:	e0bffd03 	ldbu	r2,-12(fp)
 5081238:	10803fcc 	andi	r2,r2,255
 508123c:	100d883a 	mov	r6,r2
 5081240:	e17ffc17 	ldw	r5,-16(fp)
 5081244:	e13ffb17 	ldw	r4,-20(fp)
 5081248:	50814700 	call	5081470 <i2c_write>
 508124c:	1000041e 	bne	r2,zero,5081260 <I2C_MultipleRead+0x70>
 5081250:	e03ff915 	stw	zero,-28(fp)
 5081254:	01014274 	movhi	r4,1289
 5081258:	21174d04 	addi	r4,r4,23860
 508125c:	5081b2c0 	call	5081b2c <myprintf>
 5081260:	e0bff917 	ldw	r2,-28(fp)
 5081264:	10000a26 	beq	r2,zero,5081290 <I2C_MultipleRead+0xa0>
 5081268:	e0bffa03 	ldbu	r2,-24(fp)
 508126c:	100d883a 	mov	r6,r2
 5081270:	e17ffc17 	ldw	r5,-16(fp)
 5081274:	e13ffb17 	ldw	r4,-20(fp)
 5081278:	50814700 	call	5081470 <i2c_write>
 508127c:	1000041e 	bne	r2,zero,5081290 <I2C_MultipleRead+0xa0>
 5081280:	e03ff915 	stw	zero,-28(fp)
 5081284:	01014274 	movhi	r4,1289
 5081288:	21175504 	addi	r4,r4,23892
 508128c:	5081b2c0 	call	5081b2c <myprintf>
 5081290:	e0bff917 	ldw	r2,-28(fp)
 5081294:	10000326 	beq	r2,zero,50812a4 <I2C_MultipleRead+0xb4>
 5081298:	e17ffc17 	ldw	r5,-16(fp)
 508129c:	e13ffb17 	ldw	r4,-20(fp)
 50812a0:	508136c0 	call	508136c <i2c_start>
 50812a4:	e0bffd03 	ldbu	r2,-12(fp)
 50812a8:	10800054 	ori	r2,r2,1
 50812ac:	e0bffd05 	stb	r2,-12(fp)
 50812b0:	e0bff917 	ldw	r2,-28(fp)
 50812b4:	10000b26 	beq	r2,zero,50812e4 <I2C_MultipleRead+0xf4>
 50812b8:	e0bffd03 	ldbu	r2,-12(fp)
 50812bc:	10803fcc 	andi	r2,r2,255
 50812c0:	100d883a 	mov	r6,r2
 50812c4:	e17ffc17 	ldw	r5,-16(fp)
 50812c8:	e13ffb17 	ldw	r4,-20(fp)
 50812cc:	50814700 	call	5081470 <i2c_write>
 50812d0:	1000041e 	bne	r2,zero,50812e4 <I2C_MultipleRead+0xf4>
 50812d4:	e03ff915 	stw	zero,-28(fp)
 50812d8:	01014274 	movhi	r4,1289
 50812dc:	21176604 	addi	r4,r4,23960
 50812e0:	5081b2c0 	call	5081b2c <myprintf>
 50812e4:	e0bff917 	ldw	r2,-28(fp)
 50812e8:	10001726 	beq	r2,zero,5081348 <I2C_MultipleRead+0x158>
 50812ec:	e03ff815 	stw	zero,-32(fp)
 50812f0:	00001006 	br	5081334 <I2C_MultipleRead+0x144>
 50812f4:	e0bff817 	ldw	r2,-32(fp)
 50812f8:	e0fffe17 	ldw	r3,-8(fp)
 50812fc:	1889883a 	add	r4,r3,r2
 5081300:	e0bfff0b 	ldhu	r2,-4(fp)
 5081304:	10ffffc4 	addi	r3,r2,-1
 5081308:	e0bff817 	ldw	r2,-32(fp)
 508130c:	1884c03a 	cmpne	r2,r3,r2
 5081310:	10803fcc 	andi	r2,r2,255
 5081314:	100f883a 	mov	r7,r2
 5081318:	200d883a 	mov	r6,r4
 508131c:	e17ffc17 	ldw	r5,-16(fp)
 5081320:	e13ffb17 	ldw	r4,-20(fp)
 5081324:	50815a00 	call	50815a0 <i2c_read>
 5081328:	e0bff817 	ldw	r2,-32(fp)
 508132c:	10800044 	addi	r2,r2,1
 5081330:	e0bff815 	stw	r2,-32(fp)
 5081334:	e0bfff0b 	ldhu	r2,-4(fp)
 5081338:	e0fff817 	ldw	r3,-32(fp)
 508133c:	1880020e 	bge	r3,r2,5081348 <I2C_MultipleRead+0x158>
 5081340:	e0bff917 	ldw	r2,-28(fp)
 5081344:	103feb1e 	bne	r2,zero,50812f4 <I2C_MultipleRead+0x104>
 5081348:	e17ffc17 	ldw	r5,-16(fp)
 508134c:	e13ffb17 	ldw	r4,-20(fp)
 5081350:	50813f80 	call	50813f8 <i2c_stop>
 5081354:	e0bff917 	ldw	r2,-28(fp)
 5081358:	e037883a 	mov	sp,fp
 508135c:	dfc00117 	ldw	ra,4(sp)
 5081360:	df000017 	ldw	fp,0(sp)
 5081364:	dec00204 	addi	sp,sp,8
 5081368:	f800283a 	ret

0508136c <i2c_start>:
 508136c:	defffc04 	addi	sp,sp,-16
 5081370:	dfc00315 	stw	ra,12(sp)
 5081374:	df000215 	stw	fp,8(sp)
 5081378:	df000204 	addi	fp,sp,8
 508137c:	e13ffe15 	stw	r4,-8(fp)
 5081380:	e17fff15 	stw	r5,-4(fp)
 5081384:	e0bfff17 	ldw	r2,-4(fp)
 5081388:	10800104 	addi	r2,r2,4
 508138c:	1007883a 	mov	r3,r2
 5081390:	00800044 	movi	r2,1
 5081394:	18800035 	stwio	r2,0(r3)
 5081398:	e0bfff17 	ldw	r2,-4(fp)
 508139c:	00c00044 	movi	r3,1
 50813a0:	10c00035 	stwio	r3,0(r2)
 50813a4:	e0bffe17 	ldw	r2,-8(fp)
 50813a8:	00c00044 	movi	r3,1
 50813ac:	10c00035 	stwio	r3,0(r2)
 50813b0:	01000044 	movi	r4,1
 50813b4:	5093b380 	call	5093b38 <usleep>
 50813b8:	e0bfff17 	ldw	r2,-4(fp)
 50813bc:	0007883a 	mov	r3,zero
 50813c0:	10c00035 	stwio	r3,0(r2)
 50813c4:	01000044 	movi	r4,1
 50813c8:	5093b380 	call	5093b38 <usleep>
 50813cc:	e0bffe17 	ldw	r2,-8(fp)
 50813d0:	0007883a 	mov	r3,zero
 50813d4:	10c00035 	stwio	r3,0(r2)
 50813d8:	01000044 	movi	r4,1
 50813dc:	5093b380 	call	5093b38 <usleep>
 50813e0:	0001883a 	nop
 50813e4:	e037883a 	mov	sp,fp
 50813e8:	dfc00117 	ldw	ra,4(sp)
 50813ec:	df000017 	ldw	fp,0(sp)
 50813f0:	dec00204 	addi	sp,sp,8
 50813f4:	f800283a 	ret

050813f8 <i2c_stop>:
 50813f8:	defffc04 	addi	sp,sp,-16
 50813fc:	dfc00315 	stw	ra,12(sp)
 5081400:	df000215 	stw	fp,8(sp)
 5081404:	df000204 	addi	fp,sp,8
 5081408:	e13ffe15 	stw	r4,-8(fp)
 508140c:	e17fff15 	stw	r5,-4(fp)
 5081410:	e0bfff17 	ldw	r2,-4(fp)
 5081414:	10800104 	addi	r2,r2,4
 5081418:	1007883a 	mov	r3,r2
 508141c:	00800044 	movi	r2,1
 5081420:	18800035 	stwio	r2,0(r3)
 5081424:	e0bfff17 	ldw	r2,-4(fp)
 5081428:	0007883a 	mov	r3,zero
 508142c:	10c00035 	stwio	r3,0(r2)
 5081430:	e0bffe17 	ldw	r2,-8(fp)
 5081434:	00c00044 	movi	r3,1
 5081438:	10c00035 	stwio	r3,0(r2)
 508143c:	01000044 	movi	r4,1
 5081440:	5093b380 	call	5093b38 <usleep>
 5081444:	e0bfff17 	ldw	r2,-4(fp)
 5081448:	00c00044 	movi	r3,1
 508144c:	10c00035 	stwio	r3,0(r2)
 5081450:	01000044 	movi	r4,1
 5081454:	5093b380 	call	5093b38 <usleep>
 5081458:	0001883a 	nop
 508145c:	e037883a 	mov	sp,fp
 5081460:	dfc00117 	ldw	ra,4(sp)
 5081464:	df000017 	ldw	fp,0(sp)
 5081468:	dec00204 	addi	sp,sp,8
 508146c:	f800283a 	ret

05081470 <i2c_write>:
 5081470:	defff804 	addi	sp,sp,-32
 5081474:	dfc00715 	stw	ra,28(sp)
 5081478:	df000615 	stw	fp,24(sp)
 508147c:	df000604 	addi	fp,sp,24
 5081480:	e13ffd15 	stw	r4,-12(fp)
 5081484:	e17ffe15 	stw	r5,-8(fp)
 5081488:	3005883a 	mov	r2,r6
 508148c:	e0bfff05 	stb	r2,-4(fp)
 5081490:	00bfe004 	movi	r2,-128
 5081494:	e0bffa05 	stb	r2,-24(fp)
 5081498:	e0bffe17 	ldw	r2,-8(fp)
 508149c:	10800104 	addi	r2,r2,4
 50814a0:	1007883a 	mov	r3,r2
 50814a4:	00800044 	movi	r2,1
 50814a8:	18800035 	stwio	r2,0(r3)
 50814ac:	e03ffb15 	stw	zero,-20(fp)
 50814b0:	00001f06 	br	5081530 <i2c_write+0xc0>
 50814b4:	e0bffd17 	ldw	r2,-12(fp)
 50814b8:	0007883a 	mov	r3,zero
 50814bc:	10c00035 	stwio	r3,0(r2)
 50814c0:	e0ffff03 	ldbu	r3,-4(fp)
 50814c4:	e0bffa03 	ldbu	r2,-24(fp)
 50814c8:	1884703a 	and	r2,r3,r2
 50814cc:	10803fcc 	andi	r2,r2,255
 50814d0:	10000426 	beq	r2,zero,50814e4 <i2c_write+0x74>
 50814d4:	e0bffe17 	ldw	r2,-8(fp)
 50814d8:	00c00044 	movi	r3,1
 50814dc:	10c00035 	stwio	r3,0(r2)
 50814e0:	00000306 	br	50814f0 <i2c_write+0x80>
 50814e4:	e0bffe17 	ldw	r2,-8(fp)
 50814e8:	0007883a 	mov	r3,zero
 50814ec:	10c00035 	stwio	r3,0(r2)
 50814f0:	e0bffa03 	ldbu	r2,-24(fp)
 50814f4:	1004d07a 	srli	r2,r2,1
 50814f8:	e0bffa05 	stb	r2,-24(fp)
 50814fc:	e0bffd17 	ldw	r2,-12(fp)
 5081500:	00c00044 	movi	r3,1
 5081504:	10c00035 	stwio	r3,0(r2)
 5081508:	01000044 	movi	r4,1
 508150c:	5093b380 	call	5093b38 <usleep>
 5081510:	e0bffd17 	ldw	r2,-12(fp)
 5081514:	0007883a 	mov	r3,zero
 5081518:	10c00035 	stwio	r3,0(r2)
 508151c:	01000044 	movi	r4,1
 5081520:	5093b380 	call	5093b38 <usleep>
 5081524:	e0bffb17 	ldw	r2,-20(fp)
 5081528:	10800044 	addi	r2,r2,1
 508152c:	e0bffb15 	stw	r2,-20(fp)
 5081530:	e0bffb17 	ldw	r2,-20(fp)
 5081534:	10800210 	cmplti	r2,r2,8
 5081538:	103fde1e 	bne	r2,zero,50814b4 <i2c_write+0x44>
 508153c:	e0bffe17 	ldw	r2,-8(fp)
 5081540:	10800104 	addi	r2,r2,4
 5081544:	0007883a 	mov	r3,zero
 5081548:	10c00035 	stwio	r3,0(r2)
 508154c:	e0bffd17 	ldw	r2,-12(fp)
 5081550:	00c00044 	movi	r3,1
 5081554:	10c00035 	stwio	r3,0(r2)
 5081558:	01000044 	movi	r4,1
 508155c:	5093b380 	call	5093b38 <usleep>
 5081560:	e0bffe17 	ldw	r2,-8(fp)
 5081564:	10800037 	ldwio	r2,0(r2)
 5081568:	1005003a 	cmpeq	r2,r2,zero
 508156c:	10803fcc 	andi	r2,r2,255
 5081570:	e0bffc15 	stw	r2,-16(fp)
 5081574:	e0bffd17 	ldw	r2,-12(fp)
 5081578:	0007883a 	mov	r3,zero
 508157c:	10c00035 	stwio	r3,0(r2)
 5081580:	01000044 	movi	r4,1
 5081584:	5093b380 	call	5093b38 <usleep>
 5081588:	e0bffc17 	ldw	r2,-16(fp)
 508158c:	e037883a 	mov	sp,fp
 5081590:	dfc00117 	ldw	ra,4(sp)
 5081594:	df000017 	ldw	fp,0(sp)
 5081598:	dec00204 	addi	sp,sp,8
 508159c:	f800283a 	ret

050815a0 <i2c_read>:
 50815a0:	defff804 	addi	sp,sp,-32
 50815a4:	dfc00715 	stw	ra,28(sp)
 50815a8:	df000615 	stw	fp,24(sp)
 50815ac:	df000604 	addi	fp,sp,24
 50815b0:	e13ffc15 	stw	r4,-16(fp)
 50815b4:	e17ffd15 	stw	r5,-12(fp)
 50815b8:	e1bffe15 	stw	r6,-8(fp)
 50815bc:	e1ffff15 	stw	r7,-4(fp)
 50815c0:	e03ffa05 	stb	zero,-24(fp)
 50815c4:	e0bffd17 	ldw	r2,-12(fp)
 50815c8:	10800104 	addi	r2,r2,4
 50815cc:	0007883a 	mov	r3,zero
 50815d0:	10c00035 	stwio	r3,0(r2)
 50815d4:	e0bffc17 	ldw	r2,-16(fp)
 50815d8:	0007883a 	mov	r3,zero
 50815dc:	10c00035 	stwio	r3,0(r2)
 50815e0:	01000044 	movi	r4,1
 50815e4:	5093b380 	call	5093b38 <usleep>
 50815e8:	e03ffb15 	stw	zero,-20(fp)
 50815ec:	00001606 	br	5081648 <i2c_read+0xa8>
 50815f0:	e0bffa03 	ldbu	r2,-24(fp)
 50815f4:	1085883a 	add	r2,r2,r2
 50815f8:	e0bffa05 	stb	r2,-24(fp)
 50815fc:	e0bffc17 	ldw	r2,-16(fp)
 5081600:	00c00044 	movi	r3,1
 5081604:	10c00035 	stwio	r3,0(r2)
 5081608:	01000044 	movi	r4,1
 508160c:	5093b380 	call	5093b38 <usleep>
 5081610:	e0bffd17 	ldw	r2,-12(fp)
 5081614:	10800037 	ldwio	r2,0(r2)
 5081618:	10000326 	beq	r2,zero,5081628 <i2c_read+0x88>
 508161c:	e0bffa03 	ldbu	r2,-24(fp)
 5081620:	10800054 	ori	r2,r2,1
 5081624:	e0bffa05 	stb	r2,-24(fp)
 5081628:	e0bffc17 	ldw	r2,-16(fp)
 508162c:	0007883a 	mov	r3,zero
 5081630:	10c00035 	stwio	r3,0(r2)
 5081634:	01000044 	movi	r4,1
 5081638:	5093b380 	call	5093b38 <usleep>
 508163c:	e0bffb17 	ldw	r2,-20(fp)
 5081640:	10800044 	addi	r2,r2,1
 5081644:	e0bffb15 	stw	r2,-20(fp)
 5081648:	e0bffb17 	ldw	r2,-20(fp)
 508164c:	10800210 	cmplti	r2,r2,8
 5081650:	103fe71e 	bne	r2,zero,50815f0 <i2c_read+0x50>
 5081654:	e0bffc17 	ldw	r2,-16(fp)
 5081658:	0007883a 	mov	r3,zero
 508165c:	10c00035 	stwio	r3,0(r2)
 5081660:	e0bffd17 	ldw	r2,-12(fp)
 5081664:	10800104 	addi	r2,r2,4
 5081668:	1007883a 	mov	r3,r2
 508166c:	00800044 	movi	r2,1
 5081670:	18800035 	stwio	r2,0(r3)
 5081674:	e0bfff17 	ldw	r2,-4(fp)
 5081678:	10000426 	beq	r2,zero,508168c <i2c_read+0xec>
 508167c:	e0bffd17 	ldw	r2,-12(fp)
 5081680:	0007883a 	mov	r3,zero
 5081684:	10c00035 	stwio	r3,0(r2)
 5081688:	00000306 	br	5081698 <i2c_read+0xf8>
 508168c:	e0bffd17 	ldw	r2,-12(fp)
 5081690:	00c00044 	movi	r3,1
 5081694:	10c00035 	stwio	r3,0(r2)
 5081698:	e0bffc17 	ldw	r2,-16(fp)
 508169c:	00c00044 	movi	r3,1
 50816a0:	10c00035 	stwio	r3,0(r2)
 50816a4:	01000044 	movi	r4,1
 50816a8:	5093b380 	call	5093b38 <usleep>
 50816ac:	e0bffc17 	ldw	r2,-16(fp)
 50816b0:	0007883a 	mov	r3,zero
 50816b4:	10c00035 	stwio	r3,0(r2)
 50816b8:	01000044 	movi	r4,1
 50816bc:	5093b380 	call	5093b38 <usleep>
 50816c0:	e0bffd17 	ldw	r2,-12(fp)
 50816c4:	0007883a 	mov	r3,zero
 50816c8:	10c00035 	stwio	r3,0(r2)
 50816cc:	01000044 	movi	r4,1
 50816d0:	5093b380 	call	5093b38 <usleep>
 50816d4:	e0bffe17 	ldw	r2,-8(fp)
 50816d8:	e0fffa03 	ldbu	r3,-24(fp)
 50816dc:	10c00005 	stb	r3,0(r2)
 50816e0:	0001883a 	nop
 50816e4:	e037883a 	mov	sp,fp
 50816e8:	dfc00117 	ldw	ra,4(sp)
 50816ec:	df000017 	ldw	fp,0(sp)
 50816f0:	dec00204 	addi	sp,sp,8
 50816f4:	f800283a 	ret

050816f8 <LED_Display>:
 50816f8:	defffd04 	addi	sp,sp,-12
 50816fc:	df000215 	stw	fp,8(sp)
 5081700:	df000204 	addi	fp,sp,8
 5081704:	e13fff15 	stw	r4,-4(fp)
 5081708:	e0bfff17 	ldw	r2,-4(fp)
 508170c:	e0bffe15 	stw	r2,-8(fp)
 5081710:	e0fffe17 	ldw	r3,-8(fp)
 5081714:	00810034 	movhi	r2,1024
 5081718:	10801404 	addi	r2,r2,80
 508171c:	10c00035 	stwio	r3,0(r2)
 5081720:	0001883a 	nop
 5081724:	e037883a 	mov	sp,fp
 5081728:	df000017 	ldw	fp,0(sp)
 508172c:	dec00104 	addi	sp,sp,4
 5081730:	f800283a 	ret

05081734 <LED_AllOn>:
 5081734:	defffe04 	addi	sp,sp,-8
 5081738:	dfc00115 	stw	ra,4(sp)
 508173c:	df000015 	stw	fp,0(sp)
 5081740:	d839883a 	mov	fp,sp
 5081744:	013fffc4 	movi	r4,-1
 5081748:	50816f80 	call	50816f8 <LED_Display>
 508174c:	0001883a 	nop
 5081750:	e037883a 	mov	sp,fp
 5081754:	dfc00117 	ldw	ra,4(sp)
 5081758:	df000017 	ldw	fp,0(sp)
 508175c:	dec00204 	addi	sp,sp,8
 5081760:	f800283a 	ret

05081764 <LED_AllOff>:
 5081764:	defffe04 	addi	sp,sp,-8
 5081768:	dfc00115 	stw	ra,4(sp)
 508176c:	df000015 	stw	fp,0(sp)
 5081770:	d839883a 	mov	fp,sp
 5081774:	0009883a 	mov	r4,zero
 5081778:	50816f80 	call	50816f8 <LED_Display>
 508177c:	0001883a 	nop
 5081780:	e037883a 	mov	sp,fp
 5081784:	dfc00117 	ldw	ra,4(sp)
 5081788:	df000017 	ldw	fp,0(sp)
 508178c:	dec00204 	addi	sp,sp,8
 5081790:	f800283a 	ret

05081794 <LED_LightCount>:
 5081794:	defffb04 	addi	sp,sp,-20
 5081798:	dfc00415 	stw	ra,16(sp)
 508179c:	df000315 	stw	fp,12(sp)
 50817a0:	df000304 	addi	fp,sp,12
 50817a4:	2005883a 	mov	r2,r4
 50817a8:	e0bfff05 	stb	r2,-4(fp)
 50817ac:	e03ffd15 	stw	zero,-12(fp)
 50817b0:	e03ffe15 	stw	zero,-8(fp)
 50817b4:	00000906 	br	50817dc <LED_LightCount+0x48>
 50817b8:	e0bffd17 	ldw	r2,-12(fp)
 50817bc:	1085883a 	add	r2,r2,r2
 50817c0:	e0bffd15 	stw	r2,-12(fp)
 50817c4:	e0bffd17 	ldw	r2,-12(fp)
 50817c8:	10800054 	ori	r2,r2,1
 50817cc:	e0bffd15 	stw	r2,-12(fp)
 50817d0:	e0bffe17 	ldw	r2,-8(fp)
 50817d4:	10800044 	addi	r2,r2,1
 50817d8:	e0bffe15 	stw	r2,-8(fp)
 50817dc:	e0bfff03 	ldbu	r2,-4(fp)
 50817e0:	e0fffe17 	ldw	r3,-8(fp)
 50817e4:	18bff416 	blt	r3,r2,50817b8 <LED_LightCount+0x24>
 50817e8:	e13ffd17 	ldw	r4,-12(fp)
 50817ec:	50816f80 	call	50816f8 <LED_Display>
 50817f0:	0001883a 	nop
 50817f4:	e037883a 	mov	sp,fp
 50817f8:	dfc00117 	ldw	ra,4(sp)
 50817fc:	df000017 	ldw	fp,0(sp)
 5081800:	dec00204 	addi	sp,sp,8
 5081804:	f800283a 	ret

05081808 <SEG7_Clear>:
 5081808:	defffe04 	addi	sp,sp,-8
 508180c:	df000115 	stw	fp,4(sp)
 5081810:	df000104 	addi	fp,sp,4
 5081814:	e03fff15 	stw	zero,-4(fp)
 5081818:	00000b06 	br	5081848 <SEG7_Clear+0x40>
 508181c:	e0bfff17 	ldw	r2,-4(fp)
 5081820:	1085883a 	add	r2,r2,r2
 5081824:	1085883a 	add	r2,r2,r2
 5081828:	1007883a 	mov	r3,r2
 508182c:	00810034 	movhi	r2,1024
 5081830:	1885883a 	add	r2,r3,r2
 5081834:	0007883a 	mov	r3,zero
 5081838:	10c00035 	stwio	r3,0(r2)
 508183c:	e0bfff17 	ldw	r2,-4(fp)
 5081840:	10800044 	addi	r2,r2,1
 5081844:	e0bfff15 	stw	r2,-4(fp)
 5081848:	e0bfff17 	ldw	r2,-4(fp)
 508184c:	10800190 	cmplti	r2,r2,6
 5081850:	103ff21e 	bne	r2,zero,508181c <SEG7_Clear+0x14>
 5081854:	0001883a 	nop
 5081858:	e037883a 	mov	sp,fp
 508185c:	df000017 	ldw	fp,0(sp)
 5081860:	dec00104 	addi	sp,sp,4
 5081864:	f800283a 	ret

05081868 <SEG7_Full>:
 5081868:	defffe04 	addi	sp,sp,-8
 508186c:	df000115 	stw	fp,4(sp)
 5081870:	df000104 	addi	fp,sp,4
 5081874:	e03fff15 	stw	zero,-4(fp)
 5081878:	00000b06 	br	50818a8 <SEG7_Full+0x40>
 508187c:	e0bfff17 	ldw	r2,-4(fp)
 5081880:	1085883a 	add	r2,r2,r2
 5081884:	1085883a 	add	r2,r2,r2
 5081888:	1007883a 	mov	r3,r2
 508188c:	00810034 	movhi	r2,1024
 5081890:	1885883a 	add	r2,r3,r2
 5081894:	00c03fc4 	movi	r3,255
 5081898:	10c00035 	stwio	r3,0(r2)
 508189c:	e0bfff17 	ldw	r2,-4(fp)
 50818a0:	10800044 	addi	r2,r2,1
 50818a4:	e0bfff15 	stw	r2,-4(fp)
 50818a8:	e0bfff17 	ldw	r2,-4(fp)
 50818ac:	10800190 	cmplti	r2,r2,6
 50818b0:	103ff21e 	bne	r2,zero,508187c <SEG7_Full+0x14>
 50818b4:	0001883a 	nop
 50818b8:	e037883a 	mov	sp,fp
 50818bc:	df000017 	ldw	fp,0(sp)
 50818c0:	dec00104 	addi	sp,sp,4
 50818c4:	f800283a 	ret

050818c8 <SEG7_Number>:
 50818c8:	defffe04 	addi	sp,sp,-8
 50818cc:	df000115 	stw	fp,4(sp)
 50818d0:	df000104 	addi	fp,sp,4
 50818d4:	e03fff15 	stw	zero,-4(fp)
 50818d8:	00001006 	br	508191c <SEG7_Number+0x54>
 50818dc:	e0bfff17 	ldw	r2,-4(fp)
 50818e0:	1085883a 	add	r2,r2,r2
 50818e4:	1085883a 	add	r2,r2,r2
 50818e8:	1007883a 	mov	r3,r2
 50818ec:	00810034 	movhi	r2,1024
 50818f0:	1887883a 	add	r3,r3,r2
 50818f4:	00814274 	movhi	r2,1289
 50818f8:	109ac404 	addi	r2,r2,27408
 50818fc:	e13fff17 	ldw	r4,-4(fp)
 5081900:	1105883a 	add	r2,r2,r4
 5081904:	10800003 	ldbu	r2,0(r2)
 5081908:	10803fcc 	andi	r2,r2,255
 508190c:	18800035 	stwio	r2,0(r3)
 5081910:	e0bfff17 	ldw	r2,-4(fp)
 5081914:	10800044 	addi	r2,r2,1
 5081918:	e0bfff15 	stw	r2,-4(fp)
 508191c:	e0bfff17 	ldw	r2,-4(fp)
 5081920:	10800190 	cmplti	r2,r2,6
 5081924:	103fed1e 	bne	r2,zero,50818dc <SEG7_Number+0x14>
 5081928:	0001883a 	nop
 508192c:	e037883a 	mov	sp,fp
 5081930:	df000017 	ldw	fp,0(sp)
 5081934:	dec00104 	addi	sp,sp,4
 5081938:	f800283a 	ret

0508193c <SEG7_Hex>:
 508193c:	defffb04 	addi	sp,sp,-20
 5081940:	df000415 	stw	fp,16(sp)
 5081944:	df000404 	addi	fp,sp,16
 5081948:	e13ffe15 	stw	r4,-8(fp)
 508194c:	2805883a 	mov	r2,r5
 5081950:	e0bfff05 	stb	r2,-4(fp)
 5081954:	00800044 	movi	r2,1
 5081958:	e0bffc05 	stb	r2,-16(fp)
 508195c:	e03ffc45 	stb	zero,-15(fp)
 5081960:	e03ffd15 	stw	zero,-12(fp)
 5081964:	00002106 	br	50819ec <SEG7_Hex+0xb0>
 5081968:	e0bffe17 	ldw	r2,-8(fp)
 508196c:	10c003cc 	andi	r3,r2,15
 5081970:	00814274 	movhi	r2,1289
 5081974:	109ac404 	addi	r2,r2,27408
 5081978:	10c5883a 	add	r2,r2,r3
 508197c:	10800003 	ldbu	r2,0(r2)
 5081980:	e0bffc45 	stb	r2,-15(fp)
 5081984:	e0bffe17 	ldw	r2,-8(fp)
 5081988:	1004d13a 	srli	r2,r2,4
 508198c:	e0bffe15 	stw	r2,-8(fp)
 5081990:	e0ffff03 	ldbu	r3,-4(fp)
 5081994:	e0bffc03 	ldbu	r2,-16(fp)
 5081998:	1884703a 	and	r2,r3,r2
 508199c:	10803fcc 	andi	r2,r2,255
 50819a0:	10000426 	beq	r2,zero,50819b4 <SEG7_Hex+0x78>
 50819a4:	e0fffc43 	ldbu	r3,-15(fp)
 50819a8:	00bfe004 	movi	r2,-128
 50819ac:	1884b03a 	or	r2,r3,r2
 50819b0:	e0bffc45 	stb	r2,-15(fp)
 50819b4:	e0bffc03 	ldbu	r2,-16(fp)
 50819b8:	1085883a 	add	r2,r2,r2
 50819bc:	e0bffc05 	stb	r2,-16(fp)
 50819c0:	e0bffd17 	ldw	r2,-12(fp)
 50819c4:	1085883a 	add	r2,r2,r2
 50819c8:	1085883a 	add	r2,r2,r2
 50819cc:	1007883a 	mov	r3,r2
 50819d0:	00810034 	movhi	r2,1024
 50819d4:	1885883a 	add	r2,r3,r2
 50819d8:	e0fffc43 	ldbu	r3,-15(fp)
 50819dc:	10c00035 	stwio	r3,0(r2)
 50819e0:	e0bffd17 	ldw	r2,-12(fp)
 50819e4:	10800044 	addi	r2,r2,1
 50819e8:	e0bffd15 	stw	r2,-12(fp)
 50819ec:	e0bffd17 	ldw	r2,-12(fp)
 50819f0:	10800190 	cmplti	r2,r2,6
 50819f4:	103fdc1e 	bne	r2,zero,5081968 <SEG7_Hex+0x2c>
 50819f8:	0001883a 	nop
 50819fc:	e037883a 	mov	sp,fp
 5081a00:	df000017 	ldw	fp,0(sp)
 5081a04:	dec00104 	addi	sp,sp,4
 5081a08:	f800283a 	ret

05081a0c <SEG7_Decimal>:
 5081a0c:	defffa04 	addi	sp,sp,-24
 5081a10:	dfc00515 	stw	ra,20(sp)
 5081a14:	df000415 	stw	fp,16(sp)
 5081a18:	df000404 	addi	fp,sp,16
 5081a1c:	e13ffe15 	stw	r4,-8(fp)
 5081a20:	2805883a 	mov	r2,r5
 5081a24:	e0bfff05 	stb	r2,-4(fp)
 5081a28:	00800044 	movi	r2,1
 5081a2c:	e0bffc05 	stb	r2,-16(fp)
 5081a30:	e03ffc45 	stb	zero,-15(fp)
 5081a34:	e03ffd15 	stw	zero,-12(fp)
 5081a38:	00002606 	br	5081ad4 <SEG7_Decimal+0xc8>
 5081a3c:	e0bffe17 	ldw	r2,-8(fp)
 5081a40:	01400284 	movi	r5,10
 5081a44:	1009883a 	mov	r4,r2
 5081a48:	50832180 	call	5083218 <__umodsi3>
 5081a4c:	1007883a 	mov	r3,r2
 5081a50:	00814274 	movhi	r2,1289
 5081a54:	109ac404 	addi	r2,r2,27408
 5081a58:	10c5883a 	add	r2,r2,r3
 5081a5c:	10800003 	ldbu	r2,0(r2)
 5081a60:	e0bffc45 	stb	r2,-15(fp)
 5081a64:	e0bffe17 	ldw	r2,-8(fp)
 5081a68:	01400284 	movi	r5,10
 5081a6c:	1009883a 	mov	r4,r2
 5081a70:	50831b40 	call	50831b4 <__udivsi3>
 5081a74:	e0bffe15 	stw	r2,-8(fp)
 5081a78:	e0ffff03 	ldbu	r3,-4(fp)
 5081a7c:	e0bffc03 	ldbu	r2,-16(fp)
 5081a80:	1884703a 	and	r2,r3,r2
 5081a84:	10803fcc 	andi	r2,r2,255
 5081a88:	10000426 	beq	r2,zero,5081a9c <SEG7_Decimal+0x90>
 5081a8c:	e0fffc43 	ldbu	r3,-15(fp)
 5081a90:	00bfe004 	movi	r2,-128
 5081a94:	1884b03a 	or	r2,r3,r2
 5081a98:	e0bffc45 	stb	r2,-15(fp)
 5081a9c:	e0bffc03 	ldbu	r2,-16(fp)
 5081aa0:	1085883a 	add	r2,r2,r2
 5081aa4:	e0bffc05 	stb	r2,-16(fp)
 5081aa8:	e0bffd17 	ldw	r2,-12(fp)
 5081aac:	1085883a 	add	r2,r2,r2
 5081ab0:	1085883a 	add	r2,r2,r2
 5081ab4:	1007883a 	mov	r3,r2
 5081ab8:	00810034 	movhi	r2,1024
 5081abc:	1885883a 	add	r2,r3,r2
 5081ac0:	e0fffc43 	ldbu	r3,-15(fp)
 5081ac4:	10c00035 	stwio	r3,0(r2)
 5081ac8:	e0bffd17 	ldw	r2,-12(fp)
 5081acc:	10800044 	addi	r2,r2,1
 5081ad0:	e0bffd15 	stw	r2,-12(fp)
 5081ad4:	e0bffd17 	ldw	r2,-12(fp)
 5081ad8:	10800190 	cmplti	r2,r2,6
 5081adc:	103fd71e 	bne	r2,zero,5081a3c <SEG7_Decimal+0x30>
 5081ae0:	0001883a 	nop
 5081ae4:	e037883a 	mov	sp,fp
 5081ae8:	dfc00117 	ldw	ra,4(sp)
 5081aec:	df000017 	ldw	fp,0(sp)
 5081af0:	dec00204 	addi	sp,sp,8
 5081af4:	f800283a 	ret

05081af8 <debug_output>:
 5081af8:	defffd04 	addi	sp,sp,-12
 5081afc:	dfc00215 	stw	ra,8(sp)
 5081b00:	df000115 	stw	fp,4(sp)
 5081b04:	df000104 	addi	fp,sp,4
 5081b08:	e13fff15 	stw	r4,-4(fp)
 5081b0c:	e13fff17 	ldw	r4,-4(fp)
 5081b10:	50850380 	call	5085038 <printf>
 5081b14:	0001883a 	nop
 5081b18:	e037883a 	mov	sp,fp
 5081b1c:	dfc00117 	ldw	ra,4(sp)
 5081b20:	df000017 	ldw	fp,0(sp)
 5081b24:	dec00204 	addi	sp,sp,8
 5081b28:	f800283a 	ret

05081b2c <myprintf>:
 5081b2c:	deff7804 	addi	sp,sp,-544
 5081b30:	dfc08415 	stw	ra,528(sp)
 5081b34:	df008315 	stw	fp,524(sp)
 5081b38:	df008304 	addi	fp,sp,524
 5081b3c:	e13fff15 	stw	r4,-4(fp)
 5081b40:	e1400215 	stw	r5,8(fp)
 5081b44:	e1800315 	stw	r6,12(fp)
 5081b48:	e1c00415 	stw	r7,16(fp)
 5081b4c:	e0800204 	addi	r2,fp,8
 5081b50:	e0bffe15 	stw	r2,-8(fp)
 5081b54:	e0fffe17 	ldw	r3,-8(fp)
 5081b58:	e0bf7e04 	addi	r2,fp,-520
 5081b5c:	180f883a 	mov	r7,r3
 5081b60:	e1bfff17 	ldw	r6,-4(fp)
 5081b64:	01408004 	movi	r5,512
 5081b68:	1009883a 	mov	r4,r2
 5081b6c:	508983c0 	call	508983c <vsnprintf>
 5081b70:	e0bf7d15 	stw	r2,-524(fp)
 5081b74:	e0bf7e04 	addi	r2,fp,-520
 5081b78:	1009883a 	mov	r4,r2
 5081b7c:	5081af80 	call	5081af8 <debug_output>
 5081b80:	e0bf7d17 	ldw	r2,-524(fp)
 5081b84:	e037883a 	mov	sp,fp
 5081b88:	dfc00117 	ldw	ra,4(sp)
 5081b8c:	df000017 	ldw	fp,0(sp)
 5081b90:	dec00504 	addi	sp,sp,20
 5081b94:	f800283a 	ret

05081b98 <myprintf_hex_array>:
 5081b98:	defff704 	addi	sp,sp,-36
 5081b9c:	dfc00815 	stw	ra,32(sp)
 5081ba0:	df000715 	stw	fp,28(sp)
 5081ba4:	df000704 	addi	fp,sp,28
 5081ba8:	e13ffe15 	stw	r4,-8(fp)
 5081bac:	e17fff15 	stw	r5,-4(fp)
 5081bb0:	e03ff915 	stw	zero,-28(fp)
 5081bb4:	00001106 	br	5081bfc <myprintf_hex_array+0x64>
 5081bb8:	e0bff917 	ldw	r2,-28(fp)
 5081bbc:	e0fffe17 	ldw	r3,-8(fp)
 5081bc0:	1885883a 	add	r2,r3,r2
 5081bc4:	10800003 	ldbu	r2,0(r2)
 5081bc8:	10c03fcc 	andi	r3,r2,255
 5081bcc:	e0bffa04 	addi	r2,fp,-24
 5081bd0:	180d883a 	mov	r6,r3
 5081bd4:	01414274 	movhi	r5,1289
 5081bd8:	29576f04 	addi	r5,r5,23996
 5081bdc:	1009883a 	mov	r4,r2
 5081be0:	50851a00 	call	50851a0 <sprintf>
 5081be4:	e0bffa04 	addi	r2,fp,-24
 5081be8:	1009883a 	mov	r4,r2
 5081bec:	5081b2c0 	call	5081b2c <myprintf>
 5081bf0:	e0bff917 	ldw	r2,-28(fp)
 5081bf4:	10800044 	addi	r2,r2,1
 5081bf8:	e0bff915 	stw	r2,-28(fp)
 5081bfc:	e0fff917 	ldw	r3,-28(fp)
 5081c00:	e0bfff17 	ldw	r2,-4(fp)
 5081c04:	18bfec16 	blt	r3,r2,5081bb8 <myprintf_hex_array+0x20>
 5081c08:	e0bfff17 	ldw	r2,-4(fp)
 5081c0c:	e037883a 	mov	sp,fp
 5081c10:	dfc00117 	ldw	ra,4(sp)
 5081c14:	df000017 	ldw	fp,0(sp)
 5081c18:	dec00204 	addi	sp,sp,8
 5081c1c:	f800283a 	ret

05081c20 <myprintf_dword_array>:
 5081c20:	defff704 	addi	sp,sp,-36
 5081c24:	dfc00815 	stw	ra,32(sp)
 5081c28:	df000715 	stw	fp,28(sp)
 5081c2c:	df000704 	addi	fp,sp,28
 5081c30:	e13ffe15 	stw	r4,-8(fp)
 5081c34:	e17fff15 	stw	r5,-4(fp)
 5081c38:	e03ff915 	stw	zero,-28(fp)
 5081c3c:	00001306 	br	5081c8c <myprintf_dword_array+0x6c>
 5081c40:	e0bff917 	ldw	r2,-28(fp)
 5081c44:	1085883a 	add	r2,r2,r2
 5081c48:	1085883a 	add	r2,r2,r2
 5081c4c:	1007883a 	mov	r3,r2
 5081c50:	e0bffe17 	ldw	r2,-8(fp)
 5081c54:	10c5883a 	add	r2,r2,r3
 5081c58:	10c00017 	ldw	r3,0(r2)
 5081c5c:	e0bffa04 	addi	r2,fp,-24
 5081c60:	180d883a 	mov	r6,r3
 5081c64:	01414274 	movhi	r5,1289
 5081c68:	29577104 	addi	r5,r5,24004
 5081c6c:	1009883a 	mov	r4,r2
 5081c70:	50851a00 	call	50851a0 <sprintf>
 5081c74:	e0bffa04 	addi	r2,fp,-24
 5081c78:	1009883a 	mov	r4,r2
 5081c7c:	5081b2c0 	call	5081b2c <myprintf>
 5081c80:	e0bff917 	ldw	r2,-28(fp)
 5081c84:	10800044 	addi	r2,r2,1
 5081c88:	e0bff915 	stw	r2,-28(fp)
 5081c8c:	e0fff917 	ldw	r3,-28(fp)
 5081c90:	e0bfff17 	ldw	r2,-4(fp)
 5081c94:	18bfea16 	blt	r3,r2,5081c40 <myprintf_dword_array+0x20>
 5081c98:	e0bfff17 	ldw	r2,-4(fp)
 5081c9c:	e037883a 	mov	sp,fp
 5081ca0:	dfc00117 	ldw	ra,4(sp)
 5081ca4:	df000017 	ldw	fp,0(sp)
 5081ca8:	dec00204 	addi	sp,sp,8
 5081cac:	f800283a 	ret

05081cb0 <ui_is_mic_record>:
int record_sample_rate;

///////////////////////////////////////////////////////////////////////////////
//////////// Internal function implement(body) ////////////////////////////////
///////////////////////////////////////////////////////////////////////////////
bool ui_is_mic_record(void){
 5081cb0:	defffe04 	addi	sp,sp,-8
 5081cb4:	df000115 	stw	fp,4(sp)
 5081cb8:	df000104 	addi	fp,sp,4
    bool bMicRecord;
    bMicRecord = (IORD(SW_BASE, 0) & 0x01)?FALSE:TRUE;
 5081cbc:	00810034 	movhi	r2,1024
 5081cc0:	10801004 	addi	r2,r2,64
 5081cc4:	10800037 	ldwio	r2,0(r2)
 5081cc8:	1080004c 	andi	r2,r2,1
 5081ccc:	1005003a 	cmpeq	r2,r2,zero
 5081cd0:	10803fcc 	andi	r2,r2,255
 5081cd4:	e0bfff15 	stw	r2,-4(fp)
    return bMicRecord;
 5081cd8:	e0bfff17 	ldw	r2,-4(fp)
}
 5081cdc:	e037883a 	mov	sp,fp
 5081ce0:	df000017 	ldw	fp,0(sp)
 5081ce4:	dec00104 	addi	sp,sp,4
 5081ce8:	f800283a 	ret

05081cec <ui_is_mic_boost>:

bool ui_is_mic_boost(void){
 5081cec:	defffe04 	addi	sp,sp,-8
 5081cf0:	df000115 	stw	fp,4(sp)
 5081cf4:	df000104 	addi	fp,sp,4
    bool bMicBoost;
    bMicBoost = (IORD(SW_BASE, 0) & (0x01 << 1))?TRUE:FALSE;
 5081cf8:	00810034 	movhi	r2,1024
 5081cfc:	10801004 	addi	r2,r2,64
 5081d00:	10800037 	ldwio	r2,0(r2)
 5081d04:	1080008c 	andi	r2,r2,2
 5081d08:	1004c03a 	cmpne	r2,r2,zero
 5081d0c:	10803fcc 	andi	r2,r2,255
 5081d10:	e0bfff15 	stw	r2,-4(fp)
    return bMicBoost;
 5081d14:	e0bfff17 	ldw	r2,-4(fp)
}
 5081d18:	e037883a 	mov	sp,fp
 5081d1c:	df000017 	ldw	fp,0(sp)
 5081d20:	dec00104 	addi	sp,sp,4
 5081d24:	f800283a 	ret

05081d28 <ui_is_dac_zero_cross>:

bool ui_is_dac_zero_cross(void){
 5081d28:	defffe04 	addi	sp,sp,-8
 5081d2c:	df000115 	stw	fp,4(sp)
 5081d30:	df000104 	addi	fp,sp,4
    bool bZeroCross;
    bZeroCross = (IORD(SW_BASE, 0) & (0x01 << 2))?TRUE:FALSE;
 5081d34:	00810034 	movhi	r2,1024
 5081d38:	10801004 	addi	r2,r2,64
 5081d3c:	10800037 	ldwio	r2,0(r2)
 5081d40:	1080010c 	andi	r2,r2,4
 5081d44:	1004c03a 	cmpne	r2,r2,zero
 5081d48:	10803fcc 	andi	r2,r2,255
 5081d4c:	e0bfff15 	stw	r2,-4(fp)
    return bZeroCross;
 5081d50:	e0bfff17 	ldw	r2,-4(fp)
}
 5081d54:	e037883a 	mov	sp,fp
 5081d58:	df000017 	ldw	fp,0(sp)
 5081d5c:	dec00104 	addi	sp,sp,4
 5081d60:	f800283a 	ret

05081d64 <ui_get_sample_rate>:

int ui_get_sample_rate(void){
 5081d64:	defffd04 	addi	sp,sp,-12
 5081d68:	df000215 	stw	fp,8(sp)
 5081d6c:	df000204 	addi	fp,sp,8
    int sample_rate = 96000;
 5081d70:	00800074 	movhi	r2,1
 5081d74:	109dc004 	addi	r2,r2,30464
 5081d78:	e0bffe15 	stw	r2,-8(fp)
    alt_u32 mask;
    mask = IORD(SW_BASE, 0);
 5081d7c:	00810034 	movhi	r2,1024
 5081d80:	10801004 	addi	r2,r2,64
 5081d84:	10800037 	ldwio	r2,0(r2)
 5081d88:	e0bfff15 	stw	r2,-4(fp)
    mask = (mask >> 3) & 0x07;
 5081d8c:	e0bfff17 	ldw	r2,-4(fp)
 5081d90:	1004d0fa 	srli	r2,r2,3
 5081d94:	108001cc 	andi	r2,r2,7
 5081d98:	e0bfff15 	stw	r2,-4(fp)
    if (mask == 1)
 5081d9c:	e0bfff17 	ldw	r2,-4(fp)
 5081da0:	10800058 	cmpnei	r2,r2,1
 5081da4:	1000031e 	bne	r2,zero,5081db4 <ui_get_sample_rate+0x50>
        sample_rate = 48000;
 5081da8:	00aee014 	movui	r2,48000
 5081dac:	e0bffe15 	stw	r2,-8(fp)
 5081db0:	00001106 	br	5081df8 <ui_get_sample_rate+0x94>
    else if (mask == 2)
 5081db4:	e0bfff17 	ldw	r2,-4(fp)
 5081db8:	10800098 	cmpnei	r2,r2,2
 5081dbc:	1000031e 	bne	r2,zero,5081dcc <ui_get_sample_rate+0x68>
        sample_rate = 44100;
 5081dc0:	00ab1114 	movui	r2,44100
 5081dc4:	e0bffe15 	stw	r2,-8(fp)
 5081dc8:	00000b06 	br	5081df8 <ui_get_sample_rate+0x94>
    else if (mask == 3)
 5081dcc:	e0bfff17 	ldw	r2,-4(fp)
 5081dd0:	108000d8 	cmpnei	r2,r2,3
 5081dd4:	1000031e 	bne	r2,zero,5081de4 <ui_get_sample_rate+0x80>
        sample_rate = 32000;
 5081dd8:	009f4004 	movi	r2,32000
 5081ddc:	e0bffe15 	stw	r2,-8(fp)
 5081de0:	00000506 	br	5081df8 <ui_get_sample_rate+0x94>
    else if (mask == 4)
 5081de4:	e0bfff17 	ldw	r2,-4(fp)
 5081de8:	10800118 	cmpnei	r2,r2,4
 5081dec:	1000021e 	bne	r2,zero,5081df8 <ui_get_sample_rate+0x94>
        sample_rate = 8000;
 5081df0:	0087d004 	movi	r2,8000
 5081df4:	e0bffe15 	stw	r2,-8(fp)
    return sample_rate;
 5081df8:	e0bffe17 	ldw	r2,-8(fp)
}
 5081dfc:	e037883a 	mov	sp,fp
 5081e00:	df000017 	ldw	fp,0(sp)
 5081e04:	dec00104 	addi	sp,sp,4
 5081e08:	f800283a 	ret

05081e0c <button_monitor_isr>:

void button_monitor_isr(void* context, alt_u32 id){
 5081e0c:	defffc04 	addi	sp,sp,-16
 5081e10:	df000315 	stw	fp,12(sp)
 5081e14:	df000304 	addi	fp,sp,12
 5081e18:	e13ffe15 	stw	r4,-8(fp)
 5081e1c:	e17fff15 	stw	r5,-4(fp)
    volatile alt_u32* pPressedMask = (volatile alt_u32*)context;
 5081e20:	e0bffe17 	ldw	r2,-8(fp)
 5081e24:	e0bffd15 	stw	r2,-12(fp)
    *pPressedMask |= IORD_ALTERA_AVALON_PIO_EDGE_CAP(KEY_BASE) & 0x0F;  // 4-button
 5081e28:	00810034 	movhi	r2,1024
 5081e2c:	10801b04 	addi	r2,r2,108
 5081e30:	10800037 	ldwio	r2,0(r2)
 5081e34:	10c003cc 	andi	r3,r2,15
 5081e38:	e0bffd17 	ldw	r2,-12(fp)
 5081e3c:	10800017 	ldw	r2,0(r2)
 5081e40:	10c6b03a 	or	r3,r2,r3
 5081e44:	e0bffd17 	ldw	r2,-12(fp)
 5081e48:	10c00015 	stw	r3,0(r2)

    IOWR_ALTERA_AVALON_PIO_EDGE_CAP(KEY_BASE,0);
 5081e4c:	0007883a 	mov	r3,zero
 5081e50:	00810034 	movhi	r2,1024
 5081e54:	10801b04 	addi	r2,r2,108
 5081e58:	10c00035 	stwio	r3,0(r2)
}
 5081e5c:	0001883a 	nop
 5081e60:	e037883a 	mov	sp,fp
 5081e64:	df000017 	ldw	fp,0(sp)
 5081e68:	dec00104 	addi	sp,sp,4
 5081e6c:	f800283a 	ret

05081e70 <button_monitor_start>:

bool button_monitor_start(volatile alt_u32 *pPressedMask){
 5081e70:	defffc04 	addi	sp,sp,-16
 5081e74:	dfc00315 	stw	ra,12(sp)
 5081e78:	df000215 	stw	fp,8(sp)
 5081e7c:	df000204 	addi	fp,sp,8
 5081e80:	e13fff15 	stw	r4,-4(fp)
    bool bSuccess = TRUE;
 5081e84:	00800044 	movi	r2,1
 5081e88:	e0bffe15 	stw	r2,-8(fp)
    // enable interrupt
    IOWR_ALTERA_AVALON_PIO_IRQ_MASK(KEY_BASE, 0x0F); // 4-button
 5081e8c:	00c003c4 	movi	r3,15
 5081e90:	00810034 	movhi	r2,1024
 5081e94:	10801a04 	addi	r2,r2,104
 5081e98:	10c00035 	stwio	r3,0(r2)

    // Reset the edge catpure register
    IOWR_ALTERA_AVALON_PIO_EDGE_CAP(KEY_BASE,0);
 5081e9c:	0007883a 	mov	r3,zero
 5081ea0:	00810034 	movhi	r2,1024
 5081ea4:	10801b04 	addi	r2,r2,108
 5081ea8:	10c00035 	stwio	r3,0(r2)

    // register IRQ
    if (bSuccess && (alt_irq_register(KEY_IRQ, (void *)pPressedMask, button_monitor_isr) != 0)){
 5081eac:	e0bffe17 	ldw	r2,-8(fp)
 5081eb0:	10000a26 	beq	r2,zero,5081edc <button_monitor_start+0x6c>
 5081eb4:	01814234 	movhi	r6,1288
 5081eb8:	31878304 	addi	r6,r6,7692
 5081ebc:	e17fff17 	ldw	r5,-4(fp)
 5081ec0:	01000084 	movi	r4,2
 5081ec4:	50933cc0 	call	50933cc <alt_irq_register>
 5081ec8:	10000426 	beq	r2,zero,5081edc <button_monitor_start+0x6c>
        printf("[SW-MONITOR]register button IRQ fail\r\n");
 5081ecc:	01014274 	movhi	r4,1289
 5081ed0:	21177304 	addi	r4,r4,24012
 5081ed4:	50851340 	call	5085134 <puts>
        bSuccess = FALSE;
 5081ed8:	e03ffe15 	stw	zero,-8(fp)
    }

    return bSuccess;
 5081edc:	e0bffe17 	ldw	r2,-8(fp)
}
 5081ee0:	e037883a 	mov	sp,fp
 5081ee4:	dfc00117 	ldw	ra,4(sp)
 5081ee8:	df000017 	ldw	fp,0(sp)
 5081eec:	dec00204 	addi	sp,sp,8
 5081ef0:	f800283a 	ret

05081ef4 <init_audio>:




bool init_audio(AUDIO_FUNC audio_func){
 5081ef4:	defffb04 	addi	sp,sp,-20
 5081ef8:	dfc00415 	stw	ra,16(sp)
 5081efc:	df000315 	stw	fp,12(sp)
 5081f00:	df000304 	addi	fp,sp,12
 5081f04:	e13fff15 	stw	r4,-4(fp)
    bool bSuccess = TRUE;
 5081f08:	00800044 	movi	r2,1
 5081f0c:	e0bffd15 	stw	r2,-12(fp)
    AUDIO_InterfaceActive(FALSE);
 5081f10:	0009883a 	mov	r4,zero
 5081f14:	50804180 	call	5080418 <AUDIO_InterfaceActive>
    //
    if (audio_func == MIC_RECORD){
 5081f18:	e0bfff17 	ldw	r2,-4(fp)
 5081f1c:	10000f1e 	bne	r2,zero,5081f5c <init_audio+0x68>
        bool bMicBoost;
        bMicBoost = ui_is_mic_boost();
 5081f20:	5081cec0 	call	5081cec <ui_is_mic_boost>
 5081f24:	e0bffe15 	stw	r2,-8(fp)
        AUDIO_SetInputSource(SOURCE_MIC);
 5081f28:	0009883a 	mov	r4,zero
 5081f2c:	50808d80 	call	50808d8 <AUDIO_SetInputSource>
        AUDIO_DacEnableSoftMute(TRUE);
 5081f30:	01000044 	movi	r4,1
 5081f34:	50806e00 	call	50806e0 <AUDIO_DacEnableSoftMute>
        AUDIO_AdcEnableHighPassFilter(FALSE);
 5081f38:	0009883a 	mov	r4,zero
 5081f3c:	50804d80 	call	50804d8 <AUDIO_AdcEnableHighPassFilter>
        AUDIO_MicBoost(bMicBoost);
 5081f40:	e13ffe17 	ldw	r4,-8(fp)
 5081f44:	50804600 	call	5080460 <AUDIO_MicBoost>
        AUDIO_MicMute(FALSE);
 5081f48:	0009883a 	mov	r4,zero
 5081f4c:	508076c0 	call	508076c <AUDIO_MicMute>
        AUDIO_LineInMute(TRUE);
 5081f50:	01000044 	movi	r4,1
 5081f54:	50807f80 	call	50807f8 <AUDIO_LineInMute>
 5081f58:	00002606 	br	5081ff4 <init_audio+0x100>
    }else if (audio_func == LINEIN_RECORD){
 5081f5c:	e0bfff17 	ldw	r2,-4(fp)
 5081f60:	10800058 	cmpnei	r2,r2,1
 5081f64:	10000e1e 	bne	r2,zero,5081fa0 <init_audio+0xac>
        AUDIO_SetInputSource(SOURCE_LINEIN);
 5081f68:	01000044 	movi	r4,1
 5081f6c:	50808d80 	call	50808d8 <AUDIO_SetInputSource>
        AUDIO_DacEnableSoftMute(TRUE);
 5081f70:	01000044 	movi	r4,1
 5081f74:	50806e00 	call	50806e0 <AUDIO_DacEnableSoftMute>
        AUDIO_AdcEnableHighPassFilter(FALSE);
 5081f78:	0009883a 	mov	r4,zero
 5081f7c:	50804d80 	call	50804d8 <AUDIO_AdcEnableHighPassFilter>
        AUDIO_MicMute(TRUE);
 5081f80:	01000044 	movi	r4,1
 5081f84:	508076c0 	call	508076c <AUDIO_MicMute>
        AUDIO_LineInMute(FALSE);
 5081f88:	0009883a 	mov	r4,zero
 5081f8c:	50807f80 	call	50807f8 <AUDIO_LineInMute>
        AUDIO_SetLineInVol(0x17, 0x17);  // max 0x1F, min:0; 0x17: 0dB (assume max input is 2.0v rms)
 5081f90:	014005c4 	movi	r5,23
 5081f94:	010005c4 	movi	r4,23
 5081f98:	5080a4c0 	call	5080a4c <AUDIO_SetLineInVol>
 5081f9c:	00001506 	br	5081ff4 <init_audio+0x100>
    }else if (audio_func == LINEOUT_PLAY){
 5081fa0:	e0bfff17 	ldw	r2,-4(fp)
 5081fa4:	10800098 	cmpnei	r2,r2,2
 5081fa8:	1000121e 	bne	r2,zero,5081ff4 <init_audio+0x100>
        AUDIO_DacEnableSoftMute(TRUE);
 5081fac:	01000044 	movi	r4,1
 5081fb0:	50806e00 	call	50806e0 <AUDIO_DacEnableSoftMute>
        AUDIO_MicBoost(FALSE);
 5081fb4:	0009883a 	mov	r4,zero
 5081fb8:	50804600 	call	5080460 <AUDIO_MicBoost>
        AUDIO_MicMute(TRUE);
 5081fbc:	01000044 	movi	r4,1
 5081fc0:	508076c0 	call	508076c <AUDIO_MicMute>
        AUDIO_LineInMute(FALSE);
 5081fc4:	0009883a 	mov	r4,zero
 5081fc8:	50807f80 	call	50807f8 <AUDIO_LineInMute>
        AUDIO_DacEnableSoftMute(FALSE);
 5081fcc:	0009883a 	mov	r4,zero
 5081fd0:	50806e00 	call	50806e0 <AUDIO_DacEnableSoftMute>
        //AUDIO_DacDeemphasisControl(DEEMPHASIS_48K);
        AUDIO_DacEnableZeroCross(ui_is_dac_zero_cross());
 5081fd4:	5081d280 	call	5081d28 <ui_is_dac_zero_cross>
 5081fd8:	1009883a 	mov	r4,r2
 5081fdc:	50806000 	call	5080600 <AUDIO_DacEnableZeroCross>
        AUDIO_SetLineOutVol(LINEOUT_DEFUALT_VOL, LINEOUT_DEFUALT_VOL); // max 7F, min: 30, 0x79: 0 db
 5081fe0:	01401e44 	movi	r5,121
 5081fe4:	01001e44 	movi	r4,121
 5081fe8:	5080b600 	call	5080b60 <AUDIO_SetLineOutVol>
        AUDIO_DacEnableSoftMute(FALSE);
 5081fec:	0009883a 	mov	r4,zero
 5081ff0:	50806e00 	call	50806e0 <AUDIO_DacEnableSoftMute>
    }

    if (record_sample_rate == 8000)
 5081ff4:	d0a6d117 	ldw	r2,-25788(gp)
 5081ff8:	1087d018 	cmpnei	r2,r2,8000
 5081ffc:	1000031e 	bne	r2,zero,508200c <init_audio+0x118>
        AUDIO_SetSampleRate(RATE_ADC8K_DAC8K);
 5082000:	010000c4 	movi	r4,3
 5082004:	50809680 	call	5080968 <AUDIO_SetSampleRate>
 5082008:	00001406 	br	508205c <init_audio+0x168>
    else if (record_sample_rate == 32000)
 508200c:	d0a6d117 	ldw	r2,-25788(gp)
 5082010:	109f4018 	cmpnei	r2,r2,32000
 5082014:	1000031e 	bne	r2,zero,5082024 <init_audio+0x130>
        AUDIO_SetSampleRate(RATE_ADC32K_DAC32K);
 5082018:	01000104 	movi	r4,4
 508201c:	50809680 	call	5080968 <AUDIO_SetSampleRate>
 5082020:	00000e06 	br	508205c <init_audio+0x168>
    else if (record_sample_rate == 48000)
 5082024:	d0e6d117 	ldw	r3,-25788(gp)
 5082028:	00aee014 	movui	r2,48000
 508202c:	1880031e 	bne	r3,r2,508203c <init_audio+0x148>
        AUDIO_SetSampleRate(RATE_ADC48K_DAC48K);
 5082030:	0009883a 	mov	r4,zero
 5082034:	50809680 	call	5080968 <AUDIO_SetSampleRate>
 5082038:	00000806 	br	508205c <init_audio+0x168>
    else if (record_sample_rate == 44100)
 508203c:	d0e6d117 	ldw	r3,-25788(gp)
 5082040:	00ab1114 	movui	r2,44100
 5082044:	1880031e 	bne	r3,r2,5082054 <init_audio+0x160>
        AUDIO_SetSampleRate(RATE_ADC44K1_DAC44K1);
 5082048:	01000184 	movi	r4,6
 508204c:	50809680 	call	5080968 <AUDIO_SetSampleRate>
 5082050:	00000206 	br	508205c <init_audio+0x168>
    else
        AUDIO_SetSampleRate(RATE_ADC96K_DAC96K);
 5082054:	01000144 	movi	r4,5
 5082058:	50809680 	call	5080968 <AUDIO_SetSampleRate>
    //
    AUDIO_InterfaceActive(TRUE);
 508205c:	01000044 	movi	r4,1
 5082060:	50804180 	call	5080418 <AUDIO_InterfaceActive>

    return bSuccess;
 5082064:	e0bffd17 	ldw	r2,-12(fp)
}
 5082068:	e037883a 	mov	sp,fp
 508206c:	dfc00117 	ldw	ra,4(sp)
 5082070:	df000017 	ldw	fp,0(sp)
 5082074:	dec00204 	addi	sp,sp,8
 5082078:	f800283a 	ret

0508207c <display_time_elapsed>:


void display_time_elapsed(alt_u32 sample_num){
 508207c:	defffc04 	addi	sp,sp,-16
 5082080:	dfc00315 	stw	ra,12(sp)
 5082084:	df000215 	stw	fp,8(sp)
 5082088:	df000204 	addi	fp,sp,8
 508208c:	e13fff15 	stw	r4,-4(fp)
    // assume sample rate is 48K
    alt_u32 time;
    time = sample_num * 100 / record_sample_rate;
 5082090:	e0bfff17 	ldw	r2,-4(fp)
 5082094:	10801924 	muli	r2,r2,100
 5082098:	d0e6d117 	ldw	r3,-25788(gp)
 508209c:	180b883a 	mov	r5,r3
 50820a0:	1009883a 	mov	r4,r2
 50820a4:	50831b40 	call	50831b4 <__udivsi3>
 50820a8:	e0bffe15 	stw	r2,-8(fp)
    SEG7_Decimal(time, 0x04);
 50820ac:	01400104 	movi	r5,4
 50820b0:	e13ffe17 	ldw	r4,-8(fp)
 50820b4:	5081a0c0 	call	5081a0c <SEG7_Decimal>
}
 50820b8:	0001883a 	nop
 50820bc:	e037883a 	mov	sp,fp
 50820c0:	dfc00117 	ldw	ra,4(sp)
 50820c4:	df000017 	ldw	fp,0(sp)
 50820c8:	dec00204 	addi	sp,sp,8
 50820cc:	f800283a 	ret

050820d0 <show_power>:

void show_power(short sample){
 50820d0:	defffc04 	addi	sp,sp,-16
 50820d4:	dfc00315 	stw	ra,12(sp)
 50820d8:	df000215 	stw	fp,8(sp)
 50820dc:	df000204 	addi	fp,sp,8
 50820e0:	2005883a 	mov	r2,r4
 50820e4:	e0bfff0d 	sth	r2,-4(fp)
    static alt_u32 sum = 0;
    static alt_u16   cnt = 0;
    alt_u16 power = 0;
 50820e8:	e03ffe0d 	sth	zero,-8(fp)
    sum += (sample >= 0)?sample:-sample;
 50820ec:	e0bfff0f 	ldh	r2,-4(fp)
 50820f0:	10000216 	blt	r2,zero,50820fc <show_power+0x2c>
 50820f4:	e0bfff0f 	ldh	r2,-4(fp)
 50820f8:	00000206 	br	5082104 <show_power+0x34>
 50820fc:	e0bfff0f 	ldh	r2,-4(fp)
 5082100:	0085c83a 	sub	r2,zero,r2
 5082104:	d0e6cf17 	ldw	r3,-25796(gp)
 5082108:	10c5883a 	add	r2,r2,r3
 508210c:	d0a6cf15 	stw	r2,-25796(gp)
    cnt++;
 5082110:	d0a6d00b 	ldhu	r2,-25792(gp)
 5082114:	10800044 	addi	r2,r2,1
 5082118:	d0a6d00d 	sth	r2,-25792(gp)
    if (cnt == 32){
 508211c:	d0a6d00b 	ldhu	r2,-25792(gp)
 5082120:	10bfffcc 	andi	r2,r2,65535
 5082124:	10800818 	cmpnei	r2,r2,32
 5082128:	1000091e 	bne	r2,zero,5082150 <show_power+0x80>
        power = sum >> 13;
 508212c:	d0a6cf17 	ldw	r2,-25796(gp)
 5082130:	1004d37a 	srli	r2,r2,13
 5082134:	e0bffe0d 	sth	r2,-8(fp)
        LED_LightCount(power);
 5082138:	e0bffe0b 	ldhu	r2,-8(fp)
 508213c:	10803fcc 	andi	r2,r2,255
 5082140:	1009883a 	mov	r4,r2
 5082144:	50817940 	call	5081794 <LED_LightCount>
        sum = 0;
 5082148:	d026cf15 	stw	zero,-25796(gp)
        cnt = 0;
 508214c:	d026d00d 	sth	zero,-25792(gp)
    }
}
 5082150:	0001883a 	nop
 5082154:	e037883a 	mov	sp,fp
 5082158:	dfc00117 	ldw	ra,4(sp)
 508215c:	df000017 	ldw	fp,0(sp)
 5082160:	dec00204 	addi	sp,sp,8
 5082164:	f800283a 	ret

05082168 <init>:


bool init(void){
 5082168:	defffd04 	addi	sp,sp,-12
 508216c:	dfc00215 	stw	ra,8(sp)
 5082170:	df000115 	stw	fp,4(sp)
 5082174:	df000104 	addi	fp,sp,4
    bool bSuccess = TRUE;
 5082178:	00800044 	movi	r2,1
 508217c:	e0bfff15 	stw	r2,-4(fp)

    SEG7_Clear();
 5082180:	50818080 	call	5081808 <SEG7_Clear>


    SEG7_Decimal(0x00000000, 0x00);
 5082184:	000b883a 	mov	r5,zero
 5082188:	0009883a 	mov	r4,zero
 508218c:	5081a0c0 	call	5081a0c <SEG7_Decimal>

    // prepare
    if (!AUDIO_Init()){
 5082190:	50802900 	call	5080290 <AUDIO_Init>
 5082194:	1000041e 	bne	r2,zero,50821a8 <init+0x40>

        printf("Audio Init Error\r\n");
 5082198:	01014274 	movhi	r4,1289
 508219c:	21177d04 	addi	r4,r4,24052
 50821a0:	50851340 	call	5085134 <puts>
        bSuccess = FALSE;
 50821a4:	e03fff15 	stw	zero,-4(fp)
    }


    return bSuccess;
 50821a8:	e0bfff17 	ldw	r2,-4(fp)
}
 50821ac:	e037883a 	mov	sp,fp
 50821b0:	dfc00117 	ldw	ra,4(sp)
 50821b4:	df000017 	ldw	fp,0(sp)
 50821b8:	dec00204 	addi	sp,sp,8
 50821bc:	f800283a 	ret

050821c0 <dump_record_data>:

void dump_record_data(alt_u32 *pData, alt_u32 len){
 50821c0:	defff804 	addi	sp,sp,-32
 50821c4:	dfc00715 	stw	ra,28(sp)
 50821c8:	df000615 	stw	fp,24(sp)
 50821cc:	df000604 	addi	fp,sp,24
 50821d0:	e13ffe15 	stw	r4,-8(fp)
 50821d4:	e17fff15 	stw	r5,-4(fp)
    short sample_l, sample_r, sample_max = 0;
 50821d8:	e03ffa0d 	sth	zero,-24(fp)
    alt_u32 data;
    int i;
    //return ;
    for(i=0;i<len;i++){
 50821dc:	e03ffb15 	stw	zero,-20(fp)
 50821e0:	00002d06 	br	5082298 <dump_record_data+0xd8>
        data = *pData++;
 50821e4:	e0bffe17 	ldw	r2,-8(fp)
 50821e8:	10c00104 	addi	r3,r2,4
 50821ec:	e0fffe15 	stw	r3,-8(fp)
 50821f0:	10800017 	ldw	r2,0(r2)
 50821f4:	e0bffc15 	stw	r2,-16(fp)
        sample_l = (short)((data >> 16) & 0xFFFF);
 50821f8:	e0bffc17 	ldw	r2,-16(fp)
 50821fc:	1004d43a 	srli	r2,r2,16
 5082200:	e0bffd0d 	sth	r2,-12(fp)
        sample_r = (short)(data & 0xFFFF);
 5082204:	e0bffc17 	ldw	r2,-16(fp)
 5082208:	e0bffd8d 	sth	r2,-10(fp)
        //printf("[%d]%d/%d\n", i, sample_l, sample_r);
        if (sample_l > 0 && sample_max <  sample_l)
 508220c:	e0bffd0f 	ldh	r2,-12(fp)
 5082210:	0080050e 	bge	zero,r2,5082228 <dump_record_data+0x68>
 5082214:	e0fffa0f 	ldh	r3,-24(fp)
 5082218:	e0bffd0f 	ldh	r2,-12(fp)
 508221c:	1880020e 	bge	r3,r2,5082228 <dump_record_data+0x68>
            sample_max = sample_l;
 5082220:	e0bffd0b 	ldhu	r2,-12(fp)
 5082224:	e0bffa0d 	sth	r2,-24(fp)
        if (sample_l < 0 && sample_max <  -sample_l)
 5082228:	e0bffd0f 	ldh	r2,-12(fp)
 508222c:	1000070e 	bge	r2,zero,508224c <dump_record_data+0x8c>
 5082230:	e0fffa0f 	ldh	r3,-24(fp)
 5082234:	e0bffd0f 	ldh	r2,-12(fp)
 5082238:	0085c83a 	sub	r2,zero,r2
 508223c:	1880030e 	bge	r3,r2,508224c <dump_record_data+0x8c>
            sample_max = -sample_l;
 5082240:	e0bffd0b 	ldhu	r2,-12(fp)
 5082244:	0085c83a 	sub	r2,zero,r2
 5082248:	e0bffa0d 	sth	r2,-24(fp)
        if (sample_r > 0 && sample_max <  sample_r)
 508224c:	e0bffd8f 	ldh	r2,-10(fp)
 5082250:	0080050e 	bge	zero,r2,5082268 <dump_record_data+0xa8>
 5082254:	e0fffa0f 	ldh	r3,-24(fp)
 5082258:	e0bffd8f 	ldh	r2,-10(fp)
 508225c:	1880020e 	bge	r3,r2,5082268 <dump_record_data+0xa8>
            sample_max = sample_r;
 5082260:	e0bffd8b 	ldhu	r2,-10(fp)
 5082264:	e0bffa0d 	sth	r2,-24(fp)
        if (sample_r < 0 && sample_max <  -sample_r)
 5082268:	e0bffd8f 	ldh	r2,-10(fp)
 508226c:	1000070e 	bge	r2,zero,508228c <dump_record_data+0xcc>
 5082270:	e0fffa0f 	ldh	r3,-24(fp)
 5082274:	e0bffd8f 	ldh	r2,-10(fp)
 5082278:	0085c83a 	sub	r2,zero,r2
 508227c:	1880030e 	bge	r3,r2,508228c <dump_record_data+0xcc>
            sample_max = -sample_r;
 5082280:	e0bffd8b 	ldhu	r2,-10(fp)
 5082284:	0085c83a 	sub	r2,zero,r2
 5082288:	e0bffa0d 	sth	r2,-24(fp)
void dump_record_data(alt_u32 *pData, alt_u32 len){
    short sample_l, sample_r, sample_max = 0;
    alt_u32 data;
    int i;
    //return ;
    for(i=0;i<len;i++){
 508228c:	e0bffb17 	ldw	r2,-20(fp)
 5082290:	10800044 	addi	r2,r2,1
 5082294:	e0bffb15 	stw	r2,-20(fp)
 5082298:	e0fffb17 	ldw	r3,-20(fp)
 508229c:	e0bfff17 	ldw	r2,-4(fp)
 50822a0:	18bfd036 	bltu	r3,r2,50821e4 <dump_record_data+0x24>
        if (sample_r > 0 && sample_max <  sample_r)
            sample_max = sample_r;
        if (sample_r < 0 && sample_max <  -sample_r)
            sample_max = -sample_r;
    }
    printf("max=%d\n", sample_max);
 50822a4:	e0bffa0f 	ldh	r2,-24(fp)
 50822a8:	100b883a 	mov	r5,r2
 50822ac:	01014274 	movhi	r4,1289
 50822b0:	21178204 	addi	r4,r4,24072
 50822b4:	50850380 	call	5085038 <printf>
}
 50822b8:	0001883a 	nop
 50822bc:	e037883a 	mov	sp,fp
 50822c0:	dfc00117 	ldw	ra,4(sp)
 50822c4:	df000017 	ldw	fp,0(sp)
 50822c8:	dec00204 	addi	sp,sp,8
 50822cc:	f800283a 	ret

050822d0 <show_menu>:
    "  LED:  Display audio singal strength.\n",
    "  SEG7: Display time elapsed for playing/recording.\n"
    "\n\n"
};

void show_menu(void){
 50822d0:	defffd04 	addi	sp,sp,-12
 50822d4:	dfc00215 	stw	ra,8(sp)
 50822d8:	df000115 	stw	fp,4(sp)
 50822dc:	df000104 	addi	fp,sp,4
    int i;
    for(i=0;i<sizeof(szMenu)/sizeof(szMenu[0]);i++)
 50822e0:	e03fff15 	stw	zero,-4(fp)
 50822e4:	00000a06 	br	5082310 <show_menu+0x40>
        printf(szMenu[i]);
 50822e8:	e0bfff17 	ldw	r2,-4(fp)
 50822ec:	100691fa 	slli	r3,r2,7
 50822f0:	00814274 	movhi	r2,1289
 50822f4:	10978404 	addi	r2,r2,24080
 50822f8:	1885883a 	add	r2,r3,r2
 50822fc:	1009883a 	mov	r4,r2
 5082300:	50850380 	call	5085038 <printf>
    "\n\n"
};

void show_menu(void){
    int i;
    for(i=0;i<sizeof(szMenu)/sizeof(szMenu[0]);i++)
 5082304:	e0bfff17 	ldw	r2,-4(fp)
 5082308:	10800044 	addi	r2,r2,1
 508230c:	e0bfff15 	stw	r2,-4(fp)
 5082310:	e0bfff17 	ldw	r2,-4(fp)
 5082314:	10800430 	cmpltui	r2,r2,16
 5082318:	103ff31e 	bne	r2,zero,50822e8 <show_menu+0x18>
        printf(szMenu[i]);
}
 508231c:	0001883a 	nop
 5082320:	e037883a 	mov	sp,fp
 5082324:	dfc00117 	ldw	ra,4(sp)
 5082328:	df000017 	ldw	fp,0(sp)
 508232c:	dec00204 	addi	sp,sp,8
 5082330:	f800283a 	ret

05082334 <main>:

int main()
{
 5082334:	defffe04 	addi	sp,sp,-8
 5082338:	dfc00115 	stw	ra,4(sp)
 508233c:	df000015 	stw	fp,0(sp)
 5082340:	d839883a 	mov	fp,sp
 5082344:	023ffff4 	movhi	r8,65535
 5082348:	4217d404 	addi	r8,r8,24400
 508234c:	da37883a 	add	sp,sp,r8
    typedef enum{
        ST_STANDY,
        ST_RECODING,
        ST_PLAYING
    }STATE;
    STATE state = ST_STANDY;
 5082350:	00bffff4 	movhi	r2,65535
 5082354:	1097d404 	addi	r2,r2,24400
 5082358:	1705883a 	add	r2,r2,fp
 508235c:	10000015 	stw	zero,0(r2)
    volatile alt_u32 button_mask=0;
 5082360:	00fffff4 	movhi	r3,65535
 5082364:	18d80f04 	addi	r3,r3,24636
 5082368:	1f07883a 	add	r3,r3,fp
 508236c:	18000015 	stw	zero,0(r3)
    bool bRecordPressed, bPlayPressed, bError = FALSE;
 5082370:	013ffff4 	movhi	r4,65535
 5082374:	2117d504 	addi	r4,r4,24404
 5082378:	2709883a 	add	r4,r4,fp
 508237c:	20000015 	stw	zero,0(r4)
    alt_u32 *pBuf, *pPlaying, *pRecording, RecordLen, PlayLen, data, try_cnt, buf_sample_size;
    alt_u16 ch_right, ch_left;



    printf("\nHello World\n");
 5082380:	01014274 	movhi	r4,1289
 5082384:	21198404 	addi	r4,r4,26128
 5082388:	50851340 	call	5085134 <puts>

    show_menu();
 508238c:	50822d00 	call	50822d0 <show_menu>
    if (!init())
 5082390:	50821680 	call	5082168 <init>
 5082394:	1000021e 	bne	r2,zero,50823a0 <main+0x6c>
        return 0;
 5082398:	0005883a 	mov	r2,zero
 508239c:	00030006 	br	5082fa0 <main+0xc6c>


#ifdef USE_SDRAM_FOR_DATA
    pBuf = (alt_u32 *)SDRAM_BASE;
 50823a0:	017ffff4 	movhi	r5,65535
 50823a4:	2957de04 	addi	r5,r5,24440
 50823a8:	2f0b883a 	add	r5,r5,fp
 50823ac:	28000015 	stw	zero,0(r5)
    buf_sample_size = SDRAM_SPAN/sizeof(alt_u32);
 50823b0:	00804034 	movhi	r2,256
 50823b4:	00fffff4 	movhi	r3,65535
 50823b8:	18d7df04 	addi	r3,r3,24444
 50823bc:	1f07883a 	add	r3,r3,fp
 50823c0:	18800015 	stw	r2,0(r3)
    #define MAX_FLT_LEN     17
#define MAX_FLT_LEN_2     11
    // buffer to hold all of the input samples
    #define BUFFER_LEN      (MAX_FLT_LEN - 1 + MAX_INPUT_LEN)

    double coeffs[ MAX_FLT_LEN ] =
 50823c4:	00814274 	movhi	r2,1289
 50823c8:	1099be04 	addi	r2,r2,26360
 50823cc:	013ffff4 	movhi	r4,65535
 50823d0:	21181104 	addi	r4,r4,24644
 50823d4:	e107883a 	add	r3,fp,r4
 50823d8:	1009883a 	mov	r4,r2
 50823dc:	00802204 	movi	r2,136
 50823e0:	100d883a 	mov	r6,r2
 50823e4:	200b883a 	mov	r5,r4
 50823e8:	1809883a 	mov	r4,r3
 50823ec:	5084d640 	call	5084d64 <memcpy>
			0.10699462890625,0.1240234375, 0.13018798828125,
			0.1240234375,0.10699462890625,0.083160400390625,
			0.0576171875,0.034942626953125,0.017974853515625,
			0.007354736328125, 0.0020751953125
    };
    double coeffs_2[ MAX_FLT_LEN_2 ] ={
 50823f0:	00814274 	movhi	r2,1289
 50823f4:	1099e004 	addi	r2,r2,26496
 50823f8:	017ffff4 	movhi	r5,65535
 50823fc:	29583304 	addi	r5,r5,24780
 5082400:	e147883a 	add	r3,fp,r5
 5082404:	1009883a 	mov	r4,r2
 5082408:	00801604 	movi	r2,88
 508240c:	100d883a 	mov	r6,r2
 5082410:	200b883a 	mov	r5,r4
 5082414:	1809883a 	mov	r4,r3
 5082418:	5084d640 	call	5084d64 <memcpy>
    double tudo[2000];
    double tudo_meio[2000];
    double floatOutput[1024];
    double vector[MAX_FLT_LEN];
    int vector_out[MAX_FLT_LEN];
    double final = 0;
 508241c:	00bffff4 	movhi	r2,65535
 5082420:	1097e004 	addi	r2,r2,24448
 5082424:	1705883a 	add	r2,r2,fp
 5082428:	10000015 	stw	zero,0(r2)
 508242c:	00fffff4 	movhi	r3,65535
 5082430:	18d7e104 	addi	r3,r3,24452
 5082434:	1f07883a 	add	r3,r3,fp
 5082438:	18000015 	stw	zero,0(r3)

    button_monitor_start(&button_mask);  // button IRQ
 508243c:	013ffff4 	movhi	r4,65535
 5082440:	21180f04 	addi	r4,r4,24636
 5082444:	e105883a 	add	r2,fp,r4
 5082448:	1009883a 	mov	r4,r2
 508244c:	5081e700 	call	5081e70 <button_monitor_start>
    printf("ready\n");
 5082450:	01014274 	movhi	r4,1289
 5082454:	21198804 	addi	r4,r4,26144
 5082458:	50851340 	call	5085134 <puts>


    // test
    record_sample_rate = ui_get_sample_rate();
 508245c:	5081d640 	call	5081d64 <ui_get_sample_rate>
 5082460:	d0a6d115 	stw	r2,-25788(gp)
    RecordLen = buf_sample_size;
 5082464:	017ffff4 	movhi	r5,65535
 5082468:	2957df04 	addi	r5,r5,24444
 508246c:	2f0b883a 	add	r5,r5,fp
 5082470:	28800017 	ldw	r2,0(r5)
 5082474:	00fffff4 	movhi	r3,65535
 5082478:	18d7d804 	addi	r3,r3,24416
 508247c:	1f07883a 	add	r3,r3,fp
 5082480:	18800015 	stw	r2,0(r3)
    //
    int j = 0;
 5082484:	013ffff4 	movhi	r4,65535
 5082488:	2117db04 	addi	r4,r4,24428
 508248c:	2709883a 	add	r4,r4,fp
 5082490:	20000015 	stw	zero,0(r4)
    int lugar = 0;
 5082494:	017ffff4 	movhi	r5,65535
 5082498:	2957e204 	addi	r5,r5,24456
 508249c:	2f0b883a 	add	r5,r5,fp
 50824a0:	28000015 	stw	zero,0(r5)

    // infinite loop
    while(1){
        //
        bRecordPressed = (button_mask & RECORD_BUTTON)?TRUE:FALSE;
 50824a4:	00fffff4 	movhi	r3,65535
 50824a8:	18d80f04 	addi	r3,r3,24636
 50824ac:	1f07883a 	add	r3,r3,fp
 50824b0:	18800017 	ldw	r2,0(r3)
 50824b4:	1080020c 	andi	r2,r2,8
 50824b8:	1004c03a 	cmpne	r2,r2,zero
 50824bc:	10803fcc 	andi	r2,r2,255
 50824c0:	013ffff4 	movhi	r4,65535
 50824c4:	2117e304 	addi	r4,r4,24460
 50824c8:	2709883a 	add	r4,r4,fp
 50824cc:	20800015 	stw	r2,0(r4)
        bPlayPressed = (button_mask & PLAY_BUTTON)?TRUE:FALSE;
 50824d0:	017ffff4 	movhi	r5,65535
 50824d4:	29580f04 	addi	r5,r5,24636
 50824d8:	2f0b883a 	add	r5,r5,fp
 50824dc:	28800017 	ldw	r2,0(r5)
 50824e0:	1080010c 	andi	r2,r2,4
 50824e4:	1004c03a 	cmpne	r2,r2,zero
 50824e8:	10803fcc 	andi	r2,r2,255
 50824ec:	00fffff4 	movhi	r3,65535
 50824f0:	18d7e404 	addi	r3,r3,24464
 50824f4:	1f07883a 	add	r3,r3,fp
 50824f8:	18800015 	stw	r2,0(r3)
        if (bPlayPressed || bRecordPressed)
 50824fc:	013ffff4 	movhi	r4,65535
 5082500:	2117e404 	addi	r4,r4,24464
 5082504:	2709883a 	add	r4,r4,fp
 5082508:	20800017 	ldw	r2,0(r4)
 508250c:	1000051e 	bne	r2,zero,5082524 <main+0x1f0>
 5082510:	017ffff4 	movhi	r5,65535
 5082514:	2957e304 	addi	r5,r5,24460
 5082518:	2f0b883a 	add	r5,r5,fp
 508251c:	28800017 	ldw	r2,0(r5)
 5082520:	10000426 	beq	r2,zero,5082534 <main+0x200>
            button_mask = 0;
 5082524:	00bffff4 	movhi	r2,65535
 5082528:	10980f04 	addi	r2,r2,24636
 508252c:	1705883a 	add	r2,r2,fp
 5082530:	10000015 	stw	zero,0(r2)
        if (state == ST_STANDY){
 5082534:	00fffff4 	movhi	r3,65535
 5082538:	18d7d404 	addi	r3,r3,24400
 508253c:	1f07883a 	add	r3,r3,fp
 5082540:	18800017 	ldw	r2,0(r3)
 5082544:	1000791e 	bne	r2,zero,508272c <main+0x3f8>
            if (bRecordPressed){
 5082548:	013ffff4 	movhi	r4,65535
 508254c:	2117e304 	addi	r4,r4,24460
 5082550:	2709883a 	add	r4,r4,fp
 5082554:	20800017 	ldw	r2,0(r4)
 5082558:	10004326 	beq	r2,zero,5082668 <main+0x334>
                bool bMicRecord;
                record_sample_rate = ui_get_sample_rate();
 508255c:	5081d640 	call	5081d64 <ui_get_sample_rate>
 5082560:	d0a6d115 	stw	r2,-25788(gp)
                bMicRecord = ui_is_mic_record();
 5082564:	5081cb00 	call	5081cb0 <ui_is_mic_record>
 5082568:	017ffff4 	movhi	r5,65535
 508256c:	2957e504 	addi	r5,r5,24468
 5082570:	2f0b883a 	add	r5,r5,fp
 5082574:	28800015 	stw	r2,0(r5)
                AUDIO_FifoClear();
 5082578:	5080fa00 	call	5080fa0 <AUDIO_FifoClear>
                init_audio(bMicRecord?MIC_RECORD:LINEIN_RECORD);
 508257c:	00fffff4 	movhi	r3,65535
 5082580:	18d7e504 	addi	r3,r3,24468
 5082584:	1f07883a 	add	r3,r3,fp
 5082588:	18800017 	ldw	r2,0(r3)
 508258c:	1005003a 	cmpeq	r2,r2,zero
 5082590:	10803fcc 	andi	r2,r2,255
 5082594:	1009883a 	mov	r4,r2
 5082598:	5081ef40 	call	5081ef4 <init_audio>
                AUDIO_FifoClear();
 508259c:	5080fa00 	call	5080fa0 <AUDIO_FifoClear>
                state = ST_RECODING;
 50825a0:	00800044 	movi	r2,1
 50825a4:	013ffff4 	movhi	r4,65535
 50825a8:	2117d404 	addi	r4,r4,24400
 50825ac:	2709883a 	add	r4,r4,fp
 50825b0:	20800015 	stw	r2,0(r4)
                if (bMicRecord){
 50825b4:	017ffff4 	movhi	r5,65535
 50825b8:	2957e504 	addi	r5,r5,24468
 50825bc:	2f0b883a 	add	r5,r5,fp
 50825c0:	28800017 	ldw	r2,0(r5)
 50825c4:	10001626 	beq	r2,zero,5082620 <main+0x2ec>
                    bool bMicBoost = ui_is_mic_boost();
 50825c8:	5081cec0 	call	5081cec <ui_is_mic_boost>
 50825cc:	00fffff4 	movhi	r3,65535
 50825d0:	18d7e604 	addi	r3,r3,24472
 50825d4:	1f07883a 	add	r3,r3,fp
 50825d8:	18800015 	stw	r2,0(r3)
                    printf("MIC %srecording (sample rate = %d)...\r\n", bMicBoost?"Boost ":"", record_sample_rate);
 50825dc:	013ffff4 	movhi	r4,65535
 50825e0:	2117e604 	addi	r4,r4,24472
 50825e4:	2709883a 	add	r4,r4,fp
 50825e8:	20800017 	ldw	r2,0(r4)
 50825ec:	10000326 	beq	r2,zero,50825fc <main+0x2c8>
 50825f0:	00814274 	movhi	r2,1289
 50825f4:	10998a04 	addi	r2,r2,26152
 50825f8:	00000206 	br	5082604 <main+0x2d0>
 50825fc:	00814274 	movhi	r2,1289
 5082600:	10998c04 	addi	r2,r2,26160
 5082604:	d0e6d117 	ldw	r3,-25788(gp)
 5082608:	180d883a 	mov	r6,r3
 508260c:	100b883a 	mov	r5,r2
 5082610:	01014274 	movhi	r4,1289
 5082614:	21198d04 	addi	r4,r4,26164
 5082618:	50850380 	call	5085038 <printf>
 508261c:	00000506 	br	5082634 <main+0x300>

                }else{
                    printf("LINE-IN recording (sample rate = %d)...\r\n", record_sample_rate);
 5082620:	d0a6d117 	ldw	r2,-25788(gp)
 5082624:	100b883a 	mov	r5,r2
 5082628:	01014274 	movhi	r4,1289
 508262c:	21199704 	addi	r4,r4,26204
 5082630:	50850380 	call	5085038 <printf>


                }
                pRecording = pBuf;
 5082634:	017ffff4 	movhi	r5,65535
 5082638:	2957de04 	addi	r5,r5,24440
 508263c:	2f0b883a 	add	r5,r5,fp
 5082640:	28800017 	ldw	r2,0(r5)
 5082644:	00fffff4 	movhi	r3,65535
 5082648:	18d7d704 	addi	r3,r3,24412
 508264c:	1f07883a 	add	r3,r3,fp
 5082650:	18800015 	stw	r2,0(r3)
                RecordLen = 0;
 5082654:	013ffff4 	movhi	r4,65535
 5082658:	2117d804 	addi	r4,r4,24416
 508265c:	2709883a 	add	r4,r4,fp
 5082660:	20000015 	stw	zero,0(r4)
 5082664:	00002c06 	br	5082718 <main+0x3e4>
            }else if (bPlayPressed){
 5082668:	017ffff4 	movhi	r5,65535
 508266c:	2957e404 	addi	r5,r5,24464
 5082670:	2f0b883a 	add	r5,r5,fp
 5082674:	28800017 	ldw	r2,0(r5)
 5082678:	10002726 	beq	r2,zero,5082718 <main+0x3e4>
                if (RecordLen == 0){
 508267c:	00fffff4 	movhi	r3,65535
 5082680:	18d7d804 	addi	r3,r3,24416
 5082684:	1f07883a 	add	r3,r3,fp
 5082688:	18800017 	ldw	r2,0(r3)
 508268c:	1000041e 	bne	r2,zero,50826a0 <main+0x36c>
                    printf("Please record before play audio\r\n");
 5082690:	01014274 	movhi	r4,1289
 5082694:	2119a204 	addi	r4,r4,26248
 5082698:	50851340 	call	5085134 <puts>
 508269c:	00001e06 	br	5082718 <main+0x3e4>

                }else{
                    bool bZeroCross = ui_is_dac_zero_cross();
 50826a0:	5081d280 	call	5081d28 <ui_is_dac_zero_cross>
 50826a4:	013ffff4 	movhi	r4,65535
 50826a8:	2117e704 	addi	r4,r4,24476
 50826ac:	2709883a 	add	r4,r4,fp
 50826b0:	20800015 	stw	r2,0(r4)
                    AUDIO_FifoClear();
 50826b4:	5080fa00 	call	5080fa0 <AUDIO_FifoClear>
                    init_audio(LINEOUT_PLAY);
 50826b8:	01000084 	movi	r4,2
 50826bc:	5081ef40 	call	5081ef4 <init_audio>
                    state = ST_PLAYING;
 50826c0:	00800084 	movi	r2,2
 50826c4:	017ffff4 	movhi	r5,65535
 50826c8:	2957d404 	addi	r5,r5,24400
 50826cc:	2f0b883a 	add	r5,r5,fp
 50826d0:	28800015 	stw	r2,0(r5)
                    printf("playing (sample rate = %d)...\r\n", record_sample_rate);
 50826d4:	d0a6d117 	ldw	r2,-25788(gp)
 50826d8:	100b883a 	mov	r5,r2
 50826dc:	01014274 	movhi	r4,1289
 50826e0:	2119ab04 	addi	r4,r4,26284
 50826e4:	50850380 	call	5085038 <printf>


                    pPlaying = pBuf;
 50826e8:	00fffff4 	movhi	r3,65535
 50826ec:	18d7de04 	addi	r3,r3,24440
 50826f0:	1f07883a 	add	r3,r3,fp
 50826f4:	18800017 	ldw	r2,0(r3)
 50826f8:	013ffff4 	movhi	r4,65535
 50826fc:	2117d604 	addi	r4,r4,24408
 5082700:	2709883a 	add	r4,r4,fp
 5082704:	20800015 	stw	r2,0(r4)
                    PlayLen = 0;
 5082708:	017ffff4 	movhi	r5,65535
 508270c:	2957d904 	addi	r5,r5,24420
 5082710:	2f0b883a 	add	r5,r5,fp
 5082714:	28000015 	stw	zero,0(r5)
                }
            }
            bError = FALSE;
 5082718:	00bffff4 	movhi	r2,65535
 508271c:	1097d504 	addi	r2,r2,24404
 5082720:	1705883a 	add	r2,r2,fp
 5082724:	10000015 	stw	zero,0(r2)
 5082728:	003f5e06 	br	50824a4 <main+0x170>
        }else if (state == ST_RECODING){
 508272c:	00fffff4 	movhi	r3,65535
 5082730:	18d7d404 	addi	r3,r3,24400
 5082734:	1f07883a 	add	r3,r3,fp
 5082738:	18800017 	ldw	r2,0(r3)
 508273c:	10800058 	cmpnei	r2,r2,1
 5082740:	1000ad1e 	bne	r2,zero,50829f8 <main+0x6c4>
            if (bRecordPressed || (RecordLen >= buf_sample_size) || bError){
 5082744:	013ffff4 	movhi	r4,65535
 5082748:	2117e304 	addi	r4,r4,24460
 508274c:	2709883a 	add	r4,r4,fp
 5082750:	20800017 	ldw	r2,0(r4)
 5082754:	10000e1e 	bne	r2,zero,5082790 <main+0x45c>
 5082758:	017ffff4 	movhi	r5,65535
 508275c:	2957d804 	addi	r5,r5,24416
 5082760:	2f0b883a 	add	r5,r5,fp
 5082764:	28c00017 	ldw	r3,0(r5)
 5082768:	013ffff4 	movhi	r4,65535
 508276c:	2117df04 	addi	r4,r4,24444
 5082770:	2709883a 	add	r4,r4,fp
 5082774:	20800017 	ldw	r2,0(r4)
 5082778:	1880052e 	bgeu	r3,r2,5082790 <main+0x45c>
 508277c:	017ffff4 	movhi	r5,65535
 5082780:	2957d504 	addi	r5,r5,24404
 5082784:	2f0b883a 	add	r5,r5,fp
 5082788:	28800017 	ldw	r2,0(r5)
 508278c:	10001726 	beq	r2,zero,50827ec <main+0x4b8>
                // stop record
                printf("record %d samples\n", (int)RecordLen);
 5082790:	00fffff4 	movhi	r3,65535
 5082794:	18d7d804 	addi	r3,r3,24416
 5082798:	1f07883a 	add	r3,r3,fp
 508279c:	18800017 	ldw	r2,0(r3)
 50827a0:	100b883a 	mov	r5,r2
 50827a4:	01014274 	movhi	r4,1289
 50827a8:	2119b304 	addi	r4,r4,26316
 50827ac:	50850380 	call	5085038 <printf>


                state = ST_STANDY;
 50827b0:	013ffff4 	movhi	r4,65535
 50827b4:	2117d404 	addi	r4,r4,24400
 50827b8:	2709883a 	add	r4,r4,fp
 50827bc:	20000015 	stw	zero,0(r4)
                LED_AllOff();
 50827c0:	50817640 	call	5081764 <LED_AllOff>
                dump_record_data(pBuf, RecordLen);
 50827c4:	00bffff4 	movhi	r2,65535
 50827c8:	1097d804 	addi	r2,r2,24416
 50827cc:	1705883a 	add	r2,r2,fp
 50827d0:	11400017 	ldw	r5,0(r2)
 50827d4:	00fffff4 	movhi	r3,65535
 50827d8:	18d7de04 	addi	r3,r3,24440
 50827dc:	1f07883a 	add	r3,r3,fp
 50827e0:	19000017 	ldw	r4,0(r3)
 50827e4:	50821c00 	call	50821c0 <dump_record_data>
 50827e8:	0001ec06 	br	5082f9c <main+0xc68>

            }else{
                // continue recoding
                int i = 0;
 50827ec:	013ffff4 	movhi	r4,65535
 50827f0:	2117dc04 	addi	r4,r4,24432
 50827f4:	2709883a 	add	r4,r4,fp
 50827f8:	20000015 	stw	zero,0(r4)
                int *pram0 = (int *) ONCHIP_MEMORY2_BASE;
 50827fc:	00814234 	movhi	r2,1288
 5082800:	017ffff4 	movhi	r5,65535
 5082804:	2957e804 	addi	r5,r5,24480
 5082808:	2f0b883a 	add	r5,r5,fp
 508280c:	28800015 	stw	r2,0(r5)

                while ((i < RECORD_BLOCK_SIZE) && (RecordLen < buf_sample_size)){
 5082810:	00006406 	br	50829a4 <main+0x670>
                    try_cnt = 0;
 5082814:	00bffff4 	movhi	r2,65535
 5082818:	1097da04 	addi	r2,r2,24424
 508281c:	1705883a 	add	r2,r2,fp
 5082820:	10000015 	stw	zero,0(r2)
                    while (!AUDIO_AdcFifoNotEmpty() && try_cnt < MAX_TRY_CNT){ // wait while empty
 5082824:	00000906 	br	508284c <main+0x518>
                        try_cnt++;
 5082828:	00fffff4 	movhi	r3,65535
 508282c:	18d7da04 	addi	r3,r3,24424
 5082830:	1f07883a 	add	r3,r3,fp
 5082834:	18800017 	ldw	r2,0(r3)
 5082838:	10800044 	addi	r2,r2,1
 508283c:	013ffff4 	movhi	r4,65535
 5082840:	2117da04 	addi	r4,r4,24424
 5082844:	2709883a 	add	r4,r4,fp
 5082848:	20800015 	stw	r2,0(r4)
                int i = 0;
                int *pram0 = (int *) ONCHIP_MEMORY2_BASE;

                while ((i < RECORD_BLOCK_SIZE) && (RecordLen < buf_sample_size)){
                    try_cnt = 0;
                    while (!AUDIO_AdcFifoNotEmpty() && try_cnt < MAX_TRY_CNT){ // wait while empty
 508284c:	5080f0c0 	call	5080f0c <AUDIO_AdcFifoNotEmpty>
 5082850:	1000061e 	bne	r2,zero,508286c <main+0x538>
 5082854:	017ffff4 	movhi	r5,65535
 5082858:	2957da04 	addi	r5,r5,24424
 508285c:	2f0b883a 	add	r5,r5,fp
 5082860:	28800017 	ldw	r2,0(r5)
 5082864:	10810030 	cmpltui	r2,r2,1024
 5082868:	103fef1e 	bne	r2,zero,5082828 <main+0x4f4>
                        try_cnt++;
                    }
                    if (try_cnt >= MAX_TRY_CNT){
 508286c:	00fffff4 	movhi	r3,65535
 5082870:	18d7da04 	addi	r3,r3,24424
 5082874:	1f07883a 	add	r3,r3,fp
 5082878:	18800017 	ldw	r2,0(r3)
 508287c:	10810030 	cmpltui	r2,r2,1024
 5082880:	1000061e 	bne	r2,zero,508289c <main+0x568>
                        bError = TRUE;
 5082884:	00800044 	movi	r2,1
 5082888:	013ffff4 	movhi	r4,65535
 508288c:	2117d504 	addi	r4,r4,24404
 5082890:	2709883a 	add	r4,r4,fp
 5082894:	20800015 	stw	r2,0(r4)
                        break;
 5082898:	00005106 	br	50829e0 <main+0x6ac>
                    }
                    AUDIO_AdcFifoGetData(&ch_left, &ch_right);
 508289c:	017ffff4 	movhi	r5,65535
 50828a0:	29581004 	addi	r5,r5,24640
 50828a4:	e147883a 	add	r3,fp,r5
 50828a8:	013ffff4 	movhi	r4,65535
 50828ac:	21181084 	addi	r4,r4,24642
 50828b0:	e105883a 	add	r2,fp,r4
 50828b4:	180b883a 	mov	r5,r3
 50828b8:	1009883a 	mov	r4,r2
 50828bc:	5080f480 	call	5080f48 <AUDIO_AdcFifoGetData>
                    data = (ch_left << 16) | ch_right;
 50828c0:	017ffff4 	movhi	r5,65535
 50828c4:	29581084 	addi	r5,r5,24642
 50828c8:	2f0b883a 	add	r5,r5,fp
 50828cc:	2880000b 	ldhu	r2,0(r5)
 50828d0:	10bfffcc 	andi	r2,r2,65535
 50828d4:	1006943a 	slli	r3,r2,16
 50828d8:	013ffff4 	movhi	r4,65535
 50828dc:	21181004 	addi	r4,r4,24640
 50828e0:	2709883a 	add	r4,r4,fp
 50828e4:	2080000b 	ldhu	r2,0(r4)
 50828e8:	10bfffcc 	andi	r2,r2,65535
 50828ec:	1884b03a 	or	r2,r3,r2
 50828f0:	017ffff4 	movhi	r5,65535
 50828f4:	2957e904 	addi	r5,r5,24484
 50828f8:	2f0b883a 	add	r5,r5,fp
 50828fc:	28800015 	stw	r2,0(r5)
//                    *(pram0 + i  +1) = data
                    *pRecording++ = data;
 5082900:	00fffff4 	movhi	r3,65535
 5082904:	18d7d704 	addi	r3,r3,24412
 5082908:	1f07883a 	add	r3,r3,fp
 508290c:	18800017 	ldw	r2,0(r3)
 5082910:	10c00104 	addi	r3,r2,4
 5082914:	013ffff4 	movhi	r4,65535
 5082918:	2117d704 	addi	r4,r4,24412
 508291c:	2709883a 	add	r4,r4,fp
 5082920:	20c00015 	stw	r3,0(r4)
 5082924:	017ffff4 	movhi	r5,65535
 5082928:	2957e904 	addi	r5,r5,24484
 508292c:	2f0b883a 	add	r5,r5,fp
 5082930:	28c00017 	ldw	r3,0(r5)
 5082934:	10c00015 	stw	r3,0(r2)
                    RecordLen++;
 5082938:	00fffff4 	movhi	r3,65535
 508293c:	18d7d804 	addi	r3,r3,24416
 5082940:	1f07883a 	add	r3,r3,fp
 5082944:	18800017 	ldw	r2,0(r3)
 5082948:	10800044 	addi	r2,r2,1
 508294c:	013ffff4 	movhi	r4,65535
 5082950:	2117d804 	addi	r4,r4,24416
 5082954:	2709883a 	add	r4,r4,fp
 5082958:	20800015 	stw	r2,0(r4)
                    i++;
 508295c:	017ffff4 	movhi	r5,65535
 5082960:	2957dc04 	addi	r5,r5,24432
 5082964:	2f0b883a 	add	r5,r5,fp
 5082968:	28800017 	ldw	r2,0(r5)
 508296c:	10800044 	addi	r2,r2,1
 5082970:	00fffff4 	movhi	r3,65535
 5082974:	18d7dc04 	addi	r3,r3,24432
 5082978:	1f07883a 	add	r3,r3,fp
 508297c:	18800015 	stw	r2,0(r3)
                    show_power(data & 0xFFFF);
 5082980:	013ffff4 	movhi	r4,65535
 5082984:	2117e904 	addi	r4,r4,24484
 5082988:	2709883a 	add	r4,r4,fp
 508298c:	20800017 	ldw	r2,0(r4)
 5082990:	10bfffcc 	andi	r2,r2,65535
 5082994:	10a0001c 	xori	r2,r2,32768
 5082998:	10a00004 	addi	r2,r2,-32768
 508299c:	1009883a 	mov	r4,r2
 50829a0:	50820d00 	call	50820d0 <show_power>
            }else{
                // continue recoding
                int i = 0;
                int *pram0 = (int *) ONCHIP_MEMORY2_BASE;

                while ((i < RECORD_BLOCK_SIZE) && (RecordLen < buf_sample_size)){
 50829a4:	017ffff4 	movhi	r5,65535
 50829a8:	2957dc04 	addi	r5,r5,24432
 50829ac:	2f0b883a 	add	r5,r5,fp
 50829b0:	28800017 	ldw	r2,0(r5)
 50829b4:	10803e88 	cmpgei	r2,r2,250
 50829b8:	1000091e 	bne	r2,zero,50829e0 <main+0x6ac>
 50829bc:	00bffff4 	movhi	r2,65535
 50829c0:	1097d804 	addi	r2,r2,24416
 50829c4:	1705883a 	add	r2,r2,fp
 50829c8:	10c00017 	ldw	r3,0(r2)
 50829cc:	013ffff4 	movhi	r4,65535
 50829d0:	2117df04 	addi	r4,r4,24444
 50829d4:	2709883a 	add	r4,r4,fp
 50829d8:	20800017 	ldw	r2,0(r4)
 50829dc:	18bf8d36 	bltu	r3,r2,5082814 <main+0x4e0>
                    *pRecording++ = data;
                    RecordLen++;
                    i++;
                    show_power(data & 0xFFFF);
                }  // while
                display_time_elapsed(RecordLen);
 50829e0:	017ffff4 	movhi	r5,65535
 50829e4:	2957d804 	addi	r5,r5,24416
 50829e8:	2f0b883a 	add	r5,r5,fp
 50829ec:	29000017 	ldw	r4,0(r5)
 50829f0:	508207c0 	call	508207c <display_time_elapsed>
 50829f4:	003eab06 	br	50824a4 <main+0x170>
            }

        }else if (state == ST_PLAYING){
 50829f8:	00fffff4 	movhi	r3,65535
 50829fc:	18d7d404 	addi	r3,r3,24400
 5082a00:	1f07883a 	add	r3,r3,fp
 5082a04:	18800017 	ldw	r2,0(r3)
 5082a08:	10800098 	cmpnei	r2,r2,2
 5082a0c:	103ea51e 	bne	r2,zero,50824a4 <main+0x170>
            if (bPlayPressed || (PlayLen >= RecordLen) || bError){
 5082a10:	013ffff4 	movhi	r4,65535
 5082a14:	2117e404 	addi	r4,r4,24464
 5082a18:	2709883a 	add	r4,r4,fp
 5082a1c:	20800017 	ldw	r2,0(r4)
 5082a20:	10000e1e 	bne	r2,zero,5082a5c <main+0x728>
 5082a24:	017ffff4 	movhi	r5,65535
 5082a28:	2957d904 	addi	r5,r5,24420
 5082a2c:	2f0b883a 	add	r5,r5,fp
 5082a30:	28c00017 	ldw	r3,0(r5)
 5082a34:	013ffff4 	movhi	r4,65535
 5082a38:	2117d804 	addi	r4,r4,24416
 5082a3c:	2709883a 	add	r4,r4,fp
 5082a40:	20800017 	ldw	r2,0(r4)
 5082a44:	1880052e 	bgeu	r3,r2,5082a5c <main+0x728>
 5082a48:	017ffff4 	movhi	r5,65535
 5082a4c:	2957d504 	addi	r5,r5,24404
 5082a50:	2f0b883a 	add	r5,r5,fp
 5082a54:	28800017 	ldw	r2,0(r5)
 5082a58:	10002026 	beq	r2,zero,5082adc <main+0x7a8>
                // stop playing
                printf("Play Stop %s\r\n", bError?"(Error)":"");
 5082a5c:	00fffff4 	movhi	r3,65535
 5082a60:	18d7d504 	addi	r3,r3,24404
 5082a64:	1f07883a 	add	r3,r3,fp
 5082a68:	18800017 	ldw	r2,0(r3)
 5082a6c:	10000326 	beq	r2,zero,5082a7c <main+0x748>
 5082a70:	00814274 	movhi	r2,1289
 5082a74:	1099b804 	addi	r2,r2,26336
 5082a78:	00000206 	br	5082a84 <main+0x750>
 5082a7c:	00814274 	movhi	r2,1289
 5082a80:	10998c04 	addi	r2,r2,26160
 5082a84:	100b883a 	mov	r5,r2
 5082a88:	01014274 	movhi	r4,1289
 5082a8c:	2119ba04 	addi	r4,r4,26344
 5082a90:	50850380 	call	5085038 <printf>
//                		printf("\n");
//                	}
//				}


                final = 0;
 5082a94:	013ffff4 	movhi	r4,65535
 5082a98:	2117e004 	addi	r4,r4,24448
 5082a9c:	2709883a 	add	r4,r4,fp
 5082aa0:	20000015 	stw	zero,0(r4)
 5082aa4:	017ffff4 	movhi	r5,65535
 5082aa8:	2957e104 	addi	r5,r5,24452
 5082aac:	2f0b883a 	add	r5,r5,fp
 5082ab0:	28000015 	stw	zero,0(r5)
                j = 0 ;
 5082ab4:	00bffff4 	movhi	r2,65535
 5082ab8:	1097db04 	addi	r2,r2,24428
 5082abc:	1705883a 	add	r2,r2,fp
 5082ac0:	10000015 	stw	zero,0(r2)
                state = ST_STANDY;
 5082ac4:	00fffff4 	movhi	r3,65535
 5082ac8:	18d7d404 	addi	r3,r3,24400
 5082acc:	1f07883a 	add	r3,r3,fp
 5082ad0:	18000015 	stw	zero,0(r3)
                LED_AllOff();
 5082ad4:	50817640 	call	5081764 <LED_AllOff>
 5082ad8:	00013006 	br	5082f9c <main+0xc68>
            }else{
                // continue playing
                int i = 0;
 5082adc:	013ffff4 	movhi	r4,65535
 5082ae0:	2117dd04 	addi	r4,r4,24436
 5082ae4:	2709883a 	add	r4,r4,fp
 5082ae8:	20000015 	stw	zero,0(r4)


                while ((i < PLAY_BLOCK_SIZE) && (PlayLen < RecordLen)){
 5082aec:	00011706 	br	5082f4c <main+0xc18>
                    try_cnt = 0;
 5082af0:	017ffff4 	movhi	r5,65535
 5082af4:	2957da04 	addi	r5,r5,24424
 5082af8:	2f0b883a 	add	r5,r5,fp
 5082afc:	28000015 	stw	zero,0(r5)
                    while (!AUDIO_DacFifoNotFull() && try_cnt < MAX_TRY_CNT){  // wait while full
 5082b00:	00000906 	br	5082b28 <main+0x7f4>
                        try_cnt++;
 5082b04:	00fffff4 	movhi	r3,65535
 5082b08:	18d7da04 	addi	r3,r3,24424
 5082b0c:	1f07883a 	add	r3,r3,fp
 5082b10:	18800017 	ldw	r2,0(r3)
 5082b14:	10800044 	addi	r2,r2,1
 5082b18:	013ffff4 	movhi	r4,65535
 5082b1c:	2117da04 	addi	r4,r4,24424
 5082b20:	2709883a 	add	r4,r4,fp
 5082b24:	20800015 	stw	r2,0(r4)
                int i = 0;


                while ((i < PLAY_BLOCK_SIZE) && (PlayLen < RecordLen)){
                    try_cnt = 0;
                    while (!AUDIO_DacFifoNotFull() && try_cnt < MAX_TRY_CNT){  // wait while full
 5082b28:	5080e800 	call	5080e80 <AUDIO_DacFifoNotFull>
 5082b2c:	1000061e 	bne	r2,zero,5082b48 <main+0x814>
 5082b30:	017ffff4 	movhi	r5,65535
 5082b34:	2957da04 	addi	r5,r5,24424
 5082b38:	2f0b883a 	add	r5,r5,fp
 5082b3c:	28800017 	ldw	r2,0(r5)
 5082b40:	10810030 	cmpltui	r2,r2,1024
 5082b44:	103fef1e 	bne	r2,zero,5082b04 <main+0x7d0>
                        try_cnt++;
                    }
                    if (try_cnt >= MAX_TRY_CNT){
 5082b48:	00fffff4 	movhi	r3,65535
 5082b4c:	18d7da04 	addi	r3,r3,24424
 5082b50:	1f07883a 	add	r3,r3,fp
 5082b54:	18800017 	ldw	r2,0(r3)
 5082b58:	10810030 	cmpltui	r2,r2,1024
 5082b5c:	1000061e 	bne	r2,zero,5082b78 <main+0x844>
                        bError = TRUE;
 5082b60:	00800044 	movi	r2,1
 5082b64:	013ffff4 	movhi	r4,65535
 5082b68:	2117d504 	addi	r4,r4,24404
 5082b6c:	2709883a 	add	r4,r4,fp
 5082b70:	20800015 	stw	r2,0(r4)
                        break;
 5082b74:	00010406 	br	5082f88 <main+0xc54>
                    }
                    data = *pPlaying++;
 5082b78:	017ffff4 	movhi	r5,65535
 5082b7c:	2957d604 	addi	r5,r5,24408
 5082b80:	2f0b883a 	add	r5,r5,fp
 5082b84:	28800017 	ldw	r2,0(r5)
 5082b88:	10c00104 	addi	r3,r2,4
 5082b8c:	013ffff4 	movhi	r4,65535
 5082b90:	2117d604 	addi	r4,r4,24408
 5082b94:	2709883a 	add	r4,r4,fp
 5082b98:	20c00015 	stw	r3,0(r4)
 5082b9c:	10800017 	ldw	r2,0(r2)
 5082ba0:	017ffff4 	movhi	r5,65535
 5082ba4:	2957e904 	addi	r5,r5,24484
 5082ba8:	2f0b883a 	add	r5,r5,fp
 5082bac:	28800015 	stw	r2,0(r5)

                    //data = 0;
                    ch_left = data >> 16;
 5082bb0:	00fffff4 	movhi	r3,65535
 5082bb4:	18d7e904 	addi	r3,r3,24484
 5082bb8:	1f07883a 	add	r3,r3,fp
 5082bbc:	18800017 	ldw	r2,0(r3)
 5082bc0:	1004d43a 	srli	r2,r2,16
 5082bc4:	013ffff4 	movhi	r4,65535
 5082bc8:	21181084 	addi	r4,r4,24642
 5082bcc:	2709883a 	add	r4,r4,fp
 5082bd0:	2080000d 	sth	r2,0(r4)
                    ch_right = data & 0xFFFF;
 5082bd4:	017ffff4 	movhi	r5,65535
 5082bd8:	2957e904 	addi	r5,r5,24484
 5082bdc:	2f0b883a 	add	r5,r5,fp
 5082be0:	28800017 	ldw	r2,0(r5)
 5082be4:	00fffff4 	movhi	r3,65535
 5082be8:	18d81004 	addi	r3,r3,24640
 5082bec:	1f07883a 	add	r3,r3,fp
 5082bf0:	1880000d 	sth	r2,0(r3)


                    AUDIO_DacFifoSetData(ch_left, ch_right);
 5082bf4:	013ffff4 	movhi	r4,65535
 5082bf8:	21181084 	addi	r4,r4,24642
 5082bfc:	2709883a 	add	r4,r4,fp
 5082c00:	2080000b 	ldhu	r2,0(r4)
 5082c04:	10bfffcc 	andi	r2,r2,65535
 5082c08:	10a0001c 	xori	r2,r2,32768
 5082c0c:	10a00004 	addi	r2,r2,-32768
 5082c10:	017ffff4 	movhi	r5,65535
 5082c14:	29581004 	addi	r5,r5,24640
 5082c18:	2f0b883a 	add	r5,r5,fp
 5082c1c:	28c0000b 	ldhu	r3,0(r5)
 5082c20:	18ffffcc 	andi	r3,r3,65535
 5082c24:	18e0001c 	xori	r3,r3,32768
 5082c28:	18e00004 	addi	r3,r3,-32768
 5082c2c:	180b883a 	mov	r5,r3
 5082c30:	1009883a 	mov	r4,r2
 5082c34:	5080ebc0 	call	5080ebc <AUDIO_DacFifoSetData>

 					i++;
 5082c38:	00fffff4 	movhi	r3,65535
 5082c3c:	18d7dd04 	addi	r3,r3,24436
 5082c40:	1f07883a 	add	r3,r3,fp
 5082c44:	18800017 	ldw	r2,0(r3)
 5082c48:	10800044 	addi	r2,r2,1
 5082c4c:	013ffff4 	movhi	r4,65535
 5082c50:	2117dd04 	addi	r4,r4,24436
 5082c54:	2709883a 	add	r4,r4,fp
 5082c58:	20800015 	stw	r2,0(r4)

 					PlayLen++;
 5082c5c:	017ffff4 	movhi	r5,65535
 5082c60:	2957d904 	addi	r5,r5,24420
 5082c64:	2f0b883a 	add	r5,r5,fp
 5082c68:	28800017 	ldw	r2,0(r5)
 5082c6c:	10800044 	addi	r2,r2,1
 5082c70:	00fffff4 	movhi	r3,65535
 5082c74:	18d7d904 	addi	r3,r3,24420
 5082c78:	1f07883a 	add	r3,r3,fp
 5082c7c:	18800015 	stw	r2,0(r3)
 					show_power(data & 0xFFFF);
 5082c80:	013ffff4 	movhi	r4,65535
 5082c84:	2117e904 	addi	r4,r4,24484
 5082c88:	2709883a 	add	r4,r4,fp
 5082c8c:	20800017 	ldw	r2,0(r4)
 5082c90:	10bfffcc 	andi	r2,r2,65535
 5082c94:	10a0001c 	xori	r2,r2,32768
 5082c98:	10a00004 	addi	r2,r2,-32768
 5082c9c:	1009883a 	mov	r4,r2
 5082ca0:	50820d00 	call	50820d0 <show_power>

 					memmove(vector, vector + 1, (MAX_FLT_LEN - 1) * sizeof(double));
 5082ca4:	00a7f914 	movui	r2,40932
 5082ca8:	017ffff4 	movhi	r5,65535
 5082cac:	2957d404 	addi	r5,r5,24400
 5082cb0:	2f0b883a 	add	r5,r5,fp
 5082cb4:	2885883a 	add	r2,r5,r2
 5082cb8:	10800204 	addi	r2,r2,8
 5082cbc:	00e7f914 	movui	r3,40932
 5082cc0:	013ffff4 	movhi	r4,65535
 5082cc4:	2117d404 	addi	r4,r4,24400
 5082cc8:	2709883a 	add	r4,r4,fp
 5082ccc:	20c7883a 	add	r3,r4,r3
 5082cd0:	01802004 	movi	r6,128
 5082cd4:	100b883a 	mov	r5,r2
 5082cd8:	1809883a 	mov	r4,r3
 5082cdc:	5084eac0 	call	5084eac <memmove>




                    int size = MAX_FLT_LEN;
 5082ce0:	00800444 	movi	r2,17
 5082ce4:	017ffff4 	movhi	r5,65535
 5082ce8:	2957ea04 	addi	r5,r5,24488
 5082cec:	2f0b883a 	add	r5,r5,fp
 5082cf0:	28800015 	stw	r2,0(r5)

                        // perform the filtering
//                        floatToInt(floatOutput, vector_out, size);
                    if (i % 2 == 0){
 5082cf4:	00fffff4 	movhi	r3,65535
 5082cf8:	18d7dd04 	addi	r3,r3,24436
 5082cfc:	1f07883a 	add	r3,r3,fp
 5082d00:	18800017 	ldw	r2,0(r3)
 5082d04:	1080004c 	andi	r2,r2,1
 5082d08:	1000901e 	bne	r2,zero,5082f4c <main+0xc18>
                    	double freq = (double)(ch_left - 64774.7);
 5082d0c:	013ffff4 	movhi	r4,65535
 5082d10:	21181084 	addi	r4,r4,24642
 5082d14:	2709883a 	add	r4,r4,fp
 5082d18:	2080000b 	ldhu	r2,0(r4)
 5082d1c:	10bfffcc 	andi	r2,r2,65535
 5082d20:	1009883a 	mov	r4,r2
 5082d24:	5084c240 	call	5084c24 <__floatsidf>
 5082d28:	1011883a 	mov	r8,r2
 5082d2c:	1813883a 	mov	r9,r3
 5082d30:	019999b4 	movhi	r6,26214
 5082d34:	31999984 	addi	r6,r6,26214
 5082d38:	01d03c34 	movhi	r7,16624
 5082d3c:	39e83584 	addi	r7,r7,-24362
 5082d40:	4009883a 	mov	r4,r8
 5082d44:	480b883a 	mov	r5,r9
 5082d48:	50843280 	call	5084328 <__subdf3>
 5082d4c:	1009883a 	mov	r4,r2
 5082d50:	180b883a 	mov	r5,r3
 5082d54:	00bffff4 	movhi	r2,65535
 5082d58:	1097eb04 	addi	r2,r2,24492
 5082d5c:	1705883a 	add	r2,r2,fp
 5082d60:	11000015 	stw	r4,0(r2)
 5082d64:	00fffff4 	movhi	r3,65535
 5082d68:	18d7ec04 	addi	r3,r3,24496
 5082d6c:	1f07883a 	add	r3,r3,fp
 5082d70:	19400015 	stw	r5,0(r3)
						if (freq < 20000){
 5082d74:	000d883a 	mov	r6,zero
 5082d78:	01d03534 	movhi	r7,16596
 5082d7c:	39e20004 	addi	r7,r7,-30720
 5082d80:	017ffff4 	movhi	r5,65535
 5082d84:	2957eb04 	addi	r5,r5,24492
 5082d88:	2f0b883a 	add	r5,r5,fp
 5082d8c:	29000017 	ldw	r4,0(r5)
 5082d90:	00bffff4 	movhi	r2,65535
 5082d94:	1097ec04 	addi	r2,r2,24496
 5082d98:	1705883a 	add	r2,r2,fp
 5082d9c:	11400017 	ldw	r5,0(r2)
 5082da0:	5083b1c0 	call	5083b1c <__ledf2>
 5082da4:	1000100e 	bge	r2,zero,5082de8 <main+0xab4>
							vector[0] = freq;
 5082da8:	00a7f914 	movui	r2,40932
 5082dac:	00fffff4 	movhi	r3,65535
 5082db0:	18d7d404 	addi	r3,r3,24400
 5082db4:	1f07883a 	add	r3,r3,fp
 5082db8:	1885883a 	add	r2,r3,r2
 5082dbc:	013ffff4 	movhi	r4,65535
 5082dc0:	2117eb04 	addi	r4,r4,24492
 5082dc4:	2709883a 	add	r4,r4,fp
 5082dc8:	20c00017 	ldw	r3,0(r4)
 5082dcc:	10c00015 	stw	r3,0(r2)
 5082dd0:	017ffff4 	movhi	r5,65535
 5082dd4:	2957ec04 	addi	r5,r5,24496
 5082dd8:	2f0b883a 	add	r5,r5,fp
 5082ddc:	28c00017 	ldw	r3,0(r5)
 5082de0:	10c00115 	stw	r3,4(r2)
 5082de4:	00000706 	br	5082e04 <main+0xad0>
						}
						else{
							vector[0] = 0;
 5082de8:	00a7f914 	movui	r2,40932
 5082dec:	00fffff4 	movhi	r3,65535
 5082df0:	18d7d404 	addi	r3,r3,24400
 5082df4:	1f07883a 	add	r3,r3,fp
 5082df8:	1885883a 	add	r2,r3,r2
 5082dfc:	10000015 	stw	zero,0(r2)
 5082e00:	10000115 	stw	zero,4(r2)
						}
                    	tudo[j] = (convolve(vector,coeffs,MAX_FLT_LEN , MAX_FLT_LEN));
 5082e04:	013ffff4 	movhi	r4,65535
 5082e08:	21181104 	addi	r4,r4,24644
 5082e0c:	e107883a 	add	r3,fp,r4
 5082e10:	00a7f914 	movui	r2,40932
 5082e14:	017ffff4 	movhi	r5,65535
 5082e18:	2957d404 	addi	r5,r5,24400
 5082e1c:	2f0b883a 	add	r5,r5,fp
 5082e20:	2885883a 	add	r2,r5,r2
 5082e24:	017ffff4 	movhi	r5,65535
 5082e28:	2957ed04 	addi	r5,r5,24500
 5082e2c:	e149883a 	add	r4,fp,r5
 5082e30:	2019883a 	mov	r12,r4
 5082e34:	01c00444 	movi	r7,17
 5082e38:	01800444 	movi	r6,17
 5082e3c:	180b883a 	mov	r5,r3
 5082e40:	1009883a 	mov	r4,r2
 5082e44:	5082fb40 	call	5082fb4 <convolve.4513>
 5082e48:	1009883a 	mov	r4,r2
 5082e4c:	180b883a 	mov	r5,r3
 5082e50:	00fffff4 	movhi	r3,65535
 5082e54:	18d7db04 	addi	r3,r3,24428
 5082e58:	1f07883a 	add	r3,r3,fp
 5082e5c:	18800017 	ldw	r2,0(r3)
 5082e60:	100490fa 	slli	r2,r2,3
 5082e64:	00fffff4 	movhi	r3,65535
 5082e68:	18d7d404 	addi	r3,r3,24400
 5082e6c:	1f07883a 	add	r3,r3,fp
 5082e70:	1885883a 	add	r2,r3,r2
 5082e74:	1080b904 	addi	r2,r2,740
 5082e78:	11000015 	stw	r4,0(r2)
 5082e7c:	11400115 	stw	r5,4(r2)
                    	tudo_meio[j] = (convolve(vector,coeffs_2,MAX_FLT_LEN_2 , MAX_FLT_LEN));
 5082e80:	013ffff4 	movhi	r4,65535
 5082e84:	21183304 	addi	r4,r4,24780
 5082e88:	e107883a 	add	r3,fp,r4
 5082e8c:	00a7f914 	movui	r2,40932
 5082e90:	017ffff4 	movhi	r5,65535
 5082e94:	2957d404 	addi	r5,r5,24400
 5082e98:	2f0b883a 	add	r5,r5,fp
 5082e9c:	2885883a 	add	r2,r5,r2
 5082ea0:	017ffff4 	movhi	r5,65535
 5082ea4:	2957ed04 	addi	r5,r5,24500
 5082ea8:	e149883a 	add	r4,fp,r5
 5082eac:	2019883a 	mov	r12,r4
 5082eb0:	01c00444 	movi	r7,17
 5082eb4:	018002c4 	movi	r6,11
 5082eb8:	180b883a 	mov	r5,r3
 5082ebc:	1009883a 	mov	r4,r2
 5082ec0:	5082fb40 	call	5082fb4 <convolve.4513>
 5082ec4:	1009883a 	mov	r4,r2
 5082ec8:	180b883a 	mov	r5,r3
 5082ecc:	00fffff4 	movhi	r3,65535
 5082ed0:	18d7db04 	addi	r3,r3,24428
 5082ed4:	1f07883a 	add	r3,r3,fp
 5082ed8:	18800017 	ldw	r2,0(r3)
 5082edc:	100490fa 	slli	r2,r2,3
 5082ee0:	00fffff4 	movhi	r3,65535
 5082ee4:	18d7d404 	addi	r3,r3,24400
 5082ee8:	1f07883a 	add	r3,r3,fp
 5082eec:	1885883a 	add	r2,r3,r2
 5082ef0:	10905904 	addi	r2,r2,16740
 5082ef4:	11000015 	stw	r4,0(r2)
 5082ef8:	11400115 	stw	r5,4(r2)
                    	 j++;
 5082efc:	013ffff4 	movhi	r4,65535
 5082f00:	2117db04 	addi	r4,r4,24428
 5082f04:	2709883a 	add	r4,r4,fp
 5082f08:	20800017 	ldw	r2,0(r4)
 5082f0c:	10800044 	addi	r2,r2,1
 5082f10:	017ffff4 	movhi	r5,65535
 5082f14:	2957db04 	addi	r5,r5,24428
 5082f18:	2f0b883a 	add	r5,r5,fp
 5082f1c:	28800015 	stw	r2,0(r5)
                    	 j = j %2000;
 5082f20:	00fffff4 	movhi	r3,65535
 5082f24:	18d7db04 	addi	r3,r3,24428
 5082f28:	1f07883a 	add	r3,r3,fp
 5082f2c:	18800017 	ldw	r2,0(r3)
 5082f30:	0141f404 	movi	r5,2000
 5082f34:	1009883a 	mov	r4,r2
 5082f38:	50831400 	call	5083140 <__modsi3>
 5082f3c:	013ffff4 	movhi	r4,65535
 5082f40:	2117db04 	addi	r4,r4,24428
 5082f44:	2709883a 	add	r4,r4,fp
 5082f48:	20800015 	stw	r2,0(r4)
            }else{
                // continue playing
                int i = 0;


                while ((i < PLAY_BLOCK_SIZE) && (PlayLen < RecordLen)){
 5082f4c:	017ffff4 	movhi	r5,65535
 5082f50:	2957dd04 	addi	r5,r5,24436
 5082f54:	2f0b883a 	add	r5,r5,fp
 5082f58:	28800017 	ldw	r2,0(r5)
 5082f5c:	10803e88 	cmpgei	r2,r2,250
 5082f60:	1000091e 	bne	r2,zero,5082f88 <main+0xc54>
 5082f64:	00bffff4 	movhi	r2,65535
 5082f68:	1097d904 	addi	r2,r2,24420
 5082f6c:	1705883a 	add	r2,r2,fp
 5082f70:	10c00017 	ldw	r3,0(r2)
 5082f74:	013ffff4 	movhi	r4,65535
 5082f78:	2117d804 	addi	r4,r4,24416
 5082f7c:	2709883a 	add	r4,r4,fp
 5082f80:	20800017 	ldw	r2,0(r4)
 5082f84:	18beda36 	bltu	r3,r2,5082af0 <main+0x7bc>



//                    printf("[%d] %d/%d\n", PlayLen, (short)((data >> 16) & 0xFFFF), (short)(data & 0xFFFF));
                }
                display_time_elapsed(PlayLen);
 5082f88:	017ffff4 	movhi	r5,65535
 5082f8c:	2957d904 	addi	r5,r5,24420
 5082f90:	2f0b883a 	add	r5,r5,fp
 5082f94:	29000017 	ldw	r4,0(r5)
 5082f98:	508207c0 	call	508207c <display_time_elapsed>
            }
        }
    }
 5082f9c:	003d4106 	br	50824a4 <main+0x170>

}
 5082fa0:	e037883a 	mov	sp,fp
 5082fa4:	dfc00117 	ldw	ra,4(sp)
 5082fa8:	df000017 	ldw	fp,0(sp)
 5082fac:	dec00204 	addi	sp,sp,8
 5082fb0:	f800283a 	ret

05082fb4 <convolve.4513>:
        memset( insamp, 0, sizeof( insamp ) );
    }

    // the FIR filter function
    // Function to perform convolution
    double convolve(double *input,double *kernel, int dataSize, int kernelSize) {
 5082fb4:	defff504 	addi	sp,sp,-44
 5082fb8:	dfc00a15 	stw	ra,40(sp)
 5082fbc:	df000915 	stw	fp,36(sp)
 5082fc0:	df000904 	addi	fp,sp,36
 5082fc4:	e13ffb15 	stw	r4,-20(fp)
 5082fc8:	e17ffc15 	stw	r5,-16(fp)
 5082fcc:	e1bffd15 	stw	r6,-12(fp)
 5082fd0:	e1fffe15 	stw	r7,-8(fp)
 5082fd4:	e33fff15 	stw	r12,-4(fp)
        int i, j;
            double output = 0;
 5082fd8:	e03ff815 	stw	zero,-32(fp)
 5082fdc:	e03ff915 	stw	zero,-28(fp)
            for (j = 0; j < kernelSize; ++j) {
 5082fe0:	e03ff715 	stw	zero,-36(fp)
 5082fe4:	00002706 	br	5083084 <convolve.4513+0xd0>
                if (i - j >= 0) {
 5082fe8:	e0fffa17 	ldw	r3,-24(fp)
 5082fec:	e0bff717 	ldw	r2,-36(fp)
 5082ff0:	1885c83a 	sub	r2,r3,r2
 5082ff4:	10002016 	blt	r2,zero,5083078 <convolve.4513+0xc4>
                    output += input[i - j] * kernel[j];
 5082ff8:	e0fffa17 	ldw	r3,-24(fp)
 5082ffc:	e0bff717 	ldw	r2,-36(fp)
 5083000:	1885c83a 	sub	r2,r3,r2
 5083004:	100490fa 	slli	r2,r2,3
 5083008:	e0fffb17 	ldw	r3,-20(fp)
 508300c:	1889883a 	add	r4,r3,r2
 5083010:	20800017 	ldw	r2,0(r4)
 5083014:	20c00117 	ldw	r3,4(r4)
 5083018:	e13ff717 	ldw	r4,-36(fp)
 508301c:	200890fa 	slli	r4,r4,3
 5083020:	e17ffc17 	ldw	r5,-16(fp)
 5083024:	290d883a 	add	r6,r5,r4
 5083028:	31000017 	ldw	r4,0(r6)
 508302c:	31400117 	ldw	r5,4(r6)
 5083030:	200d883a 	mov	r6,r4
 5083034:	280f883a 	mov	r7,r5
 5083038:	1009883a 	mov	r4,r2
 508303c:	180b883a 	mov	r5,r3
 5083040:	5083c100 	call	5083c10 <__muldf3>
 5083044:	1009883a 	mov	r4,r2
 5083048:	180b883a 	mov	r5,r3
 508304c:	2005883a 	mov	r2,r4
 5083050:	2807883a 	mov	r3,r5
 5083054:	100d883a 	mov	r6,r2
 5083058:	180f883a 	mov	r7,r3
 508305c:	e13ff817 	ldw	r4,-32(fp)
 5083060:	e17ff917 	ldw	r5,-28(fp)
 5083064:	50832700 	call	5083270 <__adddf3>
 5083068:	1009883a 	mov	r4,r2
 508306c:	180b883a 	mov	r5,r3
 5083070:	e13ff815 	stw	r4,-32(fp)
 5083074:	e17ff915 	stw	r5,-28(fp)
    // the FIR filter function
    // Function to perform convolution
    double convolve(double *input,double *kernel, int dataSize, int kernelSize) {
        int i, j;
            double output = 0;
            for (j = 0; j < kernelSize; ++j) {
 5083078:	e0bff717 	ldw	r2,-36(fp)
 508307c:	10800044 	addi	r2,r2,1
 5083080:	e0bff715 	stw	r2,-36(fp)
 5083084:	e0fff717 	ldw	r3,-36(fp)
 5083088:	e0bffe17 	ldw	r2,-8(fp)
 508308c:	18bfd616 	blt	r3,r2,5082fe8 <convolve.4513+0x34>
                if (i - j >= 0) {
                    output += input[i - j] * kernel[j];
                }
            }
            return output;
 5083090:	e0bff817 	ldw	r2,-32(fp)
 5083094:	e0fff917 	ldw	r3,-28(fp)
 5083098:	1009883a 	mov	r4,r2
 508309c:	180b883a 	mov	r5,r3
    }
 50830a0:	2005883a 	mov	r2,r4
 50830a4:	2807883a 	mov	r3,r5
 50830a8:	e037883a 	mov	sp,fp
 50830ac:	dfc00117 	ldw	ra,4(sp)
 50830b0:	df000017 	ldw	fp,0(sp)
 50830b4:	dec00204 	addi	sp,sp,8
 50830b8:	f800283a 	ret

050830bc <__divsi3>:
 50830bc:	20001b16 	blt	r4,zero,508312c <__divsi3+0x70>
 50830c0:	000f883a 	mov	r7,zero
 50830c4:	28001616 	blt	r5,zero,5083120 <__divsi3+0x64>
 50830c8:	200d883a 	mov	r6,r4
 50830cc:	29001a2e 	bgeu	r5,r4,5083138 <__divsi3+0x7c>
 50830d0:	00800804 	movi	r2,32
 50830d4:	00c00044 	movi	r3,1
 50830d8:	00000106 	br	50830e0 <__divsi3+0x24>
 50830dc:	10000d26 	beq	r2,zero,5083114 <__divsi3+0x58>
 50830e0:	294b883a 	add	r5,r5,r5
 50830e4:	10bfffc4 	addi	r2,r2,-1
 50830e8:	18c7883a 	add	r3,r3,r3
 50830ec:	293ffb36 	bltu	r5,r4,50830dc <__divsi3+0x20>
 50830f0:	0005883a 	mov	r2,zero
 50830f4:	18000726 	beq	r3,zero,5083114 <__divsi3+0x58>
 50830f8:	0005883a 	mov	r2,zero
 50830fc:	31400236 	bltu	r6,r5,5083108 <__divsi3+0x4c>
 5083100:	314dc83a 	sub	r6,r6,r5
 5083104:	10c4b03a 	or	r2,r2,r3
 5083108:	1806d07a 	srli	r3,r3,1
 508310c:	280ad07a 	srli	r5,r5,1
 5083110:	183ffa1e 	bne	r3,zero,50830fc <__divsi3+0x40>
 5083114:	38000126 	beq	r7,zero,508311c <__divsi3+0x60>
 5083118:	0085c83a 	sub	r2,zero,r2
 508311c:	f800283a 	ret
 5083120:	014bc83a 	sub	r5,zero,r5
 5083124:	39c0005c 	xori	r7,r7,1
 5083128:	003fe706 	br	50830c8 <__divsi3+0xc>
 508312c:	0109c83a 	sub	r4,zero,r4
 5083130:	01c00044 	movi	r7,1
 5083134:	003fe306 	br	50830c4 <__divsi3+0x8>
 5083138:	00c00044 	movi	r3,1
 508313c:	003fee06 	br	50830f8 <__divsi3+0x3c>

05083140 <__modsi3>:
 5083140:	20001716 	blt	r4,zero,50831a0 <__modsi3+0x60>
 5083144:	000f883a 	mov	r7,zero
 5083148:	2005883a 	mov	r2,r4
 508314c:	28001216 	blt	r5,zero,5083198 <__modsi3+0x58>
 5083150:	2900162e 	bgeu	r5,r4,50831ac <__modsi3+0x6c>
 5083154:	01800804 	movi	r6,32
 5083158:	00c00044 	movi	r3,1
 508315c:	00000106 	br	5083164 <__modsi3+0x24>
 5083160:	30000a26 	beq	r6,zero,508318c <__modsi3+0x4c>
 5083164:	294b883a 	add	r5,r5,r5
 5083168:	31bfffc4 	addi	r6,r6,-1
 508316c:	18c7883a 	add	r3,r3,r3
 5083170:	293ffb36 	bltu	r5,r4,5083160 <__modsi3+0x20>
 5083174:	18000526 	beq	r3,zero,508318c <__modsi3+0x4c>
 5083178:	1806d07a 	srli	r3,r3,1
 508317c:	11400136 	bltu	r2,r5,5083184 <__modsi3+0x44>
 5083180:	1145c83a 	sub	r2,r2,r5
 5083184:	280ad07a 	srli	r5,r5,1
 5083188:	183ffb1e 	bne	r3,zero,5083178 <__modsi3+0x38>
 508318c:	38000126 	beq	r7,zero,5083194 <__modsi3+0x54>
 5083190:	0085c83a 	sub	r2,zero,r2
 5083194:	f800283a 	ret
 5083198:	014bc83a 	sub	r5,zero,r5
 508319c:	003fec06 	br	5083150 <__modsi3+0x10>
 50831a0:	0109c83a 	sub	r4,zero,r4
 50831a4:	01c00044 	movi	r7,1
 50831a8:	003fe706 	br	5083148 <__modsi3+0x8>
 50831ac:	00c00044 	movi	r3,1
 50831b0:	003ff106 	br	5083178 <__modsi3+0x38>

050831b4 <__udivsi3>:
 50831b4:	200d883a 	mov	r6,r4
 50831b8:	2900152e 	bgeu	r5,r4,5083210 <__udivsi3+0x5c>
 50831bc:	28001416 	blt	r5,zero,5083210 <__udivsi3+0x5c>
 50831c0:	00800804 	movi	r2,32
 50831c4:	00c00044 	movi	r3,1
 50831c8:	00000206 	br	50831d4 <__udivsi3+0x20>
 50831cc:	10000e26 	beq	r2,zero,5083208 <__udivsi3+0x54>
 50831d0:	28000516 	blt	r5,zero,50831e8 <__udivsi3+0x34>
 50831d4:	294b883a 	add	r5,r5,r5
 50831d8:	10bfffc4 	addi	r2,r2,-1
 50831dc:	18c7883a 	add	r3,r3,r3
 50831e0:	293ffa36 	bltu	r5,r4,50831cc <__udivsi3+0x18>
 50831e4:	18000826 	beq	r3,zero,5083208 <__udivsi3+0x54>
 50831e8:	0005883a 	mov	r2,zero
 50831ec:	31400236 	bltu	r6,r5,50831f8 <__udivsi3+0x44>
 50831f0:	314dc83a 	sub	r6,r6,r5
 50831f4:	10c4b03a 	or	r2,r2,r3
 50831f8:	1806d07a 	srli	r3,r3,1
 50831fc:	280ad07a 	srli	r5,r5,1
 5083200:	183ffa1e 	bne	r3,zero,50831ec <__udivsi3+0x38>
 5083204:	f800283a 	ret
 5083208:	0005883a 	mov	r2,zero
 508320c:	f800283a 	ret
 5083210:	00c00044 	movi	r3,1
 5083214:	003ff406 	br	50831e8 <__udivsi3+0x34>

05083218 <__umodsi3>:
 5083218:	2005883a 	mov	r2,r4
 508321c:	2900122e 	bgeu	r5,r4,5083268 <__umodsi3+0x50>
 5083220:	28001116 	blt	r5,zero,5083268 <__umodsi3+0x50>
 5083224:	01800804 	movi	r6,32
 5083228:	00c00044 	movi	r3,1
 508322c:	00000206 	br	5083238 <__umodsi3+0x20>
 5083230:	30000c26 	beq	r6,zero,5083264 <__umodsi3+0x4c>
 5083234:	28000516 	blt	r5,zero,508324c <__umodsi3+0x34>
 5083238:	294b883a 	add	r5,r5,r5
 508323c:	31bfffc4 	addi	r6,r6,-1
 5083240:	18c7883a 	add	r3,r3,r3
 5083244:	293ffa36 	bltu	r5,r4,5083230 <__umodsi3+0x18>
 5083248:	18000626 	beq	r3,zero,5083264 <__umodsi3+0x4c>
 508324c:	1806d07a 	srli	r3,r3,1
 5083250:	11400136 	bltu	r2,r5,5083258 <__umodsi3+0x40>
 5083254:	1145c83a 	sub	r2,r2,r5
 5083258:	280ad07a 	srli	r5,r5,1
 508325c:	183ffb1e 	bne	r3,zero,508324c <__umodsi3+0x34>
 5083260:	f800283a 	ret
 5083264:	f800283a 	ret
 5083268:	00c00044 	movi	r3,1
 508326c:	003ff706 	br	508324c <__umodsi3+0x34>

05083270 <__adddf3>:
 5083270:	02c00434 	movhi	r11,16
 5083274:	5affffc4 	addi	r11,r11,-1
 5083278:	2806d7fa 	srli	r3,r5,31
 508327c:	2ad4703a 	and	r10,r5,r11
 5083280:	3ad2703a 	and	r9,r7,r11
 5083284:	3804d53a 	srli	r2,r7,20
 5083288:	3018d77a 	srli	r12,r6,29
 508328c:	280ad53a 	srli	r5,r5,20
 5083290:	501490fa 	slli	r10,r10,3
 5083294:	2010d77a 	srli	r8,r4,29
 5083298:	481290fa 	slli	r9,r9,3
 508329c:	380ed7fa 	srli	r7,r7,31
 50832a0:	defffb04 	addi	sp,sp,-20
 50832a4:	dc800215 	stw	r18,8(sp)
 50832a8:	dc400115 	stw	r17,4(sp)
 50832ac:	dc000015 	stw	r16,0(sp)
 50832b0:	dfc00415 	stw	ra,16(sp)
 50832b4:	dcc00315 	stw	r19,12(sp)
 50832b8:	1c803fcc 	andi	r18,r3,255
 50832bc:	2c01ffcc 	andi	r16,r5,2047
 50832c0:	5210b03a 	or	r8,r10,r8
 50832c4:	202290fa 	slli	r17,r4,3
 50832c8:	1081ffcc 	andi	r2,r2,2047
 50832cc:	4b12b03a 	or	r9,r9,r12
 50832d0:	300c90fa 	slli	r6,r6,3
 50832d4:	91c07526 	beq	r18,r7,50834ac <__adddf3+0x23c>
 50832d8:	8087c83a 	sub	r3,r16,r2
 50832dc:	00c0ab0e 	bge	zero,r3,508358c <__adddf3+0x31c>
 50832e0:	10002a1e 	bne	r2,zero,508338c <__adddf3+0x11c>
 50832e4:	4984b03a 	or	r2,r9,r6
 50832e8:	1000961e 	bne	r2,zero,5083544 <__adddf3+0x2d4>
 50832ec:	888001cc 	andi	r2,r17,7
 50832f0:	10000726 	beq	r2,zero,5083310 <__adddf3+0xa0>
 50832f4:	888003cc 	andi	r2,r17,15
 50832f8:	00c00104 	movi	r3,4
 50832fc:	10c00426 	beq	r2,r3,5083310 <__adddf3+0xa0>
 5083300:	88c7883a 	add	r3,r17,r3
 5083304:	1c63803a 	cmpltu	r17,r3,r17
 5083308:	4451883a 	add	r8,r8,r17
 508330c:	1823883a 	mov	r17,r3
 5083310:	4080202c 	andhi	r2,r8,128
 5083314:	10005926 	beq	r2,zero,508347c <__adddf3+0x20c>
 5083318:	84000044 	addi	r16,r16,1
 508331c:	0081ffc4 	movi	r2,2047
 5083320:	8080ba26 	beq	r16,r2,508360c <__adddf3+0x39c>
 5083324:	00bfe034 	movhi	r2,65408
 5083328:	10bfffc4 	addi	r2,r2,-1
 508332c:	4090703a 	and	r8,r8,r2
 5083330:	4004977a 	slli	r2,r8,29
 5083334:	4010927a 	slli	r8,r8,9
 5083338:	8822d0fa 	srli	r17,r17,3
 508333c:	8401ffcc 	andi	r16,r16,2047
 5083340:	4010d33a 	srli	r8,r8,12
 5083344:	9007883a 	mov	r3,r18
 5083348:	1444b03a 	or	r2,r2,r17
 508334c:	8401ffcc 	andi	r16,r16,2047
 5083350:	8020953a 	slli	r16,r16,20
 5083354:	18c03fcc 	andi	r3,r3,255
 5083358:	01000434 	movhi	r4,16
 508335c:	213fffc4 	addi	r4,r4,-1
 5083360:	180697fa 	slli	r3,r3,31
 5083364:	4110703a 	and	r8,r8,r4
 5083368:	4410b03a 	or	r8,r8,r16
 508336c:	40c6b03a 	or	r3,r8,r3
 5083370:	dfc00417 	ldw	ra,16(sp)
 5083374:	dcc00317 	ldw	r19,12(sp)
 5083378:	dc800217 	ldw	r18,8(sp)
 508337c:	dc400117 	ldw	r17,4(sp)
 5083380:	dc000017 	ldw	r16,0(sp)
 5083384:	dec00504 	addi	sp,sp,20
 5083388:	f800283a 	ret
 508338c:	0081ffc4 	movi	r2,2047
 5083390:	80bfd626 	beq	r16,r2,50832ec <__adddf3+0x7c>
 5083394:	4a402034 	orhi	r9,r9,128
 5083398:	00800e04 	movi	r2,56
 508339c:	10c09f16 	blt	r2,r3,508361c <__adddf3+0x3ac>
 50833a0:	008007c4 	movi	r2,31
 50833a4:	10c0c216 	blt	r2,r3,50836b0 <__adddf3+0x440>
 50833a8:	00800804 	movi	r2,32
 50833ac:	10c5c83a 	sub	r2,r2,r3
 50833b0:	488a983a 	sll	r5,r9,r2
 50833b4:	30c8d83a 	srl	r4,r6,r3
 50833b8:	3084983a 	sll	r2,r6,r2
 50833bc:	48c6d83a 	srl	r3,r9,r3
 50833c0:	290cb03a 	or	r6,r5,r4
 50833c4:	1004c03a 	cmpne	r2,r2,zero
 50833c8:	308cb03a 	or	r6,r6,r2
 50833cc:	898dc83a 	sub	r6,r17,r6
 50833d0:	89a3803a 	cmpltu	r17,r17,r6
 50833d4:	40d1c83a 	sub	r8,r8,r3
 50833d8:	4451c83a 	sub	r8,r8,r17
 50833dc:	3023883a 	mov	r17,r6
 50833e0:	4080202c 	andhi	r2,r8,128
 50833e4:	10002326 	beq	r2,zero,5083474 <__adddf3+0x204>
 50833e8:	04c02034 	movhi	r19,128
 50833ec:	9cffffc4 	addi	r19,r19,-1
 50833f0:	44e6703a 	and	r19,r8,r19
 50833f4:	98007626 	beq	r19,zero,50835d0 <__adddf3+0x360>
 50833f8:	9809883a 	mov	r4,r19
 50833fc:	5084d000 	call	5084d00 <__clzsi2>
 5083400:	10fffe04 	addi	r3,r2,-8
 5083404:	010007c4 	movi	r4,31
 5083408:	20c07716 	blt	r4,r3,50835e8 <__adddf3+0x378>
 508340c:	00800804 	movi	r2,32
 5083410:	10c5c83a 	sub	r2,r2,r3
 5083414:	8884d83a 	srl	r2,r17,r2
 5083418:	98d0983a 	sll	r8,r19,r3
 508341c:	88e2983a 	sll	r17,r17,r3
 5083420:	1204b03a 	or	r2,r2,r8
 5083424:	1c007416 	blt	r3,r16,50835f8 <__adddf3+0x388>
 5083428:	1c21c83a 	sub	r16,r3,r16
 508342c:	82000044 	addi	r8,r16,1
 5083430:	00c007c4 	movi	r3,31
 5083434:	1a009116 	blt	r3,r8,508367c <__adddf3+0x40c>
 5083438:	00c00804 	movi	r3,32
 508343c:	1a07c83a 	sub	r3,r3,r8
 5083440:	8a08d83a 	srl	r4,r17,r8
 5083444:	88e2983a 	sll	r17,r17,r3
 5083448:	10c6983a 	sll	r3,r2,r3
 508344c:	1210d83a 	srl	r8,r2,r8
 5083450:	8804c03a 	cmpne	r2,r17,zero
 5083454:	1906b03a 	or	r3,r3,r4
 5083458:	18a2b03a 	or	r17,r3,r2
 508345c:	0021883a 	mov	r16,zero
 5083460:	003fa206 	br	50832ec <__adddf3+0x7c>
 5083464:	1890b03a 	or	r8,r3,r2
 5083468:	40017d26 	beq	r8,zero,5083a60 <__adddf3+0x7f0>
 508346c:	1011883a 	mov	r8,r2
 5083470:	1823883a 	mov	r17,r3
 5083474:	888001cc 	andi	r2,r17,7
 5083478:	103f9e1e 	bne	r2,zero,50832f4 <__adddf3+0x84>
 508347c:	4004977a 	slli	r2,r8,29
 5083480:	8822d0fa 	srli	r17,r17,3
 5083484:	4010d0fa 	srli	r8,r8,3
 5083488:	9007883a 	mov	r3,r18
 508348c:	1444b03a 	or	r2,r2,r17
 5083490:	0101ffc4 	movi	r4,2047
 5083494:	81002426 	beq	r16,r4,5083528 <__adddf3+0x2b8>
 5083498:	8120703a 	and	r16,r16,r4
 508349c:	01000434 	movhi	r4,16
 50834a0:	213fffc4 	addi	r4,r4,-1
 50834a4:	4110703a 	and	r8,r8,r4
 50834a8:	003fa806 	br	508334c <__adddf3+0xdc>
 50834ac:	8089c83a 	sub	r4,r16,r2
 50834b0:	01005e0e 	bge	zero,r4,508362c <__adddf3+0x3bc>
 50834b4:	10002b26 	beq	r2,zero,5083564 <__adddf3+0x2f4>
 50834b8:	0081ffc4 	movi	r2,2047
 50834bc:	80bf8b26 	beq	r16,r2,50832ec <__adddf3+0x7c>
 50834c0:	4a402034 	orhi	r9,r9,128
 50834c4:	00800e04 	movi	r2,56
 50834c8:	1100a40e 	bge	r2,r4,508375c <__adddf3+0x4ec>
 50834cc:	498cb03a 	or	r6,r9,r6
 50834d0:	300ac03a 	cmpne	r5,r6,zero
 50834d4:	0013883a 	mov	r9,zero
 50834d8:	2c4b883a 	add	r5,r5,r17
 50834dc:	2c63803a 	cmpltu	r17,r5,r17
 50834e0:	4a11883a 	add	r8,r9,r8
 50834e4:	8a11883a 	add	r8,r17,r8
 50834e8:	2823883a 	mov	r17,r5
 50834ec:	4080202c 	andhi	r2,r8,128
 50834f0:	103fe026 	beq	r2,zero,5083474 <__adddf3+0x204>
 50834f4:	84000044 	addi	r16,r16,1
 50834f8:	0081ffc4 	movi	r2,2047
 50834fc:	8080d226 	beq	r16,r2,5083848 <__adddf3+0x5d8>
 5083500:	00bfe034 	movhi	r2,65408
 5083504:	10bfffc4 	addi	r2,r2,-1
 5083508:	4090703a 	and	r8,r8,r2
 508350c:	880ad07a 	srli	r5,r17,1
 5083510:	400897fa 	slli	r4,r8,31
 5083514:	88c0004c 	andi	r3,r17,1
 5083518:	28e2b03a 	or	r17,r5,r3
 508351c:	4010d07a 	srli	r8,r8,1
 5083520:	2462b03a 	or	r17,r4,r17
 5083524:	003f7106 	br	50832ec <__adddf3+0x7c>
 5083528:	4088b03a 	or	r4,r8,r2
 508352c:	20014526 	beq	r4,zero,5083a44 <__adddf3+0x7d4>
 5083530:	01000434 	movhi	r4,16
 5083534:	42000234 	orhi	r8,r8,8
 5083538:	213fffc4 	addi	r4,r4,-1
 508353c:	4110703a 	and	r8,r8,r4
 5083540:	003f8206 	br	508334c <__adddf3+0xdc>
 5083544:	18ffffc4 	addi	r3,r3,-1
 5083548:	1800491e 	bne	r3,zero,5083670 <__adddf3+0x400>
 508354c:	898bc83a 	sub	r5,r17,r6
 5083550:	8963803a 	cmpltu	r17,r17,r5
 5083554:	4251c83a 	sub	r8,r8,r9
 5083558:	4451c83a 	sub	r8,r8,r17
 508355c:	2823883a 	mov	r17,r5
 5083560:	003f9f06 	br	50833e0 <__adddf3+0x170>
 5083564:	4984b03a 	or	r2,r9,r6
 5083568:	103f6026 	beq	r2,zero,50832ec <__adddf3+0x7c>
 508356c:	213fffc4 	addi	r4,r4,-1
 5083570:	2000931e 	bne	r4,zero,50837c0 <__adddf3+0x550>
 5083574:	898d883a 	add	r6,r17,r6
 5083578:	3463803a 	cmpltu	r17,r6,r17
 508357c:	4251883a 	add	r8,r8,r9
 5083580:	8a11883a 	add	r8,r17,r8
 5083584:	3023883a 	mov	r17,r6
 5083588:	003fd806 	br	50834ec <__adddf3+0x27c>
 508358c:	1800541e 	bne	r3,zero,50836e0 <__adddf3+0x470>
 5083590:	80800044 	addi	r2,r16,1
 5083594:	1081ffcc 	andi	r2,r2,2047
 5083598:	00c00044 	movi	r3,1
 508359c:	1880a00e 	bge	r3,r2,5083820 <__adddf3+0x5b0>
 50835a0:	8989c83a 	sub	r4,r17,r6
 50835a4:	8905803a 	cmpltu	r2,r17,r4
 50835a8:	4267c83a 	sub	r19,r8,r9
 50835ac:	98a7c83a 	sub	r19,r19,r2
 50835b0:	9880202c 	andhi	r2,r19,128
 50835b4:	10006326 	beq	r2,zero,5083744 <__adddf3+0x4d4>
 50835b8:	3463c83a 	sub	r17,r6,r17
 50835bc:	4a07c83a 	sub	r3,r9,r8
 50835c0:	344d803a 	cmpltu	r6,r6,r17
 50835c4:	19a7c83a 	sub	r19,r3,r6
 50835c8:	3825883a 	mov	r18,r7
 50835cc:	983f8a1e 	bne	r19,zero,50833f8 <__adddf3+0x188>
 50835d0:	8809883a 	mov	r4,r17
 50835d4:	5084d000 	call	5084d00 <__clzsi2>
 50835d8:	10800804 	addi	r2,r2,32
 50835dc:	10fffe04 	addi	r3,r2,-8
 50835e0:	010007c4 	movi	r4,31
 50835e4:	20ff890e 	bge	r4,r3,508340c <__adddf3+0x19c>
 50835e8:	10bff604 	addi	r2,r2,-40
 50835ec:	8884983a 	sll	r2,r17,r2
 50835f0:	0023883a 	mov	r17,zero
 50835f4:	1c3f8c0e 	bge	r3,r16,5083428 <__adddf3+0x1b8>
 50835f8:	023fe034 	movhi	r8,65408
 50835fc:	423fffc4 	addi	r8,r8,-1
 5083600:	80e1c83a 	sub	r16,r16,r3
 5083604:	1210703a 	and	r8,r2,r8
 5083608:	003f3806 	br	50832ec <__adddf3+0x7c>
 508360c:	9007883a 	mov	r3,r18
 5083610:	0011883a 	mov	r8,zero
 5083614:	0005883a 	mov	r2,zero
 5083618:	003f4c06 	br	508334c <__adddf3+0xdc>
 508361c:	498cb03a 	or	r6,r9,r6
 5083620:	300cc03a 	cmpne	r6,r6,zero
 5083624:	0007883a 	mov	r3,zero
 5083628:	003f6806 	br	50833cc <__adddf3+0x15c>
 508362c:	20009c1e 	bne	r4,zero,50838a0 <__adddf3+0x630>
 5083630:	80800044 	addi	r2,r16,1
 5083634:	1141ffcc 	andi	r5,r2,2047
 5083638:	01000044 	movi	r4,1
 508363c:	2140670e 	bge	r4,r5,50837dc <__adddf3+0x56c>
 5083640:	0101ffc4 	movi	r4,2047
 5083644:	11007f26 	beq	r2,r4,5083844 <__adddf3+0x5d4>
 5083648:	898d883a 	add	r6,r17,r6
 508364c:	4247883a 	add	r3,r8,r9
 5083650:	3451803a 	cmpltu	r8,r6,r17
 5083654:	40d1883a 	add	r8,r8,r3
 5083658:	402297fa 	slli	r17,r8,31
 508365c:	300cd07a 	srli	r6,r6,1
 5083660:	4010d07a 	srli	r8,r8,1
 5083664:	1021883a 	mov	r16,r2
 5083668:	89a2b03a 	or	r17,r17,r6
 508366c:	003f1f06 	br	50832ec <__adddf3+0x7c>
 5083670:	0081ffc4 	movi	r2,2047
 5083674:	80bf481e 	bne	r16,r2,5083398 <__adddf3+0x128>
 5083678:	003f1c06 	br	50832ec <__adddf3+0x7c>
 508367c:	843ff844 	addi	r16,r16,-31
 5083680:	01000804 	movi	r4,32
 5083684:	1406d83a 	srl	r3,r2,r16
 5083688:	41005026 	beq	r8,r4,50837cc <__adddf3+0x55c>
 508368c:	01001004 	movi	r4,64
 5083690:	2211c83a 	sub	r8,r4,r8
 5083694:	1204983a 	sll	r2,r2,r8
 5083698:	88a2b03a 	or	r17,r17,r2
 508369c:	8822c03a 	cmpne	r17,r17,zero
 50836a0:	1c62b03a 	or	r17,r3,r17
 50836a4:	0011883a 	mov	r8,zero
 50836a8:	0021883a 	mov	r16,zero
 50836ac:	003f7106 	br	5083474 <__adddf3+0x204>
 50836b0:	193ff804 	addi	r4,r3,-32
 50836b4:	00800804 	movi	r2,32
 50836b8:	4908d83a 	srl	r4,r9,r4
 50836bc:	18804526 	beq	r3,r2,50837d4 <__adddf3+0x564>
 50836c0:	00801004 	movi	r2,64
 50836c4:	10c5c83a 	sub	r2,r2,r3
 50836c8:	4886983a 	sll	r3,r9,r2
 50836cc:	198cb03a 	or	r6,r3,r6
 50836d0:	300cc03a 	cmpne	r6,r6,zero
 50836d4:	218cb03a 	or	r6,r4,r6
 50836d8:	0007883a 	mov	r3,zero
 50836dc:	003f3b06 	br	50833cc <__adddf3+0x15c>
 50836e0:	80002a26 	beq	r16,zero,508378c <__adddf3+0x51c>
 50836e4:	0101ffc4 	movi	r4,2047
 50836e8:	11006826 	beq	r2,r4,508388c <__adddf3+0x61c>
 50836ec:	00c7c83a 	sub	r3,zero,r3
 50836f0:	42002034 	orhi	r8,r8,128
 50836f4:	01000e04 	movi	r4,56
 50836f8:	20c07c16 	blt	r4,r3,50838ec <__adddf3+0x67c>
 50836fc:	010007c4 	movi	r4,31
 5083700:	20c0da16 	blt	r4,r3,5083a6c <__adddf3+0x7fc>
 5083704:	01000804 	movi	r4,32
 5083708:	20c9c83a 	sub	r4,r4,r3
 508370c:	4114983a 	sll	r10,r8,r4
 5083710:	88cad83a 	srl	r5,r17,r3
 5083714:	8908983a 	sll	r4,r17,r4
 5083718:	40c6d83a 	srl	r3,r8,r3
 508371c:	5162b03a 	or	r17,r10,r5
 5083720:	2008c03a 	cmpne	r4,r4,zero
 5083724:	8922b03a 	or	r17,r17,r4
 5083728:	3463c83a 	sub	r17,r6,r17
 508372c:	48c7c83a 	sub	r3,r9,r3
 5083730:	344d803a 	cmpltu	r6,r6,r17
 5083734:	1991c83a 	sub	r8,r3,r6
 5083738:	1021883a 	mov	r16,r2
 508373c:	3825883a 	mov	r18,r7
 5083740:	003f2706 	br	50833e0 <__adddf3+0x170>
 5083744:	24d0b03a 	or	r8,r4,r19
 5083748:	40001b1e 	bne	r8,zero,50837b8 <__adddf3+0x548>
 508374c:	0005883a 	mov	r2,zero
 5083750:	0007883a 	mov	r3,zero
 5083754:	0021883a 	mov	r16,zero
 5083758:	003f4d06 	br	5083490 <__adddf3+0x220>
 508375c:	008007c4 	movi	r2,31
 5083760:	11003c16 	blt	r2,r4,5083854 <__adddf3+0x5e4>
 5083764:	00800804 	movi	r2,32
 5083768:	1105c83a 	sub	r2,r2,r4
 508376c:	488e983a 	sll	r7,r9,r2
 5083770:	310ad83a 	srl	r5,r6,r4
 5083774:	3084983a 	sll	r2,r6,r2
 5083778:	4912d83a 	srl	r9,r9,r4
 508377c:	394ab03a 	or	r5,r7,r5
 5083780:	1004c03a 	cmpne	r2,r2,zero
 5083784:	288ab03a 	or	r5,r5,r2
 5083788:	003f5306 	br	50834d8 <__adddf3+0x268>
 508378c:	4448b03a 	or	r4,r8,r17
 5083790:	20003e26 	beq	r4,zero,508388c <__adddf3+0x61c>
 5083794:	00c6303a 	nor	r3,zero,r3
 5083798:	18003a1e 	bne	r3,zero,5083884 <__adddf3+0x614>
 508379c:	3463c83a 	sub	r17,r6,r17
 50837a0:	4a07c83a 	sub	r3,r9,r8
 50837a4:	344d803a 	cmpltu	r6,r6,r17
 50837a8:	1991c83a 	sub	r8,r3,r6
 50837ac:	1021883a 	mov	r16,r2
 50837b0:	3825883a 	mov	r18,r7
 50837b4:	003f0a06 	br	50833e0 <__adddf3+0x170>
 50837b8:	2023883a 	mov	r17,r4
 50837bc:	003f0d06 	br	50833f4 <__adddf3+0x184>
 50837c0:	0081ffc4 	movi	r2,2047
 50837c4:	80bf3f1e 	bne	r16,r2,50834c4 <__adddf3+0x254>
 50837c8:	003ec806 	br	50832ec <__adddf3+0x7c>
 50837cc:	0005883a 	mov	r2,zero
 50837d0:	003fb106 	br	5083698 <__adddf3+0x428>
 50837d4:	0007883a 	mov	r3,zero
 50837d8:	003fbc06 	br	50836cc <__adddf3+0x45c>
 50837dc:	4444b03a 	or	r2,r8,r17
 50837e0:	8000871e 	bne	r16,zero,5083a00 <__adddf3+0x790>
 50837e4:	1000ba26 	beq	r2,zero,5083ad0 <__adddf3+0x860>
 50837e8:	4984b03a 	or	r2,r9,r6
 50837ec:	103ebf26 	beq	r2,zero,50832ec <__adddf3+0x7c>
 50837f0:	8985883a 	add	r2,r17,r6
 50837f4:	4247883a 	add	r3,r8,r9
 50837f8:	1451803a 	cmpltu	r8,r2,r17
 50837fc:	40d1883a 	add	r8,r8,r3
 5083800:	40c0202c 	andhi	r3,r8,128
 5083804:	1023883a 	mov	r17,r2
 5083808:	183f1a26 	beq	r3,zero,5083474 <__adddf3+0x204>
 508380c:	00bfe034 	movhi	r2,65408
 5083810:	10bfffc4 	addi	r2,r2,-1
 5083814:	2021883a 	mov	r16,r4
 5083818:	4090703a 	and	r8,r8,r2
 508381c:	003eb306 	br	50832ec <__adddf3+0x7c>
 5083820:	4444b03a 	or	r2,r8,r17
 5083824:	8000291e 	bne	r16,zero,50838cc <__adddf3+0x65c>
 5083828:	10004b1e 	bne	r2,zero,5083958 <__adddf3+0x6e8>
 508382c:	4990b03a 	or	r8,r9,r6
 5083830:	40008b26 	beq	r8,zero,5083a60 <__adddf3+0x7f0>
 5083834:	4811883a 	mov	r8,r9
 5083838:	3023883a 	mov	r17,r6
 508383c:	3825883a 	mov	r18,r7
 5083840:	003eaa06 	br	50832ec <__adddf3+0x7c>
 5083844:	1021883a 	mov	r16,r2
 5083848:	0011883a 	mov	r8,zero
 508384c:	0005883a 	mov	r2,zero
 5083850:	003f0f06 	br	5083490 <__adddf3+0x220>
 5083854:	217ff804 	addi	r5,r4,-32
 5083858:	00800804 	movi	r2,32
 508385c:	494ad83a 	srl	r5,r9,r5
 5083860:	20807d26 	beq	r4,r2,5083a58 <__adddf3+0x7e8>
 5083864:	00801004 	movi	r2,64
 5083868:	1109c83a 	sub	r4,r2,r4
 508386c:	4912983a 	sll	r9,r9,r4
 5083870:	498cb03a 	or	r6,r9,r6
 5083874:	300cc03a 	cmpne	r6,r6,zero
 5083878:	298ab03a 	or	r5,r5,r6
 508387c:	0013883a 	mov	r9,zero
 5083880:	003f1506 	br	50834d8 <__adddf3+0x268>
 5083884:	0101ffc4 	movi	r4,2047
 5083888:	113f9a1e 	bne	r2,r4,50836f4 <__adddf3+0x484>
 508388c:	4811883a 	mov	r8,r9
 5083890:	3023883a 	mov	r17,r6
 5083894:	1021883a 	mov	r16,r2
 5083898:	3825883a 	mov	r18,r7
 508389c:	003e9306 	br	50832ec <__adddf3+0x7c>
 50838a0:	8000161e 	bne	r16,zero,50838fc <__adddf3+0x68c>
 50838a4:	444ab03a 	or	r5,r8,r17
 50838a8:	28005126 	beq	r5,zero,50839f0 <__adddf3+0x780>
 50838ac:	0108303a 	nor	r4,zero,r4
 50838b0:	20004d1e 	bne	r4,zero,50839e8 <__adddf3+0x778>
 50838b4:	89a3883a 	add	r17,r17,r6
 50838b8:	4253883a 	add	r9,r8,r9
 50838bc:	898d803a 	cmpltu	r6,r17,r6
 50838c0:	3251883a 	add	r8,r6,r9
 50838c4:	1021883a 	mov	r16,r2
 50838c8:	003f0806 	br	50834ec <__adddf3+0x27c>
 50838cc:	1000301e 	bne	r2,zero,5083990 <__adddf3+0x720>
 50838d0:	4984b03a 	or	r2,r9,r6
 50838d4:	10007126 	beq	r2,zero,5083a9c <__adddf3+0x82c>
 50838d8:	4811883a 	mov	r8,r9
 50838dc:	3023883a 	mov	r17,r6
 50838e0:	3825883a 	mov	r18,r7
 50838e4:	0401ffc4 	movi	r16,2047
 50838e8:	003e8006 	br	50832ec <__adddf3+0x7c>
 50838ec:	4462b03a 	or	r17,r8,r17
 50838f0:	8822c03a 	cmpne	r17,r17,zero
 50838f4:	0007883a 	mov	r3,zero
 50838f8:	003f8b06 	br	5083728 <__adddf3+0x4b8>
 50838fc:	0141ffc4 	movi	r5,2047
 5083900:	11403b26 	beq	r2,r5,50839f0 <__adddf3+0x780>
 5083904:	0109c83a 	sub	r4,zero,r4
 5083908:	42002034 	orhi	r8,r8,128
 508390c:	01400e04 	movi	r5,56
 5083910:	29006716 	blt	r5,r4,5083ab0 <__adddf3+0x840>
 5083914:	014007c4 	movi	r5,31
 5083918:	29007016 	blt	r5,r4,5083adc <__adddf3+0x86c>
 508391c:	01400804 	movi	r5,32
 5083920:	290bc83a 	sub	r5,r5,r4
 5083924:	4154983a 	sll	r10,r8,r5
 5083928:	890ed83a 	srl	r7,r17,r4
 508392c:	894a983a 	sll	r5,r17,r5
 5083930:	4108d83a 	srl	r4,r8,r4
 5083934:	51e2b03a 	or	r17,r10,r7
 5083938:	280ac03a 	cmpne	r5,r5,zero
 508393c:	8962b03a 	or	r17,r17,r5
 5083940:	89a3883a 	add	r17,r17,r6
 5083944:	2253883a 	add	r9,r4,r9
 5083948:	898d803a 	cmpltu	r6,r17,r6
 508394c:	3251883a 	add	r8,r6,r9
 5083950:	1021883a 	mov	r16,r2
 5083954:	003ee506 	br	50834ec <__adddf3+0x27c>
 5083958:	4984b03a 	or	r2,r9,r6
 508395c:	103e6326 	beq	r2,zero,50832ec <__adddf3+0x7c>
 5083960:	8987c83a 	sub	r3,r17,r6
 5083964:	88c9803a 	cmpltu	r4,r17,r3
 5083968:	4245c83a 	sub	r2,r8,r9
 508396c:	1105c83a 	sub	r2,r2,r4
 5083970:	1100202c 	andhi	r4,r2,128
 5083974:	203ebb26 	beq	r4,zero,5083464 <__adddf3+0x1f4>
 5083978:	3463c83a 	sub	r17,r6,r17
 508397c:	4a07c83a 	sub	r3,r9,r8
 5083980:	344d803a 	cmpltu	r6,r6,r17
 5083984:	1991c83a 	sub	r8,r3,r6
 5083988:	3825883a 	mov	r18,r7
 508398c:	003e5706 	br	50832ec <__adddf3+0x7c>
 5083990:	4984b03a 	or	r2,r9,r6
 5083994:	10002e26 	beq	r2,zero,5083a50 <__adddf3+0x7e0>
 5083998:	4004d0fa 	srli	r2,r8,3
 508399c:	8822d0fa 	srli	r17,r17,3
 50839a0:	4010977a 	slli	r8,r8,29
 50839a4:	10c0022c 	andhi	r3,r2,8
 50839a8:	4462b03a 	or	r17,r8,r17
 50839ac:	18000826 	beq	r3,zero,50839d0 <__adddf3+0x760>
 50839b0:	4808d0fa 	srli	r4,r9,3
 50839b4:	20c0022c 	andhi	r3,r4,8
 50839b8:	1800051e 	bne	r3,zero,50839d0 <__adddf3+0x760>
 50839bc:	300cd0fa 	srli	r6,r6,3
 50839c0:	4806977a 	slli	r3,r9,29
 50839c4:	2005883a 	mov	r2,r4
 50839c8:	3825883a 	mov	r18,r7
 50839cc:	19a2b03a 	or	r17,r3,r6
 50839d0:	8810d77a 	srli	r8,r17,29
 50839d4:	100490fa 	slli	r2,r2,3
 50839d8:	882290fa 	slli	r17,r17,3
 50839dc:	0401ffc4 	movi	r16,2047
 50839e0:	4090b03a 	or	r8,r8,r2
 50839e4:	003e4106 	br	50832ec <__adddf3+0x7c>
 50839e8:	0141ffc4 	movi	r5,2047
 50839ec:	117fc71e 	bne	r2,r5,508390c <__adddf3+0x69c>
 50839f0:	4811883a 	mov	r8,r9
 50839f4:	3023883a 	mov	r17,r6
 50839f8:	1021883a 	mov	r16,r2
 50839fc:	003e3b06 	br	50832ec <__adddf3+0x7c>
 5083a00:	10002f26 	beq	r2,zero,5083ac0 <__adddf3+0x850>
 5083a04:	4984b03a 	or	r2,r9,r6
 5083a08:	10001126 	beq	r2,zero,5083a50 <__adddf3+0x7e0>
 5083a0c:	4004d0fa 	srli	r2,r8,3
 5083a10:	8822d0fa 	srli	r17,r17,3
 5083a14:	4010977a 	slli	r8,r8,29
 5083a18:	10c0022c 	andhi	r3,r2,8
 5083a1c:	4462b03a 	or	r17,r8,r17
 5083a20:	183feb26 	beq	r3,zero,50839d0 <__adddf3+0x760>
 5083a24:	4808d0fa 	srli	r4,r9,3
 5083a28:	20c0022c 	andhi	r3,r4,8
 5083a2c:	183fe81e 	bne	r3,zero,50839d0 <__adddf3+0x760>
 5083a30:	300cd0fa 	srli	r6,r6,3
 5083a34:	4806977a 	slli	r3,r9,29
 5083a38:	2005883a 	mov	r2,r4
 5083a3c:	19a2b03a 	or	r17,r3,r6
 5083a40:	003fe306 	br	50839d0 <__adddf3+0x760>
 5083a44:	0011883a 	mov	r8,zero
 5083a48:	0005883a 	mov	r2,zero
 5083a4c:	003e3f06 	br	508334c <__adddf3+0xdc>
 5083a50:	0401ffc4 	movi	r16,2047
 5083a54:	003e2506 	br	50832ec <__adddf3+0x7c>
 5083a58:	0013883a 	mov	r9,zero
 5083a5c:	003f8406 	br	5083870 <__adddf3+0x600>
 5083a60:	0005883a 	mov	r2,zero
 5083a64:	0007883a 	mov	r3,zero
 5083a68:	003e8906 	br	5083490 <__adddf3+0x220>
 5083a6c:	197ff804 	addi	r5,r3,-32
 5083a70:	01000804 	movi	r4,32
 5083a74:	414ad83a 	srl	r5,r8,r5
 5083a78:	19002426 	beq	r3,r4,5083b0c <__adddf3+0x89c>
 5083a7c:	01001004 	movi	r4,64
 5083a80:	20c7c83a 	sub	r3,r4,r3
 5083a84:	40c6983a 	sll	r3,r8,r3
 5083a88:	1c46b03a 	or	r3,r3,r17
 5083a8c:	1806c03a 	cmpne	r3,r3,zero
 5083a90:	28e2b03a 	or	r17,r5,r3
 5083a94:	0007883a 	mov	r3,zero
 5083a98:	003f2306 	br	5083728 <__adddf3+0x4b8>
 5083a9c:	0007883a 	mov	r3,zero
 5083aa0:	5811883a 	mov	r8,r11
 5083aa4:	00bfffc4 	movi	r2,-1
 5083aa8:	0401ffc4 	movi	r16,2047
 5083aac:	003e7806 	br	5083490 <__adddf3+0x220>
 5083ab0:	4462b03a 	or	r17,r8,r17
 5083ab4:	8822c03a 	cmpne	r17,r17,zero
 5083ab8:	0009883a 	mov	r4,zero
 5083abc:	003fa006 	br	5083940 <__adddf3+0x6d0>
 5083ac0:	4811883a 	mov	r8,r9
 5083ac4:	3023883a 	mov	r17,r6
 5083ac8:	0401ffc4 	movi	r16,2047
 5083acc:	003e0706 	br	50832ec <__adddf3+0x7c>
 5083ad0:	4811883a 	mov	r8,r9
 5083ad4:	3023883a 	mov	r17,r6
 5083ad8:	003e0406 	br	50832ec <__adddf3+0x7c>
 5083adc:	21fff804 	addi	r7,r4,-32
 5083ae0:	01400804 	movi	r5,32
 5083ae4:	41ced83a 	srl	r7,r8,r7
 5083ae8:	21400a26 	beq	r4,r5,5083b14 <__adddf3+0x8a4>
 5083aec:	01401004 	movi	r5,64
 5083af0:	2909c83a 	sub	r4,r5,r4
 5083af4:	4108983a 	sll	r4,r8,r4
 5083af8:	2448b03a 	or	r4,r4,r17
 5083afc:	2008c03a 	cmpne	r4,r4,zero
 5083b00:	3922b03a 	or	r17,r7,r4
 5083b04:	0009883a 	mov	r4,zero
 5083b08:	003f8d06 	br	5083940 <__adddf3+0x6d0>
 5083b0c:	0007883a 	mov	r3,zero
 5083b10:	003fdd06 	br	5083a88 <__adddf3+0x818>
 5083b14:	0009883a 	mov	r4,zero
 5083b18:	003ff706 	br	5083af8 <__adddf3+0x888>

05083b1c <__ledf2>:
 5083b1c:	2804d53a 	srli	r2,r5,20
 5083b20:	3810d53a 	srli	r8,r7,20
 5083b24:	00c00434 	movhi	r3,16
 5083b28:	18ffffc4 	addi	r3,r3,-1
 5083b2c:	1081ffcc 	andi	r2,r2,2047
 5083b30:	0241ffc4 	movi	r9,2047
 5083b34:	28d4703a 	and	r10,r5,r3
 5083b38:	4201ffcc 	andi	r8,r8,2047
 5083b3c:	38c6703a 	and	r3,r7,r3
 5083b40:	280ad7fa 	srli	r5,r5,31
 5083b44:	380ed7fa 	srli	r7,r7,31
 5083b48:	12401f26 	beq	r2,r9,5083bc8 <__ledf2+0xac>
 5083b4c:	0241ffc4 	movi	r9,2047
 5083b50:	42401426 	beq	r8,r9,5083ba4 <__ledf2+0x88>
 5083b54:	1000091e 	bne	r2,zero,5083b7c <__ledf2+0x60>
 5083b58:	2296b03a 	or	r11,r4,r10
 5083b5c:	5813003a 	cmpeq	r9,r11,zero
 5083b60:	29403fcc 	andi	r5,r5,255
 5083b64:	40000a1e 	bne	r8,zero,5083b90 <__ledf2+0x74>
 5083b68:	30d8b03a 	or	r12,r6,r3
 5083b6c:	6000081e 	bne	r12,zero,5083b90 <__ledf2+0x74>
 5083b70:	0005883a 	mov	r2,zero
 5083b74:	5800111e 	bne	r11,zero,5083bbc <__ledf2+0xa0>
 5083b78:	f800283a 	ret
 5083b7c:	29403fcc 	andi	r5,r5,255
 5083b80:	40000c1e 	bne	r8,zero,5083bb4 <__ledf2+0x98>
 5083b84:	30d2b03a 	or	r9,r6,r3
 5083b88:	48000c26 	beq	r9,zero,5083bbc <__ledf2+0xa0>
 5083b8c:	0013883a 	mov	r9,zero
 5083b90:	39c03fcc 	andi	r7,r7,255
 5083b94:	48000826 	beq	r9,zero,5083bb8 <__ledf2+0x9c>
 5083b98:	38001126 	beq	r7,zero,5083be0 <__ledf2+0xc4>
 5083b9c:	00800044 	movi	r2,1
 5083ba0:	f800283a 	ret
 5083ba4:	30d2b03a 	or	r9,r6,r3
 5083ba8:	483fea26 	beq	r9,zero,5083b54 <__ledf2+0x38>
 5083bac:	00800084 	movi	r2,2
 5083bb0:	f800283a 	ret
 5083bb4:	39c03fcc 	andi	r7,r7,255
 5083bb8:	39400726 	beq	r7,r5,5083bd8 <__ledf2+0xbc>
 5083bbc:	2800081e 	bne	r5,zero,5083be0 <__ledf2+0xc4>
 5083bc0:	00800044 	movi	r2,1
 5083bc4:	f800283a 	ret
 5083bc8:	2292b03a 	or	r9,r4,r10
 5083bcc:	483fdf26 	beq	r9,zero,5083b4c <__ledf2+0x30>
 5083bd0:	00800084 	movi	r2,2
 5083bd4:	f800283a 	ret
 5083bd8:	4080030e 	bge	r8,r2,5083be8 <__ledf2+0xcc>
 5083bdc:	383fef26 	beq	r7,zero,5083b9c <__ledf2+0x80>
 5083be0:	00bfffc4 	movi	r2,-1
 5083be4:	f800283a 	ret
 5083be8:	123feb16 	blt	r2,r8,5083b98 <__ledf2+0x7c>
 5083bec:	1abff336 	bltu	r3,r10,5083bbc <__ledf2+0xa0>
 5083bf0:	50c00326 	beq	r10,r3,5083c00 <__ledf2+0xe4>
 5083bf4:	50c0042e 	bgeu	r10,r3,5083c08 <__ledf2+0xec>
 5083bf8:	283fe81e 	bne	r5,zero,5083b9c <__ledf2+0x80>
 5083bfc:	003ff806 	br	5083be0 <__ledf2+0xc4>
 5083c00:	313fee36 	bltu	r6,r4,5083bbc <__ledf2+0xa0>
 5083c04:	21bffc36 	bltu	r4,r6,5083bf8 <__ledf2+0xdc>
 5083c08:	0005883a 	mov	r2,zero
 5083c0c:	f800283a 	ret

05083c10 <__muldf3>:
 5083c10:	defff304 	addi	sp,sp,-52
 5083c14:	2804d53a 	srli	r2,r5,20
 5083c18:	dd800915 	stw	r22,36(sp)
 5083c1c:	282cd7fa 	srli	r22,r5,31
 5083c20:	dc000315 	stw	r16,12(sp)
 5083c24:	04000434 	movhi	r16,16
 5083c28:	dd400815 	stw	r21,32(sp)
 5083c2c:	dc800515 	stw	r18,20(sp)
 5083c30:	843fffc4 	addi	r16,r16,-1
 5083c34:	dfc00c15 	stw	ra,48(sp)
 5083c38:	df000b15 	stw	fp,44(sp)
 5083c3c:	ddc00a15 	stw	r23,40(sp)
 5083c40:	dd000715 	stw	r20,28(sp)
 5083c44:	dcc00615 	stw	r19,24(sp)
 5083c48:	dc400415 	stw	r17,16(sp)
 5083c4c:	1481ffcc 	andi	r18,r2,2047
 5083c50:	2c20703a 	and	r16,r5,r16
 5083c54:	b02b883a 	mov	r21,r22
 5083c58:	b2403fcc 	andi	r9,r22,255
 5083c5c:	90006026 	beq	r18,zero,5083de0 <__muldf3+0x1d0>
 5083c60:	0081ffc4 	movi	r2,2047
 5083c64:	2029883a 	mov	r20,r4
 5083c68:	90803626 	beq	r18,r2,5083d44 <__muldf3+0x134>
 5083c6c:	80800434 	orhi	r2,r16,16
 5083c70:	100490fa 	slli	r2,r2,3
 5083c74:	2020d77a 	srli	r16,r4,29
 5083c78:	202890fa 	slli	r20,r4,3
 5083c7c:	94bf0044 	addi	r18,r18,-1023
 5083c80:	80a0b03a 	or	r16,r16,r2
 5083c84:	0027883a 	mov	r19,zero
 5083c88:	0039883a 	mov	fp,zero
 5083c8c:	3804d53a 	srli	r2,r7,20
 5083c90:	382ed7fa 	srli	r23,r7,31
 5083c94:	04400434 	movhi	r17,16
 5083c98:	8c7fffc4 	addi	r17,r17,-1
 5083c9c:	1081ffcc 	andi	r2,r2,2047
 5083ca0:	3011883a 	mov	r8,r6
 5083ca4:	3c62703a 	and	r17,r7,r17
 5083ca8:	ba803fcc 	andi	r10,r23,255
 5083cac:	10006d26 	beq	r2,zero,5083e64 <__muldf3+0x254>
 5083cb0:	00c1ffc4 	movi	r3,2047
 5083cb4:	10c06526 	beq	r2,r3,5083e4c <__muldf3+0x23c>
 5083cb8:	88c00434 	orhi	r3,r17,16
 5083cbc:	180690fa 	slli	r3,r3,3
 5083cc0:	3022d77a 	srli	r17,r6,29
 5083cc4:	301090fa 	slli	r8,r6,3
 5083cc8:	10bf0044 	addi	r2,r2,-1023
 5083ccc:	88e2b03a 	or	r17,r17,r3
 5083cd0:	000b883a 	mov	r5,zero
 5083cd4:	9085883a 	add	r2,r18,r2
 5083cd8:	2cc8b03a 	or	r4,r5,r19
 5083cdc:	00c003c4 	movi	r3,15
 5083ce0:	bdacf03a 	xor	r22,r23,r22
 5083ce4:	12c00044 	addi	r11,r2,1
 5083ce8:	19009936 	bltu	r3,r4,5083f50 <__muldf3+0x340>
 5083cec:	200890ba 	slli	r4,r4,2
 5083cf0:	00c14234 	movhi	r3,1288
 5083cf4:	18cf4104 	addi	r3,r3,15620
 5083cf8:	20c9883a 	add	r4,r4,r3
 5083cfc:	20c00017 	ldw	r3,0(r4)
 5083d00:	1800683a 	jmp	r3
 5083d04:	05083f50 	cmplti	r20,zero,8445
 5083d08:	05083d64 	muli	r20,zero,8437
 5083d0c:	05083d64 	muli	r20,zero,8437
 5083d10:	05083d60 	cmpeqi	r20,zero,8437
 5083d14:	05083f2c 	andhi	r20,zero,8444
 5083d18:	05083f2c 	andhi	r20,zero,8444
 5083d1c:	05083f14 	movui	r20,8444
 5083d20:	05083d60 	cmpeqi	r20,zero,8437
 5083d24:	05083f2c 	andhi	r20,zero,8444
 5083d28:	05083f14 	movui	r20,8444
 5083d2c:	05083f2c 	andhi	r20,zero,8444
 5083d30:	05083d60 	cmpeqi	r20,zero,8437
 5083d34:	05083f3c 	xorhi	r20,zero,8444
 5083d38:	05083f3c 	xorhi	r20,zero,8444
 5083d3c:	05083f3c 	xorhi	r20,zero,8444
 5083d40:	05084158 	cmpnei	r20,zero,8453
 5083d44:	2404b03a 	or	r2,r4,r16
 5083d48:	10006f1e 	bne	r2,zero,5083f08 <__muldf3+0x2f8>
 5083d4c:	04c00204 	movi	r19,8
 5083d50:	0021883a 	mov	r16,zero
 5083d54:	0029883a 	mov	r20,zero
 5083d58:	07000084 	movi	fp,2
 5083d5c:	003fcb06 	br	5083c8c <__muldf3+0x7c>
 5083d60:	502d883a 	mov	r22,r10
 5083d64:	00800084 	movi	r2,2
 5083d68:	28805726 	beq	r5,r2,5083ec8 <__muldf3+0x2b8>
 5083d6c:	008000c4 	movi	r2,3
 5083d70:	28816626 	beq	r5,r2,508430c <__muldf3+0x6fc>
 5083d74:	00800044 	movi	r2,1
 5083d78:	2881411e 	bne	r5,r2,5084280 <__muldf3+0x670>
 5083d7c:	b02b883a 	mov	r21,r22
 5083d80:	0005883a 	mov	r2,zero
 5083d84:	000b883a 	mov	r5,zero
 5083d88:	0029883a 	mov	r20,zero
 5083d8c:	1004953a 	slli	r2,r2,20
 5083d90:	a8c03fcc 	andi	r3,r21,255
 5083d94:	04400434 	movhi	r17,16
 5083d98:	8c7fffc4 	addi	r17,r17,-1
 5083d9c:	180697fa 	slli	r3,r3,31
 5083da0:	2c4a703a 	and	r5,r5,r17
 5083da4:	288ab03a 	or	r5,r5,r2
 5083da8:	28c6b03a 	or	r3,r5,r3
 5083dac:	a005883a 	mov	r2,r20
 5083db0:	dfc00c17 	ldw	ra,48(sp)
 5083db4:	df000b17 	ldw	fp,44(sp)
 5083db8:	ddc00a17 	ldw	r23,40(sp)
 5083dbc:	dd800917 	ldw	r22,36(sp)
 5083dc0:	dd400817 	ldw	r21,32(sp)
 5083dc4:	dd000717 	ldw	r20,28(sp)
 5083dc8:	dcc00617 	ldw	r19,24(sp)
 5083dcc:	dc800517 	ldw	r18,20(sp)
 5083dd0:	dc400417 	ldw	r17,16(sp)
 5083dd4:	dc000317 	ldw	r16,12(sp)
 5083dd8:	dec00d04 	addi	sp,sp,52
 5083ddc:	f800283a 	ret
 5083de0:	2404b03a 	or	r2,r4,r16
 5083de4:	2027883a 	mov	r19,r4
 5083de8:	10004226 	beq	r2,zero,5083ef4 <__muldf3+0x2e4>
 5083dec:	8000fc26 	beq	r16,zero,50841e0 <__muldf3+0x5d0>
 5083df0:	8009883a 	mov	r4,r16
 5083df4:	d9800215 	stw	r6,8(sp)
 5083df8:	d9c00015 	stw	r7,0(sp)
 5083dfc:	da400115 	stw	r9,4(sp)
 5083e00:	5084d000 	call	5084d00 <__clzsi2>
 5083e04:	d9800217 	ldw	r6,8(sp)
 5083e08:	d9c00017 	ldw	r7,0(sp)
 5083e0c:	da400117 	ldw	r9,4(sp)
 5083e10:	113ffd44 	addi	r4,r2,-11
 5083e14:	00c00704 	movi	r3,28
 5083e18:	1900ed16 	blt	r3,r4,50841d0 <__muldf3+0x5c0>
 5083e1c:	00c00744 	movi	r3,29
 5083e20:	147ffe04 	addi	r17,r2,-8
 5083e24:	1907c83a 	sub	r3,r3,r4
 5083e28:	8460983a 	sll	r16,r16,r17
 5083e2c:	98c6d83a 	srl	r3,r19,r3
 5083e30:	9c68983a 	sll	r20,r19,r17
 5083e34:	1c20b03a 	or	r16,r3,r16
 5083e38:	1080fcc4 	addi	r2,r2,1011
 5083e3c:	00a5c83a 	sub	r18,zero,r2
 5083e40:	0027883a 	mov	r19,zero
 5083e44:	0039883a 	mov	fp,zero
 5083e48:	003f9006 	br	5083c8c <__muldf3+0x7c>
 5083e4c:	3446b03a 	or	r3,r6,r17
 5083e50:	1800261e 	bne	r3,zero,5083eec <__muldf3+0x2dc>
 5083e54:	0023883a 	mov	r17,zero
 5083e58:	0011883a 	mov	r8,zero
 5083e5c:	01400084 	movi	r5,2
 5083e60:	003f9c06 	br	5083cd4 <__muldf3+0xc4>
 5083e64:	3446b03a 	or	r3,r6,r17
 5083e68:	18001c26 	beq	r3,zero,5083edc <__muldf3+0x2cc>
 5083e6c:	8800ce26 	beq	r17,zero,50841a8 <__muldf3+0x598>
 5083e70:	8809883a 	mov	r4,r17
 5083e74:	d9800215 	stw	r6,8(sp)
 5083e78:	da400115 	stw	r9,4(sp)
 5083e7c:	da800015 	stw	r10,0(sp)
 5083e80:	5084d000 	call	5084d00 <__clzsi2>
 5083e84:	d9800217 	ldw	r6,8(sp)
 5083e88:	da400117 	ldw	r9,4(sp)
 5083e8c:	da800017 	ldw	r10,0(sp)
 5083e90:	113ffd44 	addi	r4,r2,-11
 5083e94:	00c00704 	movi	r3,28
 5083e98:	1900bf16 	blt	r3,r4,5084198 <__muldf3+0x588>
 5083e9c:	00c00744 	movi	r3,29
 5083ea0:	123ffe04 	addi	r8,r2,-8
 5083ea4:	1907c83a 	sub	r3,r3,r4
 5083ea8:	8a22983a 	sll	r17,r17,r8
 5083eac:	30c6d83a 	srl	r3,r6,r3
 5083eb0:	3210983a 	sll	r8,r6,r8
 5083eb4:	1c62b03a 	or	r17,r3,r17
 5083eb8:	1080fcc4 	addi	r2,r2,1011
 5083ebc:	0085c83a 	sub	r2,zero,r2
 5083ec0:	000b883a 	mov	r5,zero
 5083ec4:	003f8306 	br	5083cd4 <__muldf3+0xc4>
 5083ec8:	b02b883a 	mov	r21,r22
 5083ecc:	0081ffc4 	movi	r2,2047
 5083ed0:	000b883a 	mov	r5,zero
 5083ed4:	0029883a 	mov	r20,zero
 5083ed8:	003fac06 	br	5083d8c <__muldf3+0x17c>
 5083edc:	0023883a 	mov	r17,zero
 5083ee0:	0011883a 	mov	r8,zero
 5083ee4:	01400044 	movi	r5,1
 5083ee8:	003f7a06 	br	5083cd4 <__muldf3+0xc4>
 5083eec:	014000c4 	movi	r5,3
 5083ef0:	003f7806 	br	5083cd4 <__muldf3+0xc4>
 5083ef4:	04c00104 	movi	r19,4
 5083ef8:	0021883a 	mov	r16,zero
 5083efc:	0029883a 	mov	r20,zero
 5083f00:	07000044 	movi	fp,1
 5083f04:	003f6106 	br	5083c8c <__muldf3+0x7c>
 5083f08:	04c00304 	movi	r19,12
 5083f0c:	070000c4 	movi	fp,3
 5083f10:	003f5e06 	br	5083c8c <__muldf3+0x7c>
 5083f14:	01400434 	movhi	r5,16
 5083f18:	002b883a 	mov	r21,zero
 5083f1c:	297fffc4 	addi	r5,r5,-1
 5083f20:	053fffc4 	movi	r20,-1
 5083f24:	0081ffc4 	movi	r2,2047
 5083f28:	003f9806 	br	5083d8c <__muldf3+0x17c>
 5083f2c:	8023883a 	mov	r17,r16
 5083f30:	a011883a 	mov	r8,r20
 5083f34:	e00b883a 	mov	r5,fp
 5083f38:	003f8a06 	br	5083d64 <__muldf3+0x154>
 5083f3c:	8023883a 	mov	r17,r16
 5083f40:	a011883a 	mov	r8,r20
 5083f44:	482d883a 	mov	r22,r9
 5083f48:	e00b883a 	mov	r5,fp
 5083f4c:	003f8506 	br	5083d64 <__muldf3+0x154>
 5083f50:	a00ad43a 	srli	r5,r20,16
 5083f54:	401ad43a 	srli	r13,r8,16
 5083f58:	a53fffcc 	andi	r20,r20,65535
 5083f5c:	423fffcc 	andi	r8,r8,65535
 5083f60:	4519383a 	mul	r12,r8,r20
 5083f64:	4147383a 	mul	r3,r8,r5
 5083f68:	6d09383a 	mul	r4,r13,r20
 5083f6c:	600cd43a 	srli	r6,r12,16
 5083f70:	2b5d383a 	mul	r14,r5,r13
 5083f74:	20c9883a 	add	r4,r4,r3
 5083f78:	310d883a 	add	r6,r6,r4
 5083f7c:	30c0022e 	bgeu	r6,r3,5083f88 <__muldf3+0x378>
 5083f80:	00c00074 	movhi	r3,1
 5083f84:	70dd883a 	add	r14,r14,r3
 5083f88:	8826d43a 	srli	r19,r17,16
 5083f8c:	8bffffcc 	andi	r15,r17,65535
 5083f90:	7d23383a 	mul	r17,r15,r20
 5083f94:	7949383a 	mul	r4,r15,r5
 5083f98:	9d29383a 	mul	r20,r19,r20
 5083f9c:	8814d43a 	srli	r10,r17,16
 5083fa0:	3012943a 	slli	r9,r6,16
 5083fa4:	a129883a 	add	r20,r20,r4
 5083fa8:	633fffcc 	andi	r12,r12,65535
 5083fac:	5515883a 	add	r10,r10,r20
 5083fb0:	3006d43a 	srli	r3,r6,16
 5083fb4:	4b13883a 	add	r9,r9,r12
 5083fb8:	2ccb383a 	mul	r5,r5,r19
 5083fbc:	5100022e 	bgeu	r10,r4,5083fc8 <__muldf3+0x3b8>
 5083fc0:	01000074 	movhi	r4,1
 5083fc4:	290b883a 	add	r5,r5,r4
 5083fc8:	802ad43a 	srli	r21,r16,16
 5083fcc:	843fffcc 	andi	r16,r16,65535
 5083fd0:	440d383a 	mul	r6,r8,r16
 5083fd4:	4565383a 	mul	r18,r8,r21
 5083fd8:	8349383a 	mul	r4,r16,r13
 5083fdc:	500e943a 	slli	r7,r10,16
 5083fe0:	3010d43a 	srli	r8,r6,16
 5083fe4:	5028d43a 	srli	r20,r10,16
 5083fe8:	2489883a 	add	r4,r4,r18
 5083fec:	8abfffcc 	andi	r10,r17,65535
 5083ff0:	3a95883a 	add	r10,r7,r10
 5083ff4:	4119883a 	add	r12,r8,r4
 5083ff8:	a169883a 	add	r20,r20,r5
 5083ffc:	1a87883a 	add	r3,r3,r10
 5084000:	6d5b383a 	mul	r13,r13,r21
 5084004:	6480022e 	bgeu	r12,r18,5084010 <__muldf3+0x400>
 5084008:	01000074 	movhi	r4,1
 508400c:	691b883a 	add	r13,r13,r4
 5084010:	7c25383a 	mul	r18,r15,r16
 5084014:	7d4b383a 	mul	r5,r15,r21
 5084018:	84cf383a 	mul	r7,r16,r19
 508401c:	901ed43a 	srli	r15,r18,16
 5084020:	6008d43a 	srli	r4,r12,16
 5084024:	6010943a 	slli	r8,r12,16
 5084028:	394f883a 	add	r7,r7,r5
 508402c:	333fffcc 	andi	r12,r6,65535
 5084030:	79df883a 	add	r15,r15,r7
 5084034:	235b883a 	add	r13,r4,r13
 5084038:	9d63383a 	mul	r17,r19,r21
 508403c:	4309883a 	add	r4,r8,r12
 5084040:	7940022e 	bgeu	r15,r5,508404c <__muldf3+0x43c>
 5084044:	01400074 	movhi	r5,1
 5084048:	8963883a 	add	r17,r17,r5
 508404c:	780a943a 	slli	r5,r15,16
 5084050:	91bfffcc 	andi	r6,r18,65535
 5084054:	70c7883a 	add	r3,r14,r3
 5084058:	298d883a 	add	r6,r5,r6
 508405c:	1a8f803a 	cmpltu	r7,r3,r10
 5084060:	350b883a 	add	r5,r6,r20
 5084064:	20c7883a 	add	r3,r4,r3
 5084068:	3955883a 	add	r10,r7,r5
 508406c:	1909803a 	cmpltu	r4,r3,r4
 5084070:	6a91883a 	add	r8,r13,r10
 5084074:	780cd43a 	srli	r6,r15,16
 5084078:	2219883a 	add	r12,r4,r8
 508407c:	2d0b803a 	cmpltu	r5,r5,r20
 5084080:	51cf803a 	cmpltu	r7,r10,r7
 5084084:	29ceb03a 	or	r7,r5,r7
 5084088:	4351803a 	cmpltu	r8,r8,r13
 508408c:	610b803a 	cmpltu	r5,r12,r4
 5084090:	4148b03a 	or	r4,r8,r5
 5084094:	398f883a 	add	r7,r7,r6
 5084098:	3909883a 	add	r4,r7,r4
 508409c:	1810927a 	slli	r8,r3,9
 50840a0:	2449883a 	add	r4,r4,r17
 50840a4:	2008927a 	slli	r4,r4,9
 50840a8:	6022d5fa 	srli	r17,r12,23
 50840ac:	1806d5fa 	srli	r3,r3,23
 50840b0:	4252b03a 	or	r9,r8,r9
 50840b4:	600a927a 	slli	r5,r12,9
 50840b8:	4810c03a 	cmpne	r8,r9,zero
 50840bc:	2462b03a 	or	r17,r4,r17
 50840c0:	40c6b03a 	or	r3,r8,r3
 50840c4:	8900402c 	andhi	r4,r17,256
 50840c8:	1950b03a 	or	r8,r3,r5
 50840cc:	20000726 	beq	r4,zero,50840ec <__muldf3+0x4dc>
 50840d0:	4006d07a 	srli	r3,r8,1
 50840d4:	880497fa 	slli	r2,r17,31
 50840d8:	4200004c 	andi	r8,r8,1
 50840dc:	8822d07a 	srli	r17,r17,1
 50840e0:	1a10b03a 	or	r8,r3,r8
 50840e4:	1210b03a 	or	r8,r2,r8
 50840e8:	5805883a 	mov	r2,r11
 50840ec:	1140ffc4 	addi	r5,r2,1023
 50840f0:	0140440e 	bge	zero,r5,5084204 <__muldf3+0x5f4>
 50840f4:	40c001cc 	andi	r3,r8,7
 50840f8:	18000726 	beq	r3,zero,5084118 <__muldf3+0x508>
 50840fc:	40c003cc 	andi	r3,r8,15
 5084100:	01000104 	movi	r4,4
 5084104:	19000426 	beq	r3,r4,5084118 <__muldf3+0x508>
 5084108:	4107883a 	add	r3,r8,r4
 508410c:	1a11803a 	cmpltu	r8,r3,r8
 5084110:	8a23883a 	add	r17,r17,r8
 5084114:	1811883a 	mov	r8,r3
 5084118:	88c0402c 	andhi	r3,r17,256
 508411c:	18000426 	beq	r3,zero,5084130 <__muldf3+0x520>
 5084120:	11410004 	addi	r5,r2,1024
 5084124:	00bfc034 	movhi	r2,65280
 5084128:	10bfffc4 	addi	r2,r2,-1
 508412c:	88a2703a 	and	r17,r17,r2
 5084130:	0081ff84 	movi	r2,2046
 5084134:	117f6416 	blt	r2,r5,5083ec8 <__muldf3+0x2b8>
 5084138:	8828977a 	slli	r20,r17,29
 508413c:	4010d0fa 	srli	r8,r8,3
 5084140:	8822927a 	slli	r17,r17,9
 5084144:	2881ffcc 	andi	r2,r5,2047
 5084148:	a228b03a 	or	r20,r20,r8
 508414c:	880ad33a 	srli	r5,r17,12
 5084150:	b02b883a 	mov	r21,r22
 5084154:	003f0d06 	br	5083d8c <__muldf3+0x17c>
 5084158:	8080022c 	andhi	r2,r16,8
 508415c:	10000926 	beq	r2,zero,5084184 <__muldf3+0x574>
 5084160:	8880022c 	andhi	r2,r17,8
 5084164:	1000071e 	bne	r2,zero,5084184 <__muldf3+0x574>
 5084168:	00800434 	movhi	r2,16
 508416c:	89400234 	orhi	r5,r17,8
 5084170:	10bfffc4 	addi	r2,r2,-1
 5084174:	b82b883a 	mov	r21,r23
 5084178:	288a703a 	and	r5,r5,r2
 508417c:	4029883a 	mov	r20,r8
 5084180:	003f6806 	br	5083f24 <__muldf3+0x314>
 5084184:	00800434 	movhi	r2,16
 5084188:	81400234 	orhi	r5,r16,8
 508418c:	10bfffc4 	addi	r2,r2,-1
 5084190:	288a703a 	and	r5,r5,r2
 5084194:	003f6306 	br	5083f24 <__muldf3+0x314>
 5084198:	147ff604 	addi	r17,r2,-40
 508419c:	3462983a 	sll	r17,r6,r17
 50841a0:	0011883a 	mov	r8,zero
 50841a4:	003f4406 	br	5083eb8 <__muldf3+0x2a8>
 50841a8:	3009883a 	mov	r4,r6
 50841ac:	d9800215 	stw	r6,8(sp)
 50841b0:	da400115 	stw	r9,4(sp)
 50841b4:	da800015 	stw	r10,0(sp)
 50841b8:	5084d000 	call	5084d00 <__clzsi2>
 50841bc:	10800804 	addi	r2,r2,32
 50841c0:	da800017 	ldw	r10,0(sp)
 50841c4:	da400117 	ldw	r9,4(sp)
 50841c8:	d9800217 	ldw	r6,8(sp)
 50841cc:	003f3006 	br	5083e90 <__muldf3+0x280>
 50841d0:	143ff604 	addi	r16,r2,-40
 50841d4:	9c20983a 	sll	r16,r19,r16
 50841d8:	0029883a 	mov	r20,zero
 50841dc:	003f1606 	br	5083e38 <__muldf3+0x228>
 50841e0:	d9800215 	stw	r6,8(sp)
 50841e4:	d9c00015 	stw	r7,0(sp)
 50841e8:	da400115 	stw	r9,4(sp)
 50841ec:	5084d000 	call	5084d00 <__clzsi2>
 50841f0:	10800804 	addi	r2,r2,32
 50841f4:	da400117 	ldw	r9,4(sp)
 50841f8:	d9c00017 	ldw	r7,0(sp)
 50841fc:	d9800217 	ldw	r6,8(sp)
 5084200:	003f0306 	br	5083e10 <__muldf3+0x200>
 5084204:	00c00044 	movi	r3,1
 5084208:	1947c83a 	sub	r3,r3,r5
 508420c:	00800e04 	movi	r2,56
 5084210:	10feda16 	blt	r2,r3,5083d7c <__muldf3+0x16c>
 5084214:	008007c4 	movi	r2,31
 5084218:	10c01b16 	blt	r2,r3,5084288 <__muldf3+0x678>
 508421c:	00800804 	movi	r2,32
 5084220:	10c5c83a 	sub	r2,r2,r3
 5084224:	888a983a 	sll	r5,r17,r2
 5084228:	40c8d83a 	srl	r4,r8,r3
 508422c:	4084983a 	sll	r2,r8,r2
 5084230:	88e2d83a 	srl	r17,r17,r3
 5084234:	2906b03a 	or	r3,r5,r4
 5084238:	1004c03a 	cmpne	r2,r2,zero
 508423c:	1886b03a 	or	r3,r3,r2
 5084240:	188001cc 	andi	r2,r3,7
 5084244:	10000726 	beq	r2,zero,5084264 <__muldf3+0x654>
 5084248:	188003cc 	andi	r2,r3,15
 508424c:	01000104 	movi	r4,4
 5084250:	11000426 	beq	r2,r4,5084264 <__muldf3+0x654>
 5084254:	1805883a 	mov	r2,r3
 5084258:	10c00104 	addi	r3,r2,4
 508425c:	1885803a 	cmpltu	r2,r3,r2
 5084260:	88a3883a 	add	r17,r17,r2
 5084264:	8880202c 	andhi	r2,r17,128
 5084268:	10001c26 	beq	r2,zero,50842dc <__muldf3+0x6cc>
 508426c:	b02b883a 	mov	r21,r22
 5084270:	00800044 	movi	r2,1
 5084274:	000b883a 	mov	r5,zero
 5084278:	0029883a 	mov	r20,zero
 508427c:	003ec306 	br	5083d8c <__muldf3+0x17c>
 5084280:	5805883a 	mov	r2,r11
 5084284:	003f9906 	br	50840ec <__muldf3+0x4dc>
 5084288:	00bff844 	movi	r2,-31
 508428c:	1145c83a 	sub	r2,r2,r5
 5084290:	8888d83a 	srl	r4,r17,r2
 5084294:	00800804 	movi	r2,32
 5084298:	18801a26 	beq	r3,r2,5084304 <__muldf3+0x6f4>
 508429c:	00801004 	movi	r2,64
 50842a0:	10c5c83a 	sub	r2,r2,r3
 50842a4:	8884983a 	sll	r2,r17,r2
 50842a8:	1204b03a 	or	r2,r2,r8
 50842ac:	1004c03a 	cmpne	r2,r2,zero
 50842b0:	2084b03a 	or	r2,r4,r2
 50842b4:	144001cc 	andi	r17,r2,7
 50842b8:	88000d1e 	bne	r17,zero,50842f0 <__muldf3+0x6e0>
 50842bc:	000b883a 	mov	r5,zero
 50842c0:	1028d0fa 	srli	r20,r2,3
 50842c4:	b02b883a 	mov	r21,r22
 50842c8:	0005883a 	mov	r2,zero
 50842cc:	a468b03a 	or	r20,r20,r17
 50842d0:	003eae06 	br	5083d8c <__muldf3+0x17c>
 50842d4:	1007883a 	mov	r3,r2
 50842d8:	0023883a 	mov	r17,zero
 50842dc:	880a927a 	slli	r5,r17,9
 50842e0:	1805883a 	mov	r2,r3
 50842e4:	8822977a 	slli	r17,r17,29
 50842e8:	280ad33a 	srli	r5,r5,12
 50842ec:	003ff406 	br	50842c0 <__muldf3+0x6b0>
 50842f0:	10c003cc 	andi	r3,r2,15
 50842f4:	01000104 	movi	r4,4
 50842f8:	193ff626 	beq	r3,r4,50842d4 <__muldf3+0x6c4>
 50842fc:	0023883a 	mov	r17,zero
 5084300:	003fd506 	br	5084258 <__muldf3+0x648>
 5084304:	0005883a 	mov	r2,zero
 5084308:	003fe706 	br	50842a8 <__muldf3+0x698>
 508430c:	00800434 	movhi	r2,16
 5084310:	89400234 	orhi	r5,r17,8
 5084314:	10bfffc4 	addi	r2,r2,-1
 5084318:	b02b883a 	mov	r21,r22
 508431c:	288a703a 	and	r5,r5,r2
 5084320:	4029883a 	mov	r20,r8
 5084324:	003eff06 	br	5083f24 <__muldf3+0x314>

05084328 <__subdf3>:
 5084328:	02000434 	movhi	r8,16
 508432c:	423fffc4 	addi	r8,r8,-1
 5084330:	defffb04 	addi	sp,sp,-20
 5084334:	2a14703a 	and	r10,r5,r8
 5084338:	3812d53a 	srli	r9,r7,20
 508433c:	3a10703a 	and	r8,r7,r8
 5084340:	2006d77a 	srli	r3,r4,29
 5084344:	3004d77a 	srli	r2,r6,29
 5084348:	dc000015 	stw	r16,0(sp)
 508434c:	501490fa 	slli	r10,r10,3
 5084350:	2820d53a 	srli	r16,r5,20
 5084354:	401090fa 	slli	r8,r8,3
 5084358:	dc800215 	stw	r18,8(sp)
 508435c:	dc400115 	stw	r17,4(sp)
 5084360:	dfc00415 	stw	ra,16(sp)
 5084364:	202290fa 	slli	r17,r4,3
 5084368:	dcc00315 	stw	r19,12(sp)
 508436c:	4a41ffcc 	andi	r9,r9,2047
 5084370:	0101ffc4 	movi	r4,2047
 5084374:	2824d7fa 	srli	r18,r5,31
 5084378:	8401ffcc 	andi	r16,r16,2047
 508437c:	50c6b03a 	or	r3,r10,r3
 5084380:	380ed7fa 	srli	r7,r7,31
 5084384:	408ab03a 	or	r5,r8,r2
 5084388:	300c90fa 	slli	r6,r6,3
 508438c:	49009626 	beq	r9,r4,50845e8 <__subdf3+0x2c0>
 5084390:	39c0005c 	xori	r7,r7,1
 5084394:	8245c83a 	sub	r2,r16,r9
 5084398:	3c807426 	beq	r7,r18,508456c <__subdf3+0x244>
 508439c:	0080af0e 	bge	zero,r2,508465c <__subdf3+0x334>
 50843a0:	48002a1e 	bne	r9,zero,508444c <__subdf3+0x124>
 50843a4:	2988b03a 	or	r4,r5,r6
 50843a8:	20009a1e 	bne	r4,zero,5084614 <__subdf3+0x2ec>
 50843ac:	888001cc 	andi	r2,r17,7
 50843b0:	10000726 	beq	r2,zero,50843d0 <__subdf3+0xa8>
 50843b4:	888003cc 	andi	r2,r17,15
 50843b8:	01000104 	movi	r4,4
 50843bc:	11000426 	beq	r2,r4,50843d0 <__subdf3+0xa8>
 50843c0:	890b883a 	add	r5,r17,r4
 50843c4:	2c63803a 	cmpltu	r17,r5,r17
 50843c8:	1c47883a 	add	r3,r3,r17
 50843cc:	2823883a 	mov	r17,r5
 50843d0:	1880202c 	andhi	r2,r3,128
 50843d4:	10005926 	beq	r2,zero,508453c <__subdf3+0x214>
 50843d8:	84000044 	addi	r16,r16,1
 50843dc:	0081ffc4 	movi	r2,2047
 50843e0:	8080be26 	beq	r16,r2,50846dc <__subdf3+0x3b4>
 50843e4:	017fe034 	movhi	r5,65408
 50843e8:	297fffc4 	addi	r5,r5,-1
 50843ec:	1946703a 	and	r3,r3,r5
 50843f0:	1804977a 	slli	r2,r3,29
 50843f4:	1806927a 	slli	r3,r3,9
 50843f8:	8822d0fa 	srli	r17,r17,3
 50843fc:	8401ffcc 	andi	r16,r16,2047
 5084400:	180ad33a 	srli	r5,r3,12
 5084404:	9100004c 	andi	r4,r18,1
 5084408:	1444b03a 	or	r2,r2,r17
 508440c:	80c1ffcc 	andi	r3,r16,2047
 5084410:	1820953a 	slli	r16,r3,20
 5084414:	20c03fcc 	andi	r3,r4,255
 5084418:	180897fa 	slli	r4,r3,31
 508441c:	00c00434 	movhi	r3,16
 5084420:	18ffffc4 	addi	r3,r3,-1
 5084424:	28c6703a 	and	r3,r5,r3
 5084428:	1c06b03a 	or	r3,r3,r16
 508442c:	1906b03a 	or	r3,r3,r4
 5084430:	dfc00417 	ldw	ra,16(sp)
 5084434:	dcc00317 	ldw	r19,12(sp)
 5084438:	dc800217 	ldw	r18,8(sp)
 508443c:	dc400117 	ldw	r17,4(sp)
 5084440:	dc000017 	ldw	r16,0(sp)
 5084444:	dec00504 	addi	sp,sp,20
 5084448:	f800283a 	ret
 508444c:	0101ffc4 	movi	r4,2047
 5084450:	813fd626 	beq	r16,r4,50843ac <__subdf3+0x84>
 5084454:	29402034 	orhi	r5,r5,128
 5084458:	01000e04 	movi	r4,56
 508445c:	2080a316 	blt	r4,r2,50846ec <__subdf3+0x3c4>
 5084460:	010007c4 	movi	r4,31
 5084464:	2080c616 	blt	r4,r2,5084780 <__subdf3+0x458>
 5084468:	01000804 	movi	r4,32
 508446c:	2089c83a 	sub	r4,r4,r2
 5084470:	2910983a 	sll	r8,r5,r4
 5084474:	308ed83a 	srl	r7,r6,r2
 5084478:	3108983a 	sll	r4,r6,r4
 508447c:	2884d83a 	srl	r2,r5,r2
 5084480:	41ccb03a 	or	r6,r8,r7
 5084484:	2008c03a 	cmpne	r4,r4,zero
 5084488:	310cb03a 	or	r6,r6,r4
 508448c:	898dc83a 	sub	r6,r17,r6
 5084490:	89a3803a 	cmpltu	r17,r17,r6
 5084494:	1887c83a 	sub	r3,r3,r2
 5084498:	1c47c83a 	sub	r3,r3,r17
 508449c:	3023883a 	mov	r17,r6
 50844a0:	1880202c 	andhi	r2,r3,128
 50844a4:	10002326 	beq	r2,zero,5084534 <__subdf3+0x20c>
 50844a8:	04c02034 	movhi	r19,128
 50844ac:	9cffffc4 	addi	r19,r19,-1
 50844b0:	1ce6703a 	and	r19,r3,r19
 50844b4:	98007a26 	beq	r19,zero,50846a0 <__subdf3+0x378>
 50844b8:	9809883a 	mov	r4,r19
 50844bc:	5084d000 	call	5084d00 <__clzsi2>
 50844c0:	113ffe04 	addi	r4,r2,-8
 50844c4:	00c007c4 	movi	r3,31
 50844c8:	19007b16 	blt	r3,r4,50846b8 <__subdf3+0x390>
 50844cc:	00800804 	movi	r2,32
 50844d0:	1105c83a 	sub	r2,r2,r4
 50844d4:	8884d83a 	srl	r2,r17,r2
 50844d8:	9906983a 	sll	r3,r19,r4
 50844dc:	8922983a 	sll	r17,r17,r4
 50844e0:	10c4b03a 	or	r2,r2,r3
 50844e4:	24007816 	blt	r4,r16,50846c8 <__subdf3+0x3a0>
 50844e8:	2421c83a 	sub	r16,r4,r16
 50844ec:	80c00044 	addi	r3,r16,1
 50844f0:	010007c4 	movi	r4,31
 50844f4:	20c09516 	blt	r4,r3,508474c <__subdf3+0x424>
 50844f8:	01400804 	movi	r5,32
 50844fc:	28cbc83a 	sub	r5,r5,r3
 5084500:	88c8d83a 	srl	r4,r17,r3
 5084504:	8962983a 	sll	r17,r17,r5
 5084508:	114a983a 	sll	r5,r2,r5
 508450c:	10c6d83a 	srl	r3,r2,r3
 5084510:	8804c03a 	cmpne	r2,r17,zero
 5084514:	290ab03a 	or	r5,r5,r4
 5084518:	28a2b03a 	or	r17,r5,r2
 508451c:	0021883a 	mov	r16,zero
 5084520:	003fa206 	br	50843ac <__subdf3+0x84>
 5084524:	2090b03a 	or	r8,r4,r2
 5084528:	40018e26 	beq	r8,zero,5084b64 <__subdf3+0x83c>
 508452c:	1007883a 	mov	r3,r2
 5084530:	2023883a 	mov	r17,r4
 5084534:	888001cc 	andi	r2,r17,7
 5084538:	103f9e1e 	bne	r2,zero,50843b4 <__subdf3+0x8c>
 508453c:	1804977a 	slli	r2,r3,29
 5084540:	8822d0fa 	srli	r17,r17,3
 5084544:	1810d0fa 	srli	r8,r3,3
 5084548:	9100004c 	andi	r4,r18,1
 508454c:	1444b03a 	or	r2,r2,r17
 5084550:	00c1ffc4 	movi	r3,2047
 5084554:	80c02826 	beq	r16,r3,50845f8 <__subdf3+0x2d0>
 5084558:	01400434 	movhi	r5,16
 508455c:	297fffc4 	addi	r5,r5,-1
 5084560:	80e0703a 	and	r16,r16,r3
 5084564:	414a703a 	and	r5,r8,r5
 5084568:	003fa806 	br	508440c <__subdf3+0xe4>
 508456c:	0080630e 	bge	zero,r2,50846fc <__subdf3+0x3d4>
 5084570:	48003026 	beq	r9,zero,5084634 <__subdf3+0x30c>
 5084574:	0101ffc4 	movi	r4,2047
 5084578:	813f8c26 	beq	r16,r4,50843ac <__subdf3+0x84>
 508457c:	29402034 	orhi	r5,r5,128
 5084580:	01000e04 	movi	r4,56
 5084584:	2080a90e 	bge	r4,r2,508482c <__subdf3+0x504>
 5084588:	298cb03a 	or	r6,r5,r6
 508458c:	3012c03a 	cmpne	r9,r6,zero
 5084590:	0005883a 	mov	r2,zero
 5084594:	4c53883a 	add	r9,r9,r17
 5084598:	4c63803a 	cmpltu	r17,r9,r17
 508459c:	10c7883a 	add	r3,r2,r3
 50845a0:	88c7883a 	add	r3,r17,r3
 50845a4:	4823883a 	mov	r17,r9
 50845a8:	1880202c 	andhi	r2,r3,128
 50845ac:	1000d026 	beq	r2,zero,50848f0 <__subdf3+0x5c8>
 50845b0:	84000044 	addi	r16,r16,1
 50845b4:	0081ffc4 	movi	r2,2047
 50845b8:	8080fe26 	beq	r16,r2,50849b4 <__subdf3+0x68c>
 50845bc:	00bfe034 	movhi	r2,65408
 50845c0:	10bfffc4 	addi	r2,r2,-1
 50845c4:	1886703a 	and	r3,r3,r2
 50845c8:	880ad07a 	srli	r5,r17,1
 50845cc:	180497fa 	slli	r2,r3,31
 50845d0:	8900004c 	andi	r4,r17,1
 50845d4:	2922b03a 	or	r17,r5,r4
 50845d8:	1806d07a 	srli	r3,r3,1
 50845dc:	1462b03a 	or	r17,r2,r17
 50845e0:	3825883a 	mov	r18,r7
 50845e4:	003f7106 	br	50843ac <__subdf3+0x84>
 50845e8:	2984b03a 	or	r2,r5,r6
 50845ec:	103f6826 	beq	r2,zero,5084390 <__subdf3+0x68>
 50845f0:	39c03fcc 	andi	r7,r7,255
 50845f4:	003f6706 	br	5084394 <__subdf3+0x6c>
 50845f8:	4086b03a 	or	r3,r8,r2
 50845fc:	18015226 	beq	r3,zero,5084b48 <__subdf3+0x820>
 5084600:	00c00434 	movhi	r3,16
 5084604:	41400234 	orhi	r5,r8,8
 5084608:	18ffffc4 	addi	r3,r3,-1
 508460c:	28ca703a 	and	r5,r5,r3
 5084610:	003f7e06 	br	508440c <__subdf3+0xe4>
 5084614:	10bfffc4 	addi	r2,r2,-1
 5084618:	1000491e 	bne	r2,zero,5084740 <__subdf3+0x418>
 508461c:	898fc83a 	sub	r7,r17,r6
 5084620:	89e3803a 	cmpltu	r17,r17,r7
 5084624:	1947c83a 	sub	r3,r3,r5
 5084628:	1c47c83a 	sub	r3,r3,r17
 508462c:	3823883a 	mov	r17,r7
 5084630:	003f9b06 	br	50844a0 <__subdf3+0x178>
 5084634:	2988b03a 	or	r4,r5,r6
 5084638:	203f5c26 	beq	r4,zero,50843ac <__subdf3+0x84>
 508463c:	10bfffc4 	addi	r2,r2,-1
 5084640:	1000931e 	bne	r2,zero,5084890 <__subdf3+0x568>
 5084644:	898d883a 	add	r6,r17,r6
 5084648:	3463803a 	cmpltu	r17,r6,r17
 508464c:	1947883a 	add	r3,r3,r5
 5084650:	88c7883a 	add	r3,r17,r3
 5084654:	3023883a 	mov	r17,r6
 5084658:	003fd306 	br	50845a8 <__subdf3+0x280>
 508465c:	1000541e 	bne	r2,zero,50847b0 <__subdf3+0x488>
 5084660:	80800044 	addi	r2,r16,1
 5084664:	1081ffcc 	andi	r2,r2,2047
 5084668:	01000044 	movi	r4,1
 508466c:	2080a20e 	bge	r4,r2,50848f8 <__subdf3+0x5d0>
 5084670:	8989c83a 	sub	r4,r17,r6
 5084674:	8905803a 	cmpltu	r2,r17,r4
 5084678:	1967c83a 	sub	r19,r3,r5
 508467c:	98a7c83a 	sub	r19,r19,r2
 5084680:	9880202c 	andhi	r2,r19,128
 5084684:	10006326 	beq	r2,zero,5084814 <__subdf3+0x4ec>
 5084688:	3463c83a 	sub	r17,r6,r17
 508468c:	28c7c83a 	sub	r3,r5,r3
 5084690:	344d803a 	cmpltu	r6,r6,r17
 5084694:	19a7c83a 	sub	r19,r3,r6
 5084698:	3825883a 	mov	r18,r7
 508469c:	983f861e 	bne	r19,zero,50844b8 <__subdf3+0x190>
 50846a0:	8809883a 	mov	r4,r17
 50846a4:	5084d000 	call	5084d00 <__clzsi2>
 50846a8:	10800804 	addi	r2,r2,32
 50846ac:	113ffe04 	addi	r4,r2,-8
 50846b0:	00c007c4 	movi	r3,31
 50846b4:	193f850e 	bge	r3,r4,50844cc <__subdf3+0x1a4>
 50846b8:	10bff604 	addi	r2,r2,-40
 50846bc:	8884983a 	sll	r2,r17,r2
 50846c0:	0023883a 	mov	r17,zero
 50846c4:	243f880e 	bge	r4,r16,50844e8 <__subdf3+0x1c0>
 50846c8:	00ffe034 	movhi	r3,65408
 50846cc:	18ffffc4 	addi	r3,r3,-1
 50846d0:	8121c83a 	sub	r16,r16,r4
 50846d4:	10c6703a 	and	r3,r2,r3
 50846d8:	003f3406 	br	50843ac <__subdf3+0x84>
 50846dc:	9100004c 	andi	r4,r18,1
 50846e0:	000b883a 	mov	r5,zero
 50846e4:	0005883a 	mov	r2,zero
 50846e8:	003f4806 	br	508440c <__subdf3+0xe4>
 50846ec:	298cb03a 	or	r6,r5,r6
 50846f0:	300cc03a 	cmpne	r6,r6,zero
 50846f4:	0005883a 	mov	r2,zero
 50846f8:	003f6406 	br	508448c <__subdf3+0x164>
 50846fc:	10009a1e 	bne	r2,zero,5084968 <__subdf3+0x640>
 5084700:	82400044 	addi	r9,r16,1
 5084704:	4881ffcc 	andi	r2,r9,2047
 5084708:	02800044 	movi	r10,1
 508470c:	5080670e 	bge	r10,r2,50848ac <__subdf3+0x584>
 5084710:	0081ffc4 	movi	r2,2047
 5084714:	4880af26 	beq	r9,r2,50849d4 <__subdf3+0x6ac>
 5084718:	898d883a 	add	r6,r17,r6
 508471c:	1945883a 	add	r2,r3,r5
 5084720:	3447803a 	cmpltu	r3,r6,r17
 5084724:	1887883a 	add	r3,r3,r2
 5084728:	182297fa 	slli	r17,r3,31
 508472c:	300cd07a 	srli	r6,r6,1
 5084730:	1806d07a 	srli	r3,r3,1
 5084734:	4821883a 	mov	r16,r9
 5084738:	89a2b03a 	or	r17,r17,r6
 508473c:	003f1b06 	br	50843ac <__subdf3+0x84>
 5084740:	0101ffc4 	movi	r4,2047
 5084744:	813f441e 	bne	r16,r4,5084458 <__subdf3+0x130>
 5084748:	003f1806 	br	50843ac <__subdf3+0x84>
 508474c:	843ff844 	addi	r16,r16,-31
 5084750:	01400804 	movi	r5,32
 5084754:	1408d83a 	srl	r4,r2,r16
 5084758:	19405026 	beq	r3,r5,508489c <__subdf3+0x574>
 508475c:	01401004 	movi	r5,64
 5084760:	28c7c83a 	sub	r3,r5,r3
 5084764:	10c4983a 	sll	r2,r2,r3
 5084768:	88a2b03a 	or	r17,r17,r2
 508476c:	8822c03a 	cmpne	r17,r17,zero
 5084770:	2462b03a 	or	r17,r4,r17
 5084774:	0007883a 	mov	r3,zero
 5084778:	0021883a 	mov	r16,zero
 508477c:	003f6d06 	br	5084534 <__subdf3+0x20c>
 5084780:	11fff804 	addi	r7,r2,-32
 5084784:	01000804 	movi	r4,32
 5084788:	29ced83a 	srl	r7,r5,r7
 508478c:	11004526 	beq	r2,r4,50848a4 <__subdf3+0x57c>
 5084790:	01001004 	movi	r4,64
 5084794:	2089c83a 	sub	r4,r4,r2
 5084798:	2904983a 	sll	r2,r5,r4
 508479c:	118cb03a 	or	r6,r2,r6
 50847a0:	300cc03a 	cmpne	r6,r6,zero
 50847a4:	398cb03a 	or	r6,r7,r6
 50847a8:	0005883a 	mov	r2,zero
 50847ac:	003f3706 	br	508448c <__subdf3+0x164>
 50847b0:	80002a26 	beq	r16,zero,508485c <__subdf3+0x534>
 50847b4:	0101ffc4 	movi	r4,2047
 50847b8:	49006626 	beq	r9,r4,5084954 <__subdf3+0x62c>
 50847bc:	0085c83a 	sub	r2,zero,r2
 50847c0:	18c02034 	orhi	r3,r3,128
 50847c4:	01000e04 	movi	r4,56
 50847c8:	20807e16 	blt	r4,r2,50849c4 <__subdf3+0x69c>
 50847cc:	010007c4 	movi	r4,31
 50847d0:	2080e716 	blt	r4,r2,5084b70 <__subdf3+0x848>
 50847d4:	01000804 	movi	r4,32
 50847d8:	2089c83a 	sub	r4,r4,r2
 50847dc:	1914983a 	sll	r10,r3,r4
 50847e0:	8890d83a 	srl	r8,r17,r2
 50847e4:	8908983a 	sll	r4,r17,r4
 50847e8:	1884d83a 	srl	r2,r3,r2
 50847ec:	5222b03a 	or	r17,r10,r8
 50847f0:	2006c03a 	cmpne	r3,r4,zero
 50847f4:	88e2b03a 	or	r17,r17,r3
 50847f8:	3463c83a 	sub	r17,r6,r17
 50847fc:	2885c83a 	sub	r2,r5,r2
 5084800:	344d803a 	cmpltu	r6,r6,r17
 5084804:	1187c83a 	sub	r3,r2,r6
 5084808:	4821883a 	mov	r16,r9
 508480c:	3825883a 	mov	r18,r7
 5084810:	003f2306 	br	50844a0 <__subdf3+0x178>
 5084814:	24d0b03a 	or	r8,r4,r19
 5084818:	40001b1e 	bne	r8,zero,5084888 <__subdf3+0x560>
 508481c:	0005883a 	mov	r2,zero
 5084820:	0009883a 	mov	r4,zero
 5084824:	0021883a 	mov	r16,zero
 5084828:	003f4906 	br	5084550 <__subdf3+0x228>
 508482c:	010007c4 	movi	r4,31
 5084830:	20803a16 	blt	r4,r2,508491c <__subdf3+0x5f4>
 5084834:	01000804 	movi	r4,32
 5084838:	2089c83a 	sub	r4,r4,r2
 508483c:	2912983a 	sll	r9,r5,r4
 5084840:	3090d83a 	srl	r8,r6,r2
 5084844:	3108983a 	sll	r4,r6,r4
 5084848:	2884d83a 	srl	r2,r5,r2
 508484c:	4a12b03a 	or	r9,r9,r8
 5084850:	2008c03a 	cmpne	r4,r4,zero
 5084854:	4912b03a 	or	r9,r9,r4
 5084858:	003f4e06 	br	5084594 <__subdf3+0x26c>
 508485c:	1c48b03a 	or	r4,r3,r17
 5084860:	20003c26 	beq	r4,zero,5084954 <__subdf3+0x62c>
 5084864:	0084303a 	nor	r2,zero,r2
 5084868:	1000381e 	bne	r2,zero,508494c <__subdf3+0x624>
 508486c:	3463c83a 	sub	r17,r6,r17
 5084870:	28c5c83a 	sub	r2,r5,r3
 5084874:	344d803a 	cmpltu	r6,r6,r17
 5084878:	1187c83a 	sub	r3,r2,r6
 508487c:	4821883a 	mov	r16,r9
 5084880:	3825883a 	mov	r18,r7
 5084884:	003f0606 	br	50844a0 <__subdf3+0x178>
 5084888:	2023883a 	mov	r17,r4
 508488c:	003f0906 	br	50844b4 <__subdf3+0x18c>
 5084890:	0101ffc4 	movi	r4,2047
 5084894:	813f3a1e 	bne	r16,r4,5084580 <__subdf3+0x258>
 5084898:	003ec406 	br	50843ac <__subdf3+0x84>
 508489c:	0005883a 	mov	r2,zero
 50848a0:	003fb106 	br	5084768 <__subdf3+0x440>
 50848a4:	0005883a 	mov	r2,zero
 50848a8:	003fbc06 	br	508479c <__subdf3+0x474>
 50848ac:	1c44b03a 	or	r2,r3,r17
 50848b0:	80008e1e 	bne	r16,zero,5084aec <__subdf3+0x7c4>
 50848b4:	1000c826 	beq	r2,zero,5084bd8 <__subdf3+0x8b0>
 50848b8:	2984b03a 	or	r2,r5,r6
 50848bc:	103ebb26 	beq	r2,zero,50843ac <__subdf3+0x84>
 50848c0:	8989883a 	add	r4,r17,r6
 50848c4:	1945883a 	add	r2,r3,r5
 50848c8:	2447803a 	cmpltu	r3,r4,r17
 50848cc:	1887883a 	add	r3,r3,r2
 50848d0:	1880202c 	andhi	r2,r3,128
 50848d4:	2023883a 	mov	r17,r4
 50848d8:	103f1626 	beq	r2,zero,5084534 <__subdf3+0x20c>
 50848dc:	00bfe034 	movhi	r2,65408
 50848e0:	10bfffc4 	addi	r2,r2,-1
 50848e4:	5021883a 	mov	r16,r10
 50848e8:	1886703a 	and	r3,r3,r2
 50848ec:	003eaf06 	br	50843ac <__subdf3+0x84>
 50848f0:	3825883a 	mov	r18,r7
 50848f4:	003f0f06 	br	5084534 <__subdf3+0x20c>
 50848f8:	1c44b03a 	or	r2,r3,r17
 50848fc:	8000251e 	bne	r16,zero,5084994 <__subdf3+0x66c>
 5084900:	1000661e 	bne	r2,zero,5084a9c <__subdf3+0x774>
 5084904:	2990b03a 	or	r8,r5,r6
 5084908:	40009626 	beq	r8,zero,5084b64 <__subdf3+0x83c>
 508490c:	2807883a 	mov	r3,r5
 5084910:	3023883a 	mov	r17,r6
 5084914:	3825883a 	mov	r18,r7
 5084918:	003ea406 	br	50843ac <__subdf3+0x84>
 508491c:	127ff804 	addi	r9,r2,-32
 5084920:	01000804 	movi	r4,32
 5084924:	2a52d83a 	srl	r9,r5,r9
 5084928:	11008c26 	beq	r2,r4,5084b5c <__subdf3+0x834>
 508492c:	01001004 	movi	r4,64
 5084930:	2085c83a 	sub	r2,r4,r2
 5084934:	2884983a 	sll	r2,r5,r2
 5084938:	118cb03a 	or	r6,r2,r6
 508493c:	300cc03a 	cmpne	r6,r6,zero
 5084940:	4992b03a 	or	r9,r9,r6
 5084944:	0005883a 	mov	r2,zero
 5084948:	003f1206 	br	5084594 <__subdf3+0x26c>
 508494c:	0101ffc4 	movi	r4,2047
 5084950:	493f9c1e 	bne	r9,r4,50847c4 <__subdf3+0x49c>
 5084954:	2807883a 	mov	r3,r5
 5084958:	3023883a 	mov	r17,r6
 508495c:	4821883a 	mov	r16,r9
 5084960:	3825883a 	mov	r18,r7
 5084964:	003e9106 	br	50843ac <__subdf3+0x84>
 5084968:	80001f1e 	bne	r16,zero,50849e8 <__subdf3+0x6c0>
 508496c:	1c48b03a 	or	r4,r3,r17
 5084970:	20005a26 	beq	r4,zero,5084adc <__subdf3+0x7b4>
 5084974:	0084303a 	nor	r2,zero,r2
 5084978:	1000561e 	bne	r2,zero,5084ad4 <__subdf3+0x7ac>
 508497c:	89a3883a 	add	r17,r17,r6
 5084980:	1945883a 	add	r2,r3,r5
 5084984:	898d803a 	cmpltu	r6,r17,r6
 5084988:	3087883a 	add	r3,r6,r2
 508498c:	4821883a 	mov	r16,r9
 5084990:	003f0506 	br	50845a8 <__subdf3+0x280>
 5084994:	10002b1e 	bne	r2,zero,5084a44 <__subdf3+0x71c>
 5084998:	2984b03a 	or	r2,r5,r6
 508499c:	10008026 	beq	r2,zero,5084ba0 <__subdf3+0x878>
 50849a0:	2807883a 	mov	r3,r5
 50849a4:	3023883a 	mov	r17,r6
 50849a8:	3825883a 	mov	r18,r7
 50849ac:	0401ffc4 	movi	r16,2047
 50849b0:	003e7e06 	br	50843ac <__subdf3+0x84>
 50849b4:	3809883a 	mov	r4,r7
 50849b8:	0011883a 	mov	r8,zero
 50849bc:	0005883a 	mov	r2,zero
 50849c0:	003ee306 	br	5084550 <__subdf3+0x228>
 50849c4:	1c62b03a 	or	r17,r3,r17
 50849c8:	8822c03a 	cmpne	r17,r17,zero
 50849cc:	0005883a 	mov	r2,zero
 50849d0:	003f8906 	br	50847f8 <__subdf3+0x4d0>
 50849d4:	3809883a 	mov	r4,r7
 50849d8:	4821883a 	mov	r16,r9
 50849dc:	0011883a 	mov	r8,zero
 50849e0:	0005883a 	mov	r2,zero
 50849e4:	003eda06 	br	5084550 <__subdf3+0x228>
 50849e8:	0101ffc4 	movi	r4,2047
 50849ec:	49003b26 	beq	r9,r4,5084adc <__subdf3+0x7b4>
 50849f0:	0085c83a 	sub	r2,zero,r2
 50849f4:	18c02034 	orhi	r3,r3,128
 50849f8:	01000e04 	movi	r4,56
 50849fc:	20806e16 	blt	r4,r2,5084bb8 <__subdf3+0x890>
 5084a00:	010007c4 	movi	r4,31
 5084a04:	20807716 	blt	r4,r2,5084be4 <__subdf3+0x8bc>
 5084a08:	01000804 	movi	r4,32
 5084a0c:	2089c83a 	sub	r4,r4,r2
 5084a10:	1914983a 	sll	r10,r3,r4
 5084a14:	8890d83a 	srl	r8,r17,r2
 5084a18:	8908983a 	sll	r4,r17,r4
 5084a1c:	1884d83a 	srl	r2,r3,r2
 5084a20:	5222b03a 	or	r17,r10,r8
 5084a24:	2006c03a 	cmpne	r3,r4,zero
 5084a28:	88e2b03a 	or	r17,r17,r3
 5084a2c:	89a3883a 	add	r17,r17,r6
 5084a30:	1145883a 	add	r2,r2,r5
 5084a34:	898d803a 	cmpltu	r6,r17,r6
 5084a38:	3087883a 	add	r3,r6,r2
 5084a3c:	4821883a 	mov	r16,r9
 5084a40:	003ed906 	br	50845a8 <__subdf3+0x280>
 5084a44:	2984b03a 	or	r2,r5,r6
 5084a48:	10004226 	beq	r2,zero,5084b54 <__subdf3+0x82c>
 5084a4c:	1808d0fa 	srli	r4,r3,3
 5084a50:	8822d0fa 	srli	r17,r17,3
 5084a54:	1806977a 	slli	r3,r3,29
 5084a58:	2080022c 	andhi	r2,r4,8
 5084a5c:	1c62b03a 	or	r17,r3,r17
 5084a60:	10000826 	beq	r2,zero,5084a84 <__subdf3+0x75c>
 5084a64:	2812d0fa 	srli	r9,r5,3
 5084a68:	4880022c 	andhi	r2,r9,8
 5084a6c:	1000051e 	bne	r2,zero,5084a84 <__subdf3+0x75c>
 5084a70:	300cd0fa 	srli	r6,r6,3
 5084a74:	2804977a 	slli	r2,r5,29
 5084a78:	4809883a 	mov	r4,r9
 5084a7c:	3825883a 	mov	r18,r7
 5084a80:	11a2b03a 	or	r17,r2,r6
 5084a84:	8806d77a 	srli	r3,r17,29
 5084a88:	200890fa 	slli	r4,r4,3
 5084a8c:	882290fa 	slli	r17,r17,3
 5084a90:	0401ffc4 	movi	r16,2047
 5084a94:	1906b03a 	or	r3,r3,r4
 5084a98:	003e4406 	br	50843ac <__subdf3+0x84>
 5084a9c:	2984b03a 	or	r2,r5,r6
 5084aa0:	103e4226 	beq	r2,zero,50843ac <__subdf3+0x84>
 5084aa4:	8989c83a 	sub	r4,r17,r6
 5084aa8:	8911803a 	cmpltu	r8,r17,r4
 5084aac:	1945c83a 	sub	r2,r3,r5
 5084ab0:	1205c83a 	sub	r2,r2,r8
 5084ab4:	1200202c 	andhi	r8,r2,128
 5084ab8:	403e9a26 	beq	r8,zero,5084524 <__subdf3+0x1fc>
 5084abc:	3463c83a 	sub	r17,r6,r17
 5084ac0:	28c5c83a 	sub	r2,r5,r3
 5084ac4:	344d803a 	cmpltu	r6,r6,r17
 5084ac8:	1187c83a 	sub	r3,r2,r6
 5084acc:	3825883a 	mov	r18,r7
 5084ad0:	003e3606 	br	50843ac <__subdf3+0x84>
 5084ad4:	0101ffc4 	movi	r4,2047
 5084ad8:	493fc71e 	bne	r9,r4,50849f8 <__subdf3+0x6d0>
 5084adc:	2807883a 	mov	r3,r5
 5084ae0:	3023883a 	mov	r17,r6
 5084ae4:	4821883a 	mov	r16,r9
 5084ae8:	003e3006 	br	50843ac <__subdf3+0x84>
 5084aec:	10003626 	beq	r2,zero,5084bc8 <__subdf3+0x8a0>
 5084af0:	2984b03a 	or	r2,r5,r6
 5084af4:	10001726 	beq	r2,zero,5084b54 <__subdf3+0x82c>
 5084af8:	1808d0fa 	srli	r4,r3,3
 5084afc:	8822d0fa 	srli	r17,r17,3
 5084b00:	1806977a 	slli	r3,r3,29
 5084b04:	2080022c 	andhi	r2,r4,8
 5084b08:	1c62b03a 	or	r17,r3,r17
 5084b0c:	10000726 	beq	r2,zero,5084b2c <__subdf3+0x804>
 5084b10:	2812d0fa 	srli	r9,r5,3
 5084b14:	4880022c 	andhi	r2,r9,8
 5084b18:	1000041e 	bne	r2,zero,5084b2c <__subdf3+0x804>
 5084b1c:	300cd0fa 	srli	r6,r6,3
 5084b20:	2804977a 	slli	r2,r5,29
 5084b24:	4809883a 	mov	r4,r9
 5084b28:	11a2b03a 	or	r17,r2,r6
 5084b2c:	8806d77a 	srli	r3,r17,29
 5084b30:	200890fa 	slli	r4,r4,3
 5084b34:	882290fa 	slli	r17,r17,3
 5084b38:	3825883a 	mov	r18,r7
 5084b3c:	1906b03a 	or	r3,r3,r4
 5084b40:	0401ffc4 	movi	r16,2047
 5084b44:	003e1906 	br	50843ac <__subdf3+0x84>
 5084b48:	000b883a 	mov	r5,zero
 5084b4c:	0005883a 	mov	r2,zero
 5084b50:	003e2e06 	br	508440c <__subdf3+0xe4>
 5084b54:	0401ffc4 	movi	r16,2047
 5084b58:	003e1406 	br	50843ac <__subdf3+0x84>
 5084b5c:	0005883a 	mov	r2,zero
 5084b60:	003f7506 	br	5084938 <__subdf3+0x610>
 5084b64:	0005883a 	mov	r2,zero
 5084b68:	0009883a 	mov	r4,zero
 5084b6c:	003e7806 	br	5084550 <__subdf3+0x228>
 5084b70:	123ff804 	addi	r8,r2,-32
 5084b74:	01000804 	movi	r4,32
 5084b78:	1a10d83a 	srl	r8,r3,r8
 5084b7c:	11002526 	beq	r2,r4,5084c14 <__subdf3+0x8ec>
 5084b80:	01001004 	movi	r4,64
 5084b84:	2085c83a 	sub	r2,r4,r2
 5084b88:	1884983a 	sll	r2,r3,r2
 5084b8c:	1444b03a 	or	r2,r2,r17
 5084b90:	1004c03a 	cmpne	r2,r2,zero
 5084b94:	40a2b03a 	or	r17,r8,r2
 5084b98:	0005883a 	mov	r2,zero
 5084b9c:	003f1606 	br	50847f8 <__subdf3+0x4d0>
 5084ba0:	02000434 	movhi	r8,16
 5084ba4:	0009883a 	mov	r4,zero
 5084ba8:	423fffc4 	addi	r8,r8,-1
 5084bac:	00bfffc4 	movi	r2,-1
 5084bb0:	0401ffc4 	movi	r16,2047
 5084bb4:	003e6606 	br	5084550 <__subdf3+0x228>
 5084bb8:	1c62b03a 	or	r17,r3,r17
 5084bbc:	8822c03a 	cmpne	r17,r17,zero
 5084bc0:	0005883a 	mov	r2,zero
 5084bc4:	003f9906 	br	5084a2c <__subdf3+0x704>
 5084bc8:	2807883a 	mov	r3,r5
 5084bcc:	3023883a 	mov	r17,r6
 5084bd0:	0401ffc4 	movi	r16,2047
 5084bd4:	003df506 	br	50843ac <__subdf3+0x84>
 5084bd8:	2807883a 	mov	r3,r5
 5084bdc:	3023883a 	mov	r17,r6
 5084be0:	003df206 	br	50843ac <__subdf3+0x84>
 5084be4:	123ff804 	addi	r8,r2,-32
 5084be8:	01000804 	movi	r4,32
 5084bec:	1a10d83a 	srl	r8,r3,r8
 5084bf0:	11000a26 	beq	r2,r4,5084c1c <__subdf3+0x8f4>
 5084bf4:	01001004 	movi	r4,64
 5084bf8:	2085c83a 	sub	r2,r4,r2
 5084bfc:	1884983a 	sll	r2,r3,r2
 5084c00:	1444b03a 	or	r2,r2,r17
 5084c04:	1004c03a 	cmpne	r2,r2,zero
 5084c08:	40a2b03a 	or	r17,r8,r2
 5084c0c:	0005883a 	mov	r2,zero
 5084c10:	003f8606 	br	5084a2c <__subdf3+0x704>
 5084c14:	0005883a 	mov	r2,zero
 5084c18:	003fdc06 	br	5084b8c <__subdf3+0x864>
 5084c1c:	0005883a 	mov	r2,zero
 5084c20:	003ff706 	br	5084c00 <__subdf3+0x8d8>

05084c24 <__floatsidf>:
 5084c24:	defffd04 	addi	sp,sp,-12
 5084c28:	dfc00215 	stw	ra,8(sp)
 5084c2c:	dc400115 	stw	r17,4(sp)
 5084c30:	dc000015 	stw	r16,0(sp)
 5084c34:	20002b26 	beq	r4,zero,5084ce4 <__floatsidf+0xc0>
 5084c38:	2023883a 	mov	r17,r4
 5084c3c:	2020d7fa 	srli	r16,r4,31
 5084c40:	20002d16 	blt	r4,zero,5084cf8 <__floatsidf+0xd4>
 5084c44:	8809883a 	mov	r4,r17
 5084c48:	5084d000 	call	5084d00 <__clzsi2>
 5084c4c:	01410784 	movi	r5,1054
 5084c50:	288bc83a 	sub	r5,r5,r2
 5084c54:	01010cc4 	movi	r4,1075
 5084c58:	2149c83a 	sub	r4,r4,r5
 5084c5c:	00c007c4 	movi	r3,31
 5084c60:	1900160e 	bge	r3,r4,5084cbc <__floatsidf+0x98>
 5084c64:	00c104c4 	movi	r3,1043
 5084c68:	1947c83a 	sub	r3,r3,r5
 5084c6c:	88c6983a 	sll	r3,r17,r3
 5084c70:	00800434 	movhi	r2,16
 5084c74:	10bfffc4 	addi	r2,r2,-1
 5084c78:	1886703a 	and	r3,r3,r2
 5084c7c:	2941ffcc 	andi	r5,r5,2047
 5084c80:	800d883a 	mov	r6,r16
 5084c84:	0005883a 	mov	r2,zero
 5084c88:	280a953a 	slli	r5,r5,20
 5084c8c:	31803fcc 	andi	r6,r6,255
 5084c90:	01000434 	movhi	r4,16
 5084c94:	300c97fa 	slli	r6,r6,31
 5084c98:	213fffc4 	addi	r4,r4,-1
 5084c9c:	1906703a 	and	r3,r3,r4
 5084ca0:	1946b03a 	or	r3,r3,r5
 5084ca4:	1986b03a 	or	r3,r3,r6
 5084ca8:	dfc00217 	ldw	ra,8(sp)
 5084cac:	dc400117 	ldw	r17,4(sp)
 5084cb0:	dc000017 	ldw	r16,0(sp)
 5084cb4:	dec00304 	addi	sp,sp,12
 5084cb8:	f800283a 	ret
 5084cbc:	00c002c4 	movi	r3,11
 5084cc0:	1887c83a 	sub	r3,r3,r2
 5084cc4:	88c6d83a 	srl	r3,r17,r3
 5084cc8:	8904983a 	sll	r2,r17,r4
 5084ccc:	01000434 	movhi	r4,16
 5084cd0:	213fffc4 	addi	r4,r4,-1
 5084cd4:	2941ffcc 	andi	r5,r5,2047
 5084cd8:	1906703a 	and	r3,r3,r4
 5084cdc:	800d883a 	mov	r6,r16
 5084ce0:	003fe906 	br	5084c88 <__floatsidf+0x64>
 5084ce4:	000d883a 	mov	r6,zero
 5084ce8:	000b883a 	mov	r5,zero
 5084cec:	0007883a 	mov	r3,zero
 5084cf0:	0005883a 	mov	r2,zero
 5084cf4:	003fe406 	br	5084c88 <__floatsidf+0x64>
 5084cf8:	0123c83a 	sub	r17,zero,r4
 5084cfc:	003fd106 	br	5084c44 <__floatsidf+0x20>

05084d00 <__clzsi2>:
 5084d00:	00bfffd4 	movui	r2,65535
 5084d04:	11000536 	bltu	r2,r4,5084d1c <__clzsi2+0x1c>
 5084d08:	00803fc4 	movi	r2,255
 5084d0c:	11000f36 	bltu	r2,r4,5084d4c <__clzsi2+0x4c>
 5084d10:	00800804 	movi	r2,32
 5084d14:	0007883a 	mov	r3,zero
 5084d18:	00000506 	br	5084d30 <__clzsi2+0x30>
 5084d1c:	00804034 	movhi	r2,256
 5084d20:	10bfffc4 	addi	r2,r2,-1
 5084d24:	11000c2e 	bgeu	r2,r4,5084d58 <__clzsi2+0x58>
 5084d28:	00800204 	movi	r2,8
 5084d2c:	00c00604 	movi	r3,24
 5084d30:	20c8d83a 	srl	r4,r4,r3
 5084d34:	00c14274 	movhi	r3,1289
 5084d38:	18d9f604 	addi	r3,r3,26584
 5084d3c:	1909883a 	add	r4,r3,r4
 5084d40:	20c00003 	ldbu	r3,0(r4)
 5084d44:	10c5c83a 	sub	r2,r2,r3
 5084d48:	f800283a 	ret
 5084d4c:	00800604 	movi	r2,24
 5084d50:	00c00204 	movi	r3,8
 5084d54:	003ff606 	br	5084d30 <__clzsi2+0x30>
 5084d58:	00800404 	movi	r2,16
 5084d5c:	1007883a 	mov	r3,r2
 5084d60:	003ff306 	br	5084d30 <__clzsi2+0x30>

05084d64 <memcpy>:
 5084d64:	defffd04 	addi	sp,sp,-12
 5084d68:	dfc00215 	stw	ra,8(sp)
 5084d6c:	dc400115 	stw	r17,4(sp)
 5084d70:	dc000015 	stw	r16,0(sp)
 5084d74:	00c003c4 	movi	r3,15
 5084d78:	2005883a 	mov	r2,r4
 5084d7c:	1980452e 	bgeu	r3,r6,5084e94 <memcpy+0x130>
 5084d80:	2906b03a 	or	r3,r5,r4
 5084d84:	18c000cc 	andi	r3,r3,3
 5084d88:	1800441e 	bne	r3,zero,5084e9c <memcpy+0x138>
 5084d8c:	347ffc04 	addi	r17,r6,-16
 5084d90:	8822d13a 	srli	r17,r17,4
 5084d94:	28c00104 	addi	r3,r5,4
 5084d98:	23400104 	addi	r13,r4,4
 5084d9c:	8820913a 	slli	r16,r17,4
 5084da0:	2b000204 	addi	r12,r5,8
 5084da4:	22c00204 	addi	r11,r4,8
 5084da8:	84000504 	addi	r16,r16,20
 5084dac:	2a800304 	addi	r10,r5,12
 5084db0:	22400304 	addi	r9,r4,12
 5084db4:	2c21883a 	add	r16,r5,r16
 5084db8:	2811883a 	mov	r8,r5
 5084dbc:	200f883a 	mov	r7,r4
 5084dc0:	41000017 	ldw	r4,0(r8)
 5084dc4:	1fc00017 	ldw	ra,0(r3)
 5084dc8:	63c00017 	ldw	r15,0(r12)
 5084dcc:	39000015 	stw	r4,0(r7)
 5084dd0:	53800017 	ldw	r14,0(r10)
 5084dd4:	6fc00015 	stw	ra,0(r13)
 5084dd8:	5bc00015 	stw	r15,0(r11)
 5084ddc:	4b800015 	stw	r14,0(r9)
 5084de0:	18c00404 	addi	r3,r3,16
 5084de4:	39c00404 	addi	r7,r7,16
 5084de8:	42000404 	addi	r8,r8,16
 5084dec:	6b400404 	addi	r13,r13,16
 5084df0:	63000404 	addi	r12,r12,16
 5084df4:	5ac00404 	addi	r11,r11,16
 5084df8:	52800404 	addi	r10,r10,16
 5084dfc:	4a400404 	addi	r9,r9,16
 5084e00:	1c3fef1e 	bne	r3,r16,5084dc0 <memcpy+0x5c>
 5084e04:	89c00044 	addi	r7,r17,1
 5084e08:	380e913a 	slli	r7,r7,4
 5084e0c:	310003cc 	andi	r4,r6,15
 5084e10:	02c000c4 	movi	r11,3
 5084e14:	11c7883a 	add	r3,r2,r7
 5084e18:	29cb883a 	add	r5,r5,r7
 5084e1c:	5900212e 	bgeu	r11,r4,5084ea4 <memcpy+0x140>
 5084e20:	1813883a 	mov	r9,r3
 5084e24:	2811883a 	mov	r8,r5
 5084e28:	200f883a 	mov	r7,r4
 5084e2c:	42800017 	ldw	r10,0(r8)
 5084e30:	4a400104 	addi	r9,r9,4
 5084e34:	39ffff04 	addi	r7,r7,-4
 5084e38:	4abfff15 	stw	r10,-4(r9)
 5084e3c:	42000104 	addi	r8,r8,4
 5084e40:	59fffa36 	bltu	r11,r7,5084e2c <memcpy+0xc8>
 5084e44:	213fff04 	addi	r4,r4,-4
 5084e48:	2008d0ba 	srli	r4,r4,2
 5084e4c:	318000cc 	andi	r6,r6,3
 5084e50:	21000044 	addi	r4,r4,1
 5084e54:	2109883a 	add	r4,r4,r4
 5084e58:	2109883a 	add	r4,r4,r4
 5084e5c:	1907883a 	add	r3,r3,r4
 5084e60:	290b883a 	add	r5,r5,r4
 5084e64:	30000626 	beq	r6,zero,5084e80 <memcpy+0x11c>
 5084e68:	198d883a 	add	r6,r3,r6
 5084e6c:	29c00003 	ldbu	r7,0(r5)
 5084e70:	18c00044 	addi	r3,r3,1
 5084e74:	29400044 	addi	r5,r5,1
 5084e78:	19ffffc5 	stb	r7,-1(r3)
 5084e7c:	19bffb1e 	bne	r3,r6,5084e6c <memcpy+0x108>
 5084e80:	dfc00217 	ldw	ra,8(sp)
 5084e84:	dc400117 	ldw	r17,4(sp)
 5084e88:	dc000017 	ldw	r16,0(sp)
 5084e8c:	dec00304 	addi	sp,sp,12
 5084e90:	f800283a 	ret
 5084e94:	2007883a 	mov	r3,r4
 5084e98:	003ff206 	br	5084e64 <memcpy+0x100>
 5084e9c:	2007883a 	mov	r3,r4
 5084ea0:	003ff106 	br	5084e68 <memcpy+0x104>
 5084ea4:	200d883a 	mov	r6,r4
 5084ea8:	003fee06 	br	5084e64 <memcpy+0x100>

05084eac <memmove>:
 5084eac:	2005883a 	mov	r2,r4
 5084eb0:	29000b2e 	bgeu	r5,r4,5084ee0 <memmove+0x34>
 5084eb4:	298f883a 	add	r7,r5,r6
 5084eb8:	21c0092e 	bgeu	r4,r7,5084ee0 <memmove+0x34>
 5084ebc:	2187883a 	add	r3,r4,r6
 5084ec0:	198bc83a 	sub	r5,r3,r6
 5084ec4:	30004826 	beq	r6,zero,5084fe8 <memmove+0x13c>
 5084ec8:	39ffffc4 	addi	r7,r7,-1
 5084ecc:	39000003 	ldbu	r4,0(r7)
 5084ed0:	18ffffc4 	addi	r3,r3,-1
 5084ed4:	19000005 	stb	r4,0(r3)
 5084ed8:	28fffb1e 	bne	r5,r3,5084ec8 <memmove+0x1c>
 5084edc:	f800283a 	ret
 5084ee0:	00c003c4 	movi	r3,15
 5084ee4:	1980412e 	bgeu	r3,r6,5084fec <memmove+0x140>
 5084ee8:	2886b03a 	or	r3,r5,r2
 5084eec:	18c000cc 	andi	r3,r3,3
 5084ef0:	1800401e 	bne	r3,zero,5084ff4 <memmove+0x148>
 5084ef4:	33fffc04 	addi	r15,r6,-16
 5084ef8:	781ed13a 	srli	r15,r15,4
 5084efc:	28c00104 	addi	r3,r5,4
 5084f00:	13400104 	addi	r13,r2,4
 5084f04:	781c913a 	slli	r14,r15,4
 5084f08:	2b000204 	addi	r12,r5,8
 5084f0c:	12c00204 	addi	r11,r2,8
 5084f10:	73800504 	addi	r14,r14,20
 5084f14:	2a800304 	addi	r10,r5,12
 5084f18:	12400304 	addi	r9,r2,12
 5084f1c:	2b9d883a 	add	r14,r5,r14
 5084f20:	2811883a 	mov	r8,r5
 5084f24:	100f883a 	mov	r7,r2
 5084f28:	41000017 	ldw	r4,0(r8)
 5084f2c:	39c00404 	addi	r7,r7,16
 5084f30:	18c00404 	addi	r3,r3,16
 5084f34:	393ffc15 	stw	r4,-16(r7)
 5084f38:	193ffc17 	ldw	r4,-16(r3)
 5084f3c:	6b400404 	addi	r13,r13,16
 5084f40:	5ac00404 	addi	r11,r11,16
 5084f44:	693ffc15 	stw	r4,-16(r13)
 5084f48:	61000017 	ldw	r4,0(r12)
 5084f4c:	4a400404 	addi	r9,r9,16
 5084f50:	42000404 	addi	r8,r8,16
 5084f54:	593ffc15 	stw	r4,-16(r11)
 5084f58:	51000017 	ldw	r4,0(r10)
 5084f5c:	63000404 	addi	r12,r12,16
 5084f60:	52800404 	addi	r10,r10,16
 5084f64:	493ffc15 	stw	r4,-16(r9)
 5084f68:	1bbfef1e 	bne	r3,r14,5084f28 <memmove+0x7c>
 5084f6c:	79000044 	addi	r4,r15,1
 5084f70:	2008913a 	slli	r4,r4,4
 5084f74:	328003cc 	andi	r10,r6,15
 5084f78:	02c000c4 	movi	r11,3
 5084f7c:	1107883a 	add	r3,r2,r4
 5084f80:	290b883a 	add	r5,r5,r4
 5084f84:	5a801e2e 	bgeu	r11,r10,5085000 <memmove+0x154>
 5084f88:	1813883a 	mov	r9,r3
 5084f8c:	2811883a 	mov	r8,r5
 5084f90:	500f883a 	mov	r7,r10
 5084f94:	41000017 	ldw	r4,0(r8)
 5084f98:	4a400104 	addi	r9,r9,4
 5084f9c:	39ffff04 	addi	r7,r7,-4
 5084fa0:	493fff15 	stw	r4,-4(r9)
 5084fa4:	42000104 	addi	r8,r8,4
 5084fa8:	59fffa36 	bltu	r11,r7,5084f94 <memmove+0xe8>
 5084fac:	513fff04 	addi	r4,r10,-4
 5084fb0:	2008d0ba 	srli	r4,r4,2
 5084fb4:	318000cc 	andi	r6,r6,3
 5084fb8:	21000044 	addi	r4,r4,1
 5084fbc:	2109883a 	add	r4,r4,r4
 5084fc0:	2109883a 	add	r4,r4,r4
 5084fc4:	1907883a 	add	r3,r3,r4
 5084fc8:	290b883a 	add	r5,r5,r4
 5084fcc:	30000b26 	beq	r6,zero,5084ffc <memmove+0x150>
 5084fd0:	198d883a 	add	r6,r3,r6
 5084fd4:	29c00003 	ldbu	r7,0(r5)
 5084fd8:	18c00044 	addi	r3,r3,1
 5084fdc:	29400044 	addi	r5,r5,1
 5084fe0:	19ffffc5 	stb	r7,-1(r3)
 5084fe4:	19bffb1e 	bne	r3,r6,5084fd4 <memmove+0x128>
 5084fe8:	f800283a 	ret
 5084fec:	1007883a 	mov	r3,r2
 5084ff0:	003ff606 	br	5084fcc <memmove+0x120>
 5084ff4:	1007883a 	mov	r3,r2
 5084ff8:	003ff506 	br	5084fd0 <memmove+0x124>
 5084ffc:	f800283a 	ret
 5085000:	500d883a 	mov	r6,r10
 5085004:	003ff106 	br	5084fcc <memmove+0x120>

05085008 <_printf_r>:
 5085008:	defffd04 	addi	sp,sp,-12
 508500c:	2805883a 	mov	r2,r5
 5085010:	dfc00015 	stw	ra,0(sp)
 5085014:	d9800115 	stw	r6,4(sp)
 5085018:	d9c00215 	stw	r7,8(sp)
 508501c:	21400217 	ldw	r5,8(r4)
 5085020:	d9c00104 	addi	r7,sp,4
 5085024:	100d883a 	mov	r6,r2
 5085028:	508747c0 	call	508747c <___vfprintf_internal_r>
 508502c:	dfc00017 	ldw	ra,0(sp)
 5085030:	dec00304 	addi	sp,sp,12
 5085034:	f800283a 	ret

05085038 <printf>:
 5085038:	defffc04 	addi	sp,sp,-16
 508503c:	dfc00015 	stw	ra,0(sp)
 5085040:	d9400115 	stw	r5,4(sp)
 5085044:	d9800215 	stw	r6,8(sp)
 5085048:	d9c00315 	stw	r7,12(sp)
 508504c:	008142b4 	movhi	r2,1290
 5085050:	10a17404 	addi	r2,r2,-31280
 5085054:	10800017 	ldw	r2,0(r2)
 5085058:	200b883a 	mov	r5,r4
 508505c:	d9800104 	addi	r6,sp,4
 5085060:	11000217 	ldw	r4,8(r2)
 5085064:	50896740 	call	5089674 <__vfprintf_internal>
 5085068:	dfc00017 	ldw	ra,0(sp)
 508506c:	dec00404 	addi	sp,sp,16
 5085070:	f800283a 	ret

05085074 <_puts_r>:
 5085074:	defff604 	addi	sp,sp,-40
 5085078:	dc000715 	stw	r16,28(sp)
 508507c:	2021883a 	mov	r16,r4
 5085080:	2809883a 	mov	r4,r5
 5085084:	dc400815 	stw	r17,32(sp)
 5085088:	dfc00915 	stw	ra,36(sp)
 508508c:	2823883a 	mov	r17,r5
 5085090:	508520c0 	call	508520c <strlen>
 5085094:	10c00044 	addi	r3,r2,1
 5085098:	d8800115 	stw	r2,4(sp)
 508509c:	00814274 	movhi	r2,1289
 50850a0:	109a3604 	addi	r2,r2,26840
 50850a4:	d8800215 	stw	r2,8(sp)
 50850a8:	00800044 	movi	r2,1
 50850ac:	d8800315 	stw	r2,12(sp)
 50850b0:	00800084 	movi	r2,2
 50850b4:	dc400015 	stw	r17,0(sp)
 50850b8:	d8c00615 	stw	r3,24(sp)
 50850bc:	dec00415 	stw	sp,16(sp)
 50850c0:	d8800515 	stw	r2,20(sp)
 50850c4:	80000226 	beq	r16,zero,50850d0 <_puts_r+0x5c>
 50850c8:	80800e17 	ldw	r2,56(r16)
 50850cc:	10001426 	beq	r2,zero,5085120 <_puts_r+0xac>
 50850d0:	81400217 	ldw	r5,8(r16)
 50850d4:	2880030b 	ldhu	r2,12(r5)
 50850d8:	10c8000c 	andi	r3,r2,8192
 50850dc:	1800061e 	bne	r3,zero,50850f8 <_puts_r+0x84>
 50850e0:	29001917 	ldw	r4,100(r5)
 50850e4:	00f7ffc4 	movi	r3,-8193
 50850e8:	10880014 	ori	r2,r2,8192
 50850ec:	20c6703a 	and	r3,r4,r3
 50850f0:	2880030d 	sth	r2,12(r5)
 50850f4:	28c01915 	stw	r3,100(r5)
 50850f8:	d9800404 	addi	r6,sp,16
 50850fc:	8009883a 	mov	r4,r16
 5085100:	508bcc80 	call	508bcc8 <__sfvwrite_r>
 5085104:	1000091e 	bne	r2,zero,508512c <_puts_r+0xb8>
 5085108:	00800284 	movi	r2,10
 508510c:	dfc00917 	ldw	ra,36(sp)
 5085110:	dc400817 	ldw	r17,32(sp)
 5085114:	dc000717 	ldw	r16,28(sp)
 5085118:	dec00a04 	addi	sp,sp,40
 508511c:	f800283a 	ret
 5085120:	8009883a 	mov	r4,r16
 5085124:	508b8440 	call	508b844 <__sinit>
 5085128:	003fe906 	br	50850d0 <_puts_r+0x5c>
 508512c:	00bfffc4 	movi	r2,-1
 5085130:	003ff606 	br	508510c <_puts_r+0x98>

05085134 <puts>:
 5085134:	008142b4 	movhi	r2,1290
 5085138:	10a17404 	addi	r2,r2,-31280
 508513c:	200b883a 	mov	r5,r4
 5085140:	11000017 	ldw	r4,0(r2)
 5085144:	50850741 	jmpi	5085074 <_puts_r>

05085148 <_sprintf_r>:
 5085148:	deffe404 	addi	sp,sp,-112
 508514c:	2807883a 	mov	r3,r5
 5085150:	dfc01a15 	stw	ra,104(sp)
 5085154:	d9c01b15 	stw	r7,108(sp)
 5085158:	00a00034 	movhi	r2,32768
 508515c:	10bfffc4 	addi	r2,r2,-1
 5085160:	02008204 	movi	r8,520
 5085164:	d8800215 	stw	r2,8(sp)
 5085168:	d8800515 	stw	r2,20(sp)
 508516c:	d9c01b04 	addi	r7,sp,108
 5085170:	d80b883a 	mov	r5,sp
 5085174:	00bfffc4 	movi	r2,-1
 5085178:	d8c00015 	stw	r3,0(sp)
 508517c:	d8c00415 	stw	r3,16(sp)
 5085180:	da00030d 	sth	r8,12(sp)
 5085184:	d880038d 	sth	r2,14(sp)
 5085188:	50852a40 	call	50852a4 <___svfprintf_internal_r>
 508518c:	d8c00017 	ldw	r3,0(sp)
 5085190:	18000005 	stb	zero,0(r3)
 5085194:	dfc01a17 	ldw	ra,104(sp)
 5085198:	dec01c04 	addi	sp,sp,112
 508519c:	f800283a 	ret

050851a0 <sprintf>:
 50851a0:	deffe304 	addi	sp,sp,-116
 50851a4:	2007883a 	mov	r3,r4
 50851a8:	dfc01a15 	stw	ra,104(sp)
 50851ac:	d9801b15 	stw	r6,108(sp)
 50851b0:	d9c01c15 	stw	r7,112(sp)
 50851b4:	010142b4 	movhi	r4,1290
 50851b8:	21217404 	addi	r4,r4,-31280
 50851bc:	21000017 	ldw	r4,0(r4)
 50851c0:	00a00034 	movhi	r2,32768
 50851c4:	10bfffc4 	addi	r2,r2,-1
 50851c8:	280d883a 	mov	r6,r5
 50851cc:	02008204 	movi	r8,520
 50851d0:	d8800215 	stw	r2,8(sp)
 50851d4:	d8800515 	stw	r2,20(sp)
 50851d8:	d9c01b04 	addi	r7,sp,108
 50851dc:	d80b883a 	mov	r5,sp
 50851e0:	00bfffc4 	movi	r2,-1
 50851e4:	d8c00015 	stw	r3,0(sp)
 50851e8:	d8c00415 	stw	r3,16(sp)
 50851ec:	da00030d 	sth	r8,12(sp)
 50851f0:	d880038d 	sth	r2,14(sp)
 50851f4:	50852a40 	call	50852a4 <___svfprintf_internal_r>
 50851f8:	d8c00017 	ldw	r3,0(sp)
 50851fc:	18000005 	stb	zero,0(r3)
 5085200:	dfc01a17 	ldw	ra,104(sp)
 5085204:	dec01d04 	addi	sp,sp,116
 5085208:	f800283a 	ret

0508520c <strlen>:
 508520c:	208000cc 	andi	r2,r4,3
 5085210:	10002026 	beq	r2,zero,5085294 <strlen+0x88>
 5085214:	20800007 	ldb	r2,0(r4)
 5085218:	10002026 	beq	r2,zero,508529c <strlen+0x90>
 508521c:	2005883a 	mov	r2,r4
 5085220:	00000206 	br	508522c <strlen+0x20>
 5085224:	10c00007 	ldb	r3,0(r2)
 5085228:	18001826 	beq	r3,zero,508528c <strlen+0x80>
 508522c:	10800044 	addi	r2,r2,1
 5085230:	10c000cc 	andi	r3,r2,3
 5085234:	183ffb1e 	bne	r3,zero,5085224 <strlen+0x18>
 5085238:	10c00017 	ldw	r3,0(r2)
 508523c:	01ffbff4 	movhi	r7,65279
 5085240:	39ffbfc4 	addi	r7,r7,-257
 5085244:	00ca303a 	nor	r5,zero,r3
 5085248:	01a02074 	movhi	r6,32897
 508524c:	19c7883a 	add	r3,r3,r7
 5085250:	31a02004 	addi	r6,r6,-32640
 5085254:	1946703a 	and	r3,r3,r5
 5085258:	1986703a 	and	r3,r3,r6
 508525c:	1800091e 	bne	r3,zero,5085284 <strlen+0x78>
 5085260:	10800104 	addi	r2,r2,4
 5085264:	10c00017 	ldw	r3,0(r2)
 5085268:	19cb883a 	add	r5,r3,r7
 508526c:	00c6303a 	nor	r3,zero,r3
 5085270:	28c6703a 	and	r3,r5,r3
 5085274:	1986703a 	and	r3,r3,r6
 5085278:	183ff926 	beq	r3,zero,5085260 <strlen+0x54>
 508527c:	00000106 	br	5085284 <strlen+0x78>
 5085280:	10800044 	addi	r2,r2,1
 5085284:	10c00007 	ldb	r3,0(r2)
 5085288:	183ffd1e 	bne	r3,zero,5085280 <strlen+0x74>
 508528c:	1105c83a 	sub	r2,r2,r4
 5085290:	f800283a 	ret
 5085294:	2005883a 	mov	r2,r4
 5085298:	003fe706 	br	5085238 <strlen+0x2c>
 508529c:	0005883a 	mov	r2,zero
 50852a0:	f800283a 	ret

050852a4 <___svfprintf_internal_r>:
 50852a4:	deffb704 	addi	sp,sp,-292
 50852a8:	dfc04815 	stw	ra,288(sp)
 50852ac:	ddc04615 	stw	r23,280(sp)
 50852b0:	d9402c15 	stw	r5,176(sp)
 50852b4:	d9003915 	stw	r4,228(sp)
 50852b8:	302f883a 	mov	r23,r6
 50852bc:	d9c02d15 	stw	r7,180(sp)
 50852c0:	df004715 	stw	fp,284(sp)
 50852c4:	dd804515 	stw	r22,276(sp)
 50852c8:	dd404415 	stw	r21,272(sp)
 50852cc:	dd004315 	stw	r20,268(sp)
 50852d0:	dcc04215 	stw	r19,264(sp)
 50852d4:	dc804115 	stw	r18,260(sp)
 50852d8:	dc404015 	stw	r17,256(sp)
 50852dc:	dc003f15 	stw	r16,252(sp)
 50852e0:	508c3b80 	call	508c3b8 <_localeconv_r>
 50852e4:	10800017 	ldw	r2,0(r2)
 50852e8:	1009883a 	mov	r4,r2
 50852ec:	d8803415 	stw	r2,208(sp)
 50852f0:	508520c0 	call	508520c <strlen>
 50852f4:	d8c02c17 	ldw	r3,176(sp)
 50852f8:	d8803815 	stw	r2,224(sp)
 50852fc:	1880030b 	ldhu	r2,12(r3)
 5085300:	1080200c 	andi	r2,r2,128
 5085304:	10000226 	beq	r2,zero,5085310 <___svfprintf_internal_r+0x6c>
 5085308:	18800417 	ldw	r2,16(r3)
 508530c:	10067f26 	beq	r2,zero,5086d0c <___svfprintf_internal_r+0x1a68>
 5085310:	dcc03917 	ldw	r19,228(sp)
 5085314:	d8c00404 	addi	r3,sp,16
 5085318:	05414274 	movhi	r21,1289
 508531c:	d9001e04 	addi	r4,sp,120
 5085320:	ad5a4784 	addi	r21,r21,26910
 5085324:	d8c01e15 	stw	r3,120(sp)
 5085328:	d8002015 	stw	zero,128(sp)
 508532c:	d8001f15 	stw	zero,124(sp)
 5085330:	d8003315 	stw	zero,204(sp)
 5085334:	d8003615 	stw	zero,216(sp)
 5085338:	d8003715 	stw	zero,220(sp)
 508533c:	1811883a 	mov	r8,r3
 5085340:	d8003a15 	stw	zero,232(sp)
 5085344:	d8003b15 	stw	zero,236(sp)
 5085348:	d8002f15 	stw	zero,188(sp)
 508534c:	d9002815 	stw	r4,160(sp)
 5085350:	b8800007 	ldb	r2,0(r23)
 5085354:	10026726 	beq	r2,zero,5085cf4 <___svfprintf_internal_r+0xa50>
 5085358:	00c00944 	movi	r3,37
 508535c:	b821883a 	mov	r16,r23
 5085360:	10c0021e 	bne	r2,r3,508536c <___svfprintf_internal_r+0xc8>
 5085364:	00001406 	br	50853b8 <___svfprintf_internal_r+0x114>
 5085368:	10c00326 	beq	r2,r3,5085378 <___svfprintf_internal_r+0xd4>
 508536c:	84000044 	addi	r16,r16,1
 5085370:	80800007 	ldb	r2,0(r16)
 5085374:	103ffc1e 	bne	r2,zero,5085368 <___svfprintf_internal_r+0xc4>
 5085378:	85e3c83a 	sub	r17,r16,r23
 508537c:	88000e26 	beq	r17,zero,50853b8 <___svfprintf_internal_r+0x114>
 5085380:	d8c02017 	ldw	r3,128(sp)
 5085384:	d8801f17 	ldw	r2,124(sp)
 5085388:	45c00015 	stw	r23,0(r8)
 508538c:	1c47883a 	add	r3,r3,r17
 5085390:	10800044 	addi	r2,r2,1
 5085394:	d8c02015 	stw	r3,128(sp)
 5085398:	44400115 	stw	r17,4(r8)
 508539c:	d8801f15 	stw	r2,124(sp)
 50853a0:	00c001c4 	movi	r3,7
 50853a4:	18809716 	blt	r3,r2,5085604 <___svfprintf_internal_r+0x360>
 50853a8:	42000204 	addi	r8,r8,8
 50853ac:	d9402f17 	ldw	r5,188(sp)
 50853b0:	2c4b883a 	add	r5,r5,r17
 50853b4:	d9402f15 	stw	r5,188(sp)
 50853b8:	80800007 	ldb	r2,0(r16)
 50853bc:	10009826 	beq	r2,zero,5085620 <___svfprintf_internal_r+0x37c>
 50853c0:	84400047 	ldb	r17,1(r16)
 50853c4:	00bfffc4 	movi	r2,-1
 50853c8:	85c00044 	addi	r23,r16,1
 50853cc:	d8002785 	stb	zero,158(sp)
 50853d0:	0007883a 	mov	r3,zero
 50853d4:	000f883a 	mov	r7,zero
 50853d8:	d8802915 	stw	r2,164(sp)
 50853dc:	d8003115 	stw	zero,196(sp)
 50853e0:	0025883a 	mov	r18,zero
 50853e4:	01401604 	movi	r5,88
 50853e8:	01800244 	movi	r6,9
 50853ec:	02800a84 	movi	r10,42
 50853f0:	02401b04 	movi	r9,108
 50853f4:	bdc00044 	addi	r23,r23,1
 50853f8:	88bff804 	addi	r2,r17,-32
 50853fc:	2882f036 	bltu	r5,r2,5085fc0 <___svfprintf_internal_r+0xd1c>
 5085400:	100490ba 	slli	r2,r2,2
 5085404:	01014234 	movhi	r4,1288
 5085408:	21150604 	addi	r4,r4,21528
 508540c:	1105883a 	add	r2,r2,r4
 5085410:	10800017 	ldw	r2,0(r2)
 5085414:	1000683a 	jmp	r2
 5085418:	05085f28 	cmpgeui	r20,zero,8572
 508541c:	05085fc0 	call	5085fc <__alt_mem_sdram+0x5085fc>
 5085420:	05085fc0 	call	5085fc <__alt_mem_sdram+0x5085fc>
 5085424:	05085f1c 	xori	r20,zero,8572
 5085428:	05085fc0 	call	5085fc <__alt_mem_sdram+0x5085fc>
 508542c:	05085fc0 	call	5085fc <__alt_mem_sdram+0x5085fc>
 5085430:	05085fc0 	call	5085fc <__alt_mem_sdram+0x5085fc>
 5085434:	05085fc0 	call	5085fc <__alt_mem_sdram+0x5085fc>
 5085438:	05085fc0 	call	5085fc <__alt_mem_sdram+0x5085fc>
 508543c:	05085fc0 	call	5085fc <__alt_mem_sdram+0x5085fc>
 5085440:	0508567c 	xorhi	r20,zero,8537
 5085444:	05085e58 	cmpnei	r20,zero,8569
 5085448:	05085fc0 	call	5085fc <__alt_mem_sdram+0x5085fc>
 508544c:	0508558c 	andi	r20,zero,8534
 5085450:	050856a4 	muli	r20,zero,8538
 5085454:	05085fc0 	call	5085fc <__alt_mem_sdram+0x5085fc>
 5085458:	05085718 	cmpnei	r20,zero,8540
 508545c:	050856e4 	muli	r20,zero,8539
 5085460:	050856e4 	muli	r20,zero,8539
 5085464:	050856e4 	muli	r20,zero,8539
 5085468:	050856e4 	muli	r20,zero,8539
 508546c:	050856e4 	muli	r20,zero,8539
 5085470:	050856e4 	muli	r20,zero,8539
 5085474:	050856e4 	muli	r20,zero,8539
 5085478:	050856e4 	muli	r20,zero,8539
 508547c:	050856e4 	muli	r20,zero,8539
 5085480:	05085fc0 	call	5085fc <__alt_mem_sdram+0x5085fc>
 5085484:	05085fc0 	call	5085fc <__alt_mem_sdram+0x5085fc>
 5085488:	05085fc0 	call	5085fc <__alt_mem_sdram+0x5085fc>
 508548c:	05085fc0 	call	5085fc <__alt_mem_sdram+0x5085fc>
 5085490:	05085fc0 	call	5085fc <__alt_mem_sdram+0x5085fc>
 5085494:	05085fc0 	call	5085fc <__alt_mem_sdram+0x5085fc>
 5085498:	05085fc0 	call	5085fc <__alt_mem_sdram+0x5085fc>
 508549c:	05085fc0 	call	5085fc <__alt_mem_sdram+0x5085fc>
 50854a0:	05085fc0 	call	5085fc <__alt_mem_sdram+0x5085fc>
 50854a4:	05085fc0 	call	5085fc <__alt_mem_sdram+0x5085fc>
 50854a8:	050857d0 	cmplti	r20,zero,8543
 50854ac:	05085724 	muli	r20,zero,8540
 50854b0:	05085fc0 	call	5085fc <__alt_mem_sdram+0x5085fc>
 50854b4:	05085724 	muli	r20,zero,8540
 50854b8:	05085fc0 	call	5085fc <__alt_mem_sdram+0x5085fc>
 50854bc:	05085fc0 	call	5085fc <__alt_mem_sdram+0x5085fc>
 50854c0:	05085fc0 	call	5085fc <__alt_mem_sdram+0x5085fc>
 50854c4:	05085fc0 	call	5085fc <__alt_mem_sdram+0x5085fc>
 50854c8:	050857c4 	movi	r20,8543
 50854cc:	05085fc0 	call	5085fc <__alt_mem_sdram+0x5085fc>
 50854d0:	05085fc0 	call	5085fc <__alt_mem_sdram+0x5085fc>
 50854d4:	0508588c 	andi	r20,zero,8546
 50854d8:	05085fc0 	call	5085fc <__alt_mem_sdram+0x5085fc>
 50854dc:	05085fc0 	call	5085fc <__alt_mem_sdram+0x5085fc>
 50854e0:	05085fc0 	call	5085fc <__alt_mem_sdram+0x5085fc>
 50854e4:	05085fc0 	call	5085fc <__alt_mem_sdram+0x5085fc>
 50854e8:	05085fc0 	call	5085fc <__alt_mem_sdram+0x5085fc>
 50854ec:	05085cfc 	xorhi	r20,zero,8563
 50854f0:	05085fc0 	call	5085fc <__alt_mem_sdram+0x5085fc>
 50854f4:	05085fc0 	call	5085fc <__alt_mem_sdram+0x5085fc>
 50854f8:	05085d5c 	xori	r20,zero,8565
 50854fc:	05085fc0 	call	5085fc <__alt_mem_sdram+0x5085fc>
 5085500:	05085fc0 	call	5085fc <__alt_mem_sdram+0x5085fc>
 5085504:	05085fc0 	call	5085fc <__alt_mem_sdram+0x5085fc>
 5085508:	05085fc0 	call	5085fc <__alt_mem_sdram+0x5085fc>
 508550c:	05085fc0 	call	5085fc <__alt_mem_sdram+0x5085fc>
 5085510:	05085fc0 	call	5085fc <__alt_mem_sdram+0x5085fc>
 5085514:	05085fc0 	call	5085fc <__alt_mem_sdram+0x5085fc>
 5085518:	05085fc0 	call	5085fc <__alt_mem_sdram+0x5085fc>
 508551c:	05085fc0 	call	5085fc <__alt_mem_sdram+0x5085fc>
 5085520:	05085fc0 	call	5085fc <__alt_mem_sdram+0x5085fc>
 5085524:	05085e0c 	andi	r20,zero,8568
 5085528:	05085f48 	cmpgei	r20,zero,8573
 508552c:	05085724 	muli	r20,zero,8540
 5085530:	05085724 	muli	r20,zero,8540
 5085534:	05085724 	muli	r20,zero,8540
 5085538:	05085f9c 	xori	r20,zero,8574
 508553c:	05085f48 	cmpgei	r20,zero,8573
 5085540:	05085fc0 	call	5085fc <__alt_mem_sdram+0x5085fc>
 5085544:	05085fc0 	call	5085fc <__alt_mem_sdram+0x5085fc>
 5085548:	05085f58 	cmpnei	r20,zero,8573
 508554c:	05085fc0 	call	5085fc <__alt_mem_sdram+0x5085fc>
 5085550:	05085f68 	cmpgeui	r20,zero,8573
 5085554:	05085e48 	cmpgei	r20,zero,8569
 5085558:	05085598 	cmpnei	r20,zero,8534
 508555c:	05085e68 	cmpgeui	r20,zero,8569
 5085560:	05085fc0 	call	5085fc <__alt_mem_sdram+0x5085fc>
 5085564:	05085e74 	movhi	r20,8569
 5085568:	05085fc0 	call	5085fc <__alt_mem_sdram+0x5085fc>
 508556c:	05085ed0 	cmplti	r20,zero,8571
 5085570:	05085fc0 	call	5085fc <__alt_mem_sdram+0x5085fc>
 5085574:	05085fc0 	call	5085fc <__alt_mem_sdram+0x5085fc>
 5085578:	05085ee0 	cmpeqi	r20,zero,8571
 508557c:	d9003117 	ldw	r4,196(sp)
 5085580:	d8802d15 	stw	r2,180(sp)
 5085584:	0109c83a 	sub	r4,zero,r4
 5085588:	d9003115 	stw	r4,196(sp)
 508558c:	94800114 	ori	r18,r18,4
 5085590:	bc400007 	ldb	r17,0(r23)
 5085594:	003f9706 	br	50853f4 <___svfprintf_internal_r+0x150>
 5085598:	00800c04 	movi	r2,48
 508559c:	d9002d17 	ldw	r4,180(sp)
 50855a0:	d9402917 	ldw	r5,164(sp)
 50855a4:	d8802705 	stb	r2,156(sp)
 50855a8:	00801e04 	movi	r2,120
 50855ac:	d8802745 	stb	r2,157(sp)
 50855b0:	d8002785 	stb	zero,158(sp)
 50855b4:	20c00104 	addi	r3,r4,4
 50855b8:	25000017 	ldw	r20,0(r4)
 50855bc:	002d883a 	mov	r22,zero
 50855c0:	90800094 	ori	r2,r18,2
 50855c4:	28028616 	blt	r5,zero,5085fe0 <___svfprintf_internal_r+0xd3c>
 50855c8:	00bfdfc4 	movi	r2,-129
 50855cc:	90a4703a 	and	r18,r18,r2
 50855d0:	d8c02d15 	stw	r3,180(sp)
 50855d4:	94800094 	ori	r18,r18,2
 50855d8:	a002731e 	bne	r20,zero,5085fa8 <___svfprintf_internal_r+0xd04>
 50855dc:	00814274 	movhi	r2,1289
 50855e0:	109a4004 	addi	r2,r2,26880
 50855e4:	d8803a15 	stw	r2,232(sp)
 50855e8:	04401e04 	movi	r17,120
 50855ec:	d8c02917 	ldw	r3,164(sp)
 50855f0:	0039883a 	mov	fp,zero
 50855f4:	1801d526 	beq	r3,zero,5085d4c <___svfprintf_internal_r+0xaa8>
 50855f8:	0029883a 	mov	r20,zero
 50855fc:	002d883a 	mov	r22,zero
 5085600:	0001f106 	br	5085dc8 <___svfprintf_internal_r+0xb24>
 5085604:	d9402c17 	ldw	r5,176(sp)
 5085608:	d9801e04 	addi	r6,sp,120
 508560c:	9809883a 	mov	r4,r19
 5085610:	508e7fc0 	call	508e7fc <__ssprint_r>
 5085614:	1000081e 	bne	r2,zero,5085638 <___svfprintf_internal_r+0x394>
 5085618:	da000404 	addi	r8,sp,16
 508561c:	003f6306 	br	50853ac <___svfprintf_internal_r+0x108>
 5085620:	d8802017 	ldw	r2,128(sp)
 5085624:	10000426 	beq	r2,zero,5085638 <___svfprintf_internal_r+0x394>
 5085628:	d9402c17 	ldw	r5,176(sp)
 508562c:	d9003917 	ldw	r4,228(sp)
 5085630:	d9801e04 	addi	r6,sp,120
 5085634:	508e7fc0 	call	508e7fc <__ssprint_r>
 5085638:	d8802c17 	ldw	r2,176(sp)
 508563c:	10c0030b 	ldhu	r3,12(r2)
 5085640:	d8802f17 	ldw	r2,188(sp)
 5085644:	18c0100c 	andi	r3,r3,64
 5085648:	1805f51e 	bne	r3,zero,5086e20 <___svfprintf_internal_r+0x1b7c>
 508564c:	dfc04817 	ldw	ra,288(sp)
 5085650:	df004717 	ldw	fp,284(sp)
 5085654:	ddc04617 	ldw	r23,280(sp)
 5085658:	dd804517 	ldw	r22,276(sp)
 508565c:	dd404417 	ldw	r21,272(sp)
 5085660:	dd004317 	ldw	r20,268(sp)
 5085664:	dcc04217 	ldw	r19,264(sp)
 5085668:	dc804117 	ldw	r18,260(sp)
 508566c:	dc404017 	ldw	r17,256(sp)
 5085670:	dc003f17 	ldw	r16,252(sp)
 5085674:	dec04904 	addi	sp,sp,292
 5085678:	f800283a 	ret
 508567c:	d8802d17 	ldw	r2,180(sp)
 5085680:	d9002d17 	ldw	r4,180(sp)
 5085684:	10800017 	ldw	r2,0(r2)
 5085688:	d8803115 	stw	r2,196(sp)
 508568c:	20800104 	addi	r2,r4,4
 5085690:	d9003117 	ldw	r4,196(sp)
 5085694:	203fb916 	blt	r4,zero,508557c <___svfprintf_internal_r+0x2d8>
 5085698:	d8802d15 	stw	r2,180(sp)
 508569c:	bc400007 	ldb	r17,0(r23)
 50856a0:	003f5406 	br	50853f4 <___svfprintf_internal_r+0x150>
 50856a4:	bc400007 	ldb	r17,0(r23)
 50856a8:	bac00044 	addi	r11,r23,1
 50856ac:	8a873926 	beq	r17,r10,5087394 <___svfprintf_internal_r+0x20f0>
 50856b0:	88bff404 	addi	r2,r17,-48
 50856b4:	0009883a 	mov	r4,zero
 50856b8:	30868836 	bltu	r6,r2,50870dc <___svfprintf_internal_r+0x1e38>
 50856bc:	5c400007 	ldb	r17,0(r11)
 50856c0:	210002a4 	muli	r4,r4,10
 50856c4:	5dc00044 	addi	r23,r11,1
 50856c8:	b817883a 	mov	r11,r23
 50856cc:	2089883a 	add	r4,r4,r2
 50856d0:	88bff404 	addi	r2,r17,-48
 50856d4:	30bff92e 	bgeu	r6,r2,50856bc <___svfprintf_internal_r+0x418>
 50856d8:	2005d716 	blt	r4,zero,5086e38 <___svfprintf_internal_r+0x1b94>
 50856dc:	d9002915 	stw	r4,164(sp)
 50856e0:	003f4506 	br	50853f8 <___svfprintf_internal_r+0x154>
 50856e4:	b809883a 	mov	r4,r23
 50856e8:	d8003115 	stw	zero,196(sp)
 50856ec:	88bff404 	addi	r2,r17,-48
 50856f0:	0017883a 	mov	r11,zero
 50856f4:	24400007 	ldb	r17,0(r4)
 50856f8:	5ac002a4 	muli	r11,r11,10
 50856fc:	bdc00044 	addi	r23,r23,1
 5085700:	b809883a 	mov	r4,r23
 5085704:	12d7883a 	add	r11,r2,r11
 5085708:	88bff404 	addi	r2,r17,-48
 508570c:	30bff92e 	bgeu	r6,r2,50856f4 <___svfprintf_internal_r+0x450>
 5085710:	dac03115 	stw	r11,196(sp)
 5085714:	003f3806 	br	50853f8 <___svfprintf_internal_r+0x154>
 5085718:	94802014 	ori	r18,r18,128
 508571c:	bc400007 	ldb	r17,0(r23)
 5085720:	003f3406 	br	50853f4 <___svfprintf_internal_r+0x150>
 5085724:	18c03fcc 	andi	r3,r3,255
 5085728:	1807471e 	bne	r3,zero,5087448 <___svfprintf_internal_r+0x21a4>
 508572c:	9080020c 	andi	r2,r18,8
 5085730:	10047d26 	beq	r2,zero,5086928 <___svfprintf_internal_r+0x1684>
 5085734:	d8c02d17 	ldw	r3,180(sp)
 5085738:	d9002d17 	ldw	r4,180(sp)
 508573c:	d9402d17 	ldw	r5,180(sp)
 5085740:	18c00017 	ldw	r3,0(r3)
 5085744:	21000117 	ldw	r4,4(r4)
 5085748:	29400204 	addi	r5,r5,8
 508574c:	d8c03615 	stw	r3,216(sp)
 5085750:	d9003715 	stw	r4,220(sp)
 5085754:	d9402d15 	stw	r5,180(sp)
 5085758:	d9003617 	ldw	r4,216(sp)
 508575c:	d9403717 	ldw	r5,220(sp)
 5085760:	da003e15 	stw	r8,248(sp)
 5085764:	04000044 	movi	r16,1
 5085768:	508e51c0 	call	508e51c <__fpclassifyd>
 508576c:	da003e17 	ldw	r8,248(sp)
 5085770:	14044b1e 	bne	r2,r16,50868a0 <___svfprintf_internal_r+0x15fc>
 5085774:	d9003617 	ldw	r4,216(sp)
 5085778:	d9403717 	ldw	r5,220(sp)
 508577c:	000d883a 	mov	r6,zero
 5085780:	000f883a 	mov	r7,zero
 5085784:	5083b1c0 	call	5083b1c <__ledf2>
 5085788:	da003e17 	ldw	r8,248(sp)
 508578c:	1005f316 	blt	r2,zero,5086f5c <___svfprintf_internal_r+0x1cb8>
 5085790:	df002783 	ldbu	fp,158(sp)
 5085794:	008011c4 	movi	r2,71
 5085798:	1445590e 	bge	r2,r17,5086d00 <___svfprintf_internal_r+0x1a5c>
 508579c:	04014274 	movhi	r16,1289
 50857a0:	841a3804 	addi	r16,r16,26848
 50857a4:	00c000c4 	movi	r3,3
 50857a8:	00bfdfc4 	movi	r2,-129
 50857ac:	d8c02a15 	stw	r3,168(sp)
 50857b0:	90a4703a 	and	r18,r18,r2
 50857b4:	d8c02e15 	stw	r3,184(sp)
 50857b8:	d8002915 	stw	zero,164(sp)
 50857bc:	d8003215 	stw	zero,200(sp)
 50857c0:	00006606 	br	508595c <___svfprintf_internal_r+0x6b8>
 50857c4:	94800214 	ori	r18,r18,8
 50857c8:	bc400007 	ldb	r17,0(r23)
 50857cc:	003f0906 	br	50853f4 <___svfprintf_internal_r+0x150>
 50857d0:	18c03fcc 	andi	r3,r3,255
 50857d4:	1807181e 	bne	r3,zero,5087438 <___svfprintf_internal_r+0x2194>
 50857d8:	94800414 	ori	r18,r18,16
 50857dc:	9080080c 	andi	r2,r18,32
 50857e0:	10039626 	beq	r2,zero,508663c <___svfprintf_internal_r+0x1398>
 50857e4:	d9402d17 	ldw	r5,180(sp)
 50857e8:	28800117 	ldw	r2,4(r5)
 50857ec:	2d000017 	ldw	r20,0(r5)
 50857f0:	29400204 	addi	r5,r5,8
 50857f4:	d9402d15 	stw	r5,180(sp)
 50857f8:	102d883a 	mov	r22,r2
 50857fc:	10039816 	blt	r2,zero,5086660 <___svfprintf_internal_r+0x13bc>
 5085800:	d9402917 	ldw	r5,164(sp)
 5085804:	df002783 	ldbu	fp,158(sp)
 5085808:	2803ab16 	blt	r5,zero,50866b8 <___svfprintf_internal_r+0x1414>
 508580c:	00ffdfc4 	movi	r3,-129
 5085810:	a584b03a 	or	r2,r20,r22
 5085814:	90e4703a 	and	r18,r18,r3
 5085818:	10014a26 	beq	r2,zero,5085d44 <___svfprintf_internal_r+0xaa0>
 508581c:	b0034b26 	beq	r22,zero,508654c <___svfprintf_internal_r+0x12a8>
 5085820:	dc402a15 	stw	r17,168(sp)
 5085824:	dc001e04 	addi	r16,sp,120
 5085828:	b023883a 	mov	r17,r22
 508582c:	402d883a 	mov	r22,r8
 5085830:	a009883a 	mov	r4,r20
 5085834:	880b883a 	mov	r5,r17
 5085838:	01800284 	movi	r6,10
 508583c:	000f883a 	mov	r7,zero
 5085840:	50920fc0 	call	50920fc <__umoddi3>
 5085844:	10800c04 	addi	r2,r2,48
 5085848:	843fffc4 	addi	r16,r16,-1
 508584c:	a009883a 	mov	r4,r20
 5085850:	880b883a 	mov	r5,r17
 5085854:	80800005 	stb	r2,0(r16)
 5085858:	01800284 	movi	r6,10
 508585c:	000f883a 	mov	r7,zero
 5085860:	5091b840 	call	5091b84 <__udivdi3>
 5085864:	1029883a 	mov	r20,r2
 5085868:	10c4b03a 	or	r2,r2,r3
 508586c:	1823883a 	mov	r17,r3
 5085870:	103fef1e 	bne	r2,zero,5085830 <___svfprintf_internal_r+0x58c>
 5085874:	d8c02817 	ldw	r3,160(sp)
 5085878:	dc402a17 	ldw	r17,168(sp)
 508587c:	b011883a 	mov	r8,r22
 5085880:	1c07c83a 	sub	r3,r3,r16
 5085884:	d8c02e15 	stw	r3,184(sp)
 5085888:	00002e06 	br	5085944 <___svfprintf_internal_r+0x6a0>
 508588c:	18c03fcc 	andi	r3,r3,255
 5085890:	1806e71e 	bne	r3,zero,5087430 <___svfprintf_internal_r+0x218c>
 5085894:	94800414 	ori	r18,r18,16
 5085898:	9080080c 	andi	r2,r18,32
 508589c:	1002d426 	beq	r2,zero,50863f0 <___svfprintf_internal_r+0x114c>
 50858a0:	d9402d17 	ldw	r5,180(sp)
 50858a4:	d8c02917 	ldw	r3,164(sp)
 50858a8:	d8002785 	stb	zero,158(sp)
 50858ac:	28800204 	addi	r2,r5,8
 50858b0:	2d000017 	ldw	r20,0(r5)
 50858b4:	2d800117 	ldw	r22,4(r5)
 50858b8:	18041516 	blt	r3,zero,5086910 <___svfprintf_internal_r+0x166c>
 50858bc:	013fdfc4 	movi	r4,-129
 50858c0:	a586b03a 	or	r3,r20,r22
 50858c4:	d8802d15 	stw	r2,180(sp)
 50858c8:	9124703a 	and	r18,r18,r4
 50858cc:	1802d51e 	bne	r3,zero,5086424 <___svfprintf_internal_r+0x1180>
 50858d0:	d9402917 	ldw	r5,164(sp)
 50858d4:	0039883a 	mov	fp,zero
 50858d8:	2806be26 	beq	r5,zero,50873d4 <___svfprintf_internal_r+0x2130>
 50858dc:	0029883a 	mov	r20,zero
 50858e0:	002d883a 	mov	r22,zero
 50858e4:	dc001e04 	addi	r16,sp,120
 50858e8:	a006d0fa 	srli	r3,r20,3
 50858ec:	b008977a 	slli	r4,r22,29
 50858f0:	b02cd0fa 	srli	r22,r22,3
 50858f4:	a50001cc 	andi	r20,r20,7
 50858f8:	a0800c04 	addi	r2,r20,48
 50858fc:	843fffc4 	addi	r16,r16,-1
 5085900:	20e8b03a 	or	r20,r4,r3
 5085904:	80800005 	stb	r2,0(r16)
 5085908:	a586b03a 	or	r3,r20,r22
 508590c:	183ff61e 	bne	r3,zero,50858e8 <___svfprintf_internal_r+0x644>
 5085910:	90c0004c 	andi	r3,r18,1
 5085914:	18013926 	beq	r3,zero,5085dfc <___svfprintf_internal_r+0xb58>
 5085918:	10803fcc 	andi	r2,r2,255
 508591c:	1080201c 	xori	r2,r2,128
 5085920:	10bfe004 	addi	r2,r2,-128
 5085924:	00c00c04 	movi	r3,48
 5085928:	10c13426 	beq	r2,r3,5085dfc <___svfprintf_internal_r+0xb58>
 508592c:	80ffffc5 	stb	r3,-1(r16)
 5085930:	d8c02817 	ldw	r3,160(sp)
 5085934:	80bfffc4 	addi	r2,r16,-1
 5085938:	1021883a 	mov	r16,r2
 508593c:	1887c83a 	sub	r3,r3,r2
 5085940:	d8c02e15 	stw	r3,184(sp)
 5085944:	d8802e17 	ldw	r2,184(sp)
 5085948:	d9002917 	ldw	r4,164(sp)
 508594c:	1100010e 	bge	r2,r4,5085954 <___svfprintf_internal_r+0x6b0>
 5085950:	2005883a 	mov	r2,r4
 5085954:	d8802a15 	stw	r2,168(sp)
 5085958:	d8003215 	stw	zero,200(sp)
 508595c:	e7003fcc 	andi	fp,fp,255
 5085960:	e700201c 	xori	fp,fp,128
 5085964:	e73fe004 	addi	fp,fp,-128
 5085968:	e0000326 	beq	fp,zero,5085978 <___svfprintf_internal_r+0x6d4>
 508596c:	d8c02a17 	ldw	r3,168(sp)
 5085970:	18c00044 	addi	r3,r3,1
 5085974:	d8c02a15 	stw	r3,168(sp)
 5085978:	90c0008c 	andi	r3,r18,2
 508597c:	d8c02b15 	stw	r3,172(sp)
 5085980:	18000326 	beq	r3,zero,5085990 <___svfprintf_internal_r+0x6ec>
 5085984:	d8c02a17 	ldw	r3,168(sp)
 5085988:	18c00084 	addi	r3,r3,2
 508598c:	d8c02a15 	stw	r3,168(sp)
 5085990:	90c0210c 	andi	r3,r18,132
 5085994:	d8c03015 	stw	r3,192(sp)
 5085998:	1801a11e 	bne	r3,zero,5086020 <___svfprintf_internal_r+0xd7c>
 508599c:	d9003117 	ldw	r4,196(sp)
 50859a0:	d8c02a17 	ldw	r3,168(sp)
 50859a4:	20e9c83a 	sub	r20,r4,r3
 50859a8:	05019d0e 	bge	zero,r20,5086020 <___svfprintf_internal_r+0xd7c>
 50859ac:	02400404 	movi	r9,16
 50859b0:	d8c02017 	ldw	r3,128(sp)
 50859b4:	d8801f17 	ldw	r2,124(sp)
 50859b8:	4d051b0e 	bge	r9,r20,5086e28 <___svfprintf_internal_r+0x1b84>
 50859bc:	01414274 	movhi	r5,1289
 50859c0:	295a4b84 	addi	r5,r5,26926
 50859c4:	dc403c15 	stw	r17,240(sp)
 50859c8:	d9403515 	stw	r5,212(sp)
 50859cc:	a023883a 	mov	r17,r20
 50859d0:	482d883a 	mov	r22,r9
 50859d4:	9029883a 	mov	r20,r18
 50859d8:	070001c4 	movi	fp,7
 50859dc:	8025883a 	mov	r18,r16
 50859e0:	dc002c17 	ldw	r16,176(sp)
 50859e4:	00000306 	br	50859f4 <___svfprintf_internal_r+0x750>
 50859e8:	8c7ffc04 	addi	r17,r17,-16
 50859ec:	42000204 	addi	r8,r8,8
 50859f0:	b440130e 	bge	r22,r17,5085a40 <___svfprintf_internal_r+0x79c>
 50859f4:	01014274 	movhi	r4,1289
 50859f8:	18c00404 	addi	r3,r3,16
 50859fc:	10800044 	addi	r2,r2,1
 5085a00:	211a4b84 	addi	r4,r4,26926
 5085a04:	41000015 	stw	r4,0(r8)
 5085a08:	45800115 	stw	r22,4(r8)
 5085a0c:	d8c02015 	stw	r3,128(sp)
 5085a10:	d8801f15 	stw	r2,124(sp)
 5085a14:	e0bff40e 	bge	fp,r2,50859e8 <___svfprintf_internal_r+0x744>
 5085a18:	d9801e04 	addi	r6,sp,120
 5085a1c:	800b883a 	mov	r5,r16
 5085a20:	9809883a 	mov	r4,r19
 5085a24:	508e7fc0 	call	508e7fc <__ssprint_r>
 5085a28:	103f031e 	bne	r2,zero,5085638 <___svfprintf_internal_r+0x394>
 5085a2c:	8c7ffc04 	addi	r17,r17,-16
 5085a30:	d8c02017 	ldw	r3,128(sp)
 5085a34:	d8801f17 	ldw	r2,124(sp)
 5085a38:	da000404 	addi	r8,sp,16
 5085a3c:	b47fed16 	blt	r22,r17,50859f4 <___svfprintf_internal_r+0x750>
 5085a40:	9021883a 	mov	r16,r18
 5085a44:	a025883a 	mov	r18,r20
 5085a48:	8829883a 	mov	r20,r17
 5085a4c:	dc403c17 	ldw	r17,240(sp)
 5085a50:	d9403517 	ldw	r5,212(sp)
 5085a54:	a0c7883a 	add	r3,r20,r3
 5085a58:	10800044 	addi	r2,r2,1
 5085a5c:	41400015 	stw	r5,0(r8)
 5085a60:	45000115 	stw	r20,4(r8)
 5085a64:	d8c02015 	stw	r3,128(sp)
 5085a68:	d8801f15 	stw	r2,124(sp)
 5085a6c:	010001c4 	movi	r4,7
 5085a70:	20829f16 	blt	r4,r2,50864f0 <___svfprintf_internal_r+0x124c>
 5085a74:	df002787 	ldb	fp,158(sp)
 5085a78:	42000204 	addi	r8,r8,8
 5085a7c:	e0000c26 	beq	fp,zero,5085ab0 <___svfprintf_internal_r+0x80c>
 5085a80:	d8801f17 	ldw	r2,124(sp)
 5085a84:	d9002784 	addi	r4,sp,158
 5085a88:	18c00044 	addi	r3,r3,1
 5085a8c:	10800044 	addi	r2,r2,1
 5085a90:	41000015 	stw	r4,0(r8)
 5085a94:	01000044 	movi	r4,1
 5085a98:	41000115 	stw	r4,4(r8)
 5085a9c:	d8c02015 	stw	r3,128(sp)
 5085aa0:	d8801f15 	stw	r2,124(sp)
 5085aa4:	010001c4 	movi	r4,7
 5085aa8:	20823816 	blt	r4,r2,508638c <___svfprintf_internal_r+0x10e8>
 5085aac:	42000204 	addi	r8,r8,8
 5085ab0:	d8802b17 	ldw	r2,172(sp)
 5085ab4:	10000c26 	beq	r2,zero,5085ae8 <___svfprintf_internal_r+0x844>
 5085ab8:	d8801f17 	ldw	r2,124(sp)
 5085abc:	d9002704 	addi	r4,sp,156
 5085ac0:	18c00084 	addi	r3,r3,2
 5085ac4:	10800044 	addi	r2,r2,1
 5085ac8:	41000015 	stw	r4,0(r8)
 5085acc:	01000084 	movi	r4,2
 5085ad0:	41000115 	stw	r4,4(r8)
 5085ad4:	d8c02015 	stw	r3,128(sp)
 5085ad8:	d8801f15 	stw	r2,124(sp)
 5085adc:	010001c4 	movi	r4,7
 5085ae0:	20823216 	blt	r4,r2,50863ac <___svfprintf_internal_r+0x1108>
 5085ae4:	42000204 	addi	r8,r8,8
 5085ae8:	d9003017 	ldw	r4,192(sp)
 5085aec:	00802004 	movi	r2,128
 5085af0:	20819726 	beq	r4,r2,5086150 <___svfprintf_internal_r+0xeac>
 5085af4:	d9402917 	ldw	r5,164(sp)
 5085af8:	d8802e17 	ldw	r2,184(sp)
 5085afc:	28adc83a 	sub	r22,r5,r2
 5085b00:	05802f0e 	bge	zero,r22,5085bc0 <___svfprintf_internal_r+0x91c>
 5085b04:	07000404 	movi	fp,16
 5085b08:	d8801f17 	ldw	r2,124(sp)
 5085b0c:	e583c00e 	bge	fp,r22,5086a10 <___svfprintf_internal_r+0x176c>
 5085b10:	01414274 	movhi	r5,1289
 5085b14:	295a4784 	addi	r5,r5,26910
 5085b18:	dc402915 	stw	r17,164(sp)
 5085b1c:	d9402b15 	stw	r5,172(sp)
 5085b20:	b023883a 	mov	r17,r22
 5085b24:	050001c4 	movi	r20,7
 5085b28:	902d883a 	mov	r22,r18
 5085b2c:	8025883a 	mov	r18,r16
 5085b30:	dc002c17 	ldw	r16,176(sp)
 5085b34:	00000306 	br	5085b44 <___svfprintf_internal_r+0x8a0>
 5085b38:	8c7ffc04 	addi	r17,r17,-16
 5085b3c:	42000204 	addi	r8,r8,8
 5085b40:	e440110e 	bge	fp,r17,5085b88 <___svfprintf_internal_r+0x8e4>
 5085b44:	18c00404 	addi	r3,r3,16
 5085b48:	10800044 	addi	r2,r2,1
 5085b4c:	45400015 	stw	r21,0(r8)
 5085b50:	47000115 	stw	fp,4(r8)
 5085b54:	d8c02015 	stw	r3,128(sp)
 5085b58:	d8801f15 	stw	r2,124(sp)
 5085b5c:	a0bff60e 	bge	r20,r2,5085b38 <___svfprintf_internal_r+0x894>
 5085b60:	d9801e04 	addi	r6,sp,120
 5085b64:	800b883a 	mov	r5,r16
 5085b68:	9809883a 	mov	r4,r19
 5085b6c:	508e7fc0 	call	508e7fc <__ssprint_r>
 5085b70:	103eb11e 	bne	r2,zero,5085638 <___svfprintf_internal_r+0x394>
 5085b74:	8c7ffc04 	addi	r17,r17,-16
 5085b78:	d8c02017 	ldw	r3,128(sp)
 5085b7c:	d8801f17 	ldw	r2,124(sp)
 5085b80:	da000404 	addi	r8,sp,16
 5085b84:	e47fef16 	blt	fp,r17,5085b44 <___svfprintf_internal_r+0x8a0>
 5085b88:	9021883a 	mov	r16,r18
 5085b8c:	b025883a 	mov	r18,r22
 5085b90:	882d883a 	mov	r22,r17
 5085b94:	dc402917 	ldw	r17,164(sp)
 5085b98:	d9002b17 	ldw	r4,172(sp)
 5085b9c:	1d87883a 	add	r3,r3,r22
 5085ba0:	10800044 	addi	r2,r2,1
 5085ba4:	41000015 	stw	r4,0(r8)
 5085ba8:	45800115 	stw	r22,4(r8)
 5085bac:	d8c02015 	stw	r3,128(sp)
 5085bb0:	d8801f15 	stw	r2,124(sp)
 5085bb4:	010001c4 	movi	r4,7
 5085bb8:	2081ec16 	blt	r4,r2,508636c <___svfprintf_internal_r+0x10c8>
 5085bbc:	42000204 	addi	r8,r8,8
 5085bc0:	9080400c 	andi	r2,r18,256
 5085bc4:	1001181e 	bne	r2,zero,5086028 <___svfprintf_internal_r+0xd84>
 5085bc8:	d9402e17 	ldw	r5,184(sp)
 5085bcc:	d8801f17 	ldw	r2,124(sp)
 5085bd0:	44000015 	stw	r16,0(r8)
 5085bd4:	1947883a 	add	r3,r3,r5
 5085bd8:	10800044 	addi	r2,r2,1
 5085bdc:	41400115 	stw	r5,4(r8)
 5085be0:	d8c02015 	stw	r3,128(sp)
 5085be4:	d8801f15 	stw	r2,124(sp)
 5085be8:	010001c4 	movi	r4,7
 5085bec:	2081d116 	blt	r4,r2,5086334 <___svfprintf_internal_r+0x1090>
 5085bf0:	42000204 	addi	r8,r8,8
 5085bf4:	9480010c 	andi	r18,r18,4
 5085bf8:	90003226 	beq	r18,zero,5085cc4 <___svfprintf_internal_r+0xa20>
 5085bfc:	d9403117 	ldw	r5,196(sp)
 5085c00:	d8802a17 	ldw	r2,168(sp)
 5085c04:	28a1c83a 	sub	r16,r5,r2
 5085c08:	04002e0e 	bge	zero,r16,5085cc4 <___svfprintf_internal_r+0xa20>
 5085c0c:	04400404 	movi	r17,16
 5085c10:	d8801f17 	ldw	r2,124(sp)
 5085c14:	8c04b90e 	bge	r17,r16,5086efc <___svfprintf_internal_r+0x1c58>
 5085c18:	01414274 	movhi	r5,1289
 5085c1c:	295a4b84 	addi	r5,r5,26926
 5085c20:	d9403515 	stw	r5,212(sp)
 5085c24:	048001c4 	movi	r18,7
 5085c28:	dd002c17 	ldw	r20,176(sp)
 5085c2c:	00000306 	br	5085c3c <___svfprintf_internal_r+0x998>
 5085c30:	843ffc04 	addi	r16,r16,-16
 5085c34:	42000204 	addi	r8,r8,8
 5085c38:	8c00130e 	bge	r17,r16,5085c88 <___svfprintf_internal_r+0x9e4>
 5085c3c:	01014274 	movhi	r4,1289
 5085c40:	18c00404 	addi	r3,r3,16
 5085c44:	10800044 	addi	r2,r2,1
 5085c48:	211a4b84 	addi	r4,r4,26926
 5085c4c:	41000015 	stw	r4,0(r8)
 5085c50:	44400115 	stw	r17,4(r8)
 5085c54:	d8c02015 	stw	r3,128(sp)
 5085c58:	d8801f15 	stw	r2,124(sp)
 5085c5c:	90bff40e 	bge	r18,r2,5085c30 <___svfprintf_internal_r+0x98c>
 5085c60:	d9801e04 	addi	r6,sp,120
 5085c64:	a00b883a 	mov	r5,r20
 5085c68:	9809883a 	mov	r4,r19
 5085c6c:	508e7fc0 	call	508e7fc <__ssprint_r>
 5085c70:	103e711e 	bne	r2,zero,5085638 <___svfprintf_internal_r+0x394>
 5085c74:	843ffc04 	addi	r16,r16,-16
 5085c78:	d8c02017 	ldw	r3,128(sp)
 5085c7c:	d8801f17 	ldw	r2,124(sp)
 5085c80:	da000404 	addi	r8,sp,16
 5085c84:	8c3fed16 	blt	r17,r16,5085c3c <___svfprintf_internal_r+0x998>
 5085c88:	d9403517 	ldw	r5,212(sp)
 5085c8c:	1c07883a 	add	r3,r3,r16
 5085c90:	10800044 	addi	r2,r2,1
 5085c94:	41400015 	stw	r5,0(r8)
 5085c98:	44000115 	stw	r16,4(r8)
 5085c9c:	d8c02015 	stw	r3,128(sp)
 5085ca0:	d8801f15 	stw	r2,124(sp)
 5085ca4:	010001c4 	movi	r4,7
 5085ca8:	2080060e 	bge	r4,r2,5085cc4 <___svfprintf_internal_r+0xa20>
 5085cac:	d9402c17 	ldw	r5,176(sp)
 5085cb0:	d9801e04 	addi	r6,sp,120
 5085cb4:	9809883a 	mov	r4,r19
 5085cb8:	508e7fc0 	call	508e7fc <__ssprint_r>
 5085cbc:	103e5e1e 	bne	r2,zero,5085638 <___svfprintf_internal_r+0x394>
 5085cc0:	d8c02017 	ldw	r3,128(sp)
 5085cc4:	d8803117 	ldw	r2,196(sp)
 5085cc8:	d9002a17 	ldw	r4,168(sp)
 5085ccc:	1100010e 	bge	r2,r4,5085cd4 <___svfprintf_internal_r+0xa30>
 5085cd0:	2005883a 	mov	r2,r4
 5085cd4:	d9402f17 	ldw	r5,188(sp)
 5085cd8:	288b883a 	add	r5,r5,r2
 5085cdc:	d9402f15 	stw	r5,188(sp)
 5085ce0:	18019c1e 	bne	r3,zero,5086354 <___svfprintf_internal_r+0x10b0>
 5085ce4:	b8800007 	ldb	r2,0(r23)
 5085ce8:	d8001f15 	stw	zero,124(sp)
 5085cec:	da000404 	addi	r8,sp,16
 5085cf0:	103d991e 	bne	r2,zero,5085358 <___svfprintf_internal_r+0xb4>
 5085cf4:	b821883a 	mov	r16,r23
 5085cf8:	003daf06 	br	50853b8 <___svfprintf_internal_r+0x114>
 5085cfc:	18c03fcc 	andi	r3,r3,255
 5085d00:	1805c71e 	bne	r3,zero,5087420 <___svfprintf_internal_r+0x217c>
 5085d04:	94800414 	ori	r18,r18,16
 5085d08:	9080080c 	andi	r2,r18,32
 5085d0c:	10020126 	beq	r2,zero,5086514 <___svfprintf_internal_r+0x1270>
 5085d10:	d8802d17 	ldw	r2,180(sp)
 5085d14:	d9002917 	ldw	r4,164(sp)
 5085d18:	d8002785 	stb	zero,158(sp)
 5085d1c:	10c00204 	addi	r3,r2,8
 5085d20:	15000017 	ldw	r20,0(r2)
 5085d24:	15800117 	ldw	r22,4(r2)
 5085d28:	20038e16 	blt	r4,zero,5086b64 <___svfprintf_internal_r+0x18c0>
 5085d2c:	013fdfc4 	movi	r4,-129
 5085d30:	a584b03a 	or	r2,r20,r22
 5085d34:	d8c02d15 	stw	r3,180(sp)
 5085d38:	9124703a 	and	r18,r18,r4
 5085d3c:	0039883a 	mov	fp,zero
 5085d40:	103eb61e 	bne	r2,zero,508581c <___svfprintf_internal_r+0x578>
 5085d44:	d8802917 	ldw	r2,164(sp)
 5085d48:	1002c81e 	bne	r2,zero,508686c <___svfprintf_internal_r+0x15c8>
 5085d4c:	d8002915 	stw	zero,164(sp)
 5085d50:	d8002e15 	stw	zero,184(sp)
 5085d54:	dc001e04 	addi	r16,sp,120
 5085d58:	003efa06 	br	5085944 <___svfprintf_internal_r+0x6a0>
 5085d5c:	18c03fcc 	andi	r3,r3,255
 5085d60:	1805ad1e 	bne	r3,zero,5087418 <___svfprintf_internal_r+0x2174>
 5085d64:	01414274 	movhi	r5,1289
 5085d68:	295a3b04 	addi	r5,r5,26860
 5085d6c:	d9403a15 	stw	r5,232(sp)
 5085d70:	9080080c 	andi	r2,r18,32
 5085d74:	10006126 	beq	r2,zero,5085efc <___svfprintf_internal_r+0xc58>
 5085d78:	d8802d17 	ldw	r2,180(sp)
 5085d7c:	15000017 	ldw	r20,0(r2)
 5085d80:	15800117 	ldw	r22,4(r2)
 5085d84:	10800204 	addi	r2,r2,8
 5085d88:	d8802d15 	stw	r2,180(sp)
 5085d8c:	9080004c 	andi	r2,r18,1
 5085d90:	10018e26 	beq	r2,zero,50863cc <___svfprintf_internal_r+0x1128>
 5085d94:	a584b03a 	or	r2,r20,r22
 5085d98:	10030926 	beq	r2,zero,50869c0 <___svfprintf_internal_r+0x171c>
 5085d9c:	d8c02917 	ldw	r3,164(sp)
 5085da0:	00800c04 	movi	r2,48
 5085da4:	d8802705 	stb	r2,156(sp)
 5085da8:	dc402745 	stb	r17,157(sp)
 5085dac:	d8002785 	stb	zero,158(sp)
 5085db0:	90800094 	ori	r2,r18,2
 5085db4:	18048716 	blt	r3,zero,5086fd4 <___svfprintf_internal_r+0x1d30>
 5085db8:	00bfdfc4 	movi	r2,-129
 5085dbc:	90a4703a 	and	r18,r18,r2
 5085dc0:	94800094 	ori	r18,r18,2
 5085dc4:	0039883a 	mov	fp,zero
 5085dc8:	d9003a17 	ldw	r4,232(sp)
 5085dcc:	dc001e04 	addi	r16,sp,120
 5085dd0:	a08003cc 	andi	r2,r20,15
 5085dd4:	b006973a 	slli	r3,r22,28
 5085dd8:	2085883a 	add	r2,r4,r2
 5085ddc:	a028d13a 	srli	r20,r20,4
 5085de0:	10800003 	ldbu	r2,0(r2)
 5085de4:	b02cd13a 	srli	r22,r22,4
 5085de8:	843fffc4 	addi	r16,r16,-1
 5085dec:	1d28b03a 	or	r20,r3,r20
 5085df0:	80800005 	stb	r2,0(r16)
 5085df4:	a584b03a 	or	r2,r20,r22
 5085df8:	103ff51e 	bne	r2,zero,5085dd0 <___svfprintf_internal_r+0xb2c>
 5085dfc:	d8c02817 	ldw	r3,160(sp)
 5085e00:	1c07c83a 	sub	r3,r3,r16
 5085e04:	d8c02e15 	stw	r3,184(sp)
 5085e08:	003ece06 	br	5085944 <___svfprintf_internal_r+0x6a0>
 5085e0c:	d8c02d17 	ldw	r3,180(sp)
 5085e10:	d9002d17 	ldw	r4,180(sp)
 5085e14:	d8002785 	stb	zero,158(sp)
 5085e18:	18800017 	ldw	r2,0(r3)
 5085e1c:	21000104 	addi	r4,r4,4
 5085e20:	00c00044 	movi	r3,1
 5085e24:	d8c02a15 	stw	r3,168(sp)
 5085e28:	d8801405 	stb	r2,80(sp)
 5085e2c:	d9002d15 	stw	r4,180(sp)
 5085e30:	d8c02e15 	stw	r3,184(sp)
 5085e34:	d8002915 	stw	zero,164(sp)
 5085e38:	d8003215 	stw	zero,200(sp)
 5085e3c:	dc001404 	addi	r16,sp,80
 5085e40:	0039883a 	mov	fp,zero
 5085e44:	003ecc06 	br	5085978 <___svfprintf_internal_r+0x6d4>
 5085e48:	18c03fcc 	andi	r3,r3,255
 5085e4c:	183e9226 	beq	r3,zero,5085898 <___svfprintf_internal_r+0x5f4>
 5085e50:	d9c02785 	stb	r7,158(sp)
 5085e54:	003e9006 	br	5085898 <___svfprintf_internal_r+0x5f4>
 5085e58:	00c00044 	movi	r3,1
 5085e5c:	01c00ac4 	movi	r7,43
 5085e60:	bc400007 	ldb	r17,0(r23)
 5085e64:	003d6306 	br	50853f4 <___svfprintf_internal_r+0x150>
 5085e68:	94800814 	ori	r18,r18,32
 5085e6c:	bc400007 	ldb	r17,0(r23)
 5085e70:	003d6006 	br	50853f4 <___svfprintf_internal_r+0x150>
 5085e74:	d8c02d17 	ldw	r3,180(sp)
 5085e78:	d8002785 	stb	zero,158(sp)
 5085e7c:	1c000017 	ldw	r16,0(r3)
 5085e80:	1d000104 	addi	r20,r3,4
 5085e84:	80040f26 	beq	r16,zero,5086ec4 <___svfprintf_internal_r+0x1c20>
 5085e88:	d9002917 	ldw	r4,164(sp)
 5085e8c:	2003dc16 	blt	r4,zero,5086e00 <___svfprintf_internal_r+0x1b5c>
 5085e90:	200d883a 	mov	r6,r4
 5085e94:	000b883a 	mov	r5,zero
 5085e98:	8009883a 	mov	r4,r16
 5085e9c:	da003e15 	stw	r8,248(sp)
 5085ea0:	508cdb00 	call	508cdb0 <memchr>
 5085ea4:	da003e17 	ldw	r8,248(sp)
 5085ea8:	10045826 	beq	r2,zero,508700c <___svfprintf_internal_r+0x1d68>
 5085eac:	1405c83a 	sub	r2,r2,r16
 5085eb0:	d8802e15 	stw	r2,184(sp)
 5085eb4:	1003d816 	blt	r2,zero,5086e18 <___svfprintf_internal_r+0x1b74>
 5085eb8:	df002783 	ldbu	fp,158(sp)
 5085ebc:	d8802a15 	stw	r2,168(sp)
 5085ec0:	dd002d15 	stw	r20,180(sp)
 5085ec4:	d8002915 	stw	zero,164(sp)
 5085ec8:	d8003215 	stw	zero,200(sp)
 5085ecc:	003ea306 	br	508595c <___svfprintf_internal_r+0x6b8>
 5085ed0:	18c03fcc 	andi	r3,r3,255
 5085ed4:	183f8c26 	beq	r3,zero,5085d08 <___svfprintf_internal_r+0xa64>
 5085ed8:	d9c02785 	stb	r7,158(sp)
 5085edc:	003f8a06 	br	5085d08 <___svfprintf_internal_r+0xa64>
 5085ee0:	18c03fcc 	andi	r3,r3,255
 5085ee4:	1805631e 	bne	r3,zero,5087474 <___svfprintf_internal_r+0x21d0>
 5085ee8:	01414274 	movhi	r5,1289
 5085eec:	295a4004 	addi	r5,r5,26880
 5085ef0:	d9403a15 	stw	r5,232(sp)
 5085ef4:	9080080c 	andi	r2,r18,32
 5085ef8:	103f9f1e 	bne	r2,zero,5085d78 <___svfprintf_internal_r+0xad4>
 5085efc:	9080040c 	andi	r2,r18,16
 5085f00:	10029c26 	beq	r2,zero,5086974 <___svfprintf_internal_r+0x16d0>
 5085f04:	d8c02d17 	ldw	r3,180(sp)
 5085f08:	002d883a 	mov	r22,zero
 5085f0c:	1d000017 	ldw	r20,0(r3)
 5085f10:	18c00104 	addi	r3,r3,4
 5085f14:	d8c02d15 	stw	r3,180(sp)
 5085f18:	003f9c06 	br	5085d8c <___svfprintf_internal_r+0xae8>
 5085f1c:	94800054 	ori	r18,r18,1
 5085f20:	bc400007 	ldb	r17,0(r23)
 5085f24:	003d3306 	br	50853f4 <___svfprintf_internal_r+0x150>
 5085f28:	38803fcc 	andi	r2,r7,255
 5085f2c:	1080201c 	xori	r2,r2,128
 5085f30:	10bfe004 	addi	r2,r2,-128
 5085f34:	1002971e 	bne	r2,zero,5086994 <___svfprintf_internal_r+0x16f0>
 5085f38:	00c00044 	movi	r3,1
 5085f3c:	01c00804 	movi	r7,32
 5085f40:	bc400007 	ldb	r17,0(r23)
 5085f44:	003d2b06 	br	50853f4 <___svfprintf_internal_r+0x150>
 5085f48:	18c03fcc 	andi	r3,r3,255
 5085f4c:	183e2326 	beq	r3,zero,50857dc <___svfprintf_internal_r+0x538>
 5085f50:	d9c02785 	stb	r7,158(sp)
 5085f54:	003e2106 	br	50857dc <___svfprintf_internal_r+0x538>
 5085f58:	bc400007 	ldb	r17,0(r23)
 5085f5c:	8a430426 	beq	r17,r9,5086b70 <___svfprintf_internal_r+0x18cc>
 5085f60:	94800414 	ori	r18,r18,16
 5085f64:	003d2306 	br	50853f4 <___svfprintf_internal_r+0x150>
 5085f68:	18c03fcc 	andi	r3,r3,255
 5085f6c:	18053f1e 	bne	r3,zero,508746c <___svfprintf_internal_r+0x21c8>
 5085f70:	9080080c 	andi	r2,r18,32
 5085f74:	10028926 	beq	r2,zero,508699c <___svfprintf_internal_r+0x16f8>
 5085f78:	d9402d17 	ldw	r5,180(sp)
 5085f7c:	d9002f17 	ldw	r4,188(sp)
 5085f80:	28800017 	ldw	r2,0(r5)
 5085f84:	2007d7fa 	srai	r3,r4,31
 5085f88:	29400104 	addi	r5,r5,4
 5085f8c:	d9402d15 	stw	r5,180(sp)
 5085f90:	11000015 	stw	r4,0(r2)
 5085f94:	10c00115 	stw	r3,4(r2)
 5085f98:	003ced06 	br	5085350 <___svfprintf_internal_r+0xac>
 5085f9c:	94801014 	ori	r18,r18,64
 5085fa0:	bc400007 	ldb	r17,0(r23)
 5085fa4:	003d1306 	br	50853f4 <___svfprintf_internal_r+0x150>
 5085fa8:	01014274 	movhi	r4,1289
 5085fac:	211a4004 	addi	r4,r4,26880
 5085fb0:	0039883a 	mov	fp,zero
 5085fb4:	d9003a15 	stw	r4,232(sp)
 5085fb8:	04401e04 	movi	r17,120
 5085fbc:	003f8206 	br	5085dc8 <___svfprintf_internal_r+0xb24>
 5085fc0:	18c03fcc 	andi	r3,r3,255
 5085fc4:	1805221e 	bne	r3,zero,5087450 <___svfprintf_internal_r+0x21ac>
 5085fc8:	883d9526 	beq	r17,zero,5085620 <___svfprintf_internal_r+0x37c>
 5085fcc:	00c00044 	movi	r3,1
 5085fd0:	d8c02a15 	stw	r3,168(sp)
 5085fd4:	dc401405 	stb	r17,80(sp)
 5085fd8:	d8002785 	stb	zero,158(sp)
 5085fdc:	003f9406 	br	5085e30 <___svfprintf_internal_r+0xb8c>
 5085fe0:	01014274 	movhi	r4,1289
 5085fe4:	211a4004 	addi	r4,r4,26880
 5085fe8:	d9003a15 	stw	r4,232(sp)
 5085fec:	d8c02d15 	stw	r3,180(sp)
 5085ff0:	1025883a 	mov	r18,r2
 5085ff4:	04401e04 	movi	r17,120
 5085ff8:	a584b03a 	or	r2,r20,r22
 5085ffc:	1000fa1e 	bne	r2,zero,50863e8 <___svfprintf_internal_r+0x1144>
 5086000:	0039883a 	mov	fp,zero
 5086004:	00800084 	movi	r2,2
 5086008:	10803fcc 	andi	r2,r2,255
 508600c:	00c00044 	movi	r3,1
 5086010:	10c21626 	beq	r2,r3,508686c <___svfprintf_internal_r+0x15c8>
 5086014:	00c00084 	movi	r3,2
 5086018:	10fe301e 	bne	r2,r3,50858dc <___svfprintf_internal_r+0x638>
 508601c:	003d7606 	br	50855f8 <___svfprintf_internal_r+0x354>
 5086020:	d8c02017 	ldw	r3,128(sp)
 5086024:	003e9506 	br	5085a7c <___svfprintf_internal_r+0x7d8>
 5086028:	00801944 	movi	r2,101
 508602c:	14407c0e 	bge	r2,r17,5086220 <___svfprintf_internal_r+0xf7c>
 5086030:	d9003617 	ldw	r4,216(sp)
 5086034:	d9403717 	ldw	r5,220(sp)
 5086038:	000d883a 	mov	r6,zero
 508603c:	000f883a 	mov	r7,zero
 5086040:	d8c03d15 	stw	r3,244(sp)
 5086044:	da003e15 	stw	r8,248(sp)
 5086048:	5092f1c0 	call	5092f1c <__eqdf2>
 508604c:	d8c03d17 	ldw	r3,244(sp)
 5086050:	da003e17 	ldw	r8,248(sp)
 5086054:	1000f51e 	bne	r2,zero,508642c <___svfprintf_internal_r+0x1188>
 5086058:	d8801f17 	ldw	r2,124(sp)
 508605c:	01014274 	movhi	r4,1289
 5086060:	211a4704 	addi	r4,r4,26908
 5086064:	18c00044 	addi	r3,r3,1
 5086068:	10800044 	addi	r2,r2,1
 508606c:	41000015 	stw	r4,0(r8)
 5086070:	01000044 	movi	r4,1
 5086074:	41000115 	stw	r4,4(r8)
 5086078:	d8c02015 	stw	r3,128(sp)
 508607c:	d8801f15 	stw	r2,124(sp)
 5086080:	010001c4 	movi	r4,7
 5086084:	20826616 	blt	r4,r2,5086a20 <___svfprintf_internal_r+0x177c>
 5086088:	42000204 	addi	r8,r8,8
 508608c:	d8802617 	ldw	r2,152(sp)
 5086090:	d9403317 	ldw	r5,204(sp)
 5086094:	11400216 	blt	r2,r5,50860a0 <___svfprintf_internal_r+0xdfc>
 5086098:	9080004c 	andi	r2,r18,1
 508609c:	103ed526 	beq	r2,zero,5085bf4 <___svfprintf_internal_r+0x950>
 50860a0:	d8803817 	ldw	r2,224(sp)
 50860a4:	d9003417 	ldw	r4,208(sp)
 50860a8:	d9403817 	ldw	r5,224(sp)
 50860ac:	1887883a 	add	r3,r3,r2
 50860b0:	d8801f17 	ldw	r2,124(sp)
 50860b4:	41000015 	stw	r4,0(r8)
 50860b8:	41400115 	stw	r5,4(r8)
 50860bc:	10800044 	addi	r2,r2,1
 50860c0:	d8c02015 	stw	r3,128(sp)
 50860c4:	d8801f15 	stw	r2,124(sp)
 50860c8:	010001c4 	movi	r4,7
 50860cc:	2082af16 	blt	r4,r2,5086b8c <___svfprintf_internal_r+0x18e8>
 50860d0:	42000204 	addi	r8,r8,8
 50860d4:	d8803317 	ldw	r2,204(sp)
 50860d8:	143fffc4 	addi	r16,r2,-1
 50860dc:	043ec50e 	bge	zero,r16,5085bf4 <___svfprintf_internal_r+0x950>
 50860e0:	04400404 	movi	r17,16
 50860e4:	d8801f17 	ldw	r2,124(sp)
 50860e8:	8c00860e 	bge	r17,r16,5086304 <___svfprintf_internal_r+0x1060>
 50860ec:	01414274 	movhi	r5,1289
 50860f0:	295a4784 	addi	r5,r5,26910
 50860f4:	d9402b15 	stw	r5,172(sp)
 50860f8:	058001c4 	movi	r22,7
 50860fc:	dd002c17 	ldw	r20,176(sp)
 5086100:	00000306 	br	5086110 <___svfprintf_internal_r+0xe6c>
 5086104:	42000204 	addi	r8,r8,8
 5086108:	843ffc04 	addi	r16,r16,-16
 508610c:	8c00800e 	bge	r17,r16,5086310 <___svfprintf_internal_r+0x106c>
 5086110:	18c00404 	addi	r3,r3,16
 5086114:	10800044 	addi	r2,r2,1
 5086118:	45400015 	stw	r21,0(r8)
 508611c:	44400115 	stw	r17,4(r8)
 5086120:	d8c02015 	stw	r3,128(sp)
 5086124:	d8801f15 	stw	r2,124(sp)
 5086128:	b0bff60e 	bge	r22,r2,5086104 <___svfprintf_internal_r+0xe60>
 508612c:	d9801e04 	addi	r6,sp,120
 5086130:	a00b883a 	mov	r5,r20
 5086134:	9809883a 	mov	r4,r19
 5086138:	508e7fc0 	call	508e7fc <__ssprint_r>
 508613c:	103d3e1e 	bne	r2,zero,5085638 <___svfprintf_internal_r+0x394>
 5086140:	d8c02017 	ldw	r3,128(sp)
 5086144:	d8801f17 	ldw	r2,124(sp)
 5086148:	da000404 	addi	r8,sp,16
 508614c:	003fee06 	br	5086108 <___svfprintf_internal_r+0xe64>
 5086150:	d9403117 	ldw	r5,196(sp)
 5086154:	d8802a17 	ldw	r2,168(sp)
 5086158:	28adc83a 	sub	r22,r5,r2
 508615c:	05be650e 	bge	zero,r22,5085af4 <___svfprintf_internal_r+0x850>
 5086160:	07000404 	movi	fp,16
 5086164:	d8801f17 	ldw	r2,124(sp)
 5086168:	e583a20e 	bge	fp,r22,5086ff4 <___svfprintf_internal_r+0x1d50>
 508616c:	01414274 	movhi	r5,1289
 5086170:	295a4784 	addi	r5,r5,26910
 5086174:	dc403015 	stw	r17,192(sp)
 5086178:	d9402b15 	stw	r5,172(sp)
 508617c:	b023883a 	mov	r17,r22
 5086180:	050001c4 	movi	r20,7
 5086184:	902d883a 	mov	r22,r18
 5086188:	8025883a 	mov	r18,r16
 508618c:	dc002c17 	ldw	r16,176(sp)
 5086190:	00000306 	br	50861a0 <___svfprintf_internal_r+0xefc>
 5086194:	8c7ffc04 	addi	r17,r17,-16
 5086198:	42000204 	addi	r8,r8,8
 508619c:	e440110e 	bge	fp,r17,50861e4 <___svfprintf_internal_r+0xf40>
 50861a0:	18c00404 	addi	r3,r3,16
 50861a4:	10800044 	addi	r2,r2,1
 50861a8:	45400015 	stw	r21,0(r8)
 50861ac:	47000115 	stw	fp,4(r8)
 50861b0:	d8c02015 	stw	r3,128(sp)
 50861b4:	d8801f15 	stw	r2,124(sp)
 50861b8:	a0bff60e 	bge	r20,r2,5086194 <___svfprintf_internal_r+0xef0>
 50861bc:	d9801e04 	addi	r6,sp,120
 50861c0:	800b883a 	mov	r5,r16
 50861c4:	9809883a 	mov	r4,r19
 50861c8:	508e7fc0 	call	508e7fc <__ssprint_r>
 50861cc:	103d1a1e 	bne	r2,zero,5085638 <___svfprintf_internal_r+0x394>
 50861d0:	8c7ffc04 	addi	r17,r17,-16
 50861d4:	d8c02017 	ldw	r3,128(sp)
 50861d8:	d8801f17 	ldw	r2,124(sp)
 50861dc:	da000404 	addi	r8,sp,16
 50861e0:	e47fef16 	blt	fp,r17,50861a0 <___svfprintf_internal_r+0xefc>
 50861e4:	9021883a 	mov	r16,r18
 50861e8:	b025883a 	mov	r18,r22
 50861ec:	882d883a 	mov	r22,r17
 50861f0:	dc403017 	ldw	r17,192(sp)
 50861f4:	d9002b17 	ldw	r4,172(sp)
 50861f8:	1d87883a 	add	r3,r3,r22
 50861fc:	10800044 	addi	r2,r2,1
 5086200:	41000015 	stw	r4,0(r8)
 5086204:	45800115 	stw	r22,4(r8)
 5086208:	d8c02015 	stw	r3,128(sp)
 508620c:	d8801f15 	stw	r2,124(sp)
 5086210:	010001c4 	movi	r4,7
 5086214:	20819a16 	blt	r4,r2,5086880 <___svfprintf_internal_r+0x15dc>
 5086218:	42000204 	addi	r8,r8,8
 508621c:	003e3506 	br	5085af4 <___svfprintf_internal_r+0x850>
 5086220:	d9403317 	ldw	r5,204(sp)
 5086224:	00800044 	movi	r2,1
 5086228:	18c00044 	addi	r3,r3,1
 508622c:	1141710e 	bge	r2,r5,50867f4 <___svfprintf_internal_r+0x1550>
 5086230:	dc401f17 	ldw	r17,124(sp)
 5086234:	00800044 	movi	r2,1
 5086238:	40800115 	stw	r2,4(r8)
 508623c:	8c400044 	addi	r17,r17,1
 5086240:	44000015 	stw	r16,0(r8)
 5086244:	d8c02015 	stw	r3,128(sp)
 5086248:	dc401f15 	stw	r17,124(sp)
 508624c:	008001c4 	movi	r2,7
 5086250:	14417416 	blt	r2,r17,5086824 <___svfprintf_internal_r+0x1580>
 5086254:	42000204 	addi	r8,r8,8
 5086258:	d8803817 	ldw	r2,224(sp)
 508625c:	d9003417 	ldw	r4,208(sp)
 5086260:	8c400044 	addi	r17,r17,1
 5086264:	10c7883a 	add	r3,r2,r3
 5086268:	40800115 	stw	r2,4(r8)
 508626c:	41000015 	stw	r4,0(r8)
 5086270:	d8c02015 	stw	r3,128(sp)
 5086274:	dc401f15 	stw	r17,124(sp)
 5086278:	008001c4 	movi	r2,7
 508627c:	14417216 	blt	r2,r17,5086848 <___svfprintf_internal_r+0x15a4>
 5086280:	45800204 	addi	r22,r8,8
 5086284:	d9003617 	ldw	r4,216(sp)
 5086288:	d9403717 	ldw	r5,220(sp)
 508628c:	000d883a 	mov	r6,zero
 5086290:	000f883a 	mov	r7,zero
 5086294:	d8c03d15 	stw	r3,244(sp)
 5086298:	5092f1c0 	call	5092f1c <__eqdf2>
 508629c:	d8c03d17 	ldw	r3,244(sp)
 50862a0:	1000b326 	beq	r2,zero,5086570 <___svfprintf_internal_r+0x12cc>
 50862a4:	d9403317 	ldw	r5,204(sp)
 50862a8:	84000044 	addi	r16,r16,1
 50862ac:	8c400044 	addi	r17,r17,1
 50862b0:	28bfffc4 	addi	r2,r5,-1
 50862b4:	1887883a 	add	r3,r3,r2
 50862b8:	b0800115 	stw	r2,4(r22)
 50862bc:	b4000015 	stw	r16,0(r22)
 50862c0:	d8c02015 	stw	r3,128(sp)
 50862c4:	dc401f15 	stw	r17,124(sp)
 50862c8:	008001c4 	movi	r2,7
 50862cc:	1440d216 	blt	r2,r17,5086618 <___svfprintf_internal_r+0x1374>
 50862d0:	b5800204 	addi	r22,r22,8
 50862d4:	d9003b17 	ldw	r4,236(sp)
 50862d8:	df0022c4 	addi	fp,sp,139
 50862dc:	8c400044 	addi	r17,r17,1
 50862e0:	20c7883a 	add	r3,r4,r3
 50862e4:	b7000015 	stw	fp,0(r22)
 50862e8:	b1000115 	stw	r4,4(r22)
 50862ec:	d8c02015 	stw	r3,128(sp)
 50862f0:	dc401f15 	stw	r17,124(sp)
 50862f4:	008001c4 	movi	r2,7
 50862f8:	14400e16 	blt	r2,r17,5086334 <___svfprintf_internal_r+0x1090>
 50862fc:	b2000204 	addi	r8,r22,8
 5086300:	003e3c06 	br	5085bf4 <___svfprintf_internal_r+0x950>
 5086304:	01014274 	movhi	r4,1289
 5086308:	211a4784 	addi	r4,r4,26910
 508630c:	d9002b15 	stw	r4,172(sp)
 5086310:	d9002b17 	ldw	r4,172(sp)
 5086314:	1c07883a 	add	r3,r3,r16
 5086318:	44000115 	stw	r16,4(r8)
 508631c:	41000015 	stw	r4,0(r8)
 5086320:	10800044 	addi	r2,r2,1
 5086324:	d8c02015 	stw	r3,128(sp)
 5086328:	d8801f15 	stw	r2,124(sp)
 508632c:	010001c4 	movi	r4,7
 5086330:	20be2f0e 	bge	r4,r2,5085bf0 <___svfprintf_internal_r+0x94c>
 5086334:	d9402c17 	ldw	r5,176(sp)
 5086338:	d9801e04 	addi	r6,sp,120
 508633c:	9809883a 	mov	r4,r19
 5086340:	508e7fc0 	call	508e7fc <__ssprint_r>
 5086344:	103cbc1e 	bne	r2,zero,5085638 <___svfprintf_internal_r+0x394>
 5086348:	d8c02017 	ldw	r3,128(sp)
 508634c:	da000404 	addi	r8,sp,16
 5086350:	003e2806 	br	5085bf4 <___svfprintf_internal_r+0x950>
 5086354:	d9402c17 	ldw	r5,176(sp)
 5086358:	d9801e04 	addi	r6,sp,120
 508635c:	9809883a 	mov	r4,r19
 5086360:	508e7fc0 	call	508e7fc <__ssprint_r>
 5086364:	103e5f26 	beq	r2,zero,5085ce4 <___svfprintf_internal_r+0xa40>
 5086368:	003cb306 	br	5085638 <___svfprintf_internal_r+0x394>
 508636c:	d9402c17 	ldw	r5,176(sp)
 5086370:	d9801e04 	addi	r6,sp,120
 5086374:	9809883a 	mov	r4,r19
 5086378:	508e7fc0 	call	508e7fc <__ssprint_r>
 508637c:	103cae1e 	bne	r2,zero,5085638 <___svfprintf_internal_r+0x394>
 5086380:	d8c02017 	ldw	r3,128(sp)
 5086384:	da000404 	addi	r8,sp,16
 5086388:	003e0d06 	br	5085bc0 <___svfprintf_internal_r+0x91c>
 508638c:	d9402c17 	ldw	r5,176(sp)
 5086390:	d9801e04 	addi	r6,sp,120
 5086394:	9809883a 	mov	r4,r19
 5086398:	508e7fc0 	call	508e7fc <__ssprint_r>
 508639c:	103ca61e 	bne	r2,zero,5085638 <___svfprintf_internal_r+0x394>
 50863a0:	d8c02017 	ldw	r3,128(sp)
 50863a4:	da000404 	addi	r8,sp,16
 50863a8:	003dc106 	br	5085ab0 <___svfprintf_internal_r+0x80c>
 50863ac:	d9402c17 	ldw	r5,176(sp)
 50863b0:	d9801e04 	addi	r6,sp,120
 50863b4:	9809883a 	mov	r4,r19
 50863b8:	508e7fc0 	call	508e7fc <__ssprint_r>
 50863bc:	103c9e1e 	bne	r2,zero,5085638 <___svfprintf_internal_r+0x394>
 50863c0:	d8c02017 	ldw	r3,128(sp)
 50863c4:	da000404 	addi	r8,sp,16
 50863c8:	003dc706 	br	5085ae8 <___svfprintf_internal_r+0x844>
 50863cc:	d8802917 	ldw	r2,164(sp)
 50863d0:	d8002785 	stb	zero,158(sp)
 50863d4:	103f0816 	blt	r2,zero,5085ff8 <___svfprintf_internal_r+0xd54>
 50863d8:	00ffdfc4 	movi	r3,-129
 50863dc:	a584b03a 	or	r2,r20,r22
 50863e0:	90e4703a 	and	r18,r18,r3
 50863e4:	103c8126 	beq	r2,zero,50855ec <___svfprintf_internal_r+0x348>
 50863e8:	0039883a 	mov	fp,zero
 50863ec:	003e7606 	br	5085dc8 <___svfprintf_internal_r+0xb24>
 50863f0:	9080040c 	andi	r2,r18,16
 50863f4:	10013d26 	beq	r2,zero,50868ec <___svfprintf_internal_r+0x1648>
 50863f8:	d9002d17 	ldw	r4,180(sp)
 50863fc:	d9402917 	ldw	r5,164(sp)
 5086400:	d8002785 	stb	zero,158(sp)
 5086404:	20800104 	addi	r2,r4,4
 5086408:	25000017 	ldw	r20,0(r4)
 508640c:	002d883a 	mov	r22,zero
 5086410:	28013f16 	blt	r5,zero,5086910 <___svfprintf_internal_r+0x166c>
 5086414:	00ffdfc4 	movi	r3,-129
 5086418:	d8802d15 	stw	r2,180(sp)
 508641c:	90e4703a 	and	r18,r18,r3
 5086420:	a03d2b26 	beq	r20,zero,50858d0 <___svfprintf_internal_r+0x62c>
 5086424:	0039883a 	mov	fp,zero
 5086428:	003d2e06 	br	50858e4 <___svfprintf_internal_r+0x640>
 508642c:	dc402617 	ldw	r17,152(sp)
 5086430:	0441830e 	bge	zero,r17,5086a40 <___svfprintf_internal_r+0x179c>
 5086434:	dc403217 	ldw	r17,200(sp)
 5086438:	d8803317 	ldw	r2,204(sp)
 508643c:	1440010e 	bge	r2,r17,5086444 <___svfprintf_internal_r+0x11a0>
 5086440:	1023883a 	mov	r17,r2
 5086444:	04400a0e 	bge	zero,r17,5086470 <___svfprintf_internal_r+0x11cc>
 5086448:	d8801f17 	ldw	r2,124(sp)
 508644c:	1c47883a 	add	r3,r3,r17
 5086450:	44000015 	stw	r16,0(r8)
 5086454:	10800044 	addi	r2,r2,1
 5086458:	44400115 	stw	r17,4(r8)
 508645c:	d8c02015 	stw	r3,128(sp)
 5086460:	d8801f15 	stw	r2,124(sp)
 5086464:	010001c4 	movi	r4,7
 5086468:	20827516 	blt	r4,r2,5086e40 <___svfprintf_internal_r+0x1b9c>
 508646c:	42000204 	addi	r8,r8,8
 5086470:	88027b16 	blt	r17,zero,5086e60 <___svfprintf_internal_r+0x1bbc>
 5086474:	d9003217 	ldw	r4,200(sp)
 5086478:	2463c83a 	sub	r17,r4,r17
 508647c:	0440990e 	bge	zero,r17,50866e4 <___svfprintf_internal_r+0x1440>
 5086480:	05800404 	movi	r22,16
 5086484:	d8801f17 	ldw	r2,124(sp)
 5086488:	b441530e 	bge	r22,r17,50869d8 <___svfprintf_internal_r+0x1734>
 508648c:	01014274 	movhi	r4,1289
 5086490:	211a4784 	addi	r4,r4,26910
 5086494:	d9002b15 	stw	r4,172(sp)
 5086498:	070001c4 	movi	fp,7
 508649c:	dd002c17 	ldw	r20,176(sp)
 50864a0:	00000306 	br	50864b0 <___svfprintf_internal_r+0x120c>
 50864a4:	42000204 	addi	r8,r8,8
 50864a8:	8c7ffc04 	addi	r17,r17,-16
 50864ac:	b4414d0e 	bge	r22,r17,50869e4 <___svfprintf_internal_r+0x1740>
 50864b0:	18c00404 	addi	r3,r3,16
 50864b4:	10800044 	addi	r2,r2,1
 50864b8:	45400015 	stw	r21,0(r8)
 50864bc:	45800115 	stw	r22,4(r8)
 50864c0:	d8c02015 	stw	r3,128(sp)
 50864c4:	d8801f15 	stw	r2,124(sp)
 50864c8:	e0bff60e 	bge	fp,r2,50864a4 <___svfprintf_internal_r+0x1200>
 50864cc:	d9801e04 	addi	r6,sp,120
 50864d0:	a00b883a 	mov	r5,r20
 50864d4:	9809883a 	mov	r4,r19
 50864d8:	508e7fc0 	call	508e7fc <__ssprint_r>
 50864dc:	103c561e 	bne	r2,zero,5085638 <___svfprintf_internal_r+0x394>
 50864e0:	d8c02017 	ldw	r3,128(sp)
 50864e4:	d8801f17 	ldw	r2,124(sp)
 50864e8:	da000404 	addi	r8,sp,16
 50864ec:	003fee06 	br	50864a8 <___svfprintf_internal_r+0x1204>
 50864f0:	d9402c17 	ldw	r5,176(sp)
 50864f4:	d9801e04 	addi	r6,sp,120
 50864f8:	9809883a 	mov	r4,r19
 50864fc:	508e7fc0 	call	508e7fc <__ssprint_r>
 5086500:	103c4d1e 	bne	r2,zero,5085638 <___svfprintf_internal_r+0x394>
 5086504:	d8c02017 	ldw	r3,128(sp)
 5086508:	df002787 	ldb	fp,158(sp)
 508650c:	da000404 	addi	r8,sp,16
 5086510:	003d5a06 	br	5085a7c <___svfprintf_internal_r+0x7d8>
 5086514:	9080040c 	andi	r2,r18,16
 5086518:	10005c26 	beq	r2,zero,508668c <___svfprintf_internal_r+0x13e8>
 508651c:	d9402d17 	ldw	r5,180(sp)
 5086520:	d8c02917 	ldw	r3,164(sp)
 5086524:	d8002785 	stb	zero,158(sp)
 5086528:	28800104 	addi	r2,r5,4
 508652c:	2d000017 	ldw	r20,0(r5)
 5086530:	002d883a 	mov	r22,zero
 5086534:	18005e16 	blt	r3,zero,50866b0 <___svfprintf_internal_r+0x140c>
 5086538:	00ffdfc4 	movi	r3,-129
 508653c:	d8802d15 	stw	r2,180(sp)
 5086540:	90e4703a 	and	r18,r18,r3
 5086544:	0039883a 	mov	fp,zero
 5086548:	a03dfe26 	beq	r20,zero,5085d44 <___svfprintf_internal_r+0xaa0>
 508654c:	00800244 	movi	r2,9
 5086550:	153cb336 	bltu	r2,r20,5085820 <___svfprintf_internal_r+0x57c>
 5086554:	a5000c04 	addi	r20,r20,48
 5086558:	dc001dc4 	addi	r16,sp,119
 508655c:	dd001dc5 	stb	r20,119(sp)
 5086560:	d8c02817 	ldw	r3,160(sp)
 5086564:	1c07c83a 	sub	r3,r3,r16
 5086568:	d8c02e15 	stw	r3,184(sp)
 508656c:	003cf506 	br	5085944 <___svfprintf_internal_r+0x6a0>
 5086570:	d8803317 	ldw	r2,204(sp)
 5086574:	143fffc4 	addi	r16,r2,-1
 5086578:	043f560e 	bge	zero,r16,50862d4 <___svfprintf_internal_r+0x1030>
 508657c:	07000404 	movi	fp,16
 5086580:	e403530e 	bge	fp,r16,50872d0 <___svfprintf_internal_r+0x202c>
 5086584:	01414274 	movhi	r5,1289
 5086588:	295a4784 	addi	r5,r5,26910
 508658c:	d9402b15 	stw	r5,172(sp)
 5086590:	01c001c4 	movi	r7,7
 5086594:	dd002c17 	ldw	r20,176(sp)
 5086598:	00000306 	br	50865a8 <___svfprintf_internal_r+0x1304>
 508659c:	843ffc04 	addi	r16,r16,-16
 50865a0:	b5800204 	addi	r22,r22,8
 50865a4:	e400130e 	bge	fp,r16,50865f4 <___svfprintf_internal_r+0x1350>
 50865a8:	18c00404 	addi	r3,r3,16
 50865ac:	8c400044 	addi	r17,r17,1
 50865b0:	b5400015 	stw	r21,0(r22)
 50865b4:	b7000115 	stw	fp,4(r22)
 50865b8:	d8c02015 	stw	r3,128(sp)
 50865bc:	dc401f15 	stw	r17,124(sp)
 50865c0:	3c7ff60e 	bge	r7,r17,508659c <___svfprintf_internal_r+0x12f8>
 50865c4:	d9801e04 	addi	r6,sp,120
 50865c8:	a00b883a 	mov	r5,r20
 50865cc:	9809883a 	mov	r4,r19
 50865d0:	d9c03d15 	stw	r7,244(sp)
 50865d4:	508e7fc0 	call	508e7fc <__ssprint_r>
 50865d8:	d9c03d17 	ldw	r7,244(sp)
 50865dc:	103c161e 	bne	r2,zero,5085638 <___svfprintf_internal_r+0x394>
 50865e0:	843ffc04 	addi	r16,r16,-16
 50865e4:	d8c02017 	ldw	r3,128(sp)
 50865e8:	dc401f17 	ldw	r17,124(sp)
 50865ec:	dd800404 	addi	r22,sp,16
 50865f0:	e43fed16 	blt	fp,r16,50865a8 <___svfprintf_internal_r+0x1304>
 50865f4:	d8802b17 	ldw	r2,172(sp)
 50865f8:	1c07883a 	add	r3,r3,r16
 50865fc:	8c400044 	addi	r17,r17,1
 5086600:	b0800015 	stw	r2,0(r22)
 5086604:	b4000115 	stw	r16,4(r22)
 5086608:	d8c02015 	stw	r3,128(sp)
 508660c:	dc401f15 	stw	r17,124(sp)
 5086610:	008001c4 	movi	r2,7
 5086614:	147f2e0e 	bge	r2,r17,50862d0 <___svfprintf_internal_r+0x102c>
 5086618:	d9402c17 	ldw	r5,176(sp)
 508661c:	d9801e04 	addi	r6,sp,120
 5086620:	9809883a 	mov	r4,r19
 5086624:	508e7fc0 	call	508e7fc <__ssprint_r>
 5086628:	103c031e 	bne	r2,zero,5085638 <___svfprintf_internal_r+0x394>
 508662c:	d8c02017 	ldw	r3,128(sp)
 5086630:	dc401f17 	ldw	r17,124(sp)
 5086634:	dd800404 	addi	r22,sp,16
 5086638:	003f2606 	br	50862d4 <___svfprintf_internal_r+0x1030>
 508663c:	9080040c 	andi	r2,r18,16
 5086640:	1000c326 	beq	r2,zero,5086950 <___svfprintf_internal_r+0x16ac>
 5086644:	d8802d17 	ldw	r2,180(sp)
 5086648:	15000017 	ldw	r20,0(r2)
 508664c:	10800104 	addi	r2,r2,4
 5086650:	d8802d15 	stw	r2,180(sp)
 5086654:	a02dd7fa 	srai	r22,r20,31
 5086658:	b005883a 	mov	r2,r22
 508665c:	103c680e 	bge	r2,zero,5085800 <___svfprintf_internal_r+0x55c>
 5086660:	0529c83a 	sub	r20,zero,r20
 5086664:	a004c03a 	cmpne	r2,r20,zero
 5086668:	05adc83a 	sub	r22,zero,r22
 508666c:	b0adc83a 	sub	r22,r22,r2
 5086670:	d8802917 	ldw	r2,164(sp)
 5086674:	07000b44 	movi	fp,45
 5086678:	df002785 	stb	fp,158(sp)
 508667c:	10022e16 	blt	r2,zero,5086f38 <___svfprintf_internal_r+0x1c94>
 5086680:	00bfdfc4 	movi	r2,-129
 5086684:	90a4703a 	and	r18,r18,r2
 5086688:	003c6406 	br	508581c <___svfprintf_internal_r+0x578>
 508668c:	9080100c 	andi	r2,r18,64
 5086690:	d8002785 	stb	zero,158(sp)
 5086694:	10012526 	beq	r2,zero,5086b2c <___svfprintf_internal_r+0x1888>
 5086698:	d9002d17 	ldw	r4,180(sp)
 508669c:	d9402917 	ldw	r5,164(sp)
 50866a0:	002d883a 	mov	r22,zero
 50866a4:	20800104 	addi	r2,r4,4
 50866a8:	2500000b 	ldhu	r20,0(r4)
 50866ac:	283fa20e 	bge	r5,zero,5086538 <___svfprintf_internal_r+0x1294>
 50866b0:	d8802d15 	stw	r2,180(sp)
 50866b4:	0039883a 	mov	fp,zero
 50866b8:	a584b03a 	or	r2,r20,r22
 50866bc:	103c571e 	bne	r2,zero,508581c <___svfprintf_internal_r+0x578>
 50866c0:	00800044 	movi	r2,1
 50866c4:	003e5006 	br	5086008 <___svfprintf_internal_r+0xd64>
 50866c8:	d9402c17 	ldw	r5,176(sp)
 50866cc:	d9801e04 	addi	r6,sp,120
 50866d0:	9809883a 	mov	r4,r19
 50866d4:	508e7fc0 	call	508e7fc <__ssprint_r>
 50866d8:	103bd71e 	bne	r2,zero,5085638 <___svfprintf_internal_r+0x394>
 50866dc:	d8c02017 	ldw	r3,128(sp)
 50866e0:	da000404 	addi	r8,sp,16
 50866e4:	d9003217 	ldw	r4,200(sp)
 50866e8:	d8802617 	ldw	r2,152(sp)
 50866ec:	d9403317 	ldw	r5,204(sp)
 50866f0:	8123883a 	add	r17,r16,r4
 50866f4:	11400216 	blt	r2,r5,5086700 <___svfprintf_internal_r+0x145c>
 50866f8:	9100004c 	andi	r4,r18,1
 50866fc:	20000d26 	beq	r4,zero,5086734 <___svfprintf_internal_r+0x1490>
 5086700:	d9003817 	ldw	r4,224(sp)
 5086704:	d9403417 	ldw	r5,208(sp)
 5086708:	1907883a 	add	r3,r3,r4
 508670c:	d9001f17 	ldw	r4,124(sp)
 5086710:	41400015 	stw	r5,0(r8)
 5086714:	d9403817 	ldw	r5,224(sp)
 5086718:	21000044 	addi	r4,r4,1
 508671c:	d8c02015 	stw	r3,128(sp)
 5086720:	41400115 	stw	r5,4(r8)
 5086724:	d9001f15 	stw	r4,124(sp)
 5086728:	014001c4 	movi	r5,7
 508672c:	2901dc16 	blt	r5,r4,5086ea0 <___svfprintf_internal_r+0x1bfc>
 5086730:	42000204 	addi	r8,r8,8
 5086734:	d9003317 	ldw	r4,204(sp)
 5086738:	8121883a 	add	r16,r16,r4
 508673c:	2085c83a 	sub	r2,r4,r2
 5086740:	8461c83a 	sub	r16,r16,r17
 5086744:	1400010e 	bge	r2,r16,508674c <___svfprintf_internal_r+0x14a8>
 5086748:	1021883a 	mov	r16,r2
 508674c:	04000a0e 	bge	zero,r16,5086778 <___svfprintf_internal_r+0x14d4>
 5086750:	d9001f17 	ldw	r4,124(sp)
 5086754:	1c07883a 	add	r3,r3,r16
 5086758:	44400015 	stw	r17,0(r8)
 508675c:	21000044 	addi	r4,r4,1
 5086760:	44000115 	stw	r16,4(r8)
 5086764:	d8c02015 	stw	r3,128(sp)
 5086768:	d9001f15 	stw	r4,124(sp)
 508676c:	014001c4 	movi	r5,7
 5086770:	2901e616 	blt	r5,r4,5086f0c <___svfprintf_internal_r+0x1c68>
 5086774:	42000204 	addi	r8,r8,8
 5086778:	8001f616 	blt	r16,zero,5086f54 <___svfprintf_internal_r+0x1cb0>
 508677c:	1421c83a 	sub	r16,r2,r16
 5086780:	043d1c0e 	bge	zero,r16,5085bf4 <___svfprintf_internal_r+0x950>
 5086784:	04400404 	movi	r17,16
 5086788:	d8801f17 	ldw	r2,124(sp)
 508678c:	8c3edd0e 	bge	r17,r16,5086304 <___svfprintf_internal_r+0x1060>
 5086790:	01414274 	movhi	r5,1289
 5086794:	295a4784 	addi	r5,r5,26910
 5086798:	d9402b15 	stw	r5,172(sp)
 508679c:	058001c4 	movi	r22,7
 50867a0:	dd002c17 	ldw	r20,176(sp)
 50867a4:	00000306 	br	50867b4 <___svfprintf_internal_r+0x1510>
 50867a8:	42000204 	addi	r8,r8,8
 50867ac:	843ffc04 	addi	r16,r16,-16
 50867b0:	8c3ed70e 	bge	r17,r16,5086310 <___svfprintf_internal_r+0x106c>
 50867b4:	18c00404 	addi	r3,r3,16
 50867b8:	10800044 	addi	r2,r2,1
 50867bc:	45400015 	stw	r21,0(r8)
 50867c0:	44400115 	stw	r17,4(r8)
 50867c4:	d8c02015 	stw	r3,128(sp)
 50867c8:	d8801f15 	stw	r2,124(sp)
 50867cc:	b0bff60e 	bge	r22,r2,50867a8 <___svfprintf_internal_r+0x1504>
 50867d0:	d9801e04 	addi	r6,sp,120
 50867d4:	a00b883a 	mov	r5,r20
 50867d8:	9809883a 	mov	r4,r19
 50867dc:	508e7fc0 	call	508e7fc <__ssprint_r>
 50867e0:	103b951e 	bne	r2,zero,5085638 <___svfprintf_internal_r+0x394>
 50867e4:	d8c02017 	ldw	r3,128(sp)
 50867e8:	d8801f17 	ldw	r2,124(sp)
 50867ec:	da000404 	addi	r8,sp,16
 50867f0:	003fee06 	br	50867ac <___svfprintf_internal_r+0x1508>
 50867f4:	9088703a 	and	r4,r18,r2
 50867f8:	203e8d1e 	bne	r4,zero,5086230 <___svfprintf_internal_r+0xf8c>
 50867fc:	dc401f17 	ldw	r17,124(sp)
 5086800:	40800115 	stw	r2,4(r8)
 5086804:	44000015 	stw	r16,0(r8)
 5086808:	8c400044 	addi	r17,r17,1
 508680c:	d8c02015 	stw	r3,128(sp)
 5086810:	dc401f15 	stw	r17,124(sp)
 5086814:	008001c4 	movi	r2,7
 5086818:	147f7f16 	blt	r2,r17,5086618 <___svfprintf_internal_r+0x1374>
 508681c:	45800204 	addi	r22,r8,8
 5086820:	003eac06 	br	50862d4 <___svfprintf_internal_r+0x1030>
 5086824:	d9402c17 	ldw	r5,176(sp)
 5086828:	d9801e04 	addi	r6,sp,120
 508682c:	9809883a 	mov	r4,r19
 5086830:	508e7fc0 	call	508e7fc <__ssprint_r>
 5086834:	103b801e 	bne	r2,zero,5085638 <___svfprintf_internal_r+0x394>
 5086838:	d8c02017 	ldw	r3,128(sp)
 508683c:	dc401f17 	ldw	r17,124(sp)
 5086840:	da000404 	addi	r8,sp,16
 5086844:	003e8406 	br	5086258 <___svfprintf_internal_r+0xfb4>
 5086848:	d9402c17 	ldw	r5,176(sp)
 508684c:	d9801e04 	addi	r6,sp,120
 5086850:	9809883a 	mov	r4,r19
 5086854:	508e7fc0 	call	508e7fc <__ssprint_r>
 5086858:	103b771e 	bne	r2,zero,5085638 <___svfprintf_internal_r+0x394>
 508685c:	d8c02017 	ldw	r3,128(sp)
 5086860:	dc401f17 	ldw	r17,124(sp)
 5086864:	dd800404 	addi	r22,sp,16
 5086868:	003e8606 	br	5086284 <___svfprintf_internal_r+0xfe0>
 508686c:	0029883a 	mov	r20,zero
 5086870:	a5000c04 	addi	r20,r20,48
 5086874:	dc001dc4 	addi	r16,sp,119
 5086878:	dd001dc5 	stb	r20,119(sp)
 508687c:	003f3806 	br	5086560 <___svfprintf_internal_r+0x12bc>
 5086880:	d9402c17 	ldw	r5,176(sp)
 5086884:	d9801e04 	addi	r6,sp,120
 5086888:	9809883a 	mov	r4,r19
 508688c:	508e7fc0 	call	508e7fc <__ssprint_r>
 5086890:	103b691e 	bne	r2,zero,5085638 <___svfprintf_internal_r+0x394>
 5086894:	d8c02017 	ldw	r3,128(sp)
 5086898:	da000404 	addi	r8,sp,16
 508689c:	003c9506 	br	5085af4 <___svfprintf_internal_r+0x850>
 50868a0:	d9003617 	ldw	r4,216(sp)
 50868a4:	d9403717 	ldw	r5,220(sp)
 50868a8:	da003e15 	stw	r8,248(sp)
 50868ac:	508e51c0 	call	508e51c <__fpclassifyd>
 50868b0:	da003e17 	ldw	r8,248(sp)
 50868b4:	1000bd1e 	bne	r2,zero,5086bac <___svfprintf_internal_r+0x1908>
 50868b8:	008011c4 	movi	r2,71
 50868bc:	14411e0e 	bge	r2,r17,5086d38 <___svfprintf_internal_r+0x1a94>
 50868c0:	04014274 	movhi	r16,1289
 50868c4:	841a3a04 	addi	r16,r16,26856
 50868c8:	00c000c4 	movi	r3,3
 50868cc:	00bfdfc4 	movi	r2,-129
 50868d0:	d8c02a15 	stw	r3,168(sp)
 50868d4:	90a4703a 	and	r18,r18,r2
 50868d8:	df002783 	ldbu	fp,158(sp)
 50868dc:	d8c02e15 	stw	r3,184(sp)
 50868e0:	d8002915 	stw	zero,164(sp)
 50868e4:	d8003215 	stw	zero,200(sp)
 50868e8:	003c1c06 	br	508595c <___svfprintf_internal_r+0x6b8>
 50868ec:	9080100c 	andi	r2,r18,64
 50868f0:	d8002785 	stb	zero,158(sp)
 50868f4:	10009426 	beq	r2,zero,5086b48 <___svfprintf_internal_r+0x18a4>
 50868f8:	d8c02d17 	ldw	r3,180(sp)
 50868fc:	d9002917 	ldw	r4,164(sp)
 5086900:	002d883a 	mov	r22,zero
 5086904:	18800104 	addi	r2,r3,4
 5086908:	1d00000b 	ldhu	r20,0(r3)
 508690c:	203ec10e 	bge	r4,zero,5086414 <___svfprintf_internal_r+0x1170>
 5086910:	a586b03a 	or	r3,r20,r22
 5086914:	d8802d15 	stw	r2,180(sp)
 5086918:	183ec21e 	bne	r3,zero,5086424 <___svfprintf_internal_r+0x1180>
 508691c:	0039883a 	mov	fp,zero
 5086920:	0005883a 	mov	r2,zero
 5086924:	003db806 	br	5086008 <___svfprintf_internal_r+0xd64>
 5086928:	d8802d17 	ldw	r2,180(sp)
 508692c:	d8c02d17 	ldw	r3,180(sp)
 5086930:	d9002d17 	ldw	r4,180(sp)
 5086934:	10800017 	ldw	r2,0(r2)
 5086938:	18c00117 	ldw	r3,4(r3)
 508693c:	21000204 	addi	r4,r4,8
 5086940:	d8803615 	stw	r2,216(sp)
 5086944:	d8c03715 	stw	r3,220(sp)
 5086948:	d9002d15 	stw	r4,180(sp)
 508694c:	003b8206 	br	5085758 <___svfprintf_internal_r+0x4b4>
 5086950:	9080100c 	andi	r2,r18,64
 5086954:	10010726 	beq	r2,zero,5086d74 <___svfprintf_internal_r+0x1ad0>
 5086958:	d8c02d17 	ldw	r3,180(sp)
 508695c:	1d00000f 	ldh	r20,0(r3)
 5086960:	18c00104 	addi	r3,r3,4
 5086964:	d8c02d15 	stw	r3,180(sp)
 5086968:	a02dd7fa 	srai	r22,r20,31
 508696c:	b005883a 	mov	r2,r22
 5086970:	003ba206 	br	50857fc <___svfprintf_internal_r+0x558>
 5086974:	9080100c 	andi	r2,r18,64
 5086978:	10010526 	beq	r2,zero,5086d90 <___svfprintf_internal_r+0x1aec>
 508697c:	d9002d17 	ldw	r4,180(sp)
 5086980:	002d883a 	mov	r22,zero
 5086984:	2500000b 	ldhu	r20,0(r4)
 5086988:	21000104 	addi	r4,r4,4
 508698c:	d9002d15 	stw	r4,180(sp)
 5086990:	003cfe06 	br	5085d8c <___svfprintf_internal_r+0xae8>
 5086994:	bc400007 	ldb	r17,0(r23)
 5086998:	003a9606 	br	50853f4 <___svfprintf_internal_r+0x150>
 508699c:	9080040c 	andi	r2,r18,16
 50869a0:	10010126 	beq	r2,zero,5086da8 <___svfprintf_internal_r+0x1b04>
 50869a4:	d9402d17 	ldw	r5,180(sp)
 50869a8:	d8c02f17 	ldw	r3,188(sp)
 50869ac:	28800017 	ldw	r2,0(r5)
 50869b0:	29400104 	addi	r5,r5,4
 50869b4:	d9402d15 	stw	r5,180(sp)
 50869b8:	10c00015 	stw	r3,0(r2)
 50869bc:	003a6406 	br	5085350 <___svfprintf_internal_r+0xac>
 50869c0:	d9002917 	ldw	r4,164(sp)
 50869c4:	d8002785 	stb	zero,158(sp)
 50869c8:	203d8d16 	blt	r4,zero,5086000 <___svfprintf_internal_r+0xd5c>
 50869cc:	00bfdfc4 	movi	r2,-129
 50869d0:	90a4703a 	and	r18,r18,r2
 50869d4:	003b0506 	br	50855ec <___svfprintf_internal_r+0x348>
 50869d8:	01414274 	movhi	r5,1289
 50869dc:	295a4784 	addi	r5,r5,26910
 50869e0:	d9402b15 	stw	r5,172(sp)
 50869e4:	d9402b17 	ldw	r5,172(sp)
 50869e8:	1c47883a 	add	r3,r3,r17
 50869ec:	10800044 	addi	r2,r2,1
 50869f0:	41400015 	stw	r5,0(r8)
 50869f4:	44400115 	stw	r17,4(r8)
 50869f8:	d8c02015 	stw	r3,128(sp)
 50869fc:	d8801f15 	stw	r2,124(sp)
 5086a00:	010001c4 	movi	r4,7
 5086a04:	20bf3016 	blt	r4,r2,50866c8 <___svfprintf_internal_r+0x1424>
 5086a08:	42000204 	addi	r8,r8,8
 5086a0c:	003f3506 	br	50866e4 <___svfprintf_internal_r+0x1440>
 5086a10:	01014274 	movhi	r4,1289
 5086a14:	211a4784 	addi	r4,r4,26910
 5086a18:	d9002b15 	stw	r4,172(sp)
 5086a1c:	003c5e06 	br	5085b98 <___svfprintf_internal_r+0x8f4>
 5086a20:	d9402c17 	ldw	r5,176(sp)
 5086a24:	d9801e04 	addi	r6,sp,120
 5086a28:	9809883a 	mov	r4,r19
 5086a2c:	508e7fc0 	call	508e7fc <__ssprint_r>
 5086a30:	103b011e 	bne	r2,zero,5085638 <___svfprintf_internal_r+0x394>
 5086a34:	d8c02017 	ldw	r3,128(sp)
 5086a38:	da000404 	addi	r8,sp,16
 5086a3c:	003d9306 	br	508608c <___svfprintf_internal_r+0xde8>
 5086a40:	d8801f17 	ldw	r2,124(sp)
 5086a44:	01414274 	movhi	r5,1289
 5086a48:	01000044 	movi	r4,1
 5086a4c:	18c00044 	addi	r3,r3,1
 5086a50:	10800044 	addi	r2,r2,1
 5086a54:	295a4704 	addi	r5,r5,26908
 5086a58:	41000115 	stw	r4,4(r8)
 5086a5c:	41400015 	stw	r5,0(r8)
 5086a60:	d8c02015 	stw	r3,128(sp)
 5086a64:	d8801f15 	stw	r2,124(sp)
 5086a68:	010001c4 	movi	r4,7
 5086a6c:	2080b516 	blt	r4,r2,5086d44 <___svfprintf_internal_r+0x1aa0>
 5086a70:	42000204 	addi	r8,r8,8
 5086a74:	8800041e 	bne	r17,zero,5086a88 <___svfprintf_internal_r+0x17e4>
 5086a78:	d8803317 	ldw	r2,204(sp)
 5086a7c:	1000021e 	bne	r2,zero,5086a88 <___svfprintf_internal_r+0x17e4>
 5086a80:	9080004c 	andi	r2,r18,1
 5086a84:	103c5b26 	beq	r2,zero,5085bf4 <___svfprintf_internal_r+0x950>
 5086a88:	d9003817 	ldw	r4,224(sp)
 5086a8c:	d8801f17 	ldw	r2,124(sp)
 5086a90:	d9403417 	ldw	r5,208(sp)
 5086a94:	20c7883a 	add	r3,r4,r3
 5086a98:	10800044 	addi	r2,r2,1
 5086a9c:	41000115 	stw	r4,4(r8)
 5086aa0:	41400015 	stw	r5,0(r8)
 5086aa4:	d8c02015 	stw	r3,128(sp)
 5086aa8:	d8801f15 	stw	r2,124(sp)
 5086aac:	010001c4 	movi	r4,7
 5086ab0:	20818016 	blt	r4,r2,50870b4 <___svfprintf_internal_r+0x1e10>
 5086ab4:	42000204 	addi	r8,r8,8
 5086ab8:	0463c83a 	sub	r17,zero,r17
 5086abc:	0440cb0e 	bge	zero,r17,5086dec <___svfprintf_internal_r+0x1b48>
 5086ac0:	05800404 	movi	r22,16
 5086ac4:	b440e80e 	bge	r22,r17,5086e68 <___svfprintf_internal_r+0x1bc4>
 5086ac8:	01414274 	movhi	r5,1289
 5086acc:	295a4784 	addi	r5,r5,26910
 5086ad0:	d9402b15 	stw	r5,172(sp)
 5086ad4:	070001c4 	movi	fp,7
 5086ad8:	dd002c17 	ldw	r20,176(sp)
 5086adc:	00000306 	br	5086aec <___svfprintf_internal_r+0x1848>
 5086ae0:	42000204 	addi	r8,r8,8
 5086ae4:	8c7ffc04 	addi	r17,r17,-16
 5086ae8:	b440e20e 	bge	r22,r17,5086e74 <___svfprintf_internal_r+0x1bd0>
 5086aec:	18c00404 	addi	r3,r3,16
 5086af0:	10800044 	addi	r2,r2,1
 5086af4:	45400015 	stw	r21,0(r8)
 5086af8:	45800115 	stw	r22,4(r8)
 5086afc:	d8c02015 	stw	r3,128(sp)
 5086b00:	d8801f15 	stw	r2,124(sp)
 5086b04:	e0bff60e 	bge	fp,r2,5086ae0 <___svfprintf_internal_r+0x183c>
 5086b08:	d9801e04 	addi	r6,sp,120
 5086b0c:	a00b883a 	mov	r5,r20
 5086b10:	9809883a 	mov	r4,r19
 5086b14:	508e7fc0 	call	508e7fc <__ssprint_r>
 5086b18:	103ac71e 	bne	r2,zero,5085638 <___svfprintf_internal_r+0x394>
 5086b1c:	d8c02017 	ldw	r3,128(sp)
 5086b20:	d8801f17 	ldw	r2,124(sp)
 5086b24:	da000404 	addi	r8,sp,16
 5086b28:	003fee06 	br	5086ae4 <___svfprintf_internal_r+0x1840>
 5086b2c:	d8c02d17 	ldw	r3,180(sp)
 5086b30:	d9002917 	ldw	r4,164(sp)
 5086b34:	002d883a 	mov	r22,zero
 5086b38:	18800104 	addi	r2,r3,4
 5086b3c:	1d000017 	ldw	r20,0(r3)
 5086b40:	203e7d0e 	bge	r4,zero,5086538 <___svfprintf_internal_r+0x1294>
 5086b44:	003eda06 	br	50866b0 <___svfprintf_internal_r+0x140c>
 5086b48:	d9402d17 	ldw	r5,180(sp)
 5086b4c:	d8c02917 	ldw	r3,164(sp)
 5086b50:	002d883a 	mov	r22,zero
 5086b54:	28800104 	addi	r2,r5,4
 5086b58:	2d000017 	ldw	r20,0(r5)
 5086b5c:	183e2d0e 	bge	r3,zero,5086414 <___svfprintf_internal_r+0x1170>
 5086b60:	003f6b06 	br	5086910 <___svfprintf_internal_r+0x166c>
 5086b64:	d8c02d15 	stw	r3,180(sp)
 5086b68:	0039883a 	mov	fp,zero
 5086b6c:	003ed206 	br	50866b8 <___svfprintf_internal_r+0x1414>
 5086b70:	bc400043 	ldbu	r17,1(r23)
 5086b74:	94800814 	ori	r18,r18,32
 5086b78:	bdc00044 	addi	r23,r23,1
 5086b7c:	8c403fcc 	andi	r17,r17,255
 5086b80:	8c40201c 	xori	r17,r17,128
 5086b84:	8c7fe004 	addi	r17,r17,-128
 5086b88:	003a1a06 	br	50853f4 <___svfprintf_internal_r+0x150>
 5086b8c:	d9402c17 	ldw	r5,176(sp)
 5086b90:	d9801e04 	addi	r6,sp,120
 5086b94:	9809883a 	mov	r4,r19
 5086b98:	508e7fc0 	call	508e7fc <__ssprint_r>
 5086b9c:	103aa61e 	bne	r2,zero,5085638 <___svfprintf_internal_r+0x394>
 5086ba0:	d8c02017 	ldw	r3,128(sp)
 5086ba4:	da000404 	addi	r8,sp,16
 5086ba8:	003d4a06 	br	50860d4 <___svfprintf_internal_r+0xe30>
 5086bac:	d9002917 	ldw	r4,164(sp)
 5086bb0:	05bff7c4 	movi	r22,-33
 5086bb4:	00bfffc4 	movi	r2,-1
 5086bb8:	8dac703a 	and	r22,r17,r22
 5086bbc:	20806a26 	beq	r4,r2,5086d68 <___svfprintf_internal_r+0x1ac4>
 5086bc0:	008011c4 	movi	r2,71
 5086bc4:	b0813726 	beq	r22,r2,50870a4 <___svfprintf_internal_r+0x1e00>
 5086bc8:	d9003717 	ldw	r4,220(sp)
 5086bcc:	90c04014 	ori	r3,r18,256
 5086bd0:	d8c02b15 	stw	r3,172(sp)
 5086bd4:	20015d16 	blt	r4,zero,508714c <___svfprintf_internal_r+0x1ea8>
 5086bd8:	dd003717 	ldw	r20,220(sp)
 5086bdc:	d8002a05 	stb	zero,168(sp)
 5086be0:	00801984 	movi	r2,102
 5086be4:	88814026 	beq	r17,r2,50870e8 <___svfprintf_internal_r+0x1e44>
 5086be8:	00801184 	movi	r2,70
 5086bec:	88817126 	beq	r17,r2,50871b4 <___svfprintf_internal_r+0x1f10>
 5086bf0:	00801144 	movi	r2,69
 5086bf4:	b0816226 	beq	r22,r2,5087180 <___svfprintf_internal_r+0x1edc>
 5086bf8:	d8c02917 	ldw	r3,164(sp)
 5086bfc:	d8802104 	addi	r2,sp,132
 5086c00:	d8800315 	stw	r2,12(sp)
 5086c04:	d9403617 	ldw	r5,216(sp)
 5086c08:	d8802504 	addi	r2,sp,148
 5086c0c:	d8800215 	stw	r2,8(sp)
 5086c10:	d8802604 	addi	r2,sp,152
 5086c14:	d8c00015 	stw	r3,0(sp)
 5086c18:	d8800115 	stw	r2,4(sp)
 5086c1c:	01c00084 	movi	r7,2
 5086c20:	a00d883a 	mov	r6,r20
 5086c24:	9809883a 	mov	r4,r19
 5086c28:	d8c03d15 	stw	r3,244(sp)
 5086c2c:	da003e15 	stw	r8,248(sp)
 5086c30:	5089bc40 	call	5089bc4 <_dtoa_r>
 5086c34:	1021883a 	mov	r16,r2
 5086c38:	008019c4 	movi	r2,103
 5086c3c:	d8c03d17 	ldw	r3,244(sp)
 5086c40:	da003e17 	ldw	r8,248(sp)
 5086c44:	8880e726 	beq	r17,r2,5086fe4 <___svfprintf_internal_r+0x1d40>
 5086c48:	008011c4 	movi	r2,71
 5086c4c:	8880d426 	beq	r17,r2,5086fa0 <___svfprintf_internal_r+0x1cfc>
 5086c50:	80f9883a 	add	fp,r16,r3
 5086c54:	d9003617 	ldw	r4,216(sp)
 5086c58:	000d883a 	mov	r6,zero
 5086c5c:	000f883a 	mov	r7,zero
 5086c60:	a00b883a 	mov	r5,r20
 5086c64:	da003e15 	stw	r8,248(sp)
 5086c68:	5092f1c0 	call	5092f1c <__eqdf2>
 5086c6c:	da003e17 	ldw	r8,248(sp)
 5086c70:	1000e426 	beq	r2,zero,5087004 <___svfprintf_internal_r+0x1d60>
 5086c74:	d8802117 	ldw	r2,132(sp)
 5086c78:	1700062e 	bgeu	r2,fp,5086c94 <___svfprintf_internal_r+0x19f0>
 5086c7c:	01000c04 	movi	r4,48
 5086c80:	10c00044 	addi	r3,r2,1
 5086c84:	d8c02115 	stw	r3,132(sp)
 5086c88:	11000005 	stb	r4,0(r2)
 5086c8c:	d8802117 	ldw	r2,132(sp)
 5086c90:	173ffb36 	bltu	r2,fp,5086c80 <___svfprintf_internal_r+0x19dc>
 5086c94:	1405c83a 	sub	r2,r2,r16
 5086c98:	d8803315 	stw	r2,204(sp)
 5086c9c:	008011c4 	movi	r2,71
 5086ca0:	b080c526 	beq	r22,r2,5086fb8 <___svfprintf_internal_r+0x1d14>
 5086ca4:	00801944 	movi	r2,101
 5086ca8:	1441d90e 	bge	r2,r17,5087410 <___svfprintf_internal_r+0x216c>
 5086cac:	d8c02617 	ldw	r3,152(sp)
 5086cb0:	00801984 	movi	r2,102
 5086cb4:	d8c03215 	stw	r3,200(sp)
 5086cb8:	88813426 	beq	r17,r2,508718c <___svfprintf_internal_r+0x1ee8>
 5086cbc:	d8c03217 	ldw	r3,200(sp)
 5086cc0:	d9003317 	ldw	r4,204(sp)
 5086cc4:	19012516 	blt	r3,r4,508715c <___svfprintf_internal_r+0x1eb8>
 5086cc8:	9480004c 	andi	r18,r18,1
 5086ccc:	9001841e 	bne	r18,zero,50872e0 <___svfprintf_internal_r+0x203c>
 5086cd0:	1805883a 	mov	r2,r3
 5086cd4:	1801cc16 	blt	r3,zero,5087408 <___svfprintf_internal_r+0x2164>
 5086cd8:	d8c03217 	ldw	r3,200(sp)
 5086cdc:	044019c4 	movi	r17,103
 5086ce0:	d8c02e15 	stw	r3,184(sp)
 5086ce4:	df002a07 	ldb	fp,168(sp)
 5086ce8:	e000a61e 	bne	fp,zero,5086f84 <___svfprintf_internal_r+0x1ce0>
 5086cec:	df002783 	ldbu	fp,158(sp)
 5086cf0:	d8802a15 	stw	r2,168(sp)
 5086cf4:	dc802b17 	ldw	r18,172(sp)
 5086cf8:	d8002915 	stw	zero,164(sp)
 5086cfc:	003b1706 	br	508595c <___svfprintf_internal_r+0x6b8>
 5086d00:	04014274 	movhi	r16,1289
 5086d04:	841a3704 	addi	r16,r16,26844
 5086d08:	003aa606 	br	50857a4 <___svfprintf_internal_r+0x500>
 5086d0c:	d9003917 	ldw	r4,228(sp)
 5086d10:	04001004 	movi	r16,64
 5086d14:	800b883a 	mov	r5,r16
 5086d18:	508c5a40 	call	508c5a4 <_malloc_r>
 5086d1c:	d9002c17 	ldw	r4,176(sp)
 5086d20:	20800015 	stw	r2,0(r4)
 5086d24:	20800415 	stw	r2,16(r4)
 5086d28:	1001cb26 	beq	r2,zero,5087458 <___svfprintf_internal_r+0x21b4>
 5086d2c:	d8802c17 	ldw	r2,176(sp)
 5086d30:	14000515 	stw	r16,20(r2)
 5086d34:	00397606 	br	5085310 <___svfprintf_internal_r+0x6c>
 5086d38:	04014274 	movhi	r16,1289
 5086d3c:	841a3904 	addi	r16,r16,26852
 5086d40:	003ee106 	br	50868c8 <___svfprintf_internal_r+0x1624>
 5086d44:	d9402c17 	ldw	r5,176(sp)
 5086d48:	d9801e04 	addi	r6,sp,120
 5086d4c:	9809883a 	mov	r4,r19
 5086d50:	508e7fc0 	call	508e7fc <__ssprint_r>
 5086d54:	103a381e 	bne	r2,zero,5085638 <___svfprintf_internal_r+0x394>
 5086d58:	dc402617 	ldw	r17,152(sp)
 5086d5c:	d8c02017 	ldw	r3,128(sp)
 5086d60:	da000404 	addi	r8,sp,16
 5086d64:	003f4306 	br	5086a74 <___svfprintf_internal_r+0x17d0>
 5086d68:	01400184 	movi	r5,6
 5086d6c:	d9402915 	stw	r5,164(sp)
 5086d70:	003f9506 	br	5086bc8 <___svfprintf_internal_r+0x1924>
 5086d74:	d9002d17 	ldw	r4,180(sp)
 5086d78:	25000017 	ldw	r20,0(r4)
 5086d7c:	21000104 	addi	r4,r4,4
 5086d80:	d9002d15 	stw	r4,180(sp)
 5086d84:	a02dd7fa 	srai	r22,r20,31
 5086d88:	b005883a 	mov	r2,r22
 5086d8c:	003a9b06 	br	50857fc <___svfprintf_internal_r+0x558>
 5086d90:	d9402d17 	ldw	r5,180(sp)
 5086d94:	002d883a 	mov	r22,zero
 5086d98:	2d000017 	ldw	r20,0(r5)
 5086d9c:	29400104 	addi	r5,r5,4
 5086da0:	d9402d15 	stw	r5,180(sp)
 5086da4:	003bf906 	br	5085d8c <___svfprintf_internal_r+0xae8>
 5086da8:	9480100c 	andi	r18,r18,64
 5086dac:	90006e26 	beq	r18,zero,5086f68 <___svfprintf_internal_r+0x1cc4>
 5086db0:	d9002d17 	ldw	r4,180(sp)
 5086db4:	d9402f17 	ldw	r5,188(sp)
 5086db8:	20800017 	ldw	r2,0(r4)
 5086dbc:	21000104 	addi	r4,r4,4
 5086dc0:	d9002d15 	stw	r4,180(sp)
 5086dc4:	1140000d 	sth	r5,0(r2)
 5086dc8:	00396106 	br	5085350 <___svfprintf_internal_r+0xac>
 5086dcc:	d9402c17 	ldw	r5,176(sp)
 5086dd0:	d9801e04 	addi	r6,sp,120
 5086dd4:	9809883a 	mov	r4,r19
 5086dd8:	508e7fc0 	call	508e7fc <__ssprint_r>
 5086ddc:	103a161e 	bne	r2,zero,5085638 <___svfprintf_internal_r+0x394>
 5086de0:	d8c02017 	ldw	r3,128(sp)
 5086de4:	d8801f17 	ldw	r2,124(sp)
 5086de8:	da000404 	addi	r8,sp,16
 5086dec:	d9403317 	ldw	r5,204(sp)
 5086df0:	10800044 	addi	r2,r2,1
 5086df4:	44000015 	stw	r16,0(r8)
 5086df8:	28c7883a 	add	r3,r5,r3
 5086dfc:	003b7706 	br	5085bdc <___svfprintf_internal_r+0x938>
 5086e00:	8009883a 	mov	r4,r16
 5086e04:	da003e15 	stw	r8,248(sp)
 5086e08:	508520c0 	call	508520c <strlen>
 5086e0c:	d8802e15 	stw	r2,184(sp)
 5086e10:	da003e17 	ldw	r8,248(sp)
 5086e14:	103c280e 	bge	r2,zero,5085eb8 <___svfprintf_internal_r+0xc14>
 5086e18:	0005883a 	mov	r2,zero
 5086e1c:	003c2606 	br	5085eb8 <___svfprintf_internal_r+0xc14>
 5086e20:	00bfffc4 	movi	r2,-1
 5086e24:	003a0906 	br	508564c <___svfprintf_internal_r+0x3a8>
 5086e28:	01014274 	movhi	r4,1289
 5086e2c:	211a4b84 	addi	r4,r4,26926
 5086e30:	d9003515 	stw	r4,212(sp)
 5086e34:	003b0606 	br	5085a50 <___svfprintf_internal_r+0x7ac>
 5086e38:	013fffc4 	movi	r4,-1
 5086e3c:	003a2706 	br	50856dc <___svfprintf_internal_r+0x438>
 5086e40:	d9402c17 	ldw	r5,176(sp)
 5086e44:	d9801e04 	addi	r6,sp,120
 5086e48:	9809883a 	mov	r4,r19
 5086e4c:	508e7fc0 	call	508e7fc <__ssprint_r>
 5086e50:	1039f91e 	bne	r2,zero,5085638 <___svfprintf_internal_r+0x394>
 5086e54:	d8c02017 	ldw	r3,128(sp)
 5086e58:	da000404 	addi	r8,sp,16
 5086e5c:	003d8406 	br	5086470 <___svfprintf_internal_r+0x11cc>
 5086e60:	0023883a 	mov	r17,zero
 5086e64:	003d8306 	br	5086474 <___svfprintf_internal_r+0x11d0>
 5086e68:	01014274 	movhi	r4,1289
 5086e6c:	211a4784 	addi	r4,r4,26910
 5086e70:	d9002b15 	stw	r4,172(sp)
 5086e74:	d9002b17 	ldw	r4,172(sp)
 5086e78:	1c47883a 	add	r3,r3,r17
 5086e7c:	10800044 	addi	r2,r2,1
 5086e80:	41000015 	stw	r4,0(r8)
 5086e84:	44400115 	stw	r17,4(r8)
 5086e88:	d8c02015 	stw	r3,128(sp)
 5086e8c:	d8801f15 	stw	r2,124(sp)
 5086e90:	010001c4 	movi	r4,7
 5086e94:	20bfcd16 	blt	r4,r2,5086dcc <___svfprintf_internal_r+0x1b28>
 5086e98:	42000204 	addi	r8,r8,8
 5086e9c:	003fd306 	br	5086dec <___svfprintf_internal_r+0x1b48>
 5086ea0:	d9402c17 	ldw	r5,176(sp)
 5086ea4:	d9801e04 	addi	r6,sp,120
 5086ea8:	9809883a 	mov	r4,r19
 5086eac:	508e7fc0 	call	508e7fc <__ssprint_r>
 5086eb0:	1039e11e 	bne	r2,zero,5085638 <___svfprintf_internal_r+0x394>
 5086eb4:	d8802617 	ldw	r2,152(sp)
 5086eb8:	d8c02017 	ldw	r3,128(sp)
 5086ebc:	da000404 	addi	r8,sp,16
 5086ec0:	003e1c06 	br	5086734 <___svfprintf_internal_r+0x1490>
 5086ec4:	d8802917 	ldw	r2,164(sp)
 5086ec8:	00c00184 	movi	r3,6
 5086ecc:	1880012e 	bgeu	r3,r2,5086ed4 <___svfprintf_internal_r+0x1c30>
 5086ed0:	1805883a 	mov	r2,r3
 5086ed4:	d8802e15 	stw	r2,184(sp)
 5086ed8:	1000f316 	blt	r2,zero,50872a8 <___svfprintf_internal_r+0x2004>
 5086edc:	04014274 	movhi	r16,1289
 5086ee0:	d8802a15 	stw	r2,168(sp)
 5086ee4:	dd002d15 	stw	r20,180(sp)
 5086ee8:	d8002915 	stw	zero,164(sp)
 5086eec:	d8003215 	stw	zero,200(sp)
 5086ef0:	841a4504 	addi	r16,r16,26900
 5086ef4:	0039883a 	mov	fp,zero
 5086ef8:	003a9f06 	br	5085978 <___svfprintf_internal_r+0x6d4>
 5086efc:	01014274 	movhi	r4,1289
 5086f00:	211a4b84 	addi	r4,r4,26926
 5086f04:	d9003515 	stw	r4,212(sp)
 5086f08:	003b5f06 	br	5085c88 <___svfprintf_internal_r+0x9e4>
 5086f0c:	d9402c17 	ldw	r5,176(sp)
 5086f10:	d9801e04 	addi	r6,sp,120
 5086f14:	9809883a 	mov	r4,r19
 5086f18:	508e7fc0 	call	508e7fc <__ssprint_r>
 5086f1c:	1039c61e 	bne	r2,zero,5085638 <___svfprintf_internal_r+0x394>
 5086f20:	d8802617 	ldw	r2,152(sp)
 5086f24:	d9403317 	ldw	r5,204(sp)
 5086f28:	d8c02017 	ldw	r3,128(sp)
 5086f2c:	da000404 	addi	r8,sp,16
 5086f30:	2885c83a 	sub	r2,r5,r2
 5086f34:	003e1006 	br	5086778 <___svfprintf_internal_r+0x14d4>
 5086f38:	00800044 	movi	r2,1
 5086f3c:	10803fcc 	andi	r2,r2,255
 5086f40:	00c00044 	movi	r3,1
 5086f44:	10fa3526 	beq	r2,r3,508581c <___svfprintf_internal_r+0x578>
 5086f48:	00c00084 	movi	r3,2
 5086f4c:	10fb9e26 	beq	r2,r3,5085dc8 <___svfprintf_internal_r+0xb24>
 5086f50:	003a6406 	br	50858e4 <___svfprintf_internal_r+0x640>
 5086f54:	0021883a 	mov	r16,zero
 5086f58:	003e0806 	br	508677c <___svfprintf_internal_r+0x14d8>
 5086f5c:	07000b44 	movi	fp,45
 5086f60:	df002785 	stb	fp,158(sp)
 5086f64:	003a0b06 	br	5085794 <___svfprintf_internal_r+0x4f0>
 5086f68:	d8c02d17 	ldw	r3,180(sp)
 5086f6c:	d9002f17 	ldw	r4,188(sp)
 5086f70:	18800017 	ldw	r2,0(r3)
 5086f74:	18c00104 	addi	r3,r3,4
 5086f78:	d8c02d15 	stw	r3,180(sp)
 5086f7c:	11000015 	stw	r4,0(r2)
 5086f80:	0038f306 	br	5085350 <___svfprintf_internal_r+0xac>
 5086f84:	00c00b44 	movi	r3,45
 5086f88:	d8c02785 	stb	r3,158(sp)
 5086f8c:	d8802a15 	stw	r2,168(sp)
 5086f90:	dc802b17 	ldw	r18,172(sp)
 5086f94:	d8002915 	stw	zero,164(sp)
 5086f98:	07000b44 	movi	fp,45
 5086f9c:	003a7306 	br	508596c <___svfprintf_internal_r+0x6c8>
 5086fa0:	9080004c 	andi	r2,r18,1
 5086fa4:	1000941e 	bne	r2,zero,50871f8 <___svfprintf_internal_r+0x1f54>
 5086fa8:	d8802117 	ldw	r2,132(sp)
 5086fac:	1405c83a 	sub	r2,r2,r16
 5086fb0:	d8803315 	stw	r2,204(sp)
 5086fb4:	b441161e 	bne	r22,r17,5087410 <___svfprintf_internal_r+0x216c>
 5086fb8:	dd802617 	ldw	r22,152(sp)
 5086fbc:	00bfff44 	movi	r2,-3
 5086fc0:	b0801a16 	blt	r22,r2,508702c <___svfprintf_internal_r+0x1d88>
 5086fc4:	d9402917 	ldw	r5,164(sp)
 5086fc8:	2d801816 	blt	r5,r22,508702c <___svfprintf_internal_r+0x1d88>
 5086fcc:	dd803215 	stw	r22,200(sp)
 5086fd0:	003f3a06 	br	5086cbc <___svfprintf_internal_r+0x1a18>
 5086fd4:	1025883a 	mov	r18,r2
 5086fd8:	0039883a 	mov	fp,zero
 5086fdc:	00800084 	movi	r2,2
 5086fe0:	003fd606 	br	5086f3c <___svfprintf_internal_r+0x1c98>
 5086fe4:	9080004c 	andi	r2,r18,1
 5086fe8:	103f191e 	bne	r2,zero,5086c50 <___svfprintf_internal_r+0x19ac>
 5086fec:	d8802117 	ldw	r2,132(sp)
 5086ff0:	003f2806 	br	5086c94 <___svfprintf_internal_r+0x19f0>
 5086ff4:	01014274 	movhi	r4,1289
 5086ff8:	211a4784 	addi	r4,r4,26910
 5086ffc:	d9002b15 	stw	r4,172(sp)
 5087000:	003c7c06 	br	50861f4 <___svfprintf_internal_r+0xf50>
 5087004:	e005883a 	mov	r2,fp
 5087008:	003f2206 	br	5086c94 <___svfprintf_internal_r+0x19f0>
 508700c:	d9402917 	ldw	r5,164(sp)
 5087010:	df002783 	ldbu	fp,158(sp)
 5087014:	dd002d15 	stw	r20,180(sp)
 5087018:	d9402a15 	stw	r5,168(sp)
 508701c:	d9402e15 	stw	r5,184(sp)
 5087020:	d8002915 	stw	zero,164(sp)
 5087024:	d8003215 	stw	zero,200(sp)
 5087028:	003a4c06 	br	508595c <___svfprintf_internal_r+0x6b8>
 508702c:	8c7fff84 	addi	r17,r17,-2
 5087030:	b5bfffc4 	addi	r22,r22,-1
 5087034:	dd802615 	stw	r22,152(sp)
 5087038:	dc4022c5 	stb	r17,139(sp)
 508703c:	b000c316 	blt	r22,zero,508734c <___svfprintf_internal_r+0x20a8>
 5087040:	00800ac4 	movi	r2,43
 5087044:	d8802305 	stb	r2,140(sp)
 5087048:	00800244 	movi	r2,9
 508704c:	15806e16 	blt	r2,r22,5087208 <___svfprintf_internal_r+0x1f64>
 5087050:	00800c04 	movi	r2,48
 5087054:	b5800c04 	addi	r22,r22,48
 5087058:	d8802345 	stb	r2,141(sp)
 508705c:	dd802385 	stb	r22,142(sp)
 5087060:	d88023c4 	addi	r2,sp,143
 5087064:	df0022c4 	addi	fp,sp,139
 5087068:	d8c03317 	ldw	r3,204(sp)
 508706c:	1739c83a 	sub	fp,r2,fp
 5087070:	d9003317 	ldw	r4,204(sp)
 5087074:	e0c7883a 	add	r3,fp,r3
 5087078:	df003b15 	stw	fp,236(sp)
 508707c:	d8c02e15 	stw	r3,184(sp)
 5087080:	00800044 	movi	r2,1
 5087084:	1100b70e 	bge	r2,r4,5087364 <___svfprintf_internal_r+0x20c0>
 5087088:	d8c02e17 	ldw	r3,184(sp)
 508708c:	18c00044 	addi	r3,r3,1
 5087090:	d8c02e15 	stw	r3,184(sp)
 5087094:	1805883a 	mov	r2,r3
 5087098:	1800b016 	blt	r3,zero,508735c <___svfprintf_internal_r+0x20b8>
 508709c:	d8003215 	stw	zero,200(sp)
 50870a0:	003f1006 	br	5086ce4 <___svfprintf_internal_r+0x1a40>
 50870a4:	d8802917 	ldw	r2,164(sp)
 50870a8:	103ec71e 	bne	r2,zero,5086bc8 <___svfprintf_internal_r+0x1924>
 50870ac:	dc002915 	stw	r16,164(sp)
 50870b0:	003ec506 	br	5086bc8 <___svfprintf_internal_r+0x1924>
 50870b4:	d9402c17 	ldw	r5,176(sp)
 50870b8:	d9801e04 	addi	r6,sp,120
 50870bc:	9809883a 	mov	r4,r19
 50870c0:	508e7fc0 	call	508e7fc <__ssprint_r>
 50870c4:	10395c1e 	bne	r2,zero,5085638 <___svfprintf_internal_r+0x394>
 50870c8:	dc402617 	ldw	r17,152(sp)
 50870cc:	d8c02017 	ldw	r3,128(sp)
 50870d0:	d8801f17 	ldw	r2,124(sp)
 50870d4:	da000404 	addi	r8,sp,16
 50870d8:	003e7706 	br	5086ab8 <___svfprintf_internal_r+0x1814>
 50870dc:	582f883a 	mov	r23,r11
 50870e0:	d8002915 	stw	zero,164(sp)
 50870e4:	0038c406 	br	50853f8 <___svfprintf_internal_r+0x154>
 50870e8:	d8c02917 	ldw	r3,164(sp)
 50870ec:	d8802104 	addi	r2,sp,132
 50870f0:	d8800315 	stw	r2,12(sp)
 50870f4:	d9403617 	ldw	r5,216(sp)
 50870f8:	d8802504 	addi	r2,sp,148
 50870fc:	d8800215 	stw	r2,8(sp)
 5087100:	d8802604 	addi	r2,sp,152
 5087104:	d8c00015 	stw	r3,0(sp)
 5087108:	9809883a 	mov	r4,r19
 508710c:	d8800115 	stw	r2,4(sp)
 5087110:	01c000c4 	movi	r7,3
 5087114:	a00d883a 	mov	r6,r20
 5087118:	da003e15 	stw	r8,248(sp)
 508711c:	5089bc40 	call	5089bc4 <_dtoa_r>
 5087120:	d9002917 	ldw	r4,164(sp)
 5087124:	da003e17 	ldw	r8,248(sp)
 5087128:	1021883a 	mov	r16,r2
 508712c:	1139883a 	add	fp,r2,r4
 5087130:	2007883a 	mov	r3,r4
 5087134:	81000007 	ldb	r4,0(r16)
 5087138:	00800c04 	movi	r2,48
 508713c:	20806f26 	beq	r4,r2,50872fc <___svfprintf_internal_r+0x2058>
 5087140:	d8c02617 	ldw	r3,152(sp)
 5087144:	e0f9883a 	add	fp,fp,r3
 5087148:	003ec206 	br	5086c54 <___svfprintf_internal_r+0x19b0>
 508714c:	00c00b44 	movi	r3,45
 5087150:	2520003c 	xorhi	r20,r4,32768
 5087154:	d8c02a05 	stb	r3,168(sp)
 5087158:	003ea106 	br	5086be0 <___svfprintf_internal_r+0x193c>
 508715c:	d8c03217 	ldw	r3,200(sp)
 5087160:	00c0890e 	bge	zero,r3,5087388 <___svfprintf_internal_r+0x20e4>
 5087164:	00800044 	movi	r2,1
 5087168:	d9003317 	ldw	r4,204(sp)
 508716c:	1105883a 	add	r2,r2,r4
 5087170:	d8802e15 	stw	r2,184(sp)
 5087174:	10005f16 	blt	r2,zero,50872f4 <___svfprintf_internal_r+0x2050>
 5087178:	044019c4 	movi	r17,103
 508717c:	003ed906 	br	5086ce4 <___svfprintf_internal_r+0x1a40>
 5087180:	d9002917 	ldw	r4,164(sp)
 5087184:	20c00044 	addi	r3,r4,1
 5087188:	003e9c06 	br	5086bfc <___svfprintf_internal_r+0x1958>
 508718c:	d9002917 	ldw	r4,164(sp)
 5087190:	00c0680e 	bge	zero,r3,5087334 <___svfprintf_internal_r+0x2090>
 5087194:	2000461e 	bne	r4,zero,50872b0 <___svfprintf_internal_r+0x200c>
 5087198:	9480004c 	andi	r18,r18,1
 508719c:	9000441e 	bne	r18,zero,50872b0 <___svfprintf_internal_r+0x200c>
 50871a0:	1805883a 	mov	r2,r3
 50871a4:	1800a016 	blt	r3,zero,5087428 <___svfprintf_internal_r+0x2184>
 50871a8:	d8c03217 	ldw	r3,200(sp)
 50871ac:	d8c02e15 	stw	r3,184(sp)
 50871b0:	003ecc06 	br	5086ce4 <___svfprintf_internal_r+0x1a40>
 50871b4:	d9402917 	ldw	r5,164(sp)
 50871b8:	d8802104 	addi	r2,sp,132
 50871bc:	d8800315 	stw	r2,12(sp)
 50871c0:	d9400015 	stw	r5,0(sp)
 50871c4:	d8802504 	addi	r2,sp,148
 50871c8:	d9403617 	ldw	r5,216(sp)
 50871cc:	d8800215 	stw	r2,8(sp)
 50871d0:	d8802604 	addi	r2,sp,152
 50871d4:	d8800115 	stw	r2,4(sp)
 50871d8:	01c000c4 	movi	r7,3
 50871dc:	a00d883a 	mov	r6,r20
 50871e0:	9809883a 	mov	r4,r19
 50871e4:	da003e15 	stw	r8,248(sp)
 50871e8:	5089bc40 	call	5089bc4 <_dtoa_r>
 50871ec:	d8c02917 	ldw	r3,164(sp)
 50871f0:	da003e17 	ldw	r8,248(sp)
 50871f4:	1021883a 	mov	r16,r2
 50871f8:	00801184 	movi	r2,70
 50871fc:	80f9883a 	add	fp,r16,r3
 5087200:	88bfcc26 	beq	r17,r2,5087134 <___svfprintf_internal_r+0x1e90>
 5087204:	003e9306 	br	5086c54 <___svfprintf_internal_r+0x19b0>
 5087208:	df0022c4 	addi	fp,sp,139
 508720c:	dc002915 	stw	r16,164(sp)
 5087210:	9829883a 	mov	r20,r19
 5087214:	e021883a 	mov	r16,fp
 5087218:	4027883a 	mov	r19,r8
 508721c:	b009883a 	mov	r4,r22
 5087220:	01400284 	movi	r5,10
 5087224:	50831400 	call	5083140 <__modsi3>
 5087228:	10800c04 	addi	r2,r2,48
 508722c:	843fffc4 	addi	r16,r16,-1
 5087230:	b009883a 	mov	r4,r22
 5087234:	01400284 	movi	r5,10
 5087238:	80800005 	stb	r2,0(r16)
 508723c:	50830bc0 	call	50830bc <__divsi3>
 5087240:	102d883a 	mov	r22,r2
 5087244:	00800244 	movi	r2,9
 5087248:	15bff416 	blt	r2,r22,508721c <___svfprintf_internal_r+0x1f78>
 508724c:	9811883a 	mov	r8,r19
 5087250:	b0800c04 	addi	r2,r22,48
 5087254:	a027883a 	mov	r19,r20
 5087258:	8029883a 	mov	r20,r16
 508725c:	a17fffc4 	addi	r5,r20,-1
 5087260:	a0bfffc5 	stb	r2,-1(r20)
 5087264:	dc002917 	ldw	r16,164(sp)
 5087268:	2f00752e 	bgeu	r5,fp,5087440 <___svfprintf_internal_r+0x219c>
 508726c:	d9c02384 	addi	r7,sp,142
 5087270:	3d0fc83a 	sub	r7,r7,r20
 5087274:	d9002344 	addi	r4,sp,141
 5087278:	e1cf883a 	add	r7,fp,r7
 508727c:	00000106 	br	5087284 <___svfprintf_internal_r+0x1fe0>
 5087280:	28800003 	ldbu	r2,0(r5)
 5087284:	20800005 	stb	r2,0(r4)
 5087288:	21000044 	addi	r4,r4,1
 508728c:	29400044 	addi	r5,r5,1
 5087290:	21fffb1e 	bne	r4,r7,5087280 <___svfprintf_internal_r+0x1fdc>
 5087294:	d8802304 	addi	r2,sp,140
 5087298:	1505c83a 	sub	r2,r2,r20
 508729c:	d8c02344 	addi	r3,sp,141
 50872a0:	1885883a 	add	r2,r3,r2
 50872a4:	003f7006 	br	5087068 <___svfprintf_internal_r+0x1dc4>
 50872a8:	0005883a 	mov	r2,zero
 50872ac:	003f0b06 	br	5086edc <___svfprintf_internal_r+0x1c38>
 50872b0:	d9002917 	ldw	r4,164(sp)
 50872b4:	d8c03217 	ldw	r3,200(sp)
 50872b8:	20800044 	addi	r2,r4,1
 50872bc:	1885883a 	add	r2,r3,r2
 50872c0:	d8802e15 	stw	r2,184(sp)
 50872c4:	103e870e 	bge	r2,zero,5086ce4 <___svfprintf_internal_r+0x1a40>
 50872c8:	0005883a 	mov	r2,zero
 50872cc:	003e8506 	br	5086ce4 <___svfprintf_internal_r+0x1a40>
 50872d0:	01014274 	movhi	r4,1289
 50872d4:	211a4784 	addi	r4,r4,26910
 50872d8:	d9002b15 	stw	r4,172(sp)
 50872dc:	003cc506 	br	50865f4 <___svfprintf_internal_r+0x1350>
 50872e0:	d8c03217 	ldw	r3,200(sp)
 50872e4:	18c00044 	addi	r3,r3,1
 50872e8:	d8c02e15 	stw	r3,184(sp)
 50872ec:	1805883a 	mov	r2,r3
 50872f0:	183fa10e 	bge	r3,zero,5087178 <___svfprintf_internal_r+0x1ed4>
 50872f4:	0005883a 	mov	r2,zero
 50872f8:	003f9f06 	br	5087178 <___svfprintf_internal_r+0x1ed4>
 50872fc:	d9003617 	ldw	r4,216(sp)
 5087300:	000d883a 	mov	r6,zero
 5087304:	000f883a 	mov	r7,zero
 5087308:	a00b883a 	mov	r5,r20
 508730c:	d8c03d15 	stw	r3,244(sp)
 5087310:	da003e15 	stw	r8,248(sp)
 5087314:	5092f1c0 	call	5092f1c <__eqdf2>
 5087318:	d8c03d17 	ldw	r3,244(sp)
 508731c:	da003e17 	ldw	r8,248(sp)
 5087320:	103f8726 	beq	r2,zero,5087140 <___svfprintf_internal_r+0x1e9c>
 5087324:	00800044 	movi	r2,1
 5087328:	10c7c83a 	sub	r3,r2,r3
 508732c:	d8c02615 	stw	r3,152(sp)
 5087330:	003f8406 	br	5087144 <___svfprintf_internal_r+0x1ea0>
 5087334:	20000e1e 	bne	r4,zero,5087370 <___svfprintf_internal_r+0x20cc>
 5087338:	9480004c 	andi	r18,r18,1
 508733c:	90000c1e 	bne	r18,zero,5087370 <___svfprintf_internal_r+0x20cc>
 5087340:	00800044 	movi	r2,1
 5087344:	d8802e15 	stw	r2,184(sp)
 5087348:	003e6606 	br	5086ce4 <___svfprintf_internal_r+0x1a40>
 508734c:	00800b44 	movi	r2,45
 5087350:	05adc83a 	sub	r22,zero,r22
 5087354:	d8802305 	stb	r2,140(sp)
 5087358:	003f3b06 	br	5087048 <___svfprintf_internal_r+0x1da4>
 508735c:	0005883a 	mov	r2,zero
 5087360:	003f4e06 	br	508709c <___svfprintf_internal_r+0x1df8>
 5087364:	90a4703a 	and	r18,r18,r2
 5087368:	903f4a26 	beq	r18,zero,5087094 <___svfprintf_internal_r+0x1df0>
 508736c:	003f4606 	br	5087088 <___svfprintf_internal_r+0x1de4>
 5087370:	d8c02917 	ldw	r3,164(sp)
 5087374:	18c00084 	addi	r3,r3,2
 5087378:	d8c02e15 	stw	r3,184(sp)
 508737c:	1805883a 	mov	r2,r3
 5087380:	183e580e 	bge	r3,zero,5086ce4 <___svfprintf_internal_r+0x1a40>
 5087384:	003fd006 	br	50872c8 <___svfprintf_internal_r+0x2024>
 5087388:	00800084 	movi	r2,2
 508738c:	10c5c83a 	sub	r2,r2,r3
 5087390:	003f7506 	br	5087168 <___svfprintf_internal_r+0x1ec4>
 5087394:	d8802d17 	ldw	r2,180(sp)
 5087398:	d9002d17 	ldw	r4,180(sp)
 508739c:	bc400043 	ldbu	r17,1(r23)
 50873a0:	10800017 	ldw	r2,0(r2)
 50873a4:	582f883a 	mov	r23,r11
 50873a8:	d8802915 	stw	r2,164(sp)
 50873ac:	20800104 	addi	r2,r4,4
 50873b0:	d9002917 	ldw	r4,164(sp)
 50873b4:	d8802d15 	stw	r2,180(sp)
 50873b8:	203df00e 	bge	r4,zero,5086b7c <___svfprintf_internal_r+0x18d8>
 50873bc:	8c403fcc 	andi	r17,r17,255
 50873c0:	00bfffc4 	movi	r2,-1
 50873c4:	8c40201c 	xori	r17,r17,128
 50873c8:	d8802915 	stw	r2,164(sp)
 50873cc:	8c7fe004 	addi	r17,r17,-128
 50873d0:	00380806 	br	50853f4 <___svfprintf_internal_r+0x150>
 50873d4:	9080004c 	andi	r2,r18,1
 50873d8:	0039883a 	mov	fp,zero
 50873dc:	10000726 	beq	r2,zero,50873fc <___svfprintf_internal_r+0x2158>
 50873e0:	d8c02817 	ldw	r3,160(sp)
 50873e4:	dc001dc4 	addi	r16,sp,119
 50873e8:	00800c04 	movi	r2,48
 50873ec:	1c07c83a 	sub	r3,r3,r16
 50873f0:	d8801dc5 	stb	r2,119(sp)
 50873f4:	d8c02e15 	stw	r3,184(sp)
 50873f8:	00395206 	br	5085944 <___svfprintf_internal_r+0x6a0>
 50873fc:	d8002e15 	stw	zero,184(sp)
 5087400:	dc001e04 	addi	r16,sp,120
 5087404:	00394f06 	br	5085944 <___svfprintf_internal_r+0x6a0>
 5087408:	0005883a 	mov	r2,zero
 508740c:	003e3206 	br	5086cd8 <___svfprintf_internal_r+0x1a34>
 5087410:	dd802617 	ldw	r22,152(sp)
 5087414:	003f0606 	br	5087030 <___svfprintf_internal_r+0x1d8c>
 5087418:	d9c02785 	stb	r7,158(sp)
 508741c:	003a5106 	br	5085d64 <___svfprintf_internal_r+0xac0>
 5087420:	d9c02785 	stb	r7,158(sp)
 5087424:	003a3706 	br	5085d04 <___svfprintf_internal_r+0xa60>
 5087428:	0005883a 	mov	r2,zero
 508742c:	003f5e06 	br	50871a8 <___svfprintf_internal_r+0x1f04>
 5087430:	d9c02785 	stb	r7,158(sp)
 5087434:	00391706 	br	5085894 <___svfprintf_internal_r+0x5f0>
 5087438:	d9c02785 	stb	r7,158(sp)
 508743c:	0038e606 	br	50857d8 <___svfprintf_internal_r+0x534>
 5087440:	d8802344 	addi	r2,sp,141
 5087444:	003f0806 	br	5087068 <___svfprintf_internal_r+0x1dc4>
 5087448:	d9c02785 	stb	r7,158(sp)
 508744c:	0038b706 	br	508572c <___svfprintf_internal_r+0x488>
 5087450:	d9c02785 	stb	r7,158(sp)
 5087454:	003adc06 	br	5085fc8 <___svfprintf_internal_r+0xd24>
 5087458:	d9403917 	ldw	r5,228(sp)
 508745c:	00800304 	movi	r2,12
 5087460:	28800015 	stw	r2,0(r5)
 5087464:	00bfffc4 	movi	r2,-1
 5087468:	00387806 	br	508564c <___svfprintf_internal_r+0x3a8>
 508746c:	d9c02785 	stb	r7,158(sp)
 5087470:	003abf06 	br	5085f70 <___svfprintf_internal_r+0xccc>
 5087474:	d9c02785 	stb	r7,158(sp)
 5087478:	003a9b06 	br	5085ee8 <___svfprintf_internal_r+0xc44>

0508747c <___vfprintf_internal_r>:
 508747c:	deffb804 	addi	sp,sp,-288
 5087480:	dfc04715 	stw	ra,284(sp)
 5087484:	ddc04515 	stw	r23,276(sp)
 5087488:	dd404315 	stw	r21,268(sp)
 508748c:	d9002c15 	stw	r4,176(sp)
 5087490:	282f883a 	mov	r23,r5
 5087494:	302b883a 	mov	r21,r6
 5087498:	d9c02d15 	stw	r7,180(sp)
 508749c:	df004615 	stw	fp,280(sp)
 50874a0:	dd804415 	stw	r22,272(sp)
 50874a4:	dd004215 	stw	r20,264(sp)
 50874a8:	dcc04115 	stw	r19,260(sp)
 50874ac:	dc804015 	stw	r18,256(sp)
 50874b0:	dc403f15 	stw	r17,252(sp)
 50874b4:	dc003e15 	stw	r16,248(sp)
 50874b8:	508c3b80 	call	508c3b8 <_localeconv_r>
 50874bc:	10800017 	ldw	r2,0(r2)
 50874c0:	1009883a 	mov	r4,r2
 50874c4:	d8803415 	stw	r2,208(sp)
 50874c8:	508520c0 	call	508520c <strlen>
 50874cc:	d8803715 	stw	r2,220(sp)
 50874d0:	d8802c17 	ldw	r2,176(sp)
 50874d4:	10000226 	beq	r2,zero,50874e0 <___vfprintf_internal_r+0x64>
 50874d8:	10800e17 	ldw	r2,56(r2)
 50874dc:	1000f926 	beq	r2,zero,50878c4 <___vfprintf_internal_r+0x448>
 50874e0:	b880030b 	ldhu	r2,12(r23)
 50874e4:	10c8000c 	andi	r3,r2,8192
 50874e8:	1800061e 	bne	r3,zero,5087504 <___vfprintf_internal_r+0x88>
 50874ec:	b9001917 	ldw	r4,100(r23)
 50874f0:	00f7ffc4 	movi	r3,-8193
 50874f4:	10880014 	ori	r2,r2,8192
 50874f8:	20c6703a 	and	r3,r4,r3
 50874fc:	b880030d 	sth	r2,12(r23)
 5087500:	b8c01915 	stw	r3,100(r23)
 5087504:	10c0020c 	andi	r3,r2,8
 5087508:	1800c126 	beq	r3,zero,5087810 <___vfprintf_internal_r+0x394>
 508750c:	b8c00417 	ldw	r3,16(r23)
 5087510:	1800bf26 	beq	r3,zero,5087810 <___vfprintf_internal_r+0x394>
 5087514:	1080068c 	andi	r2,r2,26
 5087518:	00c00284 	movi	r3,10
 508751c:	10c0c426 	beq	r2,r3,5087830 <___vfprintf_internal_r+0x3b4>
 5087520:	d8c00404 	addi	r3,sp,16
 5087524:	05014274 	movhi	r20,1289
 5087528:	d9001e04 	addi	r4,sp,120
 508752c:	a51a4f84 	addi	r20,r20,26942
 5087530:	d8c01e15 	stw	r3,120(sp)
 5087534:	d8002015 	stw	zero,128(sp)
 5087538:	d8001f15 	stw	zero,124(sp)
 508753c:	d8003315 	stw	zero,204(sp)
 5087540:	d8003615 	stw	zero,216(sp)
 5087544:	d8003815 	stw	zero,224(sp)
 5087548:	1811883a 	mov	r8,r3
 508754c:	d8003915 	stw	zero,228(sp)
 5087550:	d8003a15 	stw	zero,232(sp)
 5087554:	d8002f15 	stw	zero,188(sp)
 5087558:	d9002815 	stw	r4,160(sp)
 508755c:	a8800007 	ldb	r2,0(r21)
 5087560:	10027b26 	beq	r2,zero,5087f50 <___vfprintf_internal_r+0xad4>
 5087564:	00c00944 	movi	r3,37
 5087568:	a821883a 	mov	r16,r21
 508756c:	10c0021e 	bne	r2,r3,5087578 <___vfprintf_internal_r+0xfc>
 5087570:	00001406 	br	50875c4 <___vfprintf_internal_r+0x148>
 5087574:	10c00326 	beq	r2,r3,5087584 <___vfprintf_internal_r+0x108>
 5087578:	84000044 	addi	r16,r16,1
 508757c:	80800007 	ldb	r2,0(r16)
 5087580:	103ffc1e 	bne	r2,zero,5087574 <___vfprintf_internal_r+0xf8>
 5087584:	8563c83a 	sub	r17,r16,r21
 5087588:	88000e26 	beq	r17,zero,50875c4 <___vfprintf_internal_r+0x148>
 508758c:	d8c02017 	ldw	r3,128(sp)
 5087590:	d8801f17 	ldw	r2,124(sp)
 5087594:	45400015 	stw	r21,0(r8)
 5087598:	1c47883a 	add	r3,r3,r17
 508759c:	10800044 	addi	r2,r2,1
 50875a0:	d8c02015 	stw	r3,128(sp)
 50875a4:	44400115 	stw	r17,4(r8)
 50875a8:	d8801f15 	stw	r2,124(sp)
 50875ac:	00c001c4 	movi	r3,7
 50875b0:	1880a716 	blt	r3,r2,5087850 <___vfprintf_internal_r+0x3d4>
 50875b4:	42000204 	addi	r8,r8,8
 50875b8:	d9402f17 	ldw	r5,188(sp)
 50875bc:	2c4b883a 	add	r5,r5,r17
 50875c0:	d9402f15 	stw	r5,188(sp)
 50875c4:	80800007 	ldb	r2,0(r16)
 50875c8:	1000a826 	beq	r2,zero,508786c <___vfprintf_internal_r+0x3f0>
 50875cc:	84400047 	ldb	r17,1(r16)
 50875d0:	00bfffc4 	movi	r2,-1
 50875d4:	85400044 	addi	r21,r16,1
 50875d8:	d8002785 	stb	zero,158(sp)
 50875dc:	0007883a 	mov	r3,zero
 50875e0:	000f883a 	mov	r7,zero
 50875e4:	d8802915 	stw	r2,164(sp)
 50875e8:	d8003115 	stw	zero,196(sp)
 50875ec:	0025883a 	mov	r18,zero
 50875f0:	01401604 	movi	r5,88
 50875f4:	01800244 	movi	r6,9
 50875f8:	02800a84 	movi	r10,42
 50875fc:	02401b04 	movi	r9,108
 5087600:	ad400044 	addi	r21,r21,1
 5087604:	88bff804 	addi	r2,r17,-32
 5087608:	28830436 	bltu	r5,r2,508821c <___vfprintf_internal_r+0xda0>
 508760c:	100490ba 	slli	r2,r2,2
 5087610:	01014234 	movhi	r4,1288
 5087614:	211d8904 	addi	r4,r4,30244
 5087618:	1105883a 	add	r2,r2,r4
 508761c:	10800017 	ldw	r2,0(r2)
 5087620:	1000683a 	jmp	r2
 5087624:	0508813c 	xorhi	r20,zero,8708
 5087628:	0508821c 	xori	r20,zero,8712
 508762c:	0508821c 	xori	r20,zero,8712
 5087630:	0508815c 	xori	r20,zero,8709
 5087634:	0508821c 	xori	r20,zero,8712
 5087638:	0508821c 	xori	r20,zero,8712
 508763c:	0508821c 	xori	r20,zero,8712
 5087640:	0508821c 	xori	r20,zero,8712
 5087644:	0508821c 	xori	r20,zero,8712
 5087648:	0508821c 	xori	r20,zero,8712
 508764c:	050878d0 	cmplti	r20,zero,8675
 5087650:	05088078 	rdprs	r20,zero,8705
 5087654:	0508821c 	xori	r20,zero,8712
 5087658:	05087798 	cmpnei	r20,zero,8670
 508765c:	050878f8 	rdprs	r20,zero,8675
 5087660:	0508821c 	xori	r20,zero,8712
 5087664:	05087938 	rdprs	r20,zero,8676
 5087668:	05087944 	movi	r20,8677
 508766c:	05087944 	movi	r20,8677
 5087670:	05087944 	movi	r20,8677
 5087674:	05087944 	movi	r20,8677
 5087678:	05087944 	movi	r20,8677
 508767c:	05087944 	movi	r20,8677
 5087680:	05087944 	movi	r20,8677
 5087684:	05087944 	movi	r20,8677
 5087688:	05087944 	movi	r20,8677
 508768c:	0508821c 	xori	r20,zero,8712
 5087690:	0508821c 	xori	r20,zero,8712
 5087694:	0508821c 	xori	r20,zero,8712
 5087698:	0508821c 	xori	r20,zero,8712
 508769c:	0508821c 	xori	r20,zero,8712
 50876a0:	0508821c 	xori	r20,zero,8712
 50876a4:	0508821c 	xori	r20,zero,8712
 50876a8:	0508821c 	xori	r20,zero,8712
 50876ac:	0508821c 	xori	r20,zero,8712
 50876b0:	0508821c 	xori	r20,zero,8712
 50876b4:	05087978 	rdprs	r20,zero,8677
 50876b8:	05087a34 	movhi	r20,8680
 50876bc:	0508821c 	xori	r20,zero,8712
 50876c0:	05087a34 	movhi	r20,8680
 50876c4:	0508821c 	xori	r20,zero,8712
 50876c8:	0508821c 	xori	r20,zero,8712
 50876cc:	0508821c 	xori	r20,zero,8712
 50876d0:	0508821c 	xori	r20,zero,8712
 50876d4:	05087ad4 	movui	r20,8683
 50876d8:	0508821c 	xori	r20,zero,8712
 50876dc:	0508821c 	xori	r20,zero,8712
 50876e0:	05087ae0 	cmpeqi	r20,zero,8683
 50876e4:	0508821c 	xori	r20,zero,8712
 50876e8:	0508821c 	xori	r20,zero,8712
 50876ec:	0508821c 	xori	r20,zero,8712
 50876f0:	0508821c 	xori	r20,zero,8712
 50876f4:	0508821c 	xori	r20,zero,8712
 50876f8:	05087f58 	cmpnei	r20,zero,8701
 50876fc:	0508821c 	xori	r20,zero,8712
 5087700:	0508821c 	xori	r20,zero,8712
 5087704:	05087fb8 	rdprs	r20,zero,8702
 5087708:	0508821c 	xori	r20,zero,8712
 508770c:	0508821c 	xori	r20,zero,8712
 5087710:	0508821c 	xori	r20,zero,8712
 5087714:	0508821c 	xori	r20,zero,8712
 5087718:	0508821c 	xori	r20,zero,8712
 508771c:	0508821c 	xori	r20,zero,8712
 5087720:	0508821c 	xori	r20,zero,8712
 5087724:	0508821c 	xori	r20,zero,8712
 5087728:	0508821c 	xori	r20,zero,8712
 508772c:	0508821c 	xori	r20,zero,8712
 5087730:	050881c8 	cmpgei	r20,zero,8711
 5087734:	05088168 	cmpgeui	r20,zero,8709
 5087738:	05087a34 	movhi	r20,8680
 508773c:	05087a34 	movhi	r20,8680
 5087740:	05087a34 	movhi	r20,8680
 5087744:	05088178 	rdprs	r20,zero,8709
 5087748:	05088168 	cmpgeui	r20,zero,8709
 508774c:	0508821c 	xori	r20,zero,8712
 5087750:	0508821c 	xori	r20,zero,8712
 5087754:	05088184 	movi	r20,8710
 5087758:	0508821c 	xori	r20,zero,8712
 508775c:	05088194 	movui	r20,8710
 5087760:	05088068 	cmpgeui	r20,zero,8705
 5087764:	050877a4 	muli	r20,zero,8670
 5087768:	05088088 	cmpgei	r20,zero,8706
 508776c:	0508821c 	xori	r20,zero,8712
 5087770:	05088094 	movui	r20,8706
 5087774:	0508821c 	xori	r20,zero,8712
 5087778:	050880f0 	cmpltui	r20,zero,8707
 508777c:	0508821c 	xori	r20,zero,8712
 5087780:	0508821c 	xori	r20,zero,8712
 5087784:	05088100 	call	508810 <__alt_mem_sdram+0x508810>
 5087788:	d9003117 	ldw	r4,196(sp)
 508778c:	d8802d15 	stw	r2,180(sp)
 5087790:	0109c83a 	sub	r4,zero,r4
 5087794:	d9003115 	stw	r4,196(sp)
 5087798:	94800114 	ori	r18,r18,4
 508779c:	ac400007 	ldb	r17,0(r21)
 50877a0:	003f9706 	br	5087600 <___vfprintf_internal_r+0x184>
 50877a4:	00800c04 	movi	r2,48
 50877a8:	d9002d17 	ldw	r4,180(sp)
 50877ac:	d9402917 	ldw	r5,164(sp)
 50877b0:	d8802705 	stb	r2,156(sp)
 50877b4:	00801e04 	movi	r2,120
 50877b8:	d8802745 	stb	r2,157(sp)
 50877bc:	d8002785 	stb	zero,158(sp)
 50877c0:	20c00104 	addi	r3,r4,4
 50877c4:	24c00017 	ldw	r19,0(r4)
 50877c8:	002d883a 	mov	r22,zero
 50877cc:	90800094 	ori	r2,r18,2
 50877d0:	28029a16 	blt	r5,zero,508823c <___vfprintf_internal_r+0xdc0>
 50877d4:	00bfdfc4 	movi	r2,-129
 50877d8:	90a4703a 	and	r18,r18,r2
 50877dc:	d8c02d15 	stw	r3,180(sp)
 50877e0:	94800094 	ori	r18,r18,2
 50877e4:	9802871e 	bne	r19,zero,5088204 <___vfprintf_internal_r+0xd88>
 50877e8:	00814274 	movhi	r2,1289
 50877ec:	109a4004 	addi	r2,r2,26880
 50877f0:	d8803915 	stw	r2,228(sp)
 50877f4:	04401e04 	movi	r17,120
 50877f8:	d8802917 	ldw	r2,164(sp)
 50877fc:	0039883a 	mov	fp,zero
 5087800:	1001e926 	beq	r2,zero,5087fa8 <___vfprintf_internal_r+0xb2c>
 5087804:	0027883a 	mov	r19,zero
 5087808:	002d883a 	mov	r22,zero
 508780c:	00020506 	br	5088024 <___vfprintf_internal_r+0xba8>
 5087810:	d9002c17 	ldw	r4,176(sp)
 5087814:	b80b883a 	mov	r5,r23
 5087818:	50898700 	call	5089870 <__swsetup_r>
 508781c:	1005ac1e 	bne	r2,zero,5088ed0 <___vfprintf_internal_r+0x1a54>
 5087820:	b880030b 	ldhu	r2,12(r23)
 5087824:	00c00284 	movi	r3,10
 5087828:	1080068c 	andi	r2,r2,26
 508782c:	10ff3c1e 	bne	r2,r3,5087520 <___vfprintf_internal_r+0xa4>
 5087830:	b880038f 	ldh	r2,14(r23)
 5087834:	103f3a16 	blt	r2,zero,5087520 <___vfprintf_internal_r+0xa4>
 5087838:	d9c02d17 	ldw	r7,180(sp)
 508783c:	d9002c17 	ldw	r4,176(sp)
 5087840:	a80d883a 	mov	r6,r21
 5087844:	b80b883a 	mov	r5,r23
 5087848:	50896900 	call	5089690 <__sbprintf>
 508784c:	00001106 	br	5087894 <___vfprintf_internal_r+0x418>
 5087850:	d9002c17 	ldw	r4,176(sp)
 5087854:	d9801e04 	addi	r6,sp,120
 5087858:	b80b883a 	mov	r5,r23
 508785c:	508fd040 	call	508fd04 <__sprint_r>
 5087860:	1000081e 	bne	r2,zero,5087884 <___vfprintf_internal_r+0x408>
 5087864:	da000404 	addi	r8,sp,16
 5087868:	003f5306 	br	50875b8 <___vfprintf_internal_r+0x13c>
 508786c:	d8802017 	ldw	r2,128(sp)
 5087870:	10000426 	beq	r2,zero,5087884 <___vfprintf_internal_r+0x408>
 5087874:	d9002c17 	ldw	r4,176(sp)
 5087878:	d9801e04 	addi	r6,sp,120
 508787c:	b80b883a 	mov	r5,r23
 5087880:	508fd040 	call	508fd04 <__sprint_r>
 5087884:	b880030b 	ldhu	r2,12(r23)
 5087888:	1080100c 	andi	r2,r2,64
 508788c:	1005901e 	bne	r2,zero,5088ed0 <___vfprintf_internal_r+0x1a54>
 5087890:	d8802f17 	ldw	r2,188(sp)
 5087894:	dfc04717 	ldw	ra,284(sp)
 5087898:	df004617 	ldw	fp,280(sp)
 508789c:	ddc04517 	ldw	r23,276(sp)
 50878a0:	dd804417 	ldw	r22,272(sp)
 50878a4:	dd404317 	ldw	r21,268(sp)
 50878a8:	dd004217 	ldw	r20,264(sp)
 50878ac:	dcc04117 	ldw	r19,260(sp)
 50878b0:	dc804017 	ldw	r18,256(sp)
 50878b4:	dc403f17 	ldw	r17,252(sp)
 50878b8:	dc003e17 	ldw	r16,248(sp)
 50878bc:	dec04804 	addi	sp,sp,288
 50878c0:	f800283a 	ret
 50878c4:	d9002c17 	ldw	r4,176(sp)
 50878c8:	508b8440 	call	508b844 <__sinit>
 50878cc:	003f0406 	br	50874e0 <___vfprintf_internal_r+0x64>
 50878d0:	d8802d17 	ldw	r2,180(sp)
 50878d4:	d9002d17 	ldw	r4,180(sp)
 50878d8:	10800017 	ldw	r2,0(r2)
 50878dc:	d8803115 	stw	r2,196(sp)
 50878e0:	20800104 	addi	r2,r4,4
 50878e4:	d9003117 	ldw	r4,196(sp)
 50878e8:	203fa716 	blt	r4,zero,5087788 <___vfprintf_internal_r+0x30c>
 50878ec:	d8802d15 	stw	r2,180(sp)
 50878f0:	ac400007 	ldb	r17,0(r21)
 50878f4:	003f4206 	br	5087600 <___vfprintf_internal_r+0x184>
 50878f8:	ac400007 	ldb	r17,0(r21)
 50878fc:	aac00044 	addi	r11,r21,1
 5087900:	8a872826 	beq	r17,r10,50895a4 <___vfprintf_internal_r+0x2128>
 5087904:	88bff404 	addi	r2,r17,-48
 5087908:	0009883a 	mov	r4,zero
 508790c:	30867d36 	bltu	r6,r2,5089304 <___vfprintf_internal_r+0x1e88>
 5087910:	5c400007 	ldb	r17,0(r11)
 5087914:	210002a4 	muli	r4,r4,10
 5087918:	5d400044 	addi	r21,r11,1
 508791c:	a817883a 	mov	r11,r21
 5087920:	2089883a 	add	r4,r4,r2
 5087924:	88bff404 	addi	r2,r17,-48
 5087928:	30bff92e 	bgeu	r6,r2,5087910 <___vfprintf_internal_r+0x494>
 508792c:	2005c916 	blt	r4,zero,5089054 <___vfprintf_internal_r+0x1bd8>
 5087930:	d9002915 	stw	r4,164(sp)
 5087934:	003f3306 	br	5087604 <___vfprintf_internal_r+0x188>
 5087938:	94802014 	ori	r18,r18,128
 508793c:	ac400007 	ldb	r17,0(r21)
 5087940:	003f2f06 	br	5087600 <___vfprintf_internal_r+0x184>
 5087944:	a809883a 	mov	r4,r21
 5087948:	d8003115 	stw	zero,196(sp)
 508794c:	88bff404 	addi	r2,r17,-48
 5087950:	0017883a 	mov	r11,zero
 5087954:	24400007 	ldb	r17,0(r4)
 5087958:	5ac002a4 	muli	r11,r11,10
 508795c:	ad400044 	addi	r21,r21,1
 5087960:	a809883a 	mov	r4,r21
 5087964:	12d7883a 	add	r11,r2,r11
 5087968:	88bff404 	addi	r2,r17,-48
 508796c:	30bff92e 	bgeu	r6,r2,5087954 <___vfprintf_internal_r+0x4d8>
 5087970:	dac03115 	stw	r11,196(sp)
 5087974:	003f2306 	br	5087604 <___vfprintf_internal_r+0x188>
 5087978:	18c03fcc 	andi	r3,r3,255
 508797c:	18072b1e 	bne	r3,zero,508962c <___vfprintf_internal_r+0x21b0>
 5087980:	94800414 	ori	r18,r18,16
 5087984:	9080080c 	andi	r2,r18,32
 5087988:	10037b26 	beq	r2,zero,5088778 <___vfprintf_internal_r+0x12fc>
 508798c:	d9402d17 	ldw	r5,180(sp)
 5087990:	28800117 	ldw	r2,4(r5)
 5087994:	2cc00017 	ldw	r19,0(r5)
 5087998:	29400204 	addi	r5,r5,8
 508799c:	d9402d15 	stw	r5,180(sp)
 50879a0:	102d883a 	mov	r22,r2
 50879a4:	10044b16 	blt	r2,zero,5088ad4 <___vfprintf_internal_r+0x1658>
 50879a8:	d9402917 	ldw	r5,164(sp)
 50879ac:	df002783 	ldbu	fp,158(sp)
 50879b0:	2803bc16 	blt	r5,zero,50888a4 <___vfprintf_internal_r+0x1428>
 50879b4:	00ffdfc4 	movi	r3,-129
 50879b8:	9d84b03a 	or	r2,r19,r22
 50879bc:	90e4703a 	and	r18,r18,r3
 50879c0:	10017726 	beq	r2,zero,5087fa0 <___vfprintf_internal_r+0xb24>
 50879c4:	b0038326 	beq	r22,zero,50887d4 <___vfprintf_internal_r+0x1358>
 50879c8:	dc402a15 	stw	r17,168(sp)
 50879cc:	dc001e04 	addi	r16,sp,120
 50879d0:	b023883a 	mov	r17,r22
 50879d4:	402d883a 	mov	r22,r8
 50879d8:	9809883a 	mov	r4,r19
 50879dc:	880b883a 	mov	r5,r17
 50879e0:	01800284 	movi	r6,10
 50879e4:	000f883a 	mov	r7,zero
 50879e8:	50920fc0 	call	50920fc <__umoddi3>
 50879ec:	10800c04 	addi	r2,r2,48
 50879f0:	843fffc4 	addi	r16,r16,-1
 50879f4:	9809883a 	mov	r4,r19
 50879f8:	880b883a 	mov	r5,r17
 50879fc:	80800005 	stb	r2,0(r16)
 5087a00:	01800284 	movi	r6,10
 5087a04:	000f883a 	mov	r7,zero
 5087a08:	5091b840 	call	5091b84 <__udivdi3>
 5087a0c:	1027883a 	mov	r19,r2
 5087a10:	10c4b03a 	or	r2,r2,r3
 5087a14:	1823883a 	mov	r17,r3
 5087a18:	103fef1e 	bne	r2,zero,50879d8 <___vfprintf_internal_r+0x55c>
 5087a1c:	d8c02817 	ldw	r3,160(sp)
 5087a20:	dc402a17 	ldw	r17,168(sp)
 5087a24:	b011883a 	mov	r8,r22
 5087a28:	1c07c83a 	sub	r3,r3,r16
 5087a2c:	d8c02e15 	stw	r3,184(sp)
 5087a30:	00005906 	br	5087b98 <___vfprintf_internal_r+0x71c>
 5087a34:	18c03fcc 	andi	r3,r3,255
 5087a38:	1806fa1e 	bne	r3,zero,5089624 <___vfprintf_internal_r+0x21a8>
 5087a3c:	9080020c 	andi	r2,r18,8
 5087a40:	10048a26 	beq	r2,zero,5088c6c <___vfprintf_internal_r+0x17f0>
 5087a44:	d8c02d17 	ldw	r3,180(sp)
 5087a48:	d9002d17 	ldw	r4,180(sp)
 5087a4c:	d9402d17 	ldw	r5,180(sp)
 5087a50:	18c00017 	ldw	r3,0(r3)
 5087a54:	21000117 	ldw	r4,4(r4)
 5087a58:	29400204 	addi	r5,r5,8
 5087a5c:	d8c03615 	stw	r3,216(sp)
 5087a60:	d9003815 	stw	r4,224(sp)
 5087a64:	d9402d15 	stw	r5,180(sp)
 5087a68:	d9003617 	ldw	r4,216(sp)
 5087a6c:	d9403817 	ldw	r5,224(sp)
 5087a70:	da003d15 	stw	r8,244(sp)
 5087a74:	04000044 	movi	r16,1
 5087a78:	508e51c0 	call	508e51c <__fpclassifyd>
 5087a7c:	da003d17 	ldw	r8,244(sp)
 5087a80:	14041f1e 	bne	r2,r16,5088b00 <___vfprintf_internal_r+0x1684>
 5087a84:	d9003617 	ldw	r4,216(sp)
 5087a88:	d9403817 	ldw	r5,224(sp)
 5087a8c:	000d883a 	mov	r6,zero
 5087a90:	000f883a 	mov	r7,zero
 5087a94:	5083b1c0 	call	5083b1c <__ledf2>
 5087a98:	da003d17 	ldw	r8,244(sp)
 5087a9c:	1005be16 	blt	r2,zero,5089198 <___vfprintf_internal_r+0x1d1c>
 5087aa0:	df002783 	ldbu	fp,158(sp)
 5087aa4:	008011c4 	movi	r2,71
 5087aa8:	1445330e 	bge	r2,r17,5088f78 <___vfprintf_internal_r+0x1afc>
 5087aac:	04014274 	movhi	r16,1289
 5087ab0:	841a3804 	addi	r16,r16,26848
 5087ab4:	00c000c4 	movi	r3,3
 5087ab8:	00bfdfc4 	movi	r2,-129
 5087abc:	d8c02a15 	stw	r3,168(sp)
 5087ac0:	90a4703a 	and	r18,r18,r2
 5087ac4:	d8c02e15 	stw	r3,184(sp)
 5087ac8:	d8002915 	stw	zero,164(sp)
 5087acc:	d8003215 	stw	zero,200(sp)
 5087ad0:	00003706 	br	5087bb0 <___vfprintf_internal_r+0x734>
 5087ad4:	94800214 	ori	r18,r18,8
 5087ad8:	ac400007 	ldb	r17,0(r21)
 5087adc:	003ec806 	br	5087600 <___vfprintf_internal_r+0x184>
 5087ae0:	18c03fcc 	andi	r3,r3,255
 5087ae4:	1806db1e 	bne	r3,zero,5089654 <___vfprintf_internal_r+0x21d8>
 5087ae8:	94800414 	ori	r18,r18,16
 5087aec:	9080080c 	andi	r2,r18,32
 5087af0:	1002d826 	beq	r2,zero,5088654 <___vfprintf_internal_r+0x11d8>
 5087af4:	d9402d17 	ldw	r5,180(sp)
 5087af8:	d8c02917 	ldw	r3,164(sp)
 5087afc:	d8002785 	stb	zero,158(sp)
 5087b00:	28800204 	addi	r2,r5,8
 5087b04:	2cc00017 	ldw	r19,0(r5)
 5087b08:	2d800117 	ldw	r22,4(r5)
 5087b0c:	18048f16 	blt	r3,zero,5088d4c <___vfprintf_internal_r+0x18d0>
 5087b10:	013fdfc4 	movi	r4,-129
 5087b14:	9d86b03a 	or	r3,r19,r22
 5087b18:	d8802d15 	stw	r2,180(sp)
 5087b1c:	9124703a 	and	r18,r18,r4
 5087b20:	1802d91e 	bne	r3,zero,5088688 <___vfprintf_internal_r+0x120c>
 5087b24:	d8c02917 	ldw	r3,164(sp)
 5087b28:	0039883a 	mov	fp,zero
 5087b2c:	1805c326 	beq	r3,zero,508923c <___vfprintf_internal_r+0x1dc0>
 5087b30:	0027883a 	mov	r19,zero
 5087b34:	002d883a 	mov	r22,zero
 5087b38:	dc001e04 	addi	r16,sp,120
 5087b3c:	9806d0fa 	srli	r3,r19,3
 5087b40:	b008977a 	slli	r4,r22,29
 5087b44:	b02cd0fa 	srli	r22,r22,3
 5087b48:	9cc001cc 	andi	r19,r19,7
 5087b4c:	98800c04 	addi	r2,r19,48
 5087b50:	843fffc4 	addi	r16,r16,-1
 5087b54:	20e6b03a 	or	r19,r4,r3
 5087b58:	80800005 	stb	r2,0(r16)
 5087b5c:	9d86b03a 	or	r3,r19,r22
 5087b60:	183ff61e 	bne	r3,zero,5087b3c <___vfprintf_internal_r+0x6c0>
 5087b64:	90c0004c 	andi	r3,r18,1
 5087b68:	18013b26 	beq	r3,zero,5088058 <___vfprintf_internal_r+0xbdc>
 5087b6c:	10803fcc 	andi	r2,r2,255
 5087b70:	1080201c 	xori	r2,r2,128
 5087b74:	10bfe004 	addi	r2,r2,-128
 5087b78:	00c00c04 	movi	r3,48
 5087b7c:	10c13626 	beq	r2,r3,5088058 <___vfprintf_internal_r+0xbdc>
 5087b80:	80ffffc5 	stb	r3,-1(r16)
 5087b84:	d8c02817 	ldw	r3,160(sp)
 5087b88:	80bfffc4 	addi	r2,r16,-1
 5087b8c:	1021883a 	mov	r16,r2
 5087b90:	1887c83a 	sub	r3,r3,r2
 5087b94:	d8c02e15 	stw	r3,184(sp)
 5087b98:	d8802e17 	ldw	r2,184(sp)
 5087b9c:	d9002917 	ldw	r4,164(sp)
 5087ba0:	1100010e 	bge	r2,r4,5087ba8 <___vfprintf_internal_r+0x72c>
 5087ba4:	2005883a 	mov	r2,r4
 5087ba8:	d8802a15 	stw	r2,168(sp)
 5087bac:	d8003215 	stw	zero,200(sp)
 5087bb0:	e7003fcc 	andi	fp,fp,255
 5087bb4:	e700201c 	xori	fp,fp,128
 5087bb8:	e73fe004 	addi	fp,fp,-128
 5087bbc:	e0000326 	beq	fp,zero,5087bcc <___vfprintf_internal_r+0x750>
 5087bc0:	d8c02a17 	ldw	r3,168(sp)
 5087bc4:	18c00044 	addi	r3,r3,1
 5087bc8:	d8c02a15 	stw	r3,168(sp)
 5087bcc:	90c0008c 	andi	r3,r18,2
 5087bd0:	d8c02b15 	stw	r3,172(sp)
 5087bd4:	18000326 	beq	r3,zero,5087be4 <___vfprintf_internal_r+0x768>
 5087bd8:	d8c02a17 	ldw	r3,168(sp)
 5087bdc:	18c00084 	addi	r3,r3,2
 5087be0:	d8c02a15 	stw	r3,168(sp)
 5087be4:	90c0210c 	andi	r3,r18,132
 5087be8:	d8c03015 	stw	r3,192(sp)
 5087bec:	1801a31e 	bne	r3,zero,508827c <___vfprintf_internal_r+0xe00>
 5087bf0:	d9003117 	ldw	r4,196(sp)
 5087bf4:	d8c02a17 	ldw	r3,168(sp)
 5087bf8:	20e7c83a 	sub	r19,r4,r3
 5087bfc:	04c19f0e 	bge	zero,r19,508827c <___vfprintf_internal_r+0xe00>
 5087c00:	02400404 	movi	r9,16
 5087c04:	d8c02017 	ldw	r3,128(sp)
 5087c08:	d8801f17 	ldw	r2,124(sp)
 5087c0c:	4cc50d0e 	bge	r9,r19,5089044 <___vfprintf_internal_r+0x1bc8>
 5087c10:	01414274 	movhi	r5,1289
 5087c14:	295a5384 	addi	r5,r5,26958
 5087c18:	dc403b15 	stw	r17,236(sp)
 5087c1c:	d9403515 	stw	r5,212(sp)
 5087c20:	9823883a 	mov	r17,r19
 5087c24:	482d883a 	mov	r22,r9
 5087c28:	9027883a 	mov	r19,r18
 5087c2c:	070001c4 	movi	fp,7
 5087c30:	8025883a 	mov	r18,r16
 5087c34:	dc002c17 	ldw	r16,176(sp)
 5087c38:	00000306 	br	5087c48 <___vfprintf_internal_r+0x7cc>
 5087c3c:	8c7ffc04 	addi	r17,r17,-16
 5087c40:	42000204 	addi	r8,r8,8
 5087c44:	b440130e 	bge	r22,r17,5087c94 <___vfprintf_internal_r+0x818>
 5087c48:	01014274 	movhi	r4,1289
 5087c4c:	18c00404 	addi	r3,r3,16
 5087c50:	10800044 	addi	r2,r2,1
 5087c54:	211a5384 	addi	r4,r4,26958
 5087c58:	41000015 	stw	r4,0(r8)
 5087c5c:	45800115 	stw	r22,4(r8)
 5087c60:	d8c02015 	stw	r3,128(sp)
 5087c64:	d8801f15 	stw	r2,124(sp)
 5087c68:	e0bff40e 	bge	fp,r2,5087c3c <___vfprintf_internal_r+0x7c0>
 5087c6c:	d9801e04 	addi	r6,sp,120
 5087c70:	b80b883a 	mov	r5,r23
 5087c74:	8009883a 	mov	r4,r16
 5087c78:	508fd040 	call	508fd04 <__sprint_r>
 5087c7c:	103f011e 	bne	r2,zero,5087884 <___vfprintf_internal_r+0x408>
 5087c80:	8c7ffc04 	addi	r17,r17,-16
 5087c84:	d8c02017 	ldw	r3,128(sp)
 5087c88:	d8801f17 	ldw	r2,124(sp)
 5087c8c:	da000404 	addi	r8,sp,16
 5087c90:	b47fed16 	blt	r22,r17,5087c48 <___vfprintf_internal_r+0x7cc>
 5087c94:	9021883a 	mov	r16,r18
 5087c98:	9825883a 	mov	r18,r19
 5087c9c:	8827883a 	mov	r19,r17
 5087ca0:	dc403b17 	ldw	r17,236(sp)
 5087ca4:	d9403517 	ldw	r5,212(sp)
 5087ca8:	98c7883a 	add	r3,r19,r3
 5087cac:	10800044 	addi	r2,r2,1
 5087cb0:	41400015 	stw	r5,0(r8)
 5087cb4:	44c00115 	stw	r19,4(r8)
 5087cb8:	d8c02015 	stw	r3,128(sp)
 5087cbc:	d8801f15 	stw	r2,124(sp)
 5087cc0:	010001c4 	movi	r4,7
 5087cc4:	2082a316 	blt	r4,r2,5088754 <___vfprintf_internal_r+0x12d8>
 5087cc8:	df002787 	ldb	fp,158(sp)
 5087ccc:	42000204 	addi	r8,r8,8
 5087cd0:	e0000c26 	beq	fp,zero,5087d04 <___vfprintf_internal_r+0x888>
 5087cd4:	d8801f17 	ldw	r2,124(sp)
 5087cd8:	d9002784 	addi	r4,sp,158
 5087cdc:	18c00044 	addi	r3,r3,1
 5087ce0:	10800044 	addi	r2,r2,1
 5087ce4:	41000015 	stw	r4,0(r8)
 5087ce8:	01000044 	movi	r4,1
 5087cec:	41000115 	stw	r4,4(r8)
 5087cf0:	d8c02015 	stw	r3,128(sp)
 5087cf4:	d8801f15 	stw	r2,124(sp)
 5087cf8:	010001c4 	movi	r4,7
 5087cfc:	20823c16 	blt	r4,r2,50885f0 <___vfprintf_internal_r+0x1174>
 5087d00:	42000204 	addi	r8,r8,8
 5087d04:	d8802b17 	ldw	r2,172(sp)
 5087d08:	10000c26 	beq	r2,zero,5087d3c <___vfprintf_internal_r+0x8c0>
 5087d0c:	d8801f17 	ldw	r2,124(sp)
 5087d10:	d9002704 	addi	r4,sp,156
 5087d14:	18c00084 	addi	r3,r3,2
 5087d18:	10800044 	addi	r2,r2,1
 5087d1c:	41000015 	stw	r4,0(r8)
 5087d20:	01000084 	movi	r4,2
 5087d24:	41000115 	stw	r4,4(r8)
 5087d28:	d8c02015 	stw	r3,128(sp)
 5087d2c:	d8801f15 	stw	r2,124(sp)
 5087d30:	010001c4 	movi	r4,7
 5087d34:	20823616 	blt	r4,r2,5088610 <___vfprintf_internal_r+0x1194>
 5087d38:	42000204 	addi	r8,r8,8
 5087d3c:	d9003017 	ldw	r4,192(sp)
 5087d40:	00802004 	movi	r2,128
 5087d44:	20819926 	beq	r4,r2,50883ac <___vfprintf_internal_r+0xf30>
 5087d48:	d9402917 	ldw	r5,164(sp)
 5087d4c:	d8802e17 	ldw	r2,184(sp)
 5087d50:	28adc83a 	sub	r22,r5,r2
 5087d54:	0580310e 	bge	zero,r22,5087e1c <___vfprintf_internal_r+0x9a0>
 5087d58:	07000404 	movi	fp,16
 5087d5c:	d8801f17 	ldw	r2,124(sp)
 5087d60:	e584140e 	bge	fp,r22,5088db4 <___vfprintf_internal_r+0x1938>
 5087d64:	01414274 	movhi	r5,1289
 5087d68:	295a4f84 	addi	r5,r5,26942
 5087d6c:	dc402915 	stw	r17,164(sp)
 5087d70:	d9402b15 	stw	r5,172(sp)
 5087d74:	b023883a 	mov	r17,r22
 5087d78:	04c001c4 	movi	r19,7
 5087d7c:	a82d883a 	mov	r22,r21
 5087d80:	902b883a 	mov	r21,r18
 5087d84:	8025883a 	mov	r18,r16
 5087d88:	dc002c17 	ldw	r16,176(sp)
 5087d8c:	00000306 	br	5087d9c <___vfprintf_internal_r+0x920>
 5087d90:	8c7ffc04 	addi	r17,r17,-16
 5087d94:	42000204 	addi	r8,r8,8
 5087d98:	e440110e 	bge	fp,r17,5087de0 <___vfprintf_internal_r+0x964>
 5087d9c:	18c00404 	addi	r3,r3,16
 5087da0:	10800044 	addi	r2,r2,1
 5087da4:	45000015 	stw	r20,0(r8)
 5087da8:	47000115 	stw	fp,4(r8)
 5087dac:	d8c02015 	stw	r3,128(sp)
 5087db0:	d8801f15 	stw	r2,124(sp)
 5087db4:	98bff60e 	bge	r19,r2,5087d90 <___vfprintf_internal_r+0x914>
 5087db8:	d9801e04 	addi	r6,sp,120
 5087dbc:	b80b883a 	mov	r5,r23
 5087dc0:	8009883a 	mov	r4,r16
 5087dc4:	508fd040 	call	508fd04 <__sprint_r>
 5087dc8:	103eae1e 	bne	r2,zero,5087884 <___vfprintf_internal_r+0x408>
 5087dcc:	8c7ffc04 	addi	r17,r17,-16
 5087dd0:	d8c02017 	ldw	r3,128(sp)
 5087dd4:	d8801f17 	ldw	r2,124(sp)
 5087dd8:	da000404 	addi	r8,sp,16
 5087ddc:	e47fef16 	blt	fp,r17,5087d9c <___vfprintf_internal_r+0x920>
 5087de0:	9021883a 	mov	r16,r18
 5087de4:	a825883a 	mov	r18,r21
 5087de8:	b02b883a 	mov	r21,r22
 5087dec:	882d883a 	mov	r22,r17
 5087df0:	dc402917 	ldw	r17,164(sp)
 5087df4:	d9002b17 	ldw	r4,172(sp)
 5087df8:	1d87883a 	add	r3,r3,r22
 5087dfc:	10800044 	addi	r2,r2,1
 5087e00:	41000015 	stw	r4,0(r8)
 5087e04:	45800115 	stw	r22,4(r8)
 5087e08:	d8c02015 	stw	r3,128(sp)
 5087e0c:	d8801f15 	stw	r2,124(sp)
 5087e10:	010001c4 	movi	r4,7
 5087e14:	2081ee16 	blt	r4,r2,50885d0 <___vfprintf_internal_r+0x1154>
 5087e18:	42000204 	addi	r8,r8,8
 5087e1c:	9080400c 	andi	r2,r18,256
 5087e20:	1001181e 	bne	r2,zero,5088284 <___vfprintf_internal_r+0xe08>
 5087e24:	d9402e17 	ldw	r5,184(sp)
 5087e28:	d8801f17 	ldw	r2,124(sp)
 5087e2c:	44000015 	stw	r16,0(r8)
 5087e30:	1947883a 	add	r3,r3,r5
 5087e34:	10800044 	addi	r2,r2,1
 5087e38:	41400115 	stw	r5,4(r8)
 5087e3c:	d8c02015 	stw	r3,128(sp)
 5087e40:	d8801f15 	stw	r2,124(sp)
 5087e44:	010001c4 	movi	r4,7
 5087e48:	2081d316 	blt	r4,r2,5088598 <___vfprintf_internal_r+0x111c>
 5087e4c:	42000204 	addi	r8,r8,8
 5087e50:	9480010c 	andi	r18,r18,4
 5087e54:	90003226 	beq	r18,zero,5087f20 <___vfprintf_internal_r+0xaa4>
 5087e58:	d9403117 	ldw	r5,196(sp)
 5087e5c:	d8802a17 	ldw	r2,168(sp)
 5087e60:	28a1c83a 	sub	r16,r5,r2
 5087e64:	04002e0e 	bge	zero,r16,5087f20 <___vfprintf_internal_r+0xaa4>
 5087e68:	04400404 	movi	r17,16
 5087e6c:	d8801f17 	ldw	r2,124(sp)
 5087e70:	8c04a20e 	bge	r17,r16,50890fc <___vfprintf_internal_r+0x1c80>
 5087e74:	01414274 	movhi	r5,1289
 5087e78:	295a5384 	addi	r5,r5,26958
 5087e7c:	d9403515 	stw	r5,212(sp)
 5087e80:	048001c4 	movi	r18,7
 5087e84:	dcc02c17 	ldw	r19,176(sp)
 5087e88:	00000306 	br	5087e98 <___vfprintf_internal_r+0xa1c>
 5087e8c:	843ffc04 	addi	r16,r16,-16
 5087e90:	42000204 	addi	r8,r8,8
 5087e94:	8c00130e 	bge	r17,r16,5087ee4 <___vfprintf_internal_r+0xa68>
 5087e98:	01014274 	movhi	r4,1289
 5087e9c:	18c00404 	addi	r3,r3,16
 5087ea0:	10800044 	addi	r2,r2,1
 5087ea4:	211a5384 	addi	r4,r4,26958
 5087ea8:	41000015 	stw	r4,0(r8)
 5087eac:	44400115 	stw	r17,4(r8)
 5087eb0:	d8c02015 	stw	r3,128(sp)
 5087eb4:	d8801f15 	stw	r2,124(sp)
 5087eb8:	90bff40e 	bge	r18,r2,5087e8c <___vfprintf_internal_r+0xa10>
 5087ebc:	d9801e04 	addi	r6,sp,120
 5087ec0:	b80b883a 	mov	r5,r23
 5087ec4:	9809883a 	mov	r4,r19
 5087ec8:	508fd040 	call	508fd04 <__sprint_r>
 5087ecc:	103e6d1e 	bne	r2,zero,5087884 <___vfprintf_internal_r+0x408>
 5087ed0:	843ffc04 	addi	r16,r16,-16
 5087ed4:	d8c02017 	ldw	r3,128(sp)
 5087ed8:	d8801f17 	ldw	r2,124(sp)
 5087edc:	da000404 	addi	r8,sp,16
 5087ee0:	8c3fed16 	blt	r17,r16,5087e98 <___vfprintf_internal_r+0xa1c>
 5087ee4:	d9403517 	ldw	r5,212(sp)
 5087ee8:	1c07883a 	add	r3,r3,r16
 5087eec:	10800044 	addi	r2,r2,1
 5087ef0:	41400015 	stw	r5,0(r8)
 5087ef4:	44000115 	stw	r16,4(r8)
 5087ef8:	d8c02015 	stw	r3,128(sp)
 5087efc:	d8801f15 	stw	r2,124(sp)
 5087f00:	010001c4 	movi	r4,7
 5087f04:	2080060e 	bge	r4,r2,5087f20 <___vfprintf_internal_r+0xaa4>
 5087f08:	d9002c17 	ldw	r4,176(sp)
 5087f0c:	d9801e04 	addi	r6,sp,120
 5087f10:	b80b883a 	mov	r5,r23
 5087f14:	508fd040 	call	508fd04 <__sprint_r>
 5087f18:	103e5a1e 	bne	r2,zero,5087884 <___vfprintf_internal_r+0x408>
 5087f1c:	d8c02017 	ldw	r3,128(sp)
 5087f20:	d8803117 	ldw	r2,196(sp)
 5087f24:	d9002a17 	ldw	r4,168(sp)
 5087f28:	1100010e 	bge	r2,r4,5087f30 <___vfprintf_internal_r+0xab4>
 5087f2c:	2005883a 	mov	r2,r4
 5087f30:	d9402f17 	ldw	r5,188(sp)
 5087f34:	288b883a 	add	r5,r5,r2
 5087f38:	d9402f15 	stw	r5,188(sp)
 5087f3c:	18019e1e 	bne	r3,zero,50885b8 <___vfprintf_internal_r+0x113c>
 5087f40:	a8800007 	ldb	r2,0(r21)
 5087f44:	d8001f15 	stw	zero,124(sp)
 5087f48:	da000404 	addi	r8,sp,16
 5087f4c:	103d851e 	bne	r2,zero,5087564 <___vfprintf_internal_r+0xe8>
 5087f50:	a821883a 	mov	r16,r21
 5087f54:	003d9b06 	br	50875c4 <___vfprintf_internal_r+0x148>
 5087f58:	18c03fcc 	andi	r3,r3,255
 5087f5c:	1805c11e 	bne	r3,zero,5089664 <___vfprintf_internal_r+0x21e8>
 5087f60:	94800414 	ori	r18,r18,16
 5087f64:	9080080c 	andi	r2,r18,32
 5087f68:	10020c26 	beq	r2,zero,508879c <___vfprintf_internal_r+0x1320>
 5087f6c:	d8802d17 	ldw	r2,180(sp)
 5087f70:	d9002917 	ldw	r4,164(sp)
 5087f74:	d8002785 	stb	zero,158(sp)
 5087f78:	10c00204 	addi	r3,r2,8
 5087f7c:	14c00017 	ldw	r19,0(r2)
 5087f80:	15800117 	ldw	r22,4(r2)
 5087f84:	20040f16 	blt	r4,zero,5088fc4 <___vfprintf_internal_r+0x1b48>
 5087f88:	013fdfc4 	movi	r4,-129
 5087f8c:	9d84b03a 	or	r2,r19,r22
 5087f90:	d8c02d15 	stw	r3,180(sp)
 5087f94:	9124703a 	and	r18,r18,r4
 5087f98:	0039883a 	mov	fp,zero
 5087f9c:	103e891e 	bne	r2,zero,50879c4 <___vfprintf_internal_r+0x548>
 5087fa0:	d9002917 	ldw	r4,164(sp)
 5087fa4:	2002c11e 	bne	r4,zero,5088aac <___vfprintf_internal_r+0x1630>
 5087fa8:	d8002915 	stw	zero,164(sp)
 5087fac:	d8002e15 	stw	zero,184(sp)
 5087fb0:	dc001e04 	addi	r16,sp,120
 5087fb4:	003ef806 	br	5087b98 <___vfprintf_internal_r+0x71c>
 5087fb8:	18c03fcc 	andi	r3,r3,255
 5087fbc:	18059d1e 	bne	r3,zero,5089634 <___vfprintf_internal_r+0x21b8>
 5087fc0:	01414274 	movhi	r5,1289
 5087fc4:	295a3b04 	addi	r5,r5,26860
 5087fc8:	d9403915 	stw	r5,228(sp)
 5087fcc:	9080080c 	andi	r2,r18,32
 5087fd0:	10005226 	beq	r2,zero,508811c <___vfprintf_internal_r+0xca0>
 5087fd4:	d8802d17 	ldw	r2,180(sp)
 5087fd8:	14c00017 	ldw	r19,0(r2)
 5087fdc:	15800117 	ldw	r22,4(r2)
 5087fe0:	10800204 	addi	r2,r2,8
 5087fe4:	d8802d15 	stw	r2,180(sp)
 5087fe8:	9080004c 	andi	r2,r18,1
 5087fec:	10019026 	beq	r2,zero,5088630 <___vfprintf_internal_r+0x11b4>
 5087ff0:	9d84b03a 	or	r2,r19,r22
 5087ff4:	10036926 	beq	r2,zero,5088d9c <___vfprintf_internal_r+0x1920>
 5087ff8:	d8c02917 	ldw	r3,164(sp)
 5087ffc:	00800c04 	movi	r2,48
 5088000:	d8802705 	stb	r2,156(sp)
 5088004:	dc402745 	stb	r17,157(sp)
 5088008:	d8002785 	stb	zero,158(sp)
 508800c:	90800094 	ori	r2,r18,2
 5088010:	18045d16 	blt	r3,zero,5089188 <___vfprintf_internal_r+0x1d0c>
 5088014:	00bfdfc4 	movi	r2,-129
 5088018:	90a4703a 	and	r18,r18,r2
 508801c:	94800094 	ori	r18,r18,2
 5088020:	0039883a 	mov	fp,zero
 5088024:	d9003917 	ldw	r4,228(sp)
 5088028:	dc001e04 	addi	r16,sp,120
 508802c:	988003cc 	andi	r2,r19,15
 5088030:	b006973a 	slli	r3,r22,28
 5088034:	2085883a 	add	r2,r4,r2
 5088038:	9826d13a 	srli	r19,r19,4
 508803c:	10800003 	ldbu	r2,0(r2)
 5088040:	b02cd13a 	srli	r22,r22,4
 5088044:	843fffc4 	addi	r16,r16,-1
 5088048:	1ce6b03a 	or	r19,r3,r19
 508804c:	80800005 	stb	r2,0(r16)
 5088050:	9d84b03a 	or	r2,r19,r22
 5088054:	103ff51e 	bne	r2,zero,508802c <___vfprintf_internal_r+0xbb0>
 5088058:	d8c02817 	ldw	r3,160(sp)
 508805c:	1c07c83a 	sub	r3,r3,r16
 5088060:	d8c02e15 	stw	r3,184(sp)
 5088064:	003ecc06 	br	5087b98 <___vfprintf_internal_r+0x71c>
 5088068:	18c03fcc 	andi	r3,r3,255
 508806c:	183e9f26 	beq	r3,zero,5087aec <___vfprintf_internal_r+0x670>
 5088070:	d9c02785 	stb	r7,158(sp)
 5088074:	003e9d06 	br	5087aec <___vfprintf_internal_r+0x670>
 5088078:	00c00044 	movi	r3,1
 508807c:	01c00ac4 	movi	r7,43
 5088080:	ac400007 	ldb	r17,0(r21)
 5088084:	003d5e06 	br	5087600 <___vfprintf_internal_r+0x184>
 5088088:	94800814 	ori	r18,r18,32
 508808c:	ac400007 	ldb	r17,0(r21)
 5088090:	003d5b06 	br	5087600 <___vfprintf_internal_r+0x184>
 5088094:	d8c02d17 	ldw	r3,180(sp)
 5088098:	d8002785 	stb	zero,158(sp)
 508809c:	1c000017 	ldw	r16,0(r3)
 50880a0:	1cc00104 	addi	r19,r3,4
 50880a4:	80041926 	beq	r16,zero,508910c <___vfprintf_internal_r+0x1c90>
 50880a8:	d9002917 	ldw	r4,164(sp)
 50880ac:	2003d016 	blt	r4,zero,5088ff0 <___vfprintf_internal_r+0x1b74>
 50880b0:	200d883a 	mov	r6,r4
 50880b4:	000b883a 	mov	r5,zero
 50880b8:	8009883a 	mov	r4,r16
 50880bc:	da003d15 	stw	r8,244(sp)
 50880c0:	508cdb00 	call	508cdb0 <memchr>
 50880c4:	da003d17 	ldw	r8,244(sp)
 50880c8:	10045426 	beq	r2,zero,508921c <___vfprintf_internal_r+0x1da0>
 50880cc:	1405c83a 	sub	r2,r2,r16
 50880d0:	d8802e15 	stw	r2,184(sp)
 50880d4:	1003cc16 	blt	r2,zero,5089008 <___vfprintf_internal_r+0x1b8c>
 50880d8:	df002783 	ldbu	fp,158(sp)
 50880dc:	d8802a15 	stw	r2,168(sp)
 50880e0:	dcc02d15 	stw	r19,180(sp)
 50880e4:	d8002915 	stw	zero,164(sp)
 50880e8:	d8003215 	stw	zero,200(sp)
 50880ec:	003eb006 	br	5087bb0 <___vfprintf_internal_r+0x734>
 50880f0:	18c03fcc 	andi	r3,r3,255
 50880f4:	183f9b26 	beq	r3,zero,5087f64 <___vfprintf_internal_r+0xae8>
 50880f8:	d9c02785 	stb	r7,158(sp)
 50880fc:	003f9906 	br	5087f64 <___vfprintf_internal_r+0xae8>
 5088100:	18c03fcc 	andi	r3,r3,255
 5088104:	1805551e 	bne	r3,zero,508965c <___vfprintf_internal_r+0x21e0>
 5088108:	01414274 	movhi	r5,1289
 508810c:	295a4004 	addi	r5,r5,26880
 5088110:	d9403915 	stw	r5,228(sp)
 5088114:	9080080c 	andi	r2,r18,32
 5088118:	103fae1e 	bne	r2,zero,5087fd4 <___vfprintf_internal_r+0xb58>
 508811c:	9080040c 	andi	r2,r18,16
 5088120:	1002de26 	beq	r2,zero,5088c9c <___vfprintf_internal_r+0x1820>
 5088124:	d8c02d17 	ldw	r3,180(sp)
 5088128:	002d883a 	mov	r22,zero
 508812c:	1cc00017 	ldw	r19,0(r3)
 5088130:	18c00104 	addi	r3,r3,4
 5088134:	d8c02d15 	stw	r3,180(sp)
 5088138:	003fab06 	br	5087fe8 <___vfprintf_internal_r+0xb6c>
 508813c:	38803fcc 	andi	r2,r7,255
 5088140:	1080201c 	xori	r2,r2,128
 5088144:	10bfe004 	addi	r2,r2,-128
 5088148:	1002d21e 	bne	r2,zero,5088c94 <___vfprintf_internal_r+0x1818>
 508814c:	00c00044 	movi	r3,1
 5088150:	01c00804 	movi	r7,32
 5088154:	ac400007 	ldb	r17,0(r21)
 5088158:	003d2906 	br	5087600 <___vfprintf_internal_r+0x184>
 508815c:	94800054 	ori	r18,r18,1
 5088160:	ac400007 	ldb	r17,0(r21)
 5088164:	003d2606 	br	5087600 <___vfprintf_internal_r+0x184>
 5088168:	18c03fcc 	andi	r3,r3,255
 508816c:	183e0526 	beq	r3,zero,5087984 <___vfprintf_internal_r+0x508>
 5088170:	d9c02785 	stb	r7,158(sp)
 5088174:	003e0306 	br	5087984 <___vfprintf_internal_r+0x508>
 5088178:	94801014 	ori	r18,r18,64
 508817c:	ac400007 	ldb	r17,0(r21)
 5088180:	003d1f06 	br	5087600 <___vfprintf_internal_r+0x184>
 5088184:	ac400007 	ldb	r17,0(r21)
 5088188:	8a438726 	beq	r17,r9,5088fa8 <___vfprintf_internal_r+0x1b2c>
 508818c:	94800414 	ori	r18,r18,16
 5088190:	003d1b06 	br	5087600 <___vfprintf_internal_r+0x184>
 5088194:	18c03fcc 	andi	r3,r3,255
 5088198:	1805341e 	bne	r3,zero,508966c <___vfprintf_internal_r+0x21f0>
 508819c:	9080080c 	andi	r2,r18,32
 50881a0:	1002cd26 	beq	r2,zero,5088cd8 <___vfprintf_internal_r+0x185c>
 50881a4:	d9402d17 	ldw	r5,180(sp)
 50881a8:	d9002f17 	ldw	r4,188(sp)
 50881ac:	28800017 	ldw	r2,0(r5)
 50881b0:	2007d7fa 	srai	r3,r4,31
 50881b4:	29400104 	addi	r5,r5,4
 50881b8:	d9402d15 	stw	r5,180(sp)
 50881bc:	11000015 	stw	r4,0(r2)
 50881c0:	10c00115 	stw	r3,4(r2)
 50881c4:	003ce506 	br	508755c <___vfprintf_internal_r+0xe0>
 50881c8:	d8c02d17 	ldw	r3,180(sp)
 50881cc:	d9002d17 	ldw	r4,180(sp)
 50881d0:	d8002785 	stb	zero,158(sp)
 50881d4:	18800017 	ldw	r2,0(r3)
 50881d8:	21000104 	addi	r4,r4,4
 50881dc:	00c00044 	movi	r3,1
 50881e0:	d8c02a15 	stw	r3,168(sp)
 50881e4:	d8801405 	stb	r2,80(sp)
 50881e8:	d9002d15 	stw	r4,180(sp)
 50881ec:	d8c02e15 	stw	r3,184(sp)
 50881f0:	d8002915 	stw	zero,164(sp)
 50881f4:	d8003215 	stw	zero,200(sp)
 50881f8:	dc001404 	addi	r16,sp,80
 50881fc:	0039883a 	mov	fp,zero
 5088200:	003e7206 	br	5087bcc <___vfprintf_internal_r+0x750>
 5088204:	01014274 	movhi	r4,1289
 5088208:	211a4004 	addi	r4,r4,26880
 508820c:	0039883a 	mov	fp,zero
 5088210:	d9003915 	stw	r4,228(sp)
 5088214:	04401e04 	movi	r17,120
 5088218:	003f8206 	br	5088024 <___vfprintf_internal_r+0xba8>
 508821c:	18c03fcc 	andi	r3,r3,255
 5088220:	1805061e 	bne	r3,zero,508963c <___vfprintf_internal_r+0x21c0>
 5088224:	883d9126 	beq	r17,zero,508786c <___vfprintf_internal_r+0x3f0>
 5088228:	00c00044 	movi	r3,1
 508822c:	d8c02a15 	stw	r3,168(sp)
 5088230:	dc401405 	stb	r17,80(sp)
 5088234:	d8002785 	stb	zero,158(sp)
 5088238:	003fec06 	br	50881ec <___vfprintf_internal_r+0xd70>
 508823c:	01414274 	movhi	r5,1289
 5088240:	295a4004 	addi	r5,r5,26880
 5088244:	d9403915 	stw	r5,228(sp)
 5088248:	d8c02d15 	stw	r3,180(sp)
 508824c:	1025883a 	mov	r18,r2
 5088250:	04401e04 	movi	r17,120
 5088254:	9d84b03a 	or	r2,r19,r22
 5088258:	1000fc1e 	bne	r2,zero,508864c <___vfprintf_internal_r+0x11d0>
 508825c:	0039883a 	mov	fp,zero
 5088260:	00800084 	movi	r2,2
 5088264:	10803fcc 	andi	r2,r2,255
 5088268:	00c00044 	movi	r3,1
 508826c:	10c20f26 	beq	r2,r3,5088aac <___vfprintf_internal_r+0x1630>
 5088270:	00c00084 	movi	r3,2
 5088274:	10fd6326 	beq	r2,r3,5087804 <___vfprintf_internal_r+0x388>
 5088278:	003e2d06 	br	5087b30 <___vfprintf_internal_r+0x6b4>
 508827c:	d8c02017 	ldw	r3,128(sp)
 5088280:	003e9306 	br	5087cd0 <___vfprintf_internal_r+0x854>
 5088284:	00801944 	movi	r2,101
 5088288:	14407e0e 	bge	r2,r17,5088484 <___vfprintf_internal_r+0x1008>
 508828c:	d9003617 	ldw	r4,216(sp)
 5088290:	d9403817 	ldw	r5,224(sp)
 5088294:	000d883a 	mov	r6,zero
 5088298:	000f883a 	mov	r7,zero
 508829c:	d8c03c15 	stw	r3,240(sp)
 50882a0:	da003d15 	stw	r8,244(sp)
 50882a4:	5092f1c0 	call	5092f1c <__eqdf2>
 50882a8:	d8c03c17 	ldw	r3,240(sp)
 50882ac:	da003d17 	ldw	r8,244(sp)
 50882b0:	1000f71e 	bne	r2,zero,5088690 <___vfprintf_internal_r+0x1214>
 50882b4:	d8801f17 	ldw	r2,124(sp)
 50882b8:	01014274 	movhi	r4,1289
 50882bc:	211a4704 	addi	r4,r4,26908
 50882c0:	18c00044 	addi	r3,r3,1
 50882c4:	10800044 	addi	r2,r2,1
 50882c8:	41000015 	stw	r4,0(r8)
 50882cc:	01000044 	movi	r4,1
 50882d0:	41000115 	stw	r4,4(r8)
 50882d4:	d8c02015 	stw	r3,128(sp)
 50882d8:	d8801f15 	stw	r2,124(sp)
 50882dc:	010001c4 	movi	r4,7
 50882e0:	2082b816 	blt	r4,r2,5088dc4 <___vfprintf_internal_r+0x1948>
 50882e4:	42000204 	addi	r8,r8,8
 50882e8:	d8802617 	ldw	r2,152(sp)
 50882ec:	d9403317 	ldw	r5,204(sp)
 50882f0:	11400216 	blt	r2,r5,50882fc <___vfprintf_internal_r+0xe80>
 50882f4:	9080004c 	andi	r2,r18,1
 50882f8:	103ed526 	beq	r2,zero,5087e50 <___vfprintf_internal_r+0x9d4>
 50882fc:	d8803717 	ldw	r2,220(sp)
 5088300:	d9003417 	ldw	r4,208(sp)
 5088304:	d9403717 	ldw	r5,220(sp)
 5088308:	1887883a 	add	r3,r3,r2
 508830c:	d8801f17 	ldw	r2,124(sp)
 5088310:	41000015 	stw	r4,0(r8)
 5088314:	41400115 	stw	r5,4(r8)
 5088318:	10800044 	addi	r2,r2,1
 508831c:	d8c02015 	stw	r3,128(sp)
 5088320:	d8801f15 	stw	r2,124(sp)
 5088324:	010001c4 	movi	r4,7
 5088328:	20832916 	blt	r4,r2,5088fd0 <___vfprintf_internal_r+0x1b54>
 508832c:	42000204 	addi	r8,r8,8
 5088330:	d8803317 	ldw	r2,204(sp)
 5088334:	143fffc4 	addi	r16,r2,-1
 5088338:	043ec50e 	bge	zero,r16,5087e50 <___vfprintf_internal_r+0x9d4>
 508833c:	04400404 	movi	r17,16
 5088340:	d8801f17 	ldw	r2,124(sp)
 5088344:	8c00880e 	bge	r17,r16,5088568 <___vfprintf_internal_r+0x10ec>
 5088348:	01414274 	movhi	r5,1289
 508834c:	295a4f84 	addi	r5,r5,26942
 5088350:	d9402b15 	stw	r5,172(sp)
 5088354:	058001c4 	movi	r22,7
 5088358:	dcc02c17 	ldw	r19,176(sp)
 508835c:	00000306 	br	508836c <___vfprintf_internal_r+0xef0>
 5088360:	42000204 	addi	r8,r8,8
 5088364:	843ffc04 	addi	r16,r16,-16
 5088368:	8c00820e 	bge	r17,r16,5088574 <___vfprintf_internal_r+0x10f8>
 508836c:	18c00404 	addi	r3,r3,16
 5088370:	10800044 	addi	r2,r2,1
 5088374:	45000015 	stw	r20,0(r8)
 5088378:	44400115 	stw	r17,4(r8)
 508837c:	d8c02015 	stw	r3,128(sp)
 5088380:	d8801f15 	stw	r2,124(sp)
 5088384:	b0bff60e 	bge	r22,r2,5088360 <___vfprintf_internal_r+0xee4>
 5088388:	d9801e04 	addi	r6,sp,120
 508838c:	b80b883a 	mov	r5,r23
 5088390:	9809883a 	mov	r4,r19
 5088394:	508fd040 	call	508fd04 <__sprint_r>
 5088398:	103d3a1e 	bne	r2,zero,5087884 <___vfprintf_internal_r+0x408>
 508839c:	d8c02017 	ldw	r3,128(sp)
 50883a0:	d8801f17 	ldw	r2,124(sp)
 50883a4:	da000404 	addi	r8,sp,16
 50883a8:	003fee06 	br	5088364 <___vfprintf_internal_r+0xee8>
 50883ac:	d9403117 	ldw	r5,196(sp)
 50883b0:	d8802a17 	ldw	r2,168(sp)
 50883b4:	28adc83a 	sub	r22,r5,r2
 50883b8:	05be630e 	bge	zero,r22,5087d48 <___vfprintf_internal_r+0x8cc>
 50883bc:	07000404 	movi	fp,16
 50883c0:	d8801f17 	ldw	r2,124(sp)
 50883c4:	e5838f0e 	bge	fp,r22,5089204 <___vfprintf_internal_r+0x1d88>
 50883c8:	01414274 	movhi	r5,1289
 50883cc:	295a4f84 	addi	r5,r5,26942
 50883d0:	dc403015 	stw	r17,192(sp)
 50883d4:	d9402b15 	stw	r5,172(sp)
 50883d8:	b023883a 	mov	r17,r22
 50883dc:	04c001c4 	movi	r19,7
 50883e0:	a82d883a 	mov	r22,r21
 50883e4:	902b883a 	mov	r21,r18
 50883e8:	8025883a 	mov	r18,r16
 50883ec:	dc002c17 	ldw	r16,176(sp)
 50883f0:	00000306 	br	5088400 <___vfprintf_internal_r+0xf84>
 50883f4:	8c7ffc04 	addi	r17,r17,-16
 50883f8:	42000204 	addi	r8,r8,8
 50883fc:	e440110e 	bge	fp,r17,5088444 <___vfprintf_internal_r+0xfc8>
 5088400:	18c00404 	addi	r3,r3,16
 5088404:	10800044 	addi	r2,r2,1
 5088408:	45000015 	stw	r20,0(r8)
 508840c:	47000115 	stw	fp,4(r8)
 5088410:	d8c02015 	stw	r3,128(sp)
 5088414:	d8801f15 	stw	r2,124(sp)
 5088418:	98bff60e 	bge	r19,r2,50883f4 <___vfprintf_internal_r+0xf78>
 508841c:	d9801e04 	addi	r6,sp,120
 5088420:	b80b883a 	mov	r5,r23
 5088424:	8009883a 	mov	r4,r16
 5088428:	508fd040 	call	508fd04 <__sprint_r>
 508842c:	103d151e 	bne	r2,zero,5087884 <___vfprintf_internal_r+0x408>
 5088430:	8c7ffc04 	addi	r17,r17,-16
 5088434:	d8c02017 	ldw	r3,128(sp)
 5088438:	d8801f17 	ldw	r2,124(sp)
 508843c:	da000404 	addi	r8,sp,16
 5088440:	e47fef16 	blt	fp,r17,5088400 <___vfprintf_internal_r+0xf84>
 5088444:	9021883a 	mov	r16,r18
 5088448:	a825883a 	mov	r18,r21
 508844c:	b02b883a 	mov	r21,r22
 5088450:	882d883a 	mov	r22,r17
 5088454:	dc403017 	ldw	r17,192(sp)
 5088458:	d9002b17 	ldw	r4,172(sp)
 508845c:	1d87883a 	add	r3,r3,r22
 5088460:	10800044 	addi	r2,r2,1
 5088464:	41000015 	stw	r4,0(r8)
 5088468:	45800115 	stw	r22,4(r8)
 508846c:	d8c02015 	stw	r3,128(sp)
 5088470:	d8801f15 	stw	r2,124(sp)
 5088474:	010001c4 	movi	r4,7
 5088478:	20818e16 	blt	r4,r2,5088ab4 <___vfprintf_internal_r+0x1638>
 508847c:	42000204 	addi	r8,r8,8
 5088480:	003e3106 	br	5087d48 <___vfprintf_internal_r+0x8cc>
 5088484:	d9403317 	ldw	r5,204(sp)
 5088488:	00800044 	movi	r2,1
 508848c:	18c00044 	addi	r3,r3,1
 5088490:	1141530e 	bge	r2,r5,50889e0 <___vfprintf_internal_r+0x1564>
 5088494:	dc401f17 	ldw	r17,124(sp)
 5088498:	00800044 	movi	r2,1
 508849c:	40800115 	stw	r2,4(r8)
 50884a0:	8c400044 	addi	r17,r17,1
 50884a4:	44000015 	stw	r16,0(r8)
 50884a8:	d8c02015 	stw	r3,128(sp)
 50884ac:	dc401f15 	stw	r17,124(sp)
 50884b0:	008001c4 	movi	r2,7
 50884b4:	14416b16 	blt	r2,r17,5088a64 <___vfprintf_internal_r+0x15e8>
 50884b8:	42000204 	addi	r8,r8,8
 50884bc:	d8803717 	ldw	r2,220(sp)
 50884c0:	d9003417 	ldw	r4,208(sp)
 50884c4:	8c400044 	addi	r17,r17,1
 50884c8:	10c7883a 	add	r3,r2,r3
 50884cc:	40800115 	stw	r2,4(r8)
 50884d0:	41000015 	stw	r4,0(r8)
 50884d4:	d8c02015 	stw	r3,128(sp)
 50884d8:	dc401f15 	stw	r17,124(sp)
 50884dc:	008001c4 	movi	r2,7
 50884e0:	14416916 	blt	r2,r17,5088a88 <___vfprintf_internal_r+0x160c>
 50884e4:	45800204 	addi	r22,r8,8
 50884e8:	d9003617 	ldw	r4,216(sp)
 50884ec:	d9403817 	ldw	r5,224(sp)
 50884f0:	000d883a 	mov	r6,zero
 50884f4:	000f883a 	mov	r7,zero
 50884f8:	d8c03c15 	stw	r3,240(sp)
 50884fc:	5092f1c0 	call	5092f1c <__eqdf2>
 5088500:	d8c03c17 	ldw	r3,240(sp)
 5088504:	1000bc26 	beq	r2,zero,50887f8 <___vfprintf_internal_r+0x137c>
 5088508:	d9403317 	ldw	r5,204(sp)
 508850c:	84000044 	addi	r16,r16,1
 5088510:	8c400044 	addi	r17,r17,1
 5088514:	28bfffc4 	addi	r2,r5,-1
 5088518:	1887883a 	add	r3,r3,r2
 508851c:	b0800115 	stw	r2,4(r22)
 5088520:	b4000015 	stw	r16,0(r22)
 5088524:	d8c02015 	stw	r3,128(sp)
 5088528:	dc401f15 	stw	r17,124(sp)
 508852c:	008001c4 	movi	r2,7
 5088530:	14414316 	blt	r2,r17,5088a40 <___vfprintf_internal_r+0x15c4>
 5088534:	b5800204 	addi	r22,r22,8
 5088538:	d9003a17 	ldw	r4,232(sp)
 508853c:	df0022c4 	addi	fp,sp,139
 5088540:	8c400044 	addi	r17,r17,1
 5088544:	20c7883a 	add	r3,r4,r3
 5088548:	b7000015 	stw	fp,0(r22)
 508854c:	b1000115 	stw	r4,4(r22)
 5088550:	d8c02015 	stw	r3,128(sp)
 5088554:	dc401f15 	stw	r17,124(sp)
 5088558:	008001c4 	movi	r2,7
 508855c:	14400e16 	blt	r2,r17,5088598 <___vfprintf_internal_r+0x111c>
 5088560:	b2000204 	addi	r8,r22,8
 5088564:	003e3a06 	br	5087e50 <___vfprintf_internal_r+0x9d4>
 5088568:	01014274 	movhi	r4,1289
 508856c:	211a4f84 	addi	r4,r4,26942
 5088570:	d9002b15 	stw	r4,172(sp)
 5088574:	d9002b17 	ldw	r4,172(sp)
 5088578:	1c07883a 	add	r3,r3,r16
 508857c:	44000115 	stw	r16,4(r8)
 5088580:	41000015 	stw	r4,0(r8)
 5088584:	10800044 	addi	r2,r2,1
 5088588:	d8c02015 	stw	r3,128(sp)
 508858c:	d8801f15 	stw	r2,124(sp)
 5088590:	010001c4 	movi	r4,7
 5088594:	20be2d0e 	bge	r4,r2,5087e4c <___vfprintf_internal_r+0x9d0>
 5088598:	d9002c17 	ldw	r4,176(sp)
 508859c:	d9801e04 	addi	r6,sp,120
 50885a0:	b80b883a 	mov	r5,r23
 50885a4:	508fd040 	call	508fd04 <__sprint_r>
 50885a8:	103cb61e 	bne	r2,zero,5087884 <___vfprintf_internal_r+0x408>
 50885ac:	d8c02017 	ldw	r3,128(sp)
 50885b0:	da000404 	addi	r8,sp,16
 50885b4:	003e2606 	br	5087e50 <___vfprintf_internal_r+0x9d4>
 50885b8:	d9002c17 	ldw	r4,176(sp)
 50885bc:	d9801e04 	addi	r6,sp,120
 50885c0:	b80b883a 	mov	r5,r23
 50885c4:	508fd040 	call	508fd04 <__sprint_r>
 50885c8:	103e5d26 	beq	r2,zero,5087f40 <___vfprintf_internal_r+0xac4>
 50885cc:	003cad06 	br	5087884 <___vfprintf_internal_r+0x408>
 50885d0:	d9002c17 	ldw	r4,176(sp)
 50885d4:	d9801e04 	addi	r6,sp,120
 50885d8:	b80b883a 	mov	r5,r23
 50885dc:	508fd040 	call	508fd04 <__sprint_r>
 50885e0:	103ca81e 	bne	r2,zero,5087884 <___vfprintf_internal_r+0x408>
 50885e4:	d8c02017 	ldw	r3,128(sp)
 50885e8:	da000404 	addi	r8,sp,16
 50885ec:	003e0b06 	br	5087e1c <___vfprintf_internal_r+0x9a0>
 50885f0:	d9002c17 	ldw	r4,176(sp)
 50885f4:	d9801e04 	addi	r6,sp,120
 50885f8:	b80b883a 	mov	r5,r23
 50885fc:	508fd040 	call	508fd04 <__sprint_r>
 5088600:	103ca01e 	bne	r2,zero,5087884 <___vfprintf_internal_r+0x408>
 5088604:	d8c02017 	ldw	r3,128(sp)
 5088608:	da000404 	addi	r8,sp,16
 508860c:	003dbd06 	br	5087d04 <___vfprintf_internal_r+0x888>
 5088610:	d9002c17 	ldw	r4,176(sp)
 5088614:	d9801e04 	addi	r6,sp,120
 5088618:	b80b883a 	mov	r5,r23
 508861c:	508fd040 	call	508fd04 <__sprint_r>
 5088620:	103c981e 	bne	r2,zero,5087884 <___vfprintf_internal_r+0x408>
 5088624:	d8c02017 	ldw	r3,128(sp)
 5088628:	da000404 	addi	r8,sp,16
 508862c:	003dc306 	br	5087d3c <___vfprintf_internal_r+0x8c0>
 5088630:	d8802917 	ldw	r2,164(sp)
 5088634:	d8002785 	stb	zero,158(sp)
 5088638:	103f0616 	blt	r2,zero,5088254 <___vfprintf_internal_r+0xdd8>
 508863c:	00ffdfc4 	movi	r3,-129
 5088640:	9d84b03a 	or	r2,r19,r22
 5088644:	90e4703a 	and	r18,r18,r3
 5088648:	103c6b26 	beq	r2,zero,50877f8 <___vfprintf_internal_r+0x37c>
 508864c:	0039883a 	mov	fp,zero
 5088650:	003e7406 	br	5088024 <___vfprintf_internal_r+0xba8>
 5088654:	9080040c 	andi	r2,r18,16
 5088658:	1001b326 	beq	r2,zero,5088d28 <___vfprintf_internal_r+0x18ac>
 508865c:	d9002d17 	ldw	r4,180(sp)
 5088660:	d9402917 	ldw	r5,164(sp)
 5088664:	d8002785 	stb	zero,158(sp)
 5088668:	20800104 	addi	r2,r4,4
 508866c:	24c00017 	ldw	r19,0(r4)
 5088670:	002d883a 	mov	r22,zero
 5088674:	2801b516 	blt	r5,zero,5088d4c <___vfprintf_internal_r+0x18d0>
 5088678:	00ffdfc4 	movi	r3,-129
 508867c:	d8802d15 	stw	r2,180(sp)
 5088680:	90e4703a 	and	r18,r18,r3
 5088684:	983d2726 	beq	r19,zero,5087b24 <___vfprintf_internal_r+0x6a8>
 5088688:	0039883a 	mov	fp,zero
 508868c:	003d2a06 	br	5087b38 <___vfprintf_internal_r+0x6bc>
 5088690:	dc402617 	ldw	r17,152(sp)
 5088694:	0441d30e 	bge	zero,r17,5088de4 <___vfprintf_internal_r+0x1968>
 5088698:	dc403217 	ldw	r17,200(sp)
 508869c:	d8803317 	ldw	r2,204(sp)
 50886a0:	1440010e 	bge	r2,r17,50886a8 <___vfprintf_internal_r+0x122c>
 50886a4:	1023883a 	mov	r17,r2
 50886a8:	04400a0e 	bge	zero,r17,50886d4 <___vfprintf_internal_r+0x1258>
 50886ac:	d8801f17 	ldw	r2,124(sp)
 50886b0:	1c47883a 	add	r3,r3,r17
 50886b4:	44000015 	stw	r16,0(r8)
 50886b8:	10800044 	addi	r2,r2,1
 50886bc:	44400115 	stw	r17,4(r8)
 50886c0:	d8c02015 	stw	r3,128(sp)
 50886c4:	d8801f15 	stw	r2,124(sp)
 50886c8:	010001c4 	movi	r4,7
 50886cc:	20826516 	blt	r4,r2,5089064 <___vfprintf_internal_r+0x1be8>
 50886d0:	42000204 	addi	r8,r8,8
 50886d4:	88026116 	blt	r17,zero,508905c <___vfprintf_internal_r+0x1be0>
 50886d8:	d9003217 	ldw	r4,200(sp)
 50886dc:	2463c83a 	sub	r17,r4,r17
 50886e0:	04407b0e 	bge	zero,r17,50888d0 <___vfprintf_internal_r+0x1454>
 50886e4:	05800404 	movi	r22,16
 50886e8:	d8801f17 	ldw	r2,124(sp)
 50886ec:	b4419d0e 	bge	r22,r17,5088d64 <___vfprintf_internal_r+0x18e8>
 50886f0:	01014274 	movhi	r4,1289
 50886f4:	211a4f84 	addi	r4,r4,26942
 50886f8:	d9002b15 	stw	r4,172(sp)
 50886fc:	070001c4 	movi	fp,7
 5088700:	dcc02c17 	ldw	r19,176(sp)
 5088704:	00000306 	br	5088714 <___vfprintf_internal_r+0x1298>
 5088708:	42000204 	addi	r8,r8,8
 508870c:	8c7ffc04 	addi	r17,r17,-16
 5088710:	b441970e 	bge	r22,r17,5088d70 <___vfprintf_internal_r+0x18f4>
 5088714:	18c00404 	addi	r3,r3,16
 5088718:	10800044 	addi	r2,r2,1
 508871c:	45000015 	stw	r20,0(r8)
 5088720:	45800115 	stw	r22,4(r8)
 5088724:	d8c02015 	stw	r3,128(sp)
 5088728:	d8801f15 	stw	r2,124(sp)
 508872c:	e0bff60e 	bge	fp,r2,5088708 <___vfprintf_internal_r+0x128c>
 5088730:	d9801e04 	addi	r6,sp,120
 5088734:	b80b883a 	mov	r5,r23
 5088738:	9809883a 	mov	r4,r19
 508873c:	508fd040 	call	508fd04 <__sprint_r>
 5088740:	103c501e 	bne	r2,zero,5087884 <___vfprintf_internal_r+0x408>
 5088744:	d8c02017 	ldw	r3,128(sp)
 5088748:	d8801f17 	ldw	r2,124(sp)
 508874c:	da000404 	addi	r8,sp,16
 5088750:	003fee06 	br	508870c <___vfprintf_internal_r+0x1290>
 5088754:	d9002c17 	ldw	r4,176(sp)
 5088758:	d9801e04 	addi	r6,sp,120
 508875c:	b80b883a 	mov	r5,r23
 5088760:	508fd040 	call	508fd04 <__sprint_r>
 5088764:	103c471e 	bne	r2,zero,5087884 <___vfprintf_internal_r+0x408>
 5088768:	d8c02017 	ldw	r3,128(sp)
 508876c:	df002787 	ldb	fp,158(sp)
 5088770:	da000404 	addi	r8,sp,16
 5088774:	003d5606 	br	5087cd0 <___vfprintf_internal_r+0x854>
 5088778:	9080040c 	andi	r2,r18,16
 508877c:	10016126 	beq	r2,zero,5088d04 <___vfprintf_internal_r+0x1888>
 5088780:	d8802d17 	ldw	r2,180(sp)
 5088784:	14c00017 	ldw	r19,0(r2)
 5088788:	10800104 	addi	r2,r2,4
 508878c:	d8802d15 	stw	r2,180(sp)
 5088790:	982dd7fa 	srai	r22,r19,31
 5088794:	b005883a 	mov	r2,r22
 5088798:	003c8206 	br	50879a4 <___vfprintf_internal_r+0x528>
 508879c:	9080040c 	andi	r2,r18,16
 50887a0:	10003526 	beq	r2,zero,5088878 <___vfprintf_internal_r+0x13fc>
 50887a4:	d9402d17 	ldw	r5,180(sp)
 50887a8:	d8c02917 	ldw	r3,164(sp)
 50887ac:	d8002785 	stb	zero,158(sp)
 50887b0:	28800104 	addi	r2,r5,4
 50887b4:	2cc00017 	ldw	r19,0(r5)
 50887b8:	002d883a 	mov	r22,zero
 50887bc:	18003716 	blt	r3,zero,508889c <___vfprintf_internal_r+0x1420>
 50887c0:	00ffdfc4 	movi	r3,-129
 50887c4:	d8802d15 	stw	r2,180(sp)
 50887c8:	90e4703a 	and	r18,r18,r3
 50887cc:	0039883a 	mov	fp,zero
 50887d0:	983df326 	beq	r19,zero,5087fa0 <___vfprintf_internal_r+0xb24>
 50887d4:	00800244 	movi	r2,9
 50887d8:	14fc7b36 	bltu	r2,r19,50879c8 <___vfprintf_internal_r+0x54c>
 50887dc:	d8c02817 	ldw	r3,160(sp)
 50887e0:	dc001dc4 	addi	r16,sp,119
 50887e4:	9cc00c04 	addi	r19,r19,48
 50887e8:	1c07c83a 	sub	r3,r3,r16
 50887ec:	dcc01dc5 	stb	r19,119(sp)
 50887f0:	d8c02e15 	stw	r3,184(sp)
 50887f4:	003ce806 	br	5087b98 <___vfprintf_internal_r+0x71c>
 50887f8:	d8803317 	ldw	r2,204(sp)
 50887fc:	143fffc4 	addi	r16,r2,-1
 5088800:	043f4d0e 	bge	zero,r16,5088538 <___vfprintf_internal_r+0x10bc>
 5088804:	07000404 	movi	fp,16
 5088808:	e400810e 	bge	fp,r16,5088a10 <___vfprintf_internal_r+0x1594>
 508880c:	01414274 	movhi	r5,1289
 5088810:	295a4f84 	addi	r5,r5,26942
 5088814:	d9402b15 	stw	r5,172(sp)
 5088818:	01c001c4 	movi	r7,7
 508881c:	dcc02c17 	ldw	r19,176(sp)
 5088820:	00000306 	br	5088830 <___vfprintf_internal_r+0x13b4>
 5088824:	b5800204 	addi	r22,r22,8
 5088828:	843ffc04 	addi	r16,r16,-16
 508882c:	e4007b0e 	bge	fp,r16,5088a1c <___vfprintf_internal_r+0x15a0>
 5088830:	18c00404 	addi	r3,r3,16
 5088834:	8c400044 	addi	r17,r17,1
 5088838:	b5000015 	stw	r20,0(r22)
 508883c:	b7000115 	stw	fp,4(r22)
 5088840:	d8c02015 	stw	r3,128(sp)
 5088844:	dc401f15 	stw	r17,124(sp)
 5088848:	3c7ff60e 	bge	r7,r17,5088824 <___vfprintf_internal_r+0x13a8>
 508884c:	d9801e04 	addi	r6,sp,120
 5088850:	b80b883a 	mov	r5,r23
 5088854:	9809883a 	mov	r4,r19
 5088858:	d9c03c15 	stw	r7,240(sp)
 508885c:	508fd040 	call	508fd04 <__sprint_r>
 5088860:	d9c03c17 	ldw	r7,240(sp)
 5088864:	103c071e 	bne	r2,zero,5087884 <___vfprintf_internal_r+0x408>
 5088868:	d8c02017 	ldw	r3,128(sp)
 508886c:	dc401f17 	ldw	r17,124(sp)
 5088870:	dd800404 	addi	r22,sp,16
 5088874:	003fec06 	br	5088828 <___vfprintf_internal_r+0x13ac>
 5088878:	9080100c 	andi	r2,r18,64
 508887c:	d8002785 	stb	zero,158(sp)
 5088880:	10010e26 	beq	r2,zero,5088cbc <___vfprintf_internal_r+0x1840>
 5088884:	d9002d17 	ldw	r4,180(sp)
 5088888:	d9402917 	ldw	r5,164(sp)
 508888c:	002d883a 	mov	r22,zero
 5088890:	20800104 	addi	r2,r4,4
 5088894:	24c0000b 	ldhu	r19,0(r4)
 5088898:	283fc90e 	bge	r5,zero,50887c0 <___vfprintf_internal_r+0x1344>
 508889c:	d8802d15 	stw	r2,180(sp)
 50888a0:	0039883a 	mov	fp,zero
 50888a4:	9d84b03a 	or	r2,r19,r22
 50888a8:	103c461e 	bne	r2,zero,50879c4 <___vfprintf_internal_r+0x548>
 50888ac:	00800044 	movi	r2,1
 50888b0:	003e6c06 	br	5088264 <___vfprintf_internal_r+0xde8>
 50888b4:	d9002c17 	ldw	r4,176(sp)
 50888b8:	d9801e04 	addi	r6,sp,120
 50888bc:	b80b883a 	mov	r5,r23
 50888c0:	508fd040 	call	508fd04 <__sprint_r>
 50888c4:	103bef1e 	bne	r2,zero,5087884 <___vfprintf_internal_r+0x408>
 50888c8:	d8c02017 	ldw	r3,128(sp)
 50888cc:	da000404 	addi	r8,sp,16
 50888d0:	d9003217 	ldw	r4,200(sp)
 50888d4:	d8802617 	ldw	r2,152(sp)
 50888d8:	d9403317 	ldw	r5,204(sp)
 50888dc:	8123883a 	add	r17,r16,r4
 50888e0:	11400216 	blt	r2,r5,50888ec <___vfprintf_internal_r+0x1470>
 50888e4:	9100004c 	andi	r4,r18,1
 50888e8:	20000d26 	beq	r4,zero,5088920 <___vfprintf_internal_r+0x14a4>
 50888ec:	d9003717 	ldw	r4,220(sp)
 50888f0:	d9403417 	ldw	r5,208(sp)
 50888f4:	1907883a 	add	r3,r3,r4
 50888f8:	d9001f17 	ldw	r4,124(sp)
 50888fc:	41400015 	stw	r5,0(r8)
 5088900:	d9403717 	ldw	r5,220(sp)
 5088904:	21000044 	addi	r4,r4,1
 5088908:	d8c02015 	stw	r3,128(sp)
 508890c:	41400115 	stw	r5,4(r8)
 5088910:	d9001f15 	stw	r4,124(sp)
 5088914:	014001c4 	movi	r5,7
 5088918:	2901e816 	blt	r5,r4,50890bc <___vfprintf_internal_r+0x1c40>
 508891c:	42000204 	addi	r8,r8,8
 5088920:	d9003317 	ldw	r4,204(sp)
 5088924:	8121883a 	add	r16,r16,r4
 5088928:	2085c83a 	sub	r2,r4,r2
 508892c:	8461c83a 	sub	r16,r16,r17
 5088930:	1400010e 	bge	r2,r16,5088938 <___vfprintf_internal_r+0x14bc>
 5088934:	1021883a 	mov	r16,r2
 5088938:	04000a0e 	bge	zero,r16,5088964 <___vfprintf_internal_r+0x14e8>
 508893c:	d9001f17 	ldw	r4,124(sp)
 5088940:	1c07883a 	add	r3,r3,r16
 5088944:	44400015 	stw	r17,0(r8)
 5088948:	21000044 	addi	r4,r4,1
 508894c:	44000115 	stw	r16,4(r8)
 5088950:	d8c02015 	stw	r3,128(sp)
 5088954:	d9001f15 	stw	r4,124(sp)
 5088958:	014001c4 	movi	r5,7
 508895c:	2901fb16 	blt	r5,r4,508914c <___vfprintf_internal_r+0x1cd0>
 5088960:	42000204 	addi	r8,r8,8
 5088964:	8001f716 	blt	r16,zero,5089144 <___vfprintf_internal_r+0x1cc8>
 5088968:	1421c83a 	sub	r16,r2,r16
 508896c:	043d380e 	bge	zero,r16,5087e50 <___vfprintf_internal_r+0x9d4>
 5088970:	04400404 	movi	r17,16
 5088974:	d8801f17 	ldw	r2,124(sp)
 5088978:	8c3efb0e 	bge	r17,r16,5088568 <___vfprintf_internal_r+0x10ec>
 508897c:	01414274 	movhi	r5,1289
 5088980:	295a4f84 	addi	r5,r5,26942
 5088984:	d9402b15 	stw	r5,172(sp)
 5088988:	058001c4 	movi	r22,7
 508898c:	dcc02c17 	ldw	r19,176(sp)
 5088990:	00000306 	br	50889a0 <___vfprintf_internal_r+0x1524>
 5088994:	42000204 	addi	r8,r8,8
 5088998:	843ffc04 	addi	r16,r16,-16
 508899c:	8c3ef50e 	bge	r17,r16,5088574 <___vfprintf_internal_r+0x10f8>
 50889a0:	18c00404 	addi	r3,r3,16
 50889a4:	10800044 	addi	r2,r2,1
 50889a8:	45000015 	stw	r20,0(r8)
 50889ac:	44400115 	stw	r17,4(r8)
 50889b0:	d8c02015 	stw	r3,128(sp)
 50889b4:	d8801f15 	stw	r2,124(sp)
 50889b8:	b0bff60e 	bge	r22,r2,5088994 <___vfprintf_internal_r+0x1518>
 50889bc:	d9801e04 	addi	r6,sp,120
 50889c0:	b80b883a 	mov	r5,r23
 50889c4:	9809883a 	mov	r4,r19
 50889c8:	508fd040 	call	508fd04 <__sprint_r>
 50889cc:	103bad1e 	bne	r2,zero,5087884 <___vfprintf_internal_r+0x408>
 50889d0:	d8c02017 	ldw	r3,128(sp)
 50889d4:	d8801f17 	ldw	r2,124(sp)
 50889d8:	da000404 	addi	r8,sp,16
 50889dc:	003fee06 	br	5088998 <___vfprintf_internal_r+0x151c>
 50889e0:	9088703a 	and	r4,r18,r2
 50889e4:	203eab1e 	bne	r4,zero,5088494 <___vfprintf_internal_r+0x1018>
 50889e8:	dc401f17 	ldw	r17,124(sp)
 50889ec:	40800115 	stw	r2,4(r8)
 50889f0:	44000015 	stw	r16,0(r8)
 50889f4:	8c400044 	addi	r17,r17,1
 50889f8:	d8c02015 	stw	r3,128(sp)
 50889fc:	dc401f15 	stw	r17,124(sp)
 5088a00:	008001c4 	movi	r2,7
 5088a04:	14400e16 	blt	r2,r17,5088a40 <___vfprintf_internal_r+0x15c4>
 5088a08:	45800204 	addi	r22,r8,8
 5088a0c:	003eca06 	br	5088538 <___vfprintf_internal_r+0x10bc>
 5088a10:	01014274 	movhi	r4,1289
 5088a14:	211a4f84 	addi	r4,r4,26942
 5088a18:	d9002b15 	stw	r4,172(sp)
 5088a1c:	d8802b17 	ldw	r2,172(sp)
 5088a20:	1c07883a 	add	r3,r3,r16
 5088a24:	8c400044 	addi	r17,r17,1
 5088a28:	b0800015 	stw	r2,0(r22)
 5088a2c:	b4000115 	stw	r16,4(r22)
 5088a30:	d8c02015 	stw	r3,128(sp)
 5088a34:	dc401f15 	stw	r17,124(sp)
 5088a38:	008001c4 	movi	r2,7
 5088a3c:	147ebd0e 	bge	r2,r17,5088534 <___vfprintf_internal_r+0x10b8>
 5088a40:	d9002c17 	ldw	r4,176(sp)
 5088a44:	d9801e04 	addi	r6,sp,120
 5088a48:	b80b883a 	mov	r5,r23
 5088a4c:	508fd040 	call	508fd04 <__sprint_r>
 5088a50:	103b8c1e 	bne	r2,zero,5087884 <___vfprintf_internal_r+0x408>
 5088a54:	d8c02017 	ldw	r3,128(sp)
 5088a58:	dc401f17 	ldw	r17,124(sp)
 5088a5c:	dd800404 	addi	r22,sp,16
 5088a60:	003eb506 	br	5088538 <___vfprintf_internal_r+0x10bc>
 5088a64:	d9002c17 	ldw	r4,176(sp)
 5088a68:	d9801e04 	addi	r6,sp,120
 5088a6c:	b80b883a 	mov	r5,r23
 5088a70:	508fd040 	call	508fd04 <__sprint_r>
 5088a74:	103b831e 	bne	r2,zero,5087884 <___vfprintf_internal_r+0x408>
 5088a78:	d8c02017 	ldw	r3,128(sp)
 5088a7c:	dc401f17 	ldw	r17,124(sp)
 5088a80:	da000404 	addi	r8,sp,16
 5088a84:	003e8d06 	br	50884bc <___vfprintf_internal_r+0x1040>
 5088a88:	d9002c17 	ldw	r4,176(sp)
 5088a8c:	d9801e04 	addi	r6,sp,120
 5088a90:	b80b883a 	mov	r5,r23
 5088a94:	508fd040 	call	508fd04 <__sprint_r>
 5088a98:	103b7a1e 	bne	r2,zero,5087884 <___vfprintf_internal_r+0x408>
 5088a9c:	d8c02017 	ldw	r3,128(sp)
 5088aa0:	dc401f17 	ldw	r17,124(sp)
 5088aa4:	dd800404 	addi	r22,sp,16
 5088aa8:	003e8f06 	br	50884e8 <___vfprintf_internal_r+0x106c>
 5088aac:	0027883a 	mov	r19,zero
 5088ab0:	003f4a06 	br	50887dc <___vfprintf_internal_r+0x1360>
 5088ab4:	d9002c17 	ldw	r4,176(sp)
 5088ab8:	d9801e04 	addi	r6,sp,120
 5088abc:	b80b883a 	mov	r5,r23
 5088ac0:	508fd040 	call	508fd04 <__sprint_r>
 5088ac4:	103b6f1e 	bne	r2,zero,5087884 <___vfprintf_internal_r+0x408>
 5088ac8:	d8c02017 	ldw	r3,128(sp)
 5088acc:	da000404 	addi	r8,sp,16
 5088ad0:	003c9d06 	br	5087d48 <___vfprintf_internal_r+0x8cc>
 5088ad4:	04e7c83a 	sub	r19,zero,r19
 5088ad8:	9804c03a 	cmpne	r2,r19,zero
 5088adc:	05adc83a 	sub	r22,zero,r22
 5088ae0:	b0adc83a 	sub	r22,r22,r2
 5088ae4:	d8802917 	ldw	r2,164(sp)
 5088ae8:	07000b44 	movi	fp,45
 5088aec:	df002785 	stb	fp,158(sp)
 5088af0:	10017b16 	blt	r2,zero,50890e0 <___vfprintf_internal_r+0x1c64>
 5088af4:	00bfdfc4 	movi	r2,-129
 5088af8:	90a4703a 	and	r18,r18,r2
 5088afc:	003bb106 	br	50879c4 <___vfprintf_internal_r+0x548>
 5088b00:	d9003617 	ldw	r4,216(sp)
 5088b04:	d9403817 	ldw	r5,224(sp)
 5088b08:	da003d15 	stw	r8,244(sp)
 5088b0c:	508e51c0 	call	508e51c <__fpclassifyd>
 5088b10:	da003d17 	ldw	r8,244(sp)
 5088b14:	1000f026 	beq	r2,zero,5088ed8 <___vfprintf_internal_r+0x1a5c>
 5088b18:	d9002917 	ldw	r4,164(sp)
 5088b1c:	05bff7c4 	movi	r22,-33
 5088b20:	00bfffc4 	movi	r2,-1
 5088b24:	8dac703a 	and	r22,r17,r22
 5088b28:	20820026 	beq	r4,r2,508932c <___vfprintf_internal_r+0x1eb0>
 5088b2c:	008011c4 	movi	r2,71
 5088b30:	b081f726 	beq	r22,r2,5089310 <___vfprintf_internal_r+0x1e94>
 5088b34:	d9003817 	ldw	r4,224(sp)
 5088b38:	90c04014 	ori	r3,r18,256
 5088b3c:	d8c02b15 	stw	r3,172(sp)
 5088b40:	20021516 	blt	r4,zero,5089398 <___vfprintf_internal_r+0x1f1c>
 5088b44:	dcc03817 	ldw	r19,224(sp)
 5088b48:	d8002a05 	stb	zero,168(sp)
 5088b4c:	00801984 	movi	r2,102
 5088b50:	8881f926 	beq	r17,r2,5089338 <___vfprintf_internal_r+0x1ebc>
 5088b54:	00801184 	movi	r2,70
 5088b58:	88821c26 	beq	r17,r2,50893cc <___vfprintf_internal_r+0x1f50>
 5088b5c:	00801144 	movi	r2,69
 5088b60:	b081ef26 	beq	r22,r2,5089320 <___vfprintf_internal_r+0x1ea4>
 5088b64:	d8c02917 	ldw	r3,164(sp)
 5088b68:	d8802104 	addi	r2,sp,132
 5088b6c:	d8800315 	stw	r2,12(sp)
 5088b70:	d9403617 	ldw	r5,216(sp)
 5088b74:	d8802504 	addi	r2,sp,148
 5088b78:	d9002c17 	ldw	r4,176(sp)
 5088b7c:	d8800215 	stw	r2,8(sp)
 5088b80:	d8802604 	addi	r2,sp,152
 5088b84:	d8c00015 	stw	r3,0(sp)
 5088b88:	d8800115 	stw	r2,4(sp)
 5088b8c:	01c00084 	movi	r7,2
 5088b90:	980d883a 	mov	r6,r19
 5088b94:	d8c03c15 	stw	r3,240(sp)
 5088b98:	da003d15 	stw	r8,244(sp)
 5088b9c:	5089bc40 	call	5089bc4 <_dtoa_r>
 5088ba0:	1021883a 	mov	r16,r2
 5088ba4:	008019c4 	movi	r2,103
 5088ba8:	d8c03c17 	ldw	r3,240(sp)
 5088bac:	da003d17 	ldw	r8,244(sp)
 5088bb0:	88817126 	beq	r17,r2,5089178 <___vfprintf_internal_r+0x1cfc>
 5088bb4:	008011c4 	movi	r2,71
 5088bb8:	88829226 	beq	r17,r2,5089604 <___vfprintf_internal_r+0x2188>
 5088bbc:	80f9883a 	add	fp,r16,r3
 5088bc0:	d9003617 	ldw	r4,216(sp)
 5088bc4:	000d883a 	mov	r6,zero
 5088bc8:	000f883a 	mov	r7,zero
 5088bcc:	980b883a 	mov	r5,r19
 5088bd0:	da003d15 	stw	r8,244(sp)
 5088bd4:	5092f1c0 	call	5092f1c <__eqdf2>
 5088bd8:	da003d17 	ldw	r8,244(sp)
 5088bdc:	10018d26 	beq	r2,zero,5089214 <___vfprintf_internal_r+0x1d98>
 5088be0:	d8802117 	ldw	r2,132(sp)
 5088be4:	1700062e 	bgeu	r2,fp,5088c00 <___vfprintf_internal_r+0x1784>
 5088be8:	01000c04 	movi	r4,48
 5088bec:	10c00044 	addi	r3,r2,1
 5088bf0:	d8c02115 	stw	r3,132(sp)
 5088bf4:	11000005 	stb	r4,0(r2)
 5088bf8:	d8802117 	ldw	r2,132(sp)
 5088bfc:	173ffb36 	bltu	r2,fp,5088bec <___vfprintf_internal_r+0x1770>
 5088c00:	1405c83a 	sub	r2,r2,r16
 5088c04:	d8803315 	stw	r2,204(sp)
 5088c08:	008011c4 	movi	r2,71
 5088c0c:	b0817626 	beq	r22,r2,50891e8 <___vfprintf_internal_r+0x1d6c>
 5088c10:	00801944 	movi	r2,101
 5088c14:	1442810e 	bge	r2,r17,508961c <___vfprintf_internal_r+0x21a0>
 5088c18:	d8c02617 	ldw	r3,152(sp)
 5088c1c:	00801984 	movi	r2,102
 5088c20:	d8c03215 	stw	r3,200(sp)
 5088c24:	8881fe26 	beq	r17,r2,5089420 <___vfprintf_internal_r+0x1fa4>
 5088c28:	d8c03217 	ldw	r3,200(sp)
 5088c2c:	d9003317 	ldw	r4,204(sp)
 5088c30:	1901dd16 	blt	r3,r4,50893a8 <___vfprintf_internal_r+0x1f2c>
 5088c34:	9480004c 	andi	r18,r18,1
 5088c38:	90022b1e 	bne	r18,zero,50894e8 <___vfprintf_internal_r+0x206c>
 5088c3c:	1805883a 	mov	r2,r3
 5088c40:	18028016 	blt	r3,zero,5089644 <___vfprintf_internal_r+0x21c8>
 5088c44:	d8c03217 	ldw	r3,200(sp)
 5088c48:	044019c4 	movi	r17,103
 5088c4c:	d8c02e15 	stw	r3,184(sp)
 5088c50:	df002a07 	ldb	fp,168(sp)
 5088c54:	e001531e 	bne	fp,zero,50891a4 <___vfprintf_internal_r+0x1d28>
 5088c58:	df002783 	ldbu	fp,158(sp)
 5088c5c:	d8802a15 	stw	r2,168(sp)
 5088c60:	dc802b17 	ldw	r18,172(sp)
 5088c64:	d8002915 	stw	zero,164(sp)
 5088c68:	003bd106 	br	5087bb0 <___vfprintf_internal_r+0x734>
 5088c6c:	d8802d17 	ldw	r2,180(sp)
 5088c70:	d8c02d17 	ldw	r3,180(sp)
 5088c74:	d9002d17 	ldw	r4,180(sp)
 5088c78:	10800017 	ldw	r2,0(r2)
 5088c7c:	18c00117 	ldw	r3,4(r3)
 5088c80:	21000204 	addi	r4,r4,8
 5088c84:	d8803615 	stw	r2,216(sp)
 5088c88:	d8c03815 	stw	r3,224(sp)
 5088c8c:	d9002d15 	stw	r4,180(sp)
 5088c90:	003b7506 	br	5087a68 <___vfprintf_internal_r+0x5ec>
 5088c94:	ac400007 	ldb	r17,0(r21)
 5088c98:	003a5906 	br	5087600 <___vfprintf_internal_r+0x184>
 5088c9c:	9080100c 	andi	r2,r18,64
 5088ca0:	1000a826 	beq	r2,zero,5088f44 <___vfprintf_internal_r+0x1ac8>
 5088ca4:	d9002d17 	ldw	r4,180(sp)
 5088ca8:	002d883a 	mov	r22,zero
 5088cac:	24c0000b 	ldhu	r19,0(r4)
 5088cb0:	21000104 	addi	r4,r4,4
 5088cb4:	d9002d15 	stw	r4,180(sp)
 5088cb8:	003ccb06 	br	5087fe8 <___vfprintf_internal_r+0xb6c>
 5088cbc:	d8c02d17 	ldw	r3,180(sp)
 5088cc0:	d9002917 	ldw	r4,164(sp)
 5088cc4:	002d883a 	mov	r22,zero
 5088cc8:	18800104 	addi	r2,r3,4
 5088ccc:	1cc00017 	ldw	r19,0(r3)
 5088cd0:	203ebb0e 	bge	r4,zero,50887c0 <___vfprintf_internal_r+0x1344>
 5088cd4:	003ef106 	br	508889c <___vfprintf_internal_r+0x1420>
 5088cd8:	9080040c 	andi	r2,r18,16
 5088cdc:	1000921e 	bne	r2,zero,5088f28 <___vfprintf_internal_r+0x1aac>
 5088ce0:	9480100c 	andi	r18,r18,64
 5088ce4:	90013926 	beq	r18,zero,50891cc <___vfprintf_internal_r+0x1d50>
 5088ce8:	d9002d17 	ldw	r4,180(sp)
 5088cec:	d9402f17 	ldw	r5,188(sp)
 5088cf0:	20800017 	ldw	r2,0(r4)
 5088cf4:	21000104 	addi	r4,r4,4
 5088cf8:	d9002d15 	stw	r4,180(sp)
 5088cfc:	1140000d 	sth	r5,0(r2)
 5088d00:	003a1606 	br	508755c <___vfprintf_internal_r+0xe0>
 5088d04:	9080100c 	andi	r2,r18,64
 5088d08:	10008026 	beq	r2,zero,5088f0c <___vfprintf_internal_r+0x1a90>
 5088d0c:	d8c02d17 	ldw	r3,180(sp)
 5088d10:	1cc0000f 	ldh	r19,0(r3)
 5088d14:	18c00104 	addi	r3,r3,4
 5088d18:	d8c02d15 	stw	r3,180(sp)
 5088d1c:	982dd7fa 	srai	r22,r19,31
 5088d20:	b005883a 	mov	r2,r22
 5088d24:	003b1f06 	br	50879a4 <___vfprintf_internal_r+0x528>
 5088d28:	9080100c 	andi	r2,r18,64
 5088d2c:	d8002785 	stb	zero,158(sp)
 5088d30:	10008a1e 	bne	r2,zero,5088f5c <___vfprintf_internal_r+0x1ae0>
 5088d34:	d9402d17 	ldw	r5,180(sp)
 5088d38:	d8c02917 	ldw	r3,164(sp)
 5088d3c:	002d883a 	mov	r22,zero
 5088d40:	28800104 	addi	r2,r5,4
 5088d44:	2cc00017 	ldw	r19,0(r5)
 5088d48:	183e4b0e 	bge	r3,zero,5088678 <___vfprintf_internal_r+0x11fc>
 5088d4c:	9d86b03a 	or	r3,r19,r22
 5088d50:	d8802d15 	stw	r2,180(sp)
 5088d54:	183e4c1e 	bne	r3,zero,5088688 <___vfprintf_internal_r+0x120c>
 5088d58:	0039883a 	mov	fp,zero
 5088d5c:	0005883a 	mov	r2,zero
 5088d60:	003d4006 	br	5088264 <___vfprintf_internal_r+0xde8>
 5088d64:	01414274 	movhi	r5,1289
 5088d68:	295a4f84 	addi	r5,r5,26942
 5088d6c:	d9402b15 	stw	r5,172(sp)
 5088d70:	d9402b17 	ldw	r5,172(sp)
 5088d74:	1c47883a 	add	r3,r3,r17
 5088d78:	10800044 	addi	r2,r2,1
 5088d7c:	41400015 	stw	r5,0(r8)
 5088d80:	44400115 	stw	r17,4(r8)
 5088d84:	d8c02015 	stw	r3,128(sp)
 5088d88:	d8801f15 	stw	r2,124(sp)
 5088d8c:	010001c4 	movi	r4,7
 5088d90:	20bec816 	blt	r4,r2,50888b4 <___vfprintf_internal_r+0x1438>
 5088d94:	42000204 	addi	r8,r8,8
 5088d98:	003ecd06 	br	50888d0 <___vfprintf_internal_r+0x1454>
 5088d9c:	d9002917 	ldw	r4,164(sp)
 5088da0:	d8002785 	stb	zero,158(sp)
 5088da4:	203d2d16 	blt	r4,zero,508825c <___vfprintf_internal_r+0xde0>
 5088da8:	00bfdfc4 	movi	r2,-129
 5088dac:	90a4703a 	and	r18,r18,r2
 5088db0:	003a9106 	br	50877f8 <___vfprintf_internal_r+0x37c>
 5088db4:	01014274 	movhi	r4,1289
 5088db8:	211a4f84 	addi	r4,r4,26942
 5088dbc:	d9002b15 	stw	r4,172(sp)
 5088dc0:	003c0c06 	br	5087df4 <___vfprintf_internal_r+0x978>
 5088dc4:	d9002c17 	ldw	r4,176(sp)
 5088dc8:	d9801e04 	addi	r6,sp,120
 5088dcc:	b80b883a 	mov	r5,r23
 5088dd0:	508fd040 	call	508fd04 <__sprint_r>
 5088dd4:	103aab1e 	bne	r2,zero,5087884 <___vfprintf_internal_r+0x408>
 5088dd8:	d8c02017 	ldw	r3,128(sp)
 5088ddc:	da000404 	addi	r8,sp,16
 5088de0:	003d4106 	br	50882e8 <___vfprintf_internal_r+0xe6c>
 5088de4:	d8801f17 	ldw	r2,124(sp)
 5088de8:	01414274 	movhi	r5,1289
 5088dec:	01000044 	movi	r4,1
 5088df0:	18c00044 	addi	r3,r3,1
 5088df4:	10800044 	addi	r2,r2,1
 5088df8:	295a4704 	addi	r5,r5,26908
 5088dfc:	41000115 	stw	r4,4(r8)
 5088e00:	41400015 	stw	r5,0(r8)
 5088e04:	d8c02015 	stw	r3,128(sp)
 5088e08:	d8801f15 	stw	r2,124(sp)
 5088e0c:	010001c4 	movi	r4,7
 5088e10:	20805c16 	blt	r4,r2,5088f84 <___vfprintf_internal_r+0x1b08>
 5088e14:	42000204 	addi	r8,r8,8
 5088e18:	8800041e 	bne	r17,zero,5088e2c <___vfprintf_internal_r+0x19b0>
 5088e1c:	d8803317 	ldw	r2,204(sp)
 5088e20:	1000021e 	bne	r2,zero,5088e2c <___vfprintf_internal_r+0x19b0>
 5088e24:	9080004c 	andi	r2,r18,1
 5088e28:	103c0926 	beq	r2,zero,5087e50 <___vfprintf_internal_r+0x9d4>
 5088e2c:	d9003717 	ldw	r4,220(sp)
 5088e30:	d8801f17 	ldw	r2,124(sp)
 5088e34:	d9403417 	ldw	r5,208(sp)
 5088e38:	20c7883a 	add	r3,r4,r3
 5088e3c:	10800044 	addi	r2,r2,1
 5088e40:	41000115 	stw	r4,4(r8)
 5088e44:	41400015 	stw	r5,0(r8)
 5088e48:	d8c02015 	stw	r3,128(sp)
 5088e4c:	d8801f15 	stw	r2,124(sp)
 5088e50:	010001c4 	movi	r4,7
 5088e54:	20812116 	blt	r4,r2,50892dc <___vfprintf_internal_r+0x1e60>
 5088e58:	42000204 	addi	r8,r8,8
 5088e5c:	0463c83a 	sub	r17,zero,r17
 5088e60:	0440730e 	bge	zero,r17,5089030 <___vfprintf_internal_r+0x1bb4>
 5088e64:	05800404 	movi	r22,16
 5088e68:	b440860e 	bge	r22,r17,5089084 <___vfprintf_internal_r+0x1c08>
 5088e6c:	01414274 	movhi	r5,1289
 5088e70:	295a4f84 	addi	r5,r5,26942
 5088e74:	d9402b15 	stw	r5,172(sp)
 5088e78:	070001c4 	movi	fp,7
 5088e7c:	dcc02c17 	ldw	r19,176(sp)
 5088e80:	00000306 	br	5088e90 <___vfprintf_internal_r+0x1a14>
 5088e84:	42000204 	addi	r8,r8,8
 5088e88:	8c7ffc04 	addi	r17,r17,-16
 5088e8c:	b440800e 	bge	r22,r17,5089090 <___vfprintf_internal_r+0x1c14>
 5088e90:	18c00404 	addi	r3,r3,16
 5088e94:	10800044 	addi	r2,r2,1
 5088e98:	45000015 	stw	r20,0(r8)
 5088e9c:	45800115 	stw	r22,4(r8)
 5088ea0:	d8c02015 	stw	r3,128(sp)
 5088ea4:	d8801f15 	stw	r2,124(sp)
 5088ea8:	e0bff60e 	bge	fp,r2,5088e84 <___vfprintf_internal_r+0x1a08>
 5088eac:	d9801e04 	addi	r6,sp,120
 5088eb0:	b80b883a 	mov	r5,r23
 5088eb4:	9809883a 	mov	r4,r19
 5088eb8:	508fd040 	call	508fd04 <__sprint_r>
 5088ebc:	103a711e 	bne	r2,zero,5087884 <___vfprintf_internal_r+0x408>
 5088ec0:	d8c02017 	ldw	r3,128(sp)
 5088ec4:	d8801f17 	ldw	r2,124(sp)
 5088ec8:	da000404 	addi	r8,sp,16
 5088ecc:	003fee06 	br	5088e88 <___vfprintf_internal_r+0x1a0c>
 5088ed0:	00bfffc4 	movi	r2,-1
 5088ed4:	003a6f06 	br	5087894 <___vfprintf_internal_r+0x418>
 5088ed8:	008011c4 	movi	r2,71
 5088edc:	1440b816 	blt	r2,r17,50891c0 <___vfprintf_internal_r+0x1d44>
 5088ee0:	04014274 	movhi	r16,1289
 5088ee4:	841a3904 	addi	r16,r16,26852
 5088ee8:	00c000c4 	movi	r3,3
 5088eec:	00bfdfc4 	movi	r2,-129
 5088ef0:	d8c02a15 	stw	r3,168(sp)
 5088ef4:	90a4703a 	and	r18,r18,r2
 5088ef8:	df002783 	ldbu	fp,158(sp)
 5088efc:	d8c02e15 	stw	r3,184(sp)
 5088f00:	d8002915 	stw	zero,164(sp)
 5088f04:	d8003215 	stw	zero,200(sp)
 5088f08:	003b2906 	br	5087bb0 <___vfprintf_internal_r+0x734>
 5088f0c:	d9002d17 	ldw	r4,180(sp)
 5088f10:	24c00017 	ldw	r19,0(r4)
 5088f14:	21000104 	addi	r4,r4,4
 5088f18:	d9002d15 	stw	r4,180(sp)
 5088f1c:	982dd7fa 	srai	r22,r19,31
 5088f20:	b005883a 	mov	r2,r22
 5088f24:	003a9f06 	br	50879a4 <___vfprintf_internal_r+0x528>
 5088f28:	d9402d17 	ldw	r5,180(sp)
 5088f2c:	d8c02f17 	ldw	r3,188(sp)
 5088f30:	28800017 	ldw	r2,0(r5)
 5088f34:	29400104 	addi	r5,r5,4
 5088f38:	d9402d15 	stw	r5,180(sp)
 5088f3c:	10c00015 	stw	r3,0(r2)
 5088f40:	00398606 	br	508755c <___vfprintf_internal_r+0xe0>
 5088f44:	d9402d17 	ldw	r5,180(sp)
 5088f48:	002d883a 	mov	r22,zero
 5088f4c:	2cc00017 	ldw	r19,0(r5)
 5088f50:	29400104 	addi	r5,r5,4
 5088f54:	d9402d15 	stw	r5,180(sp)
 5088f58:	003c2306 	br	5087fe8 <___vfprintf_internal_r+0xb6c>
 5088f5c:	d8c02d17 	ldw	r3,180(sp)
 5088f60:	d9002917 	ldw	r4,164(sp)
 5088f64:	002d883a 	mov	r22,zero
 5088f68:	18800104 	addi	r2,r3,4
 5088f6c:	1cc0000b 	ldhu	r19,0(r3)
 5088f70:	203dc10e 	bge	r4,zero,5088678 <___vfprintf_internal_r+0x11fc>
 5088f74:	003f7506 	br	5088d4c <___vfprintf_internal_r+0x18d0>
 5088f78:	04014274 	movhi	r16,1289
 5088f7c:	841a3704 	addi	r16,r16,26844
 5088f80:	003acc06 	br	5087ab4 <___vfprintf_internal_r+0x638>
 5088f84:	d9002c17 	ldw	r4,176(sp)
 5088f88:	d9801e04 	addi	r6,sp,120
 5088f8c:	b80b883a 	mov	r5,r23
 5088f90:	508fd040 	call	508fd04 <__sprint_r>
 5088f94:	103a3b1e 	bne	r2,zero,5087884 <___vfprintf_internal_r+0x408>
 5088f98:	dc402617 	ldw	r17,152(sp)
 5088f9c:	d8c02017 	ldw	r3,128(sp)
 5088fa0:	da000404 	addi	r8,sp,16
 5088fa4:	003f9c06 	br	5088e18 <___vfprintf_internal_r+0x199c>
 5088fa8:	ac400043 	ldbu	r17,1(r21)
 5088fac:	94800814 	ori	r18,r18,32
 5088fb0:	ad400044 	addi	r21,r21,1
 5088fb4:	8c403fcc 	andi	r17,r17,255
 5088fb8:	8c40201c 	xori	r17,r17,128
 5088fbc:	8c7fe004 	addi	r17,r17,-128
 5088fc0:	00398f06 	br	5087600 <___vfprintf_internal_r+0x184>
 5088fc4:	d8c02d15 	stw	r3,180(sp)
 5088fc8:	0039883a 	mov	fp,zero
 5088fcc:	003e3506 	br	50888a4 <___vfprintf_internal_r+0x1428>
 5088fd0:	d9002c17 	ldw	r4,176(sp)
 5088fd4:	d9801e04 	addi	r6,sp,120
 5088fd8:	b80b883a 	mov	r5,r23
 5088fdc:	508fd040 	call	508fd04 <__sprint_r>
 5088fe0:	103a281e 	bne	r2,zero,5087884 <___vfprintf_internal_r+0x408>
 5088fe4:	d8c02017 	ldw	r3,128(sp)
 5088fe8:	da000404 	addi	r8,sp,16
 5088fec:	003cd006 	br	5088330 <___vfprintf_internal_r+0xeb4>
 5088ff0:	8009883a 	mov	r4,r16
 5088ff4:	da003d15 	stw	r8,244(sp)
 5088ff8:	508520c0 	call	508520c <strlen>
 5088ffc:	d8802e15 	stw	r2,184(sp)
 5089000:	da003d17 	ldw	r8,244(sp)
 5089004:	103c340e 	bge	r2,zero,50880d8 <___vfprintf_internal_r+0xc5c>
 5089008:	0005883a 	mov	r2,zero
 508900c:	003c3206 	br	50880d8 <___vfprintf_internal_r+0xc5c>
 5089010:	d9002c17 	ldw	r4,176(sp)
 5089014:	d9801e04 	addi	r6,sp,120
 5089018:	b80b883a 	mov	r5,r23
 508901c:	508fd040 	call	508fd04 <__sprint_r>
 5089020:	103a181e 	bne	r2,zero,5087884 <___vfprintf_internal_r+0x408>
 5089024:	d8c02017 	ldw	r3,128(sp)
 5089028:	d8801f17 	ldw	r2,124(sp)
 508902c:	da000404 	addi	r8,sp,16
 5089030:	d9403317 	ldw	r5,204(sp)
 5089034:	10800044 	addi	r2,r2,1
 5089038:	44000015 	stw	r16,0(r8)
 508903c:	28c7883a 	add	r3,r5,r3
 5089040:	003b7d06 	br	5087e38 <___vfprintf_internal_r+0x9bc>
 5089044:	01014274 	movhi	r4,1289
 5089048:	211a5384 	addi	r4,r4,26958
 508904c:	d9003515 	stw	r4,212(sp)
 5089050:	003b1406 	br	5087ca4 <___vfprintf_internal_r+0x828>
 5089054:	013fffc4 	movi	r4,-1
 5089058:	003a3506 	br	5087930 <___vfprintf_internal_r+0x4b4>
 508905c:	0023883a 	mov	r17,zero
 5089060:	003d9d06 	br	50886d8 <___vfprintf_internal_r+0x125c>
 5089064:	d9002c17 	ldw	r4,176(sp)
 5089068:	d9801e04 	addi	r6,sp,120
 508906c:	b80b883a 	mov	r5,r23
 5089070:	508fd040 	call	508fd04 <__sprint_r>
 5089074:	103a031e 	bne	r2,zero,5087884 <___vfprintf_internal_r+0x408>
 5089078:	d8c02017 	ldw	r3,128(sp)
 508907c:	da000404 	addi	r8,sp,16
 5089080:	003d9406 	br	50886d4 <___vfprintf_internal_r+0x1258>
 5089084:	01014274 	movhi	r4,1289
 5089088:	211a4f84 	addi	r4,r4,26942
 508908c:	d9002b15 	stw	r4,172(sp)
 5089090:	d9002b17 	ldw	r4,172(sp)
 5089094:	1c47883a 	add	r3,r3,r17
 5089098:	10800044 	addi	r2,r2,1
 508909c:	41000015 	stw	r4,0(r8)
 50890a0:	44400115 	stw	r17,4(r8)
 50890a4:	d8c02015 	stw	r3,128(sp)
 50890a8:	d8801f15 	stw	r2,124(sp)
 50890ac:	010001c4 	movi	r4,7
 50890b0:	20bfd716 	blt	r4,r2,5089010 <___vfprintf_internal_r+0x1b94>
 50890b4:	42000204 	addi	r8,r8,8
 50890b8:	003fdd06 	br	5089030 <___vfprintf_internal_r+0x1bb4>
 50890bc:	d9002c17 	ldw	r4,176(sp)
 50890c0:	d9801e04 	addi	r6,sp,120
 50890c4:	b80b883a 	mov	r5,r23
 50890c8:	508fd040 	call	508fd04 <__sprint_r>
 50890cc:	1039ed1e 	bne	r2,zero,5087884 <___vfprintf_internal_r+0x408>
 50890d0:	d8802617 	ldw	r2,152(sp)
 50890d4:	d8c02017 	ldw	r3,128(sp)
 50890d8:	da000404 	addi	r8,sp,16
 50890dc:	003e1006 	br	5088920 <___vfprintf_internal_r+0x14a4>
 50890e0:	00800044 	movi	r2,1
 50890e4:	10803fcc 	andi	r2,r2,255
 50890e8:	00c00044 	movi	r3,1
 50890ec:	10fa3526 	beq	r2,r3,50879c4 <___vfprintf_internal_r+0x548>
 50890f0:	00c00084 	movi	r3,2
 50890f4:	10fbcb26 	beq	r2,r3,5088024 <___vfprintf_internal_r+0xba8>
 50890f8:	003a8f06 	br	5087b38 <___vfprintf_internal_r+0x6bc>
 50890fc:	01014274 	movhi	r4,1289
 5089100:	211a5384 	addi	r4,r4,26958
 5089104:	d9003515 	stw	r4,212(sp)
 5089108:	003b7606 	br	5087ee4 <___vfprintf_internal_r+0xa68>
 508910c:	d8802917 	ldw	r2,164(sp)
 5089110:	00c00184 	movi	r3,6
 5089114:	1880012e 	bgeu	r3,r2,508911c <___vfprintf_internal_r+0x1ca0>
 5089118:	1805883a 	mov	r2,r3
 508911c:	d8802e15 	stw	r2,184(sp)
 5089120:	1000ef16 	blt	r2,zero,50894e0 <___vfprintf_internal_r+0x2064>
 5089124:	04014274 	movhi	r16,1289
 5089128:	d8802a15 	stw	r2,168(sp)
 508912c:	dcc02d15 	stw	r19,180(sp)
 5089130:	d8002915 	stw	zero,164(sp)
 5089134:	d8003215 	stw	zero,200(sp)
 5089138:	841a4504 	addi	r16,r16,26900
 508913c:	0039883a 	mov	fp,zero
 5089140:	003aa206 	br	5087bcc <___vfprintf_internal_r+0x750>
 5089144:	0021883a 	mov	r16,zero
 5089148:	003e0706 	br	5088968 <___vfprintf_internal_r+0x14ec>
 508914c:	d9002c17 	ldw	r4,176(sp)
 5089150:	d9801e04 	addi	r6,sp,120
 5089154:	b80b883a 	mov	r5,r23
 5089158:	508fd040 	call	508fd04 <__sprint_r>
 508915c:	1039c91e 	bne	r2,zero,5087884 <___vfprintf_internal_r+0x408>
 5089160:	d8802617 	ldw	r2,152(sp)
 5089164:	d9403317 	ldw	r5,204(sp)
 5089168:	d8c02017 	ldw	r3,128(sp)
 508916c:	da000404 	addi	r8,sp,16
 5089170:	2885c83a 	sub	r2,r5,r2
 5089174:	003dfb06 	br	5088964 <___vfprintf_internal_r+0x14e8>
 5089178:	9080004c 	andi	r2,r18,1
 508917c:	103e8f1e 	bne	r2,zero,5088bbc <___vfprintf_internal_r+0x1740>
 5089180:	d8802117 	ldw	r2,132(sp)
 5089184:	003e9e06 	br	5088c00 <___vfprintf_internal_r+0x1784>
 5089188:	1025883a 	mov	r18,r2
 508918c:	0039883a 	mov	fp,zero
 5089190:	00800084 	movi	r2,2
 5089194:	003fd306 	br	50890e4 <___vfprintf_internal_r+0x1c68>
 5089198:	07000b44 	movi	fp,45
 508919c:	df002785 	stb	fp,158(sp)
 50891a0:	003a4006 	br	5087aa4 <___vfprintf_internal_r+0x628>
 50891a4:	00c00b44 	movi	r3,45
 50891a8:	d8c02785 	stb	r3,158(sp)
 50891ac:	d8802a15 	stw	r2,168(sp)
 50891b0:	dc802b17 	ldw	r18,172(sp)
 50891b4:	d8002915 	stw	zero,164(sp)
 50891b8:	07000b44 	movi	fp,45
 50891bc:	003a8006 	br	5087bc0 <___vfprintf_internal_r+0x744>
 50891c0:	04014274 	movhi	r16,1289
 50891c4:	841a3a04 	addi	r16,r16,26856
 50891c8:	003f4706 	br	5088ee8 <___vfprintf_internal_r+0x1a6c>
 50891cc:	d8c02d17 	ldw	r3,180(sp)
 50891d0:	d9002f17 	ldw	r4,188(sp)
 50891d4:	18800017 	ldw	r2,0(r3)
 50891d8:	18c00104 	addi	r3,r3,4
 50891dc:	d8c02d15 	stw	r3,180(sp)
 50891e0:	11000015 	stw	r4,0(r2)
 50891e4:	0038dd06 	br	508755c <___vfprintf_internal_r+0xe0>
 50891e8:	dd802617 	ldw	r22,152(sp)
 50891ec:	00bfff44 	movi	r2,-3
 50891f0:	b0801c16 	blt	r22,r2,5089264 <___vfprintf_internal_r+0x1de8>
 50891f4:	d9402917 	ldw	r5,164(sp)
 50891f8:	2d801a16 	blt	r5,r22,5089264 <___vfprintf_internal_r+0x1de8>
 50891fc:	dd803215 	stw	r22,200(sp)
 5089200:	003e8906 	br	5088c28 <___vfprintf_internal_r+0x17ac>
 5089204:	01014274 	movhi	r4,1289
 5089208:	211a4f84 	addi	r4,r4,26942
 508920c:	d9002b15 	stw	r4,172(sp)
 5089210:	003c9106 	br	5088458 <___vfprintf_internal_r+0xfdc>
 5089214:	e005883a 	mov	r2,fp
 5089218:	003e7906 	br	5088c00 <___vfprintf_internal_r+0x1784>
 508921c:	d9402917 	ldw	r5,164(sp)
 5089220:	df002783 	ldbu	fp,158(sp)
 5089224:	dcc02d15 	stw	r19,180(sp)
 5089228:	d9402a15 	stw	r5,168(sp)
 508922c:	d9402e15 	stw	r5,184(sp)
 5089230:	d8002915 	stw	zero,164(sp)
 5089234:	d8003215 	stw	zero,200(sp)
 5089238:	003a5d06 	br	5087bb0 <___vfprintf_internal_r+0x734>
 508923c:	9080004c 	andi	r2,r18,1
 5089240:	0039883a 	mov	fp,zero
 5089244:	10000426 	beq	r2,zero,5089258 <___vfprintf_internal_r+0x1ddc>
 5089248:	00800c04 	movi	r2,48
 508924c:	dc001dc4 	addi	r16,sp,119
 5089250:	d8801dc5 	stb	r2,119(sp)
 5089254:	003b8006 	br	5088058 <___vfprintf_internal_r+0xbdc>
 5089258:	d8002e15 	stw	zero,184(sp)
 508925c:	dc001e04 	addi	r16,sp,120
 5089260:	003a4d06 	br	5087b98 <___vfprintf_internal_r+0x71c>
 5089264:	8c7fff84 	addi	r17,r17,-2
 5089268:	b5bfffc4 	addi	r22,r22,-1
 508926c:	dd802615 	stw	r22,152(sp)
 5089270:	dc4022c5 	stb	r17,139(sp)
 5089274:	b000bf16 	blt	r22,zero,5089574 <___vfprintf_internal_r+0x20f8>
 5089278:	00800ac4 	movi	r2,43
 508927c:	d8802305 	stb	r2,140(sp)
 5089280:	00800244 	movi	r2,9
 5089284:	15807016 	blt	r2,r22,5089448 <___vfprintf_internal_r+0x1fcc>
 5089288:	00800c04 	movi	r2,48
 508928c:	b5800c04 	addi	r22,r22,48
 5089290:	d8802345 	stb	r2,141(sp)
 5089294:	dd802385 	stb	r22,142(sp)
 5089298:	d88023c4 	addi	r2,sp,143
 508929c:	df0022c4 	addi	fp,sp,139
 50892a0:	d8c03317 	ldw	r3,204(sp)
 50892a4:	1739c83a 	sub	fp,r2,fp
 50892a8:	d9003317 	ldw	r4,204(sp)
 50892ac:	e0c7883a 	add	r3,fp,r3
 50892b0:	df003a15 	stw	fp,232(sp)
 50892b4:	d8c02e15 	stw	r3,184(sp)
 50892b8:	00800044 	movi	r2,1
 50892bc:	1100b30e 	bge	r2,r4,508958c <___vfprintf_internal_r+0x2110>
 50892c0:	d8c02e17 	ldw	r3,184(sp)
 50892c4:	18c00044 	addi	r3,r3,1
 50892c8:	d8c02e15 	stw	r3,184(sp)
 50892cc:	1805883a 	mov	r2,r3
 50892d0:	1800ac16 	blt	r3,zero,5089584 <___vfprintf_internal_r+0x2108>
 50892d4:	d8003215 	stw	zero,200(sp)
 50892d8:	003e5d06 	br	5088c50 <___vfprintf_internal_r+0x17d4>
 50892dc:	d9002c17 	ldw	r4,176(sp)
 50892e0:	d9801e04 	addi	r6,sp,120
 50892e4:	b80b883a 	mov	r5,r23
 50892e8:	508fd040 	call	508fd04 <__sprint_r>
 50892ec:	1039651e 	bne	r2,zero,5087884 <___vfprintf_internal_r+0x408>
 50892f0:	dc402617 	ldw	r17,152(sp)
 50892f4:	d8c02017 	ldw	r3,128(sp)
 50892f8:	d8801f17 	ldw	r2,124(sp)
 50892fc:	da000404 	addi	r8,sp,16
 5089300:	003ed606 	br	5088e5c <___vfprintf_internal_r+0x19e0>
 5089304:	582b883a 	mov	r21,r11
 5089308:	d8002915 	stw	zero,164(sp)
 508930c:	0038bd06 	br	5087604 <___vfprintf_internal_r+0x188>
 5089310:	d8802917 	ldw	r2,164(sp)
 5089314:	103e071e 	bne	r2,zero,5088b34 <___vfprintf_internal_r+0x16b8>
 5089318:	dc002915 	stw	r16,164(sp)
 508931c:	003e0506 	br	5088b34 <___vfprintf_internal_r+0x16b8>
 5089320:	d9002917 	ldw	r4,164(sp)
 5089324:	20c00044 	addi	r3,r4,1
 5089328:	003e0f06 	br	5088b68 <___vfprintf_internal_r+0x16ec>
 508932c:	01400184 	movi	r5,6
 5089330:	d9402915 	stw	r5,164(sp)
 5089334:	003dff06 	br	5088b34 <___vfprintf_internal_r+0x16b8>
 5089338:	d8802104 	addi	r2,sp,132
 508933c:	d8800315 	stw	r2,12(sp)
 5089340:	d8802504 	addi	r2,sp,148
 5089344:	d8800215 	stw	r2,8(sp)
 5089348:	d8802604 	addi	r2,sp,152
 508934c:	d8800115 	stw	r2,4(sp)
 5089350:	d8802917 	ldw	r2,164(sp)
 5089354:	d9403617 	ldw	r5,216(sp)
 5089358:	d9002c17 	ldw	r4,176(sp)
 508935c:	d8800015 	stw	r2,0(sp)
 5089360:	01c000c4 	movi	r7,3
 5089364:	980d883a 	mov	r6,r19
 5089368:	da003d15 	stw	r8,244(sp)
 508936c:	5089bc40 	call	5089bc4 <_dtoa_r>
 5089370:	d8c02917 	ldw	r3,164(sp)
 5089374:	da003d17 	ldw	r8,244(sp)
 5089378:	1021883a 	mov	r16,r2
 508937c:	10f9883a 	add	fp,r2,r3
 5089380:	81000007 	ldb	r4,0(r16)
 5089384:	00800c04 	movi	r2,48
 5089388:	20805e26 	beq	r4,r2,5089504 <___vfprintf_internal_r+0x2088>
 508938c:	d8c02617 	ldw	r3,152(sp)
 5089390:	e0f9883a 	add	fp,fp,r3
 5089394:	003e0a06 	br	5088bc0 <___vfprintf_internal_r+0x1744>
 5089398:	00c00b44 	movi	r3,45
 508939c:	24e0003c 	xorhi	r19,r4,32768
 50893a0:	d8c02a05 	stb	r3,168(sp)
 50893a4:	003de906 	br	5088b4c <___vfprintf_internal_r+0x16d0>
 50893a8:	d8c03217 	ldw	r3,200(sp)
 50893ac:	00c07a0e 	bge	zero,r3,5089598 <___vfprintf_internal_r+0x211c>
 50893b0:	00800044 	movi	r2,1
 50893b4:	d9003317 	ldw	r4,204(sp)
 50893b8:	1105883a 	add	r2,r2,r4
 50893bc:	d8802e15 	stw	r2,184(sp)
 50893c0:	10004e16 	blt	r2,zero,50894fc <___vfprintf_internal_r+0x2080>
 50893c4:	044019c4 	movi	r17,103
 50893c8:	003e2106 	br	5088c50 <___vfprintf_internal_r+0x17d4>
 50893cc:	d9002917 	ldw	r4,164(sp)
 50893d0:	d8802104 	addi	r2,sp,132
 50893d4:	d8800315 	stw	r2,12(sp)
 50893d8:	d9000015 	stw	r4,0(sp)
 50893dc:	d8802504 	addi	r2,sp,148
 50893e0:	d9403617 	ldw	r5,216(sp)
 50893e4:	d9002c17 	ldw	r4,176(sp)
 50893e8:	d8800215 	stw	r2,8(sp)
 50893ec:	d8802604 	addi	r2,sp,152
 50893f0:	d8800115 	stw	r2,4(sp)
 50893f4:	01c000c4 	movi	r7,3
 50893f8:	980d883a 	mov	r6,r19
 50893fc:	da003d15 	stw	r8,244(sp)
 5089400:	5089bc40 	call	5089bc4 <_dtoa_r>
 5089404:	d8c02917 	ldw	r3,164(sp)
 5089408:	da003d17 	ldw	r8,244(sp)
 508940c:	1021883a 	mov	r16,r2
 5089410:	00801184 	movi	r2,70
 5089414:	80f9883a 	add	fp,r16,r3
 5089418:	88bfd926 	beq	r17,r2,5089380 <___vfprintf_internal_r+0x1f04>
 508941c:	003de806 	br	5088bc0 <___vfprintf_internal_r+0x1744>
 5089420:	d9002917 	ldw	r4,164(sp)
 5089424:	00c04d0e 	bge	zero,r3,508955c <___vfprintf_internal_r+0x20e0>
 5089428:	2000441e 	bne	r4,zero,508953c <___vfprintf_internal_r+0x20c0>
 508942c:	9480004c 	andi	r18,r18,1
 5089430:	9000421e 	bne	r18,zero,508953c <___vfprintf_internal_r+0x20c0>
 5089434:	1805883a 	mov	r2,r3
 5089438:	18007016 	blt	r3,zero,50895fc <___vfprintf_internal_r+0x2180>
 508943c:	d8c03217 	ldw	r3,200(sp)
 5089440:	d8c02e15 	stw	r3,184(sp)
 5089444:	003e0206 	br	5088c50 <___vfprintf_internal_r+0x17d4>
 5089448:	df0022c4 	addi	fp,sp,139
 508944c:	dc002915 	stw	r16,164(sp)
 5089450:	4027883a 	mov	r19,r8
 5089454:	e021883a 	mov	r16,fp
 5089458:	b009883a 	mov	r4,r22
 508945c:	01400284 	movi	r5,10
 5089460:	50831400 	call	5083140 <__modsi3>
 5089464:	10800c04 	addi	r2,r2,48
 5089468:	843fffc4 	addi	r16,r16,-1
 508946c:	b009883a 	mov	r4,r22
 5089470:	01400284 	movi	r5,10
 5089474:	80800005 	stb	r2,0(r16)
 5089478:	50830bc0 	call	50830bc <__divsi3>
 508947c:	102d883a 	mov	r22,r2
 5089480:	00800244 	movi	r2,9
 5089484:	15bff416 	blt	r2,r22,5089458 <___vfprintf_internal_r+0x1fdc>
 5089488:	9811883a 	mov	r8,r19
 508948c:	b0800c04 	addi	r2,r22,48
 5089490:	8027883a 	mov	r19,r16
 5089494:	997fffc4 	addi	r5,r19,-1
 5089498:	98bfffc5 	stb	r2,-1(r19)
 508949c:	dc002917 	ldw	r16,164(sp)
 50894a0:	2f006a2e 	bgeu	r5,fp,508964c <___vfprintf_internal_r+0x21d0>
 50894a4:	d9c02384 	addi	r7,sp,142
 50894a8:	3ccfc83a 	sub	r7,r7,r19
 50894ac:	d9002344 	addi	r4,sp,141
 50894b0:	e1cf883a 	add	r7,fp,r7
 50894b4:	00000106 	br	50894bc <___vfprintf_internal_r+0x2040>
 50894b8:	28800003 	ldbu	r2,0(r5)
 50894bc:	20800005 	stb	r2,0(r4)
 50894c0:	21000044 	addi	r4,r4,1
 50894c4:	29400044 	addi	r5,r5,1
 50894c8:	393ffb1e 	bne	r7,r4,50894b8 <___vfprintf_internal_r+0x203c>
 50894cc:	d8802304 	addi	r2,sp,140
 50894d0:	14c5c83a 	sub	r2,r2,r19
 50894d4:	d8c02344 	addi	r3,sp,141
 50894d8:	1885883a 	add	r2,r3,r2
 50894dc:	003f7006 	br	50892a0 <___vfprintf_internal_r+0x1e24>
 50894e0:	0005883a 	mov	r2,zero
 50894e4:	003f0f06 	br	5089124 <___vfprintf_internal_r+0x1ca8>
 50894e8:	d8c03217 	ldw	r3,200(sp)
 50894ec:	18c00044 	addi	r3,r3,1
 50894f0:	d8c02e15 	stw	r3,184(sp)
 50894f4:	1805883a 	mov	r2,r3
 50894f8:	183fb20e 	bge	r3,zero,50893c4 <___vfprintf_internal_r+0x1f48>
 50894fc:	0005883a 	mov	r2,zero
 5089500:	003fb006 	br	50893c4 <___vfprintf_internal_r+0x1f48>
 5089504:	d9003617 	ldw	r4,216(sp)
 5089508:	000d883a 	mov	r6,zero
 508950c:	000f883a 	mov	r7,zero
 5089510:	980b883a 	mov	r5,r19
 5089514:	d8c03c15 	stw	r3,240(sp)
 5089518:	da003d15 	stw	r8,244(sp)
 508951c:	5092f1c0 	call	5092f1c <__eqdf2>
 5089520:	d8c03c17 	ldw	r3,240(sp)
 5089524:	da003d17 	ldw	r8,244(sp)
 5089528:	103f9826 	beq	r2,zero,508938c <___vfprintf_internal_r+0x1f10>
 508952c:	00800044 	movi	r2,1
 5089530:	10c7c83a 	sub	r3,r2,r3
 5089534:	d8c02615 	stw	r3,152(sp)
 5089538:	003f9506 	br	5089390 <___vfprintf_internal_r+0x1f14>
 508953c:	d9002917 	ldw	r4,164(sp)
 5089540:	d8c03217 	ldw	r3,200(sp)
 5089544:	20800044 	addi	r2,r4,1
 5089548:	1885883a 	add	r2,r3,r2
 508954c:	d8802e15 	stw	r2,184(sp)
 5089550:	103dbf0e 	bge	r2,zero,5088c50 <___vfprintf_internal_r+0x17d4>
 5089554:	0005883a 	mov	r2,zero
 5089558:	003dbd06 	br	5088c50 <___vfprintf_internal_r+0x17d4>
 508955c:	2000211e 	bne	r4,zero,50895e4 <___vfprintf_internal_r+0x2168>
 5089560:	9480004c 	andi	r18,r18,1
 5089564:	90001f1e 	bne	r18,zero,50895e4 <___vfprintf_internal_r+0x2168>
 5089568:	00800044 	movi	r2,1
 508956c:	d8802e15 	stw	r2,184(sp)
 5089570:	003db706 	br	5088c50 <___vfprintf_internal_r+0x17d4>
 5089574:	00800b44 	movi	r2,45
 5089578:	05adc83a 	sub	r22,zero,r22
 508957c:	d8802305 	stb	r2,140(sp)
 5089580:	003f3f06 	br	5089280 <___vfprintf_internal_r+0x1e04>
 5089584:	0005883a 	mov	r2,zero
 5089588:	003f5206 	br	50892d4 <___vfprintf_internal_r+0x1e58>
 508958c:	90a4703a 	and	r18,r18,r2
 5089590:	903f4e26 	beq	r18,zero,50892cc <___vfprintf_internal_r+0x1e50>
 5089594:	003f4a06 	br	50892c0 <___vfprintf_internal_r+0x1e44>
 5089598:	00800084 	movi	r2,2
 508959c:	10c5c83a 	sub	r2,r2,r3
 50895a0:	003f8406 	br	50893b4 <___vfprintf_internal_r+0x1f38>
 50895a4:	d8802d17 	ldw	r2,180(sp)
 50895a8:	d9002d17 	ldw	r4,180(sp)
 50895ac:	ac400043 	ldbu	r17,1(r21)
 50895b0:	10800017 	ldw	r2,0(r2)
 50895b4:	582b883a 	mov	r21,r11
 50895b8:	d8802915 	stw	r2,164(sp)
 50895bc:	20800104 	addi	r2,r4,4
 50895c0:	d9002917 	ldw	r4,164(sp)
 50895c4:	d8802d15 	stw	r2,180(sp)
 50895c8:	203e7a0e 	bge	r4,zero,5088fb4 <___vfprintf_internal_r+0x1b38>
 50895cc:	8c403fcc 	andi	r17,r17,255
 50895d0:	00bfffc4 	movi	r2,-1
 50895d4:	8c40201c 	xori	r17,r17,128
 50895d8:	d8802915 	stw	r2,164(sp)
 50895dc:	8c7fe004 	addi	r17,r17,-128
 50895e0:	00380706 	br	5087600 <___vfprintf_internal_r+0x184>
 50895e4:	d8c02917 	ldw	r3,164(sp)
 50895e8:	18c00084 	addi	r3,r3,2
 50895ec:	d8c02e15 	stw	r3,184(sp)
 50895f0:	1805883a 	mov	r2,r3
 50895f4:	183d960e 	bge	r3,zero,5088c50 <___vfprintf_internal_r+0x17d4>
 50895f8:	003fd606 	br	5089554 <___vfprintf_internal_r+0x20d8>
 50895fc:	0005883a 	mov	r2,zero
 5089600:	003f8e06 	br	508943c <___vfprintf_internal_r+0x1fc0>
 5089604:	9080004c 	andi	r2,r18,1
 5089608:	103f811e 	bne	r2,zero,5089410 <___vfprintf_internal_r+0x1f94>
 508960c:	d8802117 	ldw	r2,132(sp)
 5089610:	1405c83a 	sub	r2,r2,r16
 5089614:	d8803315 	stw	r2,204(sp)
 5089618:	b47ef326 	beq	r22,r17,50891e8 <___vfprintf_internal_r+0x1d6c>
 508961c:	dd802617 	ldw	r22,152(sp)
 5089620:	003f1106 	br	5089268 <___vfprintf_internal_r+0x1dec>
 5089624:	d9c02785 	stb	r7,158(sp)
 5089628:	00390406 	br	5087a3c <___vfprintf_internal_r+0x5c0>
 508962c:	d9c02785 	stb	r7,158(sp)
 5089630:	0038d306 	br	5087980 <___vfprintf_internal_r+0x504>
 5089634:	d9c02785 	stb	r7,158(sp)
 5089638:	003a6106 	br	5087fc0 <___vfprintf_internal_r+0xb44>
 508963c:	d9c02785 	stb	r7,158(sp)
 5089640:	003af806 	br	5088224 <___vfprintf_internal_r+0xda8>
 5089644:	0005883a 	mov	r2,zero
 5089648:	003d7e06 	br	5088c44 <___vfprintf_internal_r+0x17c8>
 508964c:	d8802344 	addi	r2,sp,141
 5089650:	003f1306 	br	50892a0 <___vfprintf_internal_r+0x1e24>
 5089654:	d9c02785 	stb	r7,158(sp)
 5089658:	00392306 	br	5087ae8 <___vfprintf_internal_r+0x66c>
 508965c:	d9c02785 	stb	r7,158(sp)
 5089660:	003aa906 	br	5088108 <___vfprintf_internal_r+0xc8c>
 5089664:	d9c02785 	stb	r7,158(sp)
 5089668:	003a3d06 	br	5087f60 <___vfprintf_internal_r+0xae4>
 508966c:	d9c02785 	stb	r7,158(sp)
 5089670:	003aca06 	br	508819c <___vfprintf_internal_r+0xd20>

05089674 <__vfprintf_internal>:
 5089674:	008142b4 	movhi	r2,1290
 5089678:	10a17404 	addi	r2,r2,-31280
 508967c:	300f883a 	mov	r7,r6
 5089680:	280d883a 	mov	r6,r5
 5089684:	200b883a 	mov	r5,r4
 5089688:	11000017 	ldw	r4,0(r2)
 508968c:	508747c1 	jmpi	508747c <___vfprintf_internal_r>

05089690 <__sbprintf>:
 5089690:	2880030b 	ldhu	r2,12(r5)
 5089694:	2ac01917 	ldw	r11,100(r5)
 5089698:	2a80038b 	ldhu	r10,14(r5)
 508969c:	2a400717 	ldw	r9,28(r5)
 50896a0:	2a000917 	ldw	r8,36(r5)
 50896a4:	defee204 	addi	sp,sp,-1144
 50896a8:	00c10004 	movi	r3,1024
 50896ac:	dc011a15 	stw	r16,1128(sp)
 50896b0:	10bfff4c 	andi	r2,r2,65533
 50896b4:	2821883a 	mov	r16,r5
 50896b8:	d8cb883a 	add	r5,sp,r3
 50896bc:	dc811c15 	stw	r18,1136(sp)
 50896c0:	dc411b15 	stw	r17,1132(sp)
 50896c4:	dfc11d15 	stw	ra,1140(sp)
 50896c8:	2025883a 	mov	r18,r4
 50896cc:	d881030d 	sth	r2,1036(sp)
 50896d0:	dac11915 	stw	r11,1124(sp)
 50896d4:	da81038d 	sth	r10,1038(sp)
 50896d8:	da410715 	stw	r9,1052(sp)
 50896dc:	da010915 	stw	r8,1060(sp)
 50896e0:	dec10015 	stw	sp,1024(sp)
 50896e4:	dec10415 	stw	sp,1040(sp)
 50896e8:	d8c10215 	stw	r3,1032(sp)
 50896ec:	d8c10515 	stw	r3,1044(sp)
 50896f0:	d8010615 	stw	zero,1048(sp)
 50896f4:	508747c0 	call	508747c <___vfprintf_internal_r>
 50896f8:	1023883a 	mov	r17,r2
 50896fc:	10000416 	blt	r2,zero,5089710 <__sbprintf+0x80>
 5089700:	d9410004 	addi	r5,sp,1024
 5089704:	9009883a 	mov	r4,r18
 5089708:	508b4680 	call	508b468 <_fflush_r>
 508970c:	10000d1e 	bne	r2,zero,5089744 <__sbprintf+0xb4>
 5089710:	d881030b 	ldhu	r2,1036(sp)
 5089714:	1080100c 	andi	r2,r2,64
 5089718:	10000326 	beq	r2,zero,5089728 <__sbprintf+0x98>
 508971c:	8080030b 	ldhu	r2,12(r16)
 5089720:	10801014 	ori	r2,r2,64
 5089724:	8080030d 	sth	r2,12(r16)
 5089728:	8805883a 	mov	r2,r17
 508972c:	dfc11d17 	ldw	ra,1140(sp)
 5089730:	dc811c17 	ldw	r18,1136(sp)
 5089734:	dc411b17 	ldw	r17,1132(sp)
 5089738:	dc011a17 	ldw	r16,1128(sp)
 508973c:	dec11e04 	addi	sp,sp,1144
 5089740:	f800283a 	ret
 5089744:	047fffc4 	movi	r17,-1
 5089748:	003ff106 	br	5089710 <__sbprintf+0x80>

0508974c <_vsnprintf_r>:
 508974c:	30003716 	blt	r6,zero,508982c <_vsnprintf_r+0xe0>
 5089750:	deffe404 	addi	sp,sp,-112
 5089754:	00c08204 	movi	r3,520
 5089758:	dc001a15 	stw	r16,104(sp)
 508975c:	3005883a 	mov	r2,r6
 5089760:	dfc01b15 	stw	ra,108(sp)
 5089764:	d8c0030d 	sth	r3,12(sp)
 5089768:	d9400015 	stw	r5,0(sp)
 508976c:	d9400415 	stw	r5,16(sp)
 5089770:	380d883a 	mov	r6,r7
 5089774:	2021883a 	mov	r16,r4
 5089778:	10001326 	beq	r2,zero,50897c8 <_vsnprintf_r+0x7c>
 508977c:	00c142b4 	movhi	r3,1290
 5089780:	18e17404 	addi	r3,r3,-31280
 5089784:	19000017 	ldw	r4,0(r3)
 5089788:	d9c01c17 	ldw	r7,112(sp)
 508978c:	10bfffc4 	addi	r2,r2,-1
 5089790:	d8800215 	stw	r2,8(sp)
 5089794:	d8800515 	stw	r2,20(sp)
 5089798:	d80b883a 	mov	r5,sp
 508979c:	00bfffc4 	movi	r2,-1
 50897a0:	d880038d 	sth	r2,14(sp)
 50897a4:	50852a40 	call	50852a4 <___svfprintf_internal_r>
 50897a8:	00ffffc4 	movi	r3,-1
 50897ac:	10c01616 	blt	r2,r3,5089808 <_vsnprintf_r+0xbc>
 50897b0:	d8c00017 	ldw	r3,0(sp)
 50897b4:	18000005 	stb	zero,0(r3)
 50897b8:	dfc01b17 	ldw	ra,108(sp)
 50897bc:	dc001a17 	ldw	r16,104(sp)
 50897c0:	dec01c04 	addi	sp,sp,112
 50897c4:	f800283a 	ret
 50897c8:	008142b4 	movhi	r2,1290
 50897cc:	10a17404 	addi	r2,r2,-31280
 50897d0:	11000017 	ldw	r4,0(r2)
 50897d4:	d9c01c17 	ldw	r7,112(sp)
 50897d8:	00bfffc4 	movi	r2,-1
 50897dc:	d80b883a 	mov	r5,sp
 50897e0:	d8000215 	stw	zero,8(sp)
 50897e4:	d8000515 	stw	zero,20(sp)
 50897e8:	d880038d 	sth	r2,14(sp)
 50897ec:	50852a40 	call	50852a4 <___svfprintf_internal_r>
 50897f0:	00ffffc4 	movi	r3,-1
 50897f4:	10c00716 	blt	r2,r3,5089814 <_vsnprintf_r+0xc8>
 50897f8:	dfc01b17 	ldw	ra,108(sp)
 50897fc:	dc001a17 	ldw	r16,104(sp)
 5089800:	dec01c04 	addi	sp,sp,112
 5089804:	f800283a 	ret
 5089808:	00c022c4 	movi	r3,139
 508980c:	80c00015 	stw	r3,0(r16)
 5089810:	003fe706 	br	50897b0 <_vsnprintf_r+0x64>
 5089814:	00c022c4 	movi	r3,139
 5089818:	80c00015 	stw	r3,0(r16)
 508981c:	dfc01b17 	ldw	ra,108(sp)
 5089820:	dc001a17 	ldw	r16,104(sp)
 5089824:	dec01c04 	addi	sp,sp,112
 5089828:	f800283a 	ret
 508982c:	008022c4 	movi	r2,139
 5089830:	20800015 	stw	r2,0(r4)
 5089834:	00bfffc4 	movi	r2,-1
 5089838:	f800283a 	ret

0508983c <vsnprintf>:
 508983c:	defffe04 	addi	sp,sp,-8
 5089840:	008142b4 	movhi	r2,1290
 5089844:	d9c00015 	stw	r7,0(sp)
 5089848:	10a17404 	addi	r2,r2,-31280
 508984c:	300f883a 	mov	r7,r6
 5089850:	280d883a 	mov	r6,r5
 5089854:	200b883a 	mov	r5,r4
 5089858:	11000017 	ldw	r4,0(r2)
 508985c:	dfc00115 	stw	ra,4(sp)
 5089860:	508974c0 	call	508974c <_vsnprintf_r>
 5089864:	dfc00117 	ldw	ra,4(sp)
 5089868:	dec00204 	addi	sp,sp,8
 508986c:	f800283a 	ret

05089870 <__swsetup_r>:
 5089870:	008142b4 	movhi	r2,1290
 5089874:	defffd04 	addi	sp,sp,-12
 5089878:	10a17404 	addi	r2,r2,-31280
 508987c:	dc400115 	stw	r17,4(sp)
 5089880:	2023883a 	mov	r17,r4
 5089884:	11000017 	ldw	r4,0(r2)
 5089888:	dc000015 	stw	r16,0(sp)
 508988c:	dfc00215 	stw	ra,8(sp)
 5089890:	2821883a 	mov	r16,r5
 5089894:	20000226 	beq	r4,zero,50898a0 <__swsetup_r+0x30>
 5089898:	20800e17 	ldw	r2,56(r4)
 508989c:	10003126 	beq	r2,zero,5089964 <__swsetup_r+0xf4>
 50898a0:	8080030b 	ldhu	r2,12(r16)
 50898a4:	10c0020c 	andi	r3,r2,8
 50898a8:	1009883a 	mov	r4,r2
 50898ac:	18000f26 	beq	r3,zero,50898ec <__swsetup_r+0x7c>
 50898b0:	80c00417 	ldw	r3,16(r16)
 50898b4:	18001526 	beq	r3,zero,508990c <__swsetup_r+0x9c>
 50898b8:	1100004c 	andi	r4,r2,1
 50898bc:	20001c1e 	bne	r4,zero,5089930 <__swsetup_r+0xc0>
 50898c0:	1080008c 	andi	r2,r2,2
 50898c4:	1000291e 	bne	r2,zero,508996c <__swsetup_r+0xfc>
 50898c8:	80800517 	ldw	r2,20(r16)
 50898cc:	80800215 	stw	r2,8(r16)
 50898d0:	18001c26 	beq	r3,zero,5089944 <__swsetup_r+0xd4>
 50898d4:	0005883a 	mov	r2,zero
 50898d8:	dfc00217 	ldw	ra,8(sp)
 50898dc:	dc400117 	ldw	r17,4(sp)
 50898e0:	dc000017 	ldw	r16,0(sp)
 50898e4:	dec00304 	addi	sp,sp,12
 50898e8:	f800283a 	ret
 50898ec:	2080040c 	andi	r2,r4,16
 50898f0:	10002e26 	beq	r2,zero,50899ac <__swsetup_r+0x13c>
 50898f4:	2080010c 	andi	r2,r4,4
 50898f8:	10001e1e 	bne	r2,zero,5089974 <__swsetup_r+0x104>
 50898fc:	80c00417 	ldw	r3,16(r16)
 5089900:	20800214 	ori	r2,r4,8
 5089904:	8080030d 	sth	r2,12(r16)
 5089908:	183feb1e 	bne	r3,zero,50898b8 <__swsetup_r+0x48>
 508990c:	1100a00c 	andi	r4,r2,640
 5089910:	01408004 	movi	r5,512
 5089914:	217fe826 	beq	r4,r5,50898b8 <__swsetup_r+0x48>
 5089918:	800b883a 	mov	r5,r16
 508991c:	8809883a 	mov	r4,r17
 5089920:	508c3e80 	call	508c3e8 <__smakebuf_r>
 5089924:	8080030b 	ldhu	r2,12(r16)
 5089928:	80c00417 	ldw	r3,16(r16)
 508992c:	003fe206 	br	50898b8 <__swsetup_r+0x48>
 5089930:	80800517 	ldw	r2,20(r16)
 5089934:	80000215 	stw	zero,8(r16)
 5089938:	0085c83a 	sub	r2,zero,r2
 508993c:	80800615 	stw	r2,24(r16)
 5089940:	183fe41e 	bne	r3,zero,50898d4 <__swsetup_r+0x64>
 5089944:	80c0030b 	ldhu	r3,12(r16)
 5089948:	0005883a 	mov	r2,zero
 508994c:	1900200c 	andi	r4,r3,128
 5089950:	203fe126 	beq	r4,zero,50898d8 <__swsetup_r+0x68>
 5089954:	18c01014 	ori	r3,r3,64
 5089958:	80c0030d 	sth	r3,12(r16)
 508995c:	00bfffc4 	movi	r2,-1
 5089960:	003fdd06 	br	50898d8 <__swsetup_r+0x68>
 5089964:	508b8440 	call	508b844 <__sinit>
 5089968:	003fcd06 	br	50898a0 <__swsetup_r+0x30>
 508996c:	0005883a 	mov	r2,zero
 5089970:	003fd606 	br	50898cc <__swsetup_r+0x5c>
 5089974:	81400c17 	ldw	r5,48(r16)
 5089978:	28000626 	beq	r5,zero,5089994 <__swsetup_r+0x124>
 508997c:	80801004 	addi	r2,r16,64
 5089980:	28800326 	beq	r5,r2,5089990 <__swsetup_r+0x120>
 5089984:	8809883a 	mov	r4,r17
 5089988:	508b9b80 	call	508b9b8 <_free_r>
 508998c:	8100030b 	ldhu	r4,12(r16)
 5089990:	80000c15 	stw	zero,48(r16)
 5089994:	80c00417 	ldw	r3,16(r16)
 5089998:	00bff6c4 	movi	r2,-37
 508999c:	1108703a 	and	r4,r2,r4
 50899a0:	80000115 	stw	zero,4(r16)
 50899a4:	80c00015 	stw	r3,0(r16)
 50899a8:	003fd506 	br	5089900 <__swsetup_r+0x90>
 50899ac:	00800244 	movi	r2,9
 50899b0:	88800015 	stw	r2,0(r17)
 50899b4:	20801014 	ori	r2,r4,64
 50899b8:	8080030d 	sth	r2,12(r16)
 50899bc:	00bfffc4 	movi	r2,-1
 50899c0:	003fc506 	br	50898d8 <__swsetup_r+0x68>

050899c4 <quorem>:
 50899c4:	defff704 	addi	sp,sp,-36
 50899c8:	dc800215 	stw	r18,8(sp)
 50899cc:	20800417 	ldw	r2,16(r4)
 50899d0:	2c800417 	ldw	r18,16(r5)
 50899d4:	dfc00815 	stw	ra,32(sp)
 50899d8:	ddc00715 	stw	r23,28(sp)
 50899dc:	dd800615 	stw	r22,24(sp)
 50899e0:	dd400515 	stw	r21,20(sp)
 50899e4:	dd000415 	stw	r20,16(sp)
 50899e8:	dcc00315 	stw	r19,12(sp)
 50899ec:	dc400115 	stw	r17,4(sp)
 50899f0:	dc000015 	stw	r16,0(sp)
 50899f4:	14807116 	blt	r2,r18,5089bbc <quorem+0x1f8>
 50899f8:	94bfffc4 	addi	r18,r18,-1
 50899fc:	94ad883a 	add	r22,r18,r18
 5089a00:	b5ad883a 	add	r22,r22,r22
 5089a04:	2c400504 	addi	r17,r5,20
 5089a08:	8da9883a 	add	r20,r17,r22
 5089a0c:	25400504 	addi	r21,r4,20
 5089a10:	282f883a 	mov	r23,r5
 5089a14:	adad883a 	add	r22,r21,r22
 5089a18:	a1400017 	ldw	r5,0(r20)
 5089a1c:	2021883a 	mov	r16,r4
 5089a20:	b1000017 	ldw	r4,0(r22)
 5089a24:	29400044 	addi	r5,r5,1
 5089a28:	50831b40 	call	50831b4 <__udivsi3>
 5089a2c:	1027883a 	mov	r19,r2
 5089a30:	10002c26 	beq	r2,zero,5089ae4 <quorem+0x120>
 5089a34:	a813883a 	mov	r9,r21
 5089a38:	880b883a 	mov	r5,r17
 5089a3c:	0009883a 	mov	r4,zero
 5089a40:	000d883a 	mov	r6,zero
 5089a44:	2a000017 	ldw	r8,0(r5)
 5089a48:	49c00017 	ldw	r7,0(r9)
 5089a4c:	29400104 	addi	r5,r5,4
 5089a50:	40bfffcc 	andi	r2,r8,65535
 5089a54:	14c5383a 	mul	r2,r2,r19
 5089a58:	4010d43a 	srli	r8,r8,16
 5089a5c:	38ffffcc 	andi	r3,r7,65535
 5089a60:	1105883a 	add	r2,r2,r4
 5089a64:	1008d43a 	srli	r4,r2,16
 5089a68:	44d1383a 	mul	r8,r8,r19
 5089a6c:	198d883a 	add	r6,r3,r6
 5089a70:	10ffffcc 	andi	r3,r2,65535
 5089a74:	30c7c83a 	sub	r3,r6,r3
 5089a78:	380ed43a 	srli	r7,r7,16
 5089a7c:	4105883a 	add	r2,r8,r4
 5089a80:	180dd43a 	srai	r6,r3,16
 5089a84:	113fffcc 	andi	r4,r2,65535
 5089a88:	390fc83a 	sub	r7,r7,r4
 5089a8c:	398d883a 	add	r6,r7,r6
 5089a90:	300e943a 	slli	r7,r6,16
 5089a94:	18ffffcc 	andi	r3,r3,65535
 5089a98:	1008d43a 	srli	r4,r2,16
 5089a9c:	38ceb03a 	or	r7,r7,r3
 5089aa0:	49c00015 	stw	r7,0(r9)
 5089aa4:	300dd43a 	srai	r6,r6,16
 5089aa8:	4a400104 	addi	r9,r9,4
 5089aac:	a17fe52e 	bgeu	r20,r5,5089a44 <quorem+0x80>
 5089ab0:	b0800017 	ldw	r2,0(r22)
 5089ab4:	10000b1e 	bne	r2,zero,5089ae4 <quorem+0x120>
 5089ab8:	b0bfff04 	addi	r2,r22,-4
 5089abc:	a880082e 	bgeu	r21,r2,5089ae0 <quorem+0x11c>
 5089ac0:	b0ffff17 	ldw	r3,-4(r22)
 5089ac4:	18000326 	beq	r3,zero,5089ad4 <quorem+0x110>
 5089ac8:	00000506 	br	5089ae0 <quorem+0x11c>
 5089acc:	10c00017 	ldw	r3,0(r2)
 5089ad0:	1800031e 	bne	r3,zero,5089ae0 <quorem+0x11c>
 5089ad4:	10bfff04 	addi	r2,r2,-4
 5089ad8:	94bfffc4 	addi	r18,r18,-1
 5089adc:	a8bffb36 	bltu	r21,r2,5089acc <quorem+0x108>
 5089ae0:	84800415 	stw	r18,16(r16)
 5089ae4:	b80b883a 	mov	r5,r23
 5089ae8:	8009883a 	mov	r4,r16
 5089aec:	508d8840 	call	508d884 <__mcmp>
 5089af0:	10002616 	blt	r2,zero,5089b8c <quorem+0x1c8>
 5089af4:	9cc00044 	addi	r19,r19,1
 5089af8:	a805883a 	mov	r2,r21
 5089afc:	000b883a 	mov	r5,zero
 5089b00:	11000017 	ldw	r4,0(r2)
 5089b04:	89800017 	ldw	r6,0(r17)
 5089b08:	10800104 	addi	r2,r2,4
 5089b0c:	20ffffcc 	andi	r3,r4,65535
 5089b10:	194b883a 	add	r5,r3,r5
 5089b14:	30ffffcc 	andi	r3,r6,65535
 5089b18:	28c7c83a 	sub	r3,r5,r3
 5089b1c:	300cd43a 	srli	r6,r6,16
 5089b20:	2008d43a 	srli	r4,r4,16
 5089b24:	180bd43a 	srai	r5,r3,16
 5089b28:	18ffffcc 	andi	r3,r3,65535
 5089b2c:	2189c83a 	sub	r4,r4,r6
 5089b30:	2149883a 	add	r4,r4,r5
 5089b34:	200c943a 	slli	r6,r4,16
 5089b38:	8c400104 	addi	r17,r17,4
 5089b3c:	200bd43a 	srai	r5,r4,16
 5089b40:	30c6b03a 	or	r3,r6,r3
 5089b44:	10ffff15 	stw	r3,-4(r2)
 5089b48:	a47fed2e 	bgeu	r20,r17,5089b00 <quorem+0x13c>
 5089b4c:	9485883a 	add	r2,r18,r18
 5089b50:	1085883a 	add	r2,r2,r2
 5089b54:	a887883a 	add	r3,r21,r2
 5089b58:	18800017 	ldw	r2,0(r3)
 5089b5c:	10000b1e 	bne	r2,zero,5089b8c <quorem+0x1c8>
 5089b60:	18bfff04 	addi	r2,r3,-4
 5089b64:	a880082e 	bgeu	r21,r2,5089b88 <quorem+0x1c4>
 5089b68:	18ffff17 	ldw	r3,-4(r3)
 5089b6c:	18000326 	beq	r3,zero,5089b7c <quorem+0x1b8>
 5089b70:	00000506 	br	5089b88 <quorem+0x1c4>
 5089b74:	10c00017 	ldw	r3,0(r2)
 5089b78:	1800031e 	bne	r3,zero,5089b88 <quorem+0x1c4>
 5089b7c:	10bfff04 	addi	r2,r2,-4
 5089b80:	94bfffc4 	addi	r18,r18,-1
 5089b84:	a8bffb36 	bltu	r21,r2,5089b74 <quorem+0x1b0>
 5089b88:	84800415 	stw	r18,16(r16)
 5089b8c:	9805883a 	mov	r2,r19
 5089b90:	dfc00817 	ldw	ra,32(sp)
 5089b94:	ddc00717 	ldw	r23,28(sp)
 5089b98:	dd800617 	ldw	r22,24(sp)
 5089b9c:	dd400517 	ldw	r21,20(sp)
 5089ba0:	dd000417 	ldw	r20,16(sp)
 5089ba4:	dcc00317 	ldw	r19,12(sp)
 5089ba8:	dc800217 	ldw	r18,8(sp)
 5089bac:	dc400117 	ldw	r17,4(sp)
 5089bb0:	dc000017 	ldw	r16,0(sp)
 5089bb4:	dec00904 	addi	sp,sp,36
 5089bb8:	f800283a 	ret
 5089bbc:	0005883a 	mov	r2,zero
 5089bc0:	003ff306 	br	5089b90 <quorem+0x1cc>

05089bc4 <_dtoa_r>:
 5089bc4:	20801017 	ldw	r2,64(r4)
 5089bc8:	deffde04 	addi	sp,sp,-136
 5089bcc:	df002015 	stw	fp,128(sp)
 5089bd0:	dcc01b15 	stw	r19,108(sp)
 5089bd4:	dc801a15 	stw	r18,104(sp)
 5089bd8:	dc401915 	stw	r17,100(sp)
 5089bdc:	dc001815 	stw	r16,96(sp)
 5089be0:	dfc02115 	stw	ra,132(sp)
 5089be4:	ddc01f15 	stw	r23,124(sp)
 5089be8:	dd801e15 	stw	r22,120(sp)
 5089bec:	dd401d15 	stw	r21,116(sp)
 5089bf0:	dd001c15 	stw	r20,112(sp)
 5089bf4:	d9c00315 	stw	r7,12(sp)
 5089bf8:	2039883a 	mov	fp,r4
 5089bfc:	3023883a 	mov	r17,r6
 5089c00:	2825883a 	mov	r18,r5
 5089c04:	dc002417 	ldw	r16,144(sp)
 5089c08:	3027883a 	mov	r19,r6
 5089c0c:	10000826 	beq	r2,zero,5089c30 <_dtoa_r+0x6c>
 5089c10:	21801117 	ldw	r6,68(r4)
 5089c14:	00c00044 	movi	r3,1
 5089c18:	100b883a 	mov	r5,r2
 5089c1c:	1986983a 	sll	r3,r3,r6
 5089c20:	11800115 	stw	r6,4(r2)
 5089c24:	10c00215 	stw	r3,8(r2)
 5089c28:	508d0640 	call	508d064 <_Bfree>
 5089c2c:	e0001015 	stw	zero,64(fp)
 5089c30:	88002e16 	blt	r17,zero,5089cec <_dtoa_r+0x128>
 5089c34:	80000015 	stw	zero,0(r16)
 5089c38:	889ffc2c 	andhi	r2,r17,32752
 5089c3c:	00dffc34 	movhi	r3,32752
 5089c40:	10c01c26 	beq	r2,r3,5089cb4 <_dtoa_r+0xf0>
 5089c44:	000d883a 	mov	r6,zero
 5089c48:	000f883a 	mov	r7,zero
 5089c4c:	9009883a 	mov	r4,r18
 5089c50:	980b883a 	mov	r5,r19
 5089c54:	5092f1c0 	call	5092f1c <__eqdf2>
 5089c58:	10002b1e 	bne	r2,zero,5089d08 <_dtoa_r+0x144>
 5089c5c:	d9c02317 	ldw	r7,140(sp)
 5089c60:	00800044 	movi	r2,1
 5089c64:	38800015 	stw	r2,0(r7)
 5089c68:	d8802517 	ldw	r2,148(sp)
 5089c6c:	10019e26 	beq	r2,zero,508a2e8 <_dtoa_r+0x724>
 5089c70:	d8c02517 	ldw	r3,148(sp)
 5089c74:	00814274 	movhi	r2,1289
 5089c78:	109a4744 	addi	r2,r2,26909
 5089c7c:	18800015 	stw	r2,0(r3)
 5089c80:	10bfffc4 	addi	r2,r2,-1
 5089c84:	dfc02117 	ldw	ra,132(sp)
 5089c88:	df002017 	ldw	fp,128(sp)
 5089c8c:	ddc01f17 	ldw	r23,124(sp)
 5089c90:	dd801e17 	ldw	r22,120(sp)
 5089c94:	dd401d17 	ldw	r21,116(sp)
 5089c98:	dd001c17 	ldw	r20,112(sp)
 5089c9c:	dcc01b17 	ldw	r19,108(sp)
 5089ca0:	dc801a17 	ldw	r18,104(sp)
 5089ca4:	dc401917 	ldw	r17,100(sp)
 5089ca8:	dc001817 	ldw	r16,96(sp)
 5089cac:	dec02204 	addi	sp,sp,136
 5089cb0:	f800283a 	ret
 5089cb4:	d8c02317 	ldw	r3,140(sp)
 5089cb8:	0089c3c4 	movi	r2,9999
 5089cbc:	18800015 	stw	r2,0(r3)
 5089cc0:	90017726 	beq	r18,zero,508a2a0 <_dtoa_r+0x6dc>
 5089cc4:	00814274 	movhi	r2,1289
 5089cc8:	109a5b04 	addi	r2,r2,26988
 5089ccc:	d9002517 	ldw	r4,148(sp)
 5089cd0:	203fec26 	beq	r4,zero,5089c84 <_dtoa_r+0xc0>
 5089cd4:	10c000c7 	ldb	r3,3(r2)
 5089cd8:	1801781e 	bne	r3,zero,508a2bc <_dtoa_r+0x6f8>
 5089cdc:	10c000c4 	addi	r3,r2,3
 5089ce0:	d9802517 	ldw	r6,148(sp)
 5089ce4:	30c00015 	stw	r3,0(r6)
 5089ce8:	003fe606 	br	5089c84 <_dtoa_r+0xc0>
 5089cec:	04e00034 	movhi	r19,32768
 5089cf0:	9cffffc4 	addi	r19,r19,-1
 5089cf4:	00800044 	movi	r2,1
 5089cf8:	8ce6703a 	and	r19,r17,r19
 5089cfc:	80800015 	stw	r2,0(r16)
 5089d00:	9823883a 	mov	r17,r19
 5089d04:	003fcc06 	br	5089c38 <_dtoa_r+0x74>
 5089d08:	d8800204 	addi	r2,sp,8
 5089d0c:	d8800015 	stw	r2,0(sp)
 5089d10:	d9c00104 	addi	r7,sp,4
 5089d14:	900b883a 	mov	r5,r18
 5089d18:	980d883a 	mov	r6,r19
 5089d1c:	e009883a 	mov	r4,fp
 5089d20:	8820d53a 	srli	r16,r17,20
 5089d24:	508dc500 	call	508dc50 <__d2b>
 5089d28:	d8800915 	stw	r2,36(sp)
 5089d2c:	8001651e 	bne	r16,zero,508a2c4 <_dtoa_r+0x700>
 5089d30:	dd800217 	ldw	r22,8(sp)
 5089d34:	dc000117 	ldw	r16,4(sp)
 5089d38:	00800804 	movi	r2,32
 5089d3c:	b421883a 	add	r16,r22,r16
 5089d40:	80c10c84 	addi	r3,r16,1074
 5089d44:	10c2d10e 	bge	r2,r3,508a88c <_dtoa_r+0xcc8>
 5089d48:	00801004 	movi	r2,64
 5089d4c:	81010484 	addi	r4,r16,1042
 5089d50:	10c7c83a 	sub	r3,r2,r3
 5089d54:	9108d83a 	srl	r4,r18,r4
 5089d58:	88e2983a 	sll	r17,r17,r3
 5089d5c:	2448b03a 	or	r4,r4,r17
 5089d60:	50931000 	call	5093100 <__floatunsidf>
 5089d64:	017f8434 	movhi	r5,65040
 5089d68:	01800044 	movi	r6,1
 5089d6c:	1009883a 	mov	r4,r2
 5089d70:	194b883a 	add	r5,r3,r5
 5089d74:	843fffc4 	addi	r16,r16,-1
 5089d78:	d9801115 	stw	r6,68(sp)
 5089d7c:	000d883a 	mov	r6,zero
 5089d80:	01cffe34 	movhi	r7,16376
 5089d84:	50843280 	call	5084328 <__subdf3>
 5089d88:	0198dbf4 	movhi	r6,25455
 5089d8c:	01cff4f4 	movhi	r7,16339
 5089d90:	3190d844 	addi	r6,r6,17249
 5089d94:	39e1e9c4 	addi	r7,r7,-30809
 5089d98:	1009883a 	mov	r4,r2
 5089d9c:	180b883a 	mov	r5,r3
 5089da0:	5083c100 	call	5083c10 <__muldf3>
 5089da4:	01a2d874 	movhi	r6,35681
 5089da8:	01cff1f4 	movhi	r7,16327
 5089dac:	31b22cc4 	addi	r6,r6,-14157
 5089db0:	39e28a04 	addi	r7,r7,-30168
 5089db4:	180b883a 	mov	r5,r3
 5089db8:	1009883a 	mov	r4,r2
 5089dbc:	50832700 	call	5083270 <__adddf3>
 5089dc0:	8009883a 	mov	r4,r16
 5089dc4:	1029883a 	mov	r20,r2
 5089dc8:	1823883a 	mov	r17,r3
 5089dcc:	5084c240 	call	5084c24 <__floatsidf>
 5089dd0:	019427f4 	movhi	r6,20639
 5089dd4:	01cff4f4 	movhi	r7,16339
 5089dd8:	319e7ec4 	addi	r6,r6,31227
 5089ddc:	39d104c4 	addi	r7,r7,17427
 5089de0:	1009883a 	mov	r4,r2
 5089de4:	180b883a 	mov	r5,r3
 5089de8:	5083c100 	call	5083c10 <__muldf3>
 5089dec:	100d883a 	mov	r6,r2
 5089df0:	180f883a 	mov	r7,r3
 5089df4:	a009883a 	mov	r4,r20
 5089df8:	880b883a 	mov	r5,r17
 5089dfc:	50832700 	call	5083270 <__adddf3>
 5089e00:	1009883a 	mov	r4,r2
 5089e04:	180b883a 	mov	r5,r3
 5089e08:	1029883a 	mov	r20,r2
 5089e0c:	1823883a 	mov	r17,r3
 5089e10:	50930800 	call	5093080 <__fixdfsi>
 5089e14:	000d883a 	mov	r6,zero
 5089e18:	000f883a 	mov	r7,zero
 5089e1c:	a009883a 	mov	r4,r20
 5089e20:	880b883a 	mov	r5,r17
 5089e24:	d8800515 	stw	r2,20(sp)
 5089e28:	5083b1c0 	call	5083b1c <__ledf2>
 5089e2c:	10028716 	blt	r2,zero,508a84c <_dtoa_r+0xc88>
 5089e30:	d8c00517 	ldw	r3,20(sp)
 5089e34:	00800584 	movi	r2,22
 5089e38:	10c27536 	bltu	r2,r3,508a810 <_dtoa_r+0xc4c>
 5089e3c:	180490fa 	slli	r2,r3,3
 5089e40:	00c14274 	movhi	r3,1289
 5089e44:	18da7704 	addi	r3,r3,27100
 5089e48:	1885883a 	add	r2,r3,r2
 5089e4c:	11000017 	ldw	r4,0(r2)
 5089e50:	11400117 	ldw	r5,4(r2)
 5089e54:	900d883a 	mov	r6,r18
 5089e58:	980f883a 	mov	r7,r19
 5089e5c:	5092fa40 	call	5092fa4 <__gedf2>
 5089e60:	00828d0e 	bge	zero,r2,508a898 <_dtoa_r+0xcd4>
 5089e64:	d9000517 	ldw	r4,20(sp)
 5089e68:	d8000e15 	stw	zero,56(sp)
 5089e6c:	213fffc4 	addi	r4,r4,-1
 5089e70:	d9000515 	stw	r4,20(sp)
 5089e74:	b42dc83a 	sub	r22,r22,r16
 5089e78:	b5bfffc4 	addi	r22,r22,-1
 5089e7c:	b0026f16 	blt	r22,zero,508a83c <_dtoa_r+0xc78>
 5089e80:	d8000815 	stw	zero,32(sp)
 5089e84:	d9c00517 	ldw	r7,20(sp)
 5089e88:	38026416 	blt	r7,zero,508a81c <_dtoa_r+0xc58>
 5089e8c:	b1ed883a 	add	r22,r22,r7
 5089e90:	d9c00d15 	stw	r7,52(sp)
 5089e94:	d8000a15 	stw	zero,40(sp)
 5089e98:	d9800317 	ldw	r6,12(sp)
 5089e9c:	00800244 	movi	r2,9
 5089ea0:	11811436 	bltu	r2,r6,508a2f4 <_dtoa_r+0x730>
 5089ea4:	00800144 	movi	r2,5
 5089ea8:	1184e10e 	bge	r2,r6,508b230 <_dtoa_r+0x166c>
 5089eac:	31bfff04 	addi	r6,r6,-4
 5089eb0:	d9800315 	stw	r6,12(sp)
 5089eb4:	0023883a 	mov	r17,zero
 5089eb8:	d9800317 	ldw	r6,12(sp)
 5089ebc:	008000c4 	movi	r2,3
 5089ec0:	30836726 	beq	r6,r2,508ac60 <_dtoa_r+0x109c>
 5089ec4:	1183410e 	bge	r2,r6,508abcc <_dtoa_r+0x1008>
 5089ec8:	d9c00317 	ldw	r7,12(sp)
 5089ecc:	00800104 	movi	r2,4
 5089ed0:	38827c26 	beq	r7,r2,508a8c4 <_dtoa_r+0xd00>
 5089ed4:	00800144 	movi	r2,5
 5089ed8:	3884c41e 	bne	r7,r2,508b1ec <_dtoa_r+0x1628>
 5089edc:	00800044 	movi	r2,1
 5089ee0:	d8800b15 	stw	r2,44(sp)
 5089ee4:	d8c00517 	ldw	r3,20(sp)
 5089ee8:	d9002217 	ldw	r4,136(sp)
 5089eec:	1907883a 	add	r3,r3,r4
 5089ef0:	19800044 	addi	r6,r3,1
 5089ef4:	d8c00c15 	stw	r3,48(sp)
 5089ef8:	d9800615 	stw	r6,24(sp)
 5089efc:	0183a40e 	bge	zero,r6,508ad90 <_dtoa_r+0x11cc>
 5089f00:	d9800617 	ldw	r6,24(sp)
 5089f04:	3021883a 	mov	r16,r6
 5089f08:	e0001115 	stw	zero,68(fp)
 5089f0c:	008005c4 	movi	r2,23
 5089f10:	1184c92e 	bgeu	r2,r6,508b238 <_dtoa_r+0x1674>
 5089f14:	00c00044 	movi	r3,1
 5089f18:	00800104 	movi	r2,4
 5089f1c:	1085883a 	add	r2,r2,r2
 5089f20:	11000504 	addi	r4,r2,20
 5089f24:	180b883a 	mov	r5,r3
 5089f28:	18c00044 	addi	r3,r3,1
 5089f2c:	313ffb2e 	bgeu	r6,r4,5089f1c <_dtoa_r+0x358>
 5089f30:	e1401115 	stw	r5,68(fp)
 5089f34:	e009883a 	mov	r4,fp
 5089f38:	508cfbc0 	call	508cfbc <_Balloc>
 5089f3c:	d8800715 	stw	r2,28(sp)
 5089f40:	e0801015 	stw	r2,64(fp)
 5089f44:	00800384 	movi	r2,14
 5089f48:	1400f736 	bltu	r2,r16,508a328 <_dtoa_r+0x764>
 5089f4c:	8800f626 	beq	r17,zero,508a328 <_dtoa_r+0x764>
 5089f50:	d9c00517 	ldw	r7,20(sp)
 5089f54:	01c39a0e 	bge	zero,r7,508adc0 <_dtoa_r+0x11fc>
 5089f58:	388003cc 	andi	r2,r7,15
 5089f5c:	100490fa 	slli	r2,r2,3
 5089f60:	382bd13a 	srai	r21,r7,4
 5089f64:	00c14274 	movhi	r3,1289
 5089f68:	18da7704 	addi	r3,r3,27100
 5089f6c:	1885883a 	add	r2,r3,r2
 5089f70:	a8c0040c 	andi	r3,r21,16
 5089f74:	12400017 	ldw	r9,0(r2)
 5089f78:	12000117 	ldw	r8,4(r2)
 5089f7c:	18037926 	beq	r3,zero,508ad64 <_dtoa_r+0x11a0>
 5089f80:	00814274 	movhi	r2,1289
 5089f84:	109a6d04 	addi	r2,r2,27060
 5089f88:	11800817 	ldw	r6,32(r2)
 5089f8c:	11c00917 	ldw	r7,36(r2)
 5089f90:	9009883a 	mov	r4,r18
 5089f94:	980b883a 	mov	r5,r19
 5089f98:	da001715 	stw	r8,92(sp)
 5089f9c:	da401615 	stw	r9,88(sp)
 5089fa0:	50926340 	call	5092634 <__divdf3>
 5089fa4:	da001717 	ldw	r8,92(sp)
 5089fa8:	da401617 	ldw	r9,88(sp)
 5089fac:	ad4003cc 	andi	r21,r21,15
 5089fb0:	040000c4 	movi	r16,3
 5089fb4:	1023883a 	mov	r17,r2
 5089fb8:	1829883a 	mov	r20,r3
 5089fbc:	a8001126 	beq	r21,zero,508a004 <_dtoa_r+0x440>
 5089fc0:	05c14274 	movhi	r23,1289
 5089fc4:	bdda6d04 	addi	r23,r23,27060
 5089fc8:	4805883a 	mov	r2,r9
 5089fcc:	4007883a 	mov	r3,r8
 5089fd0:	a980004c 	andi	r6,r21,1
 5089fd4:	1009883a 	mov	r4,r2
 5089fd8:	a82bd07a 	srai	r21,r21,1
 5089fdc:	180b883a 	mov	r5,r3
 5089fe0:	30000426 	beq	r6,zero,5089ff4 <_dtoa_r+0x430>
 5089fe4:	b9800017 	ldw	r6,0(r23)
 5089fe8:	b9c00117 	ldw	r7,4(r23)
 5089fec:	84000044 	addi	r16,r16,1
 5089ff0:	5083c100 	call	5083c10 <__muldf3>
 5089ff4:	bdc00204 	addi	r23,r23,8
 5089ff8:	a83ff51e 	bne	r21,zero,5089fd0 <_dtoa_r+0x40c>
 5089ffc:	1013883a 	mov	r9,r2
 508a000:	1811883a 	mov	r8,r3
 508a004:	480d883a 	mov	r6,r9
 508a008:	400f883a 	mov	r7,r8
 508a00c:	8809883a 	mov	r4,r17
 508a010:	a00b883a 	mov	r5,r20
 508a014:	50926340 	call	5092634 <__divdf3>
 508a018:	d8800f15 	stw	r2,60(sp)
 508a01c:	d8c01015 	stw	r3,64(sp)
 508a020:	d8c00e17 	ldw	r3,56(sp)
 508a024:	18000626 	beq	r3,zero,508a040 <_dtoa_r+0x47c>
 508a028:	d9000f17 	ldw	r4,60(sp)
 508a02c:	d9401017 	ldw	r5,64(sp)
 508a030:	000d883a 	mov	r6,zero
 508a034:	01cffc34 	movhi	r7,16368
 508a038:	5083b1c0 	call	5083b1c <__ledf2>
 508a03c:	10040b16 	blt	r2,zero,508b06c <_dtoa_r+0x14a8>
 508a040:	8009883a 	mov	r4,r16
 508a044:	5084c240 	call	5084c24 <__floatsidf>
 508a048:	d9800f17 	ldw	r6,60(sp)
 508a04c:	d9c01017 	ldw	r7,64(sp)
 508a050:	1009883a 	mov	r4,r2
 508a054:	180b883a 	mov	r5,r3
 508a058:	5083c100 	call	5083c10 <__muldf3>
 508a05c:	000d883a 	mov	r6,zero
 508a060:	01d00734 	movhi	r7,16412
 508a064:	1009883a 	mov	r4,r2
 508a068:	180b883a 	mov	r5,r3
 508a06c:	50832700 	call	5083270 <__adddf3>
 508a070:	1021883a 	mov	r16,r2
 508a074:	d8800617 	ldw	r2,24(sp)
 508a078:	047f3034 	movhi	r17,64704
 508a07c:	1c63883a 	add	r17,r3,r17
 508a080:	10031826 	beq	r2,zero,508ace4 <_dtoa_r+0x1120>
 508a084:	d8c00517 	ldw	r3,20(sp)
 508a088:	db000617 	ldw	r12,24(sp)
 508a08c:	d8c01315 	stw	r3,76(sp)
 508a090:	d9000b17 	ldw	r4,44(sp)
 508a094:	20038f26 	beq	r4,zero,508aed4 <_dtoa_r+0x1310>
 508a098:	60bfffc4 	addi	r2,r12,-1
 508a09c:	100490fa 	slli	r2,r2,3
 508a0a0:	00c14274 	movhi	r3,1289
 508a0a4:	18da7704 	addi	r3,r3,27100
 508a0a8:	1885883a 	add	r2,r3,r2
 508a0ac:	11800017 	ldw	r6,0(r2)
 508a0b0:	11c00117 	ldw	r7,4(r2)
 508a0b4:	d8800717 	ldw	r2,28(sp)
 508a0b8:	0009883a 	mov	r4,zero
 508a0bc:	014ff834 	movhi	r5,16352
 508a0c0:	db001615 	stw	r12,88(sp)
 508a0c4:	15c00044 	addi	r23,r2,1
 508a0c8:	50926340 	call	5092634 <__divdf3>
 508a0cc:	800d883a 	mov	r6,r16
 508a0d0:	880f883a 	mov	r7,r17
 508a0d4:	1009883a 	mov	r4,r2
 508a0d8:	180b883a 	mov	r5,r3
 508a0dc:	50843280 	call	5084328 <__subdf3>
 508a0e0:	d9401017 	ldw	r5,64(sp)
 508a0e4:	d9000f17 	ldw	r4,60(sp)
 508a0e8:	102b883a 	mov	r21,r2
 508a0ec:	d8c01215 	stw	r3,72(sp)
 508a0f0:	50930800 	call	5093080 <__fixdfsi>
 508a0f4:	1009883a 	mov	r4,r2
 508a0f8:	1029883a 	mov	r20,r2
 508a0fc:	5084c240 	call	5084c24 <__floatsidf>
 508a100:	d9000f17 	ldw	r4,60(sp)
 508a104:	d9401017 	ldw	r5,64(sp)
 508a108:	100d883a 	mov	r6,r2
 508a10c:	180f883a 	mov	r7,r3
 508a110:	50843280 	call	5084328 <__subdf3>
 508a114:	1823883a 	mov	r17,r3
 508a118:	d8c00717 	ldw	r3,28(sp)
 508a11c:	d9401217 	ldw	r5,72(sp)
 508a120:	a2000c04 	addi	r8,r20,48
 508a124:	1021883a 	mov	r16,r2
 508a128:	1a000005 	stb	r8,0(r3)
 508a12c:	800d883a 	mov	r6,r16
 508a130:	880f883a 	mov	r7,r17
 508a134:	a809883a 	mov	r4,r21
 508a138:	4029883a 	mov	r20,r8
 508a13c:	5092fa40 	call	5092fa4 <__gedf2>
 508a140:	00841d16 	blt	zero,r2,508b1b8 <_dtoa_r+0x15f4>
 508a144:	800d883a 	mov	r6,r16
 508a148:	880f883a 	mov	r7,r17
 508a14c:	0009883a 	mov	r4,zero
 508a150:	014ffc34 	movhi	r5,16368
 508a154:	50843280 	call	5084328 <__subdf3>
 508a158:	d9401217 	ldw	r5,72(sp)
 508a15c:	100d883a 	mov	r6,r2
 508a160:	180f883a 	mov	r7,r3
 508a164:	a809883a 	mov	r4,r21
 508a168:	5092fa40 	call	5092fa4 <__gedf2>
 508a16c:	db001617 	ldw	r12,88(sp)
 508a170:	00840e16 	blt	zero,r2,508b1ac <_dtoa_r+0x15e8>
 508a174:	00800044 	movi	r2,1
 508a178:	13006b0e 	bge	r2,r12,508a328 <_dtoa_r+0x764>
 508a17c:	d9000717 	ldw	r4,28(sp)
 508a180:	dd800f15 	stw	r22,60(sp)
 508a184:	dcc01015 	stw	r19,64(sp)
 508a188:	2319883a 	add	r12,r4,r12
 508a18c:	dcc01217 	ldw	r19,72(sp)
 508a190:	602d883a 	mov	r22,r12
 508a194:	dc801215 	stw	r18,72(sp)
 508a198:	b825883a 	mov	r18,r23
 508a19c:	00000906 	br	508a1c4 <_dtoa_r+0x600>
 508a1a0:	50843280 	call	5084328 <__subdf3>
 508a1a4:	a80d883a 	mov	r6,r21
 508a1a8:	980f883a 	mov	r7,r19
 508a1ac:	1009883a 	mov	r4,r2
 508a1b0:	180b883a 	mov	r5,r3
 508a1b4:	5083b1c0 	call	5083b1c <__ledf2>
 508a1b8:	1003e816 	blt	r2,zero,508b15c <_dtoa_r+0x1598>
 508a1bc:	b825883a 	mov	r18,r23
 508a1c0:	bd83e926 	beq	r23,r22,508b168 <_dtoa_r+0x15a4>
 508a1c4:	a809883a 	mov	r4,r21
 508a1c8:	980b883a 	mov	r5,r19
 508a1cc:	000d883a 	mov	r6,zero
 508a1d0:	01d00934 	movhi	r7,16420
 508a1d4:	5083c100 	call	5083c10 <__muldf3>
 508a1d8:	000d883a 	mov	r6,zero
 508a1dc:	01d00934 	movhi	r7,16420
 508a1e0:	8009883a 	mov	r4,r16
 508a1e4:	880b883a 	mov	r5,r17
 508a1e8:	102b883a 	mov	r21,r2
 508a1ec:	1827883a 	mov	r19,r3
 508a1f0:	5083c100 	call	5083c10 <__muldf3>
 508a1f4:	180b883a 	mov	r5,r3
 508a1f8:	1009883a 	mov	r4,r2
 508a1fc:	1821883a 	mov	r16,r3
 508a200:	1023883a 	mov	r17,r2
 508a204:	50930800 	call	5093080 <__fixdfsi>
 508a208:	1009883a 	mov	r4,r2
 508a20c:	1029883a 	mov	r20,r2
 508a210:	5084c240 	call	5084c24 <__floatsidf>
 508a214:	8809883a 	mov	r4,r17
 508a218:	800b883a 	mov	r5,r16
 508a21c:	100d883a 	mov	r6,r2
 508a220:	180f883a 	mov	r7,r3
 508a224:	50843280 	call	5084328 <__subdf3>
 508a228:	a5000c04 	addi	r20,r20,48
 508a22c:	a80d883a 	mov	r6,r21
 508a230:	980f883a 	mov	r7,r19
 508a234:	1009883a 	mov	r4,r2
 508a238:	180b883a 	mov	r5,r3
 508a23c:	95000005 	stb	r20,0(r18)
 508a240:	1021883a 	mov	r16,r2
 508a244:	1823883a 	mov	r17,r3
 508a248:	5083b1c0 	call	5083b1c <__ledf2>
 508a24c:	bdc00044 	addi	r23,r23,1
 508a250:	800d883a 	mov	r6,r16
 508a254:	880f883a 	mov	r7,r17
 508a258:	0009883a 	mov	r4,zero
 508a25c:	014ffc34 	movhi	r5,16368
 508a260:	103fcf0e 	bge	r2,zero,508a1a0 <_dtoa_r+0x5dc>
 508a264:	d8c01317 	ldw	r3,76(sp)
 508a268:	d8c00515 	stw	r3,20(sp)
 508a26c:	d9400917 	ldw	r5,36(sp)
 508a270:	e009883a 	mov	r4,fp
 508a274:	508d0640 	call	508d064 <_Bfree>
 508a278:	d9000517 	ldw	r4,20(sp)
 508a27c:	d9802317 	ldw	r6,140(sp)
 508a280:	d9c02517 	ldw	r7,148(sp)
 508a284:	b8000005 	stb	zero,0(r23)
 508a288:	20800044 	addi	r2,r4,1
 508a28c:	30800015 	stw	r2,0(r6)
 508a290:	3802aa26 	beq	r7,zero,508ad3c <_dtoa_r+0x1178>
 508a294:	3dc00015 	stw	r23,0(r7)
 508a298:	d8800717 	ldw	r2,28(sp)
 508a29c:	003e7906 	br	5089c84 <_dtoa_r+0xc0>
 508a2a0:	00800434 	movhi	r2,16
 508a2a4:	10bfffc4 	addi	r2,r2,-1
 508a2a8:	88a2703a 	and	r17,r17,r2
 508a2ac:	883e851e 	bne	r17,zero,5089cc4 <_dtoa_r+0x100>
 508a2b0:	00814274 	movhi	r2,1289
 508a2b4:	109a5804 	addi	r2,r2,26976
 508a2b8:	003e8406 	br	5089ccc <_dtoa_r+0x108>
 508a2bc:	10c00204 	addi	r3,r2,8
 508a2c0:	003e8706 	br	5089ce0 <_dtoa_r+0x11c>
 508a2c4:	01400434 	movhi	r5,16
 508a2c8:	297fffc4 	addi	r5,r5,-1
 508a2cc:	994a703a 	and	r5,r19,r5
 508a2d0:	9009883a 	mov	r4,r18
 508a2d4:	843f0044 	addi	r16,r16,-1023
 508a2d8:	294ffc34 	orhi	r5,r5,16368
 508a2dc:	dd800217 	ldw	r22,8(sp)
 508a2e0:	d8001115 	stw	zero,68(sp)
 508a2e4:	003ea506 	br	5089d7c <_dtoa_r+0x1b8>
 508a2e8:	00814274 	movhi	r2,1289
 508a2ec:	109a4704 	addi	r2,r2,26908
 508a2f0:	003e6406 	br	5089c84 <_dtoa_r+0xc0>
 508a2f4:	e0001115 	stw	zero,68(fp)
 508a2f8:	000b883a 	mov	r5,zero
 508a2fc:	e009883a 	mov	r4,fp
 508a300:	508cfbc0 	call	508cfbc <_Balloc>
 508a304:	01bfffc4 	movi	r6,-1
 508a308:	01c00044 	movi	r7,1
 508a30c:	d8800715 	stw	r2,28(sp)
 508a310:	d9800c15 	stw	r6,48(sp)
 508a314:	e0801015 	stw	r2,64(fp)
 508a318:	d8000315 	stw	zero,12(sp)
 508a31c:	d9c00b15 	stw	r7,44(sp)
 508a320:	d9800615 	stw	r6,24(sp)
 508a324:	d8002215 	stw	zero,136(sp)
 508a328:	d8800117 	ldw	r2,4(sp)
 508a32c:	10008916 	blt	r2,zero,508a554 <_dtoa_r+0x990>
 508a330:	d9000517 	ldw	r4,20(sp)
 508a334:	00c00384 	movi	r3,14
 508a338:	19008616 	blt	r3,r4,508a554 <_dtoa_r+0x990>
 508a33c:	200490fa 	slli	r2,r4,3
 508a340:	00c14274 	movhi	r3,1289
 508a344:	d9802217 	ldw	r6,136(sp)
 508a348:	18da7704 	addi	r3,r3,27100
 508a34c:	1885883a 	add	r2,r3,r2
 508a350:	14000017 	ldw	r16,0(r2)
 508a354:	14400117 	ldw	r17,4(r2)
 508a358:	30016316 	blt	r6,zero,508a8e8 <_dtoa_r+0xd24>
 508a35c:	800d883a 	mov	r6,r16
 508a360:	880f883a 	mov	r7,r17
 508a364:	9009883a 	mov	r4,r18
 508a368:	980b883a 	mov	r5,r19
 508a36c:	50926340 	call	5092634 <__divdf3>
 508a370:	180b883a 	mov	r5,r3
 508a374:	1009883a 	mov	r4,r2
 508a378:	50930800 	call	5093080 <__fixdfsi>
 508a37c:	1009883a 	mov	r4,r2
 508a380:	102b883a 	mov	r21,r2
 508a384:	5084c240 	call	5084c24 <__floatsidf>
 508a388:	800d883a 	mov	r6,r16
 508a38c:	880f883a 	mov	r7,r17
 508a390:	1009883a 	mov	r4,r2
 508a394:	180b883a 	mov	r5,r3
 508a398:	5083c100 	call	5083c10 <__muldf3>
 508a39c:	100d883a 	mov	r6,r2
 508a3a0:	180f883a 	mov	r7,r3
 508a3a4:	9009883a 	mov	r4,r18
 508a3a8:	980b883a 	mov	r5,r19
 508a3ac:	50843280 	call	5084328 <__subdf3>
 508a3b0:	d9c00717 	ldw	r7,28(sp)
 508a3b4:	1009883a 	mov	r4,r2
 508a3b8:	a8800c04 	addi	r2,r21,48
 508a3bc:	38800005 	stb	r2,0(r7)
 508a3c0:	3dc00044 	addi	r23,r7,1
 508a3c4:	d9c00617 	ldw	r7,24(sp)
 508a3c8:	01800044 	movi	r6,1
 508a3cc:	180b883a 	mov	r5,r3
 508a3d0:	2005883a 	mov	r2,r4
 508a3d4:	39803826 	beq	r7,r6,508a4b8 <_dtoa_r+0x8f4>
 508a3d8:	000d883a 	mov	r6,zero
 508a3dc:	01d00934 	movhi	r7,16420
 508a3e0:	5083c100 	call	5083c10 <__muldf3>
 508a3e4:	000d883a 	mov	r6,zero
 508a3e8:	000f883a 	mov	r7,zero
 508a3ec:	1009883a 	mov	r4,r2
 508a3f0:	180b883a 	mov	r5,r3
 508a3f4:	1025883a 	mov	r18,r2
 508a3f8:	1827883a 	mov	r19,r3
 508a3fc:	5092f1c0 	call	5092f1c <__eqdf2>
 508a400:	103f9a26 	beq	r2,zero,508a26c <_dtoa_r+0x6a8>
 508a404:	d9c00617 	ldw	r7,24(sp)
 508a408:	d8c00717 	ldw	r3,28(sp)
 508a40c:	b829883a 	mov	r20,r23
 508a410:	38bfffc4 	addi	r2,r7,-1
 508a414:	18ad883a 	add	r22,r3,r2
 508a418:	00000a06 	br	508a444 <_dtoa_r+0x880>
 508a41c:	5083c100 	call	5083c10 <__muldf3>
 508a420:	000d883a 	mov	r6,zero
 508a424:	000f883a 	mov	r7,zero
 508a428:	1009883a 	mov	r4,r2
 508a42c:	180b883a 	mov	r5,r3
 508a430:	1025883a 	mov	r18,r2
 508a434:	1827883a 	mov	r19,r3
 508a438:	b829883a 	mov	r20,r23
 508a43c:	5092f1c0 	call	5092f1c <__eqdf2>
 508a440:	103f8a26 	beq	r2,zero,508a26c <_dtoa_r+0x6a8>
 508a444:	800d883a 	mov	r6,r16
 508a448:	880f883a 	mov	r7,r17
 508a44c:	9009883a 	mov	r4,r18
 508a450:	980b883a 	mov	r5,r19
 508a454:	50926340 	call	5092634 <__divdf3>
 508a458:	180b883a 	mov	r5,r3
 508a45c:	1009883a 	mov	r4,r2
 508a460:	50930800 	call	5093080 <__fixdfsi>
 508a464:	1009883a 	mov	r4,r2
 508a468:	102b883a 	mov	r21,r2
 508a46c:	5084c240 	call	5084c24 <__floatsidf>
 508a470:	800d883a 	mov	r6,r16
 508a474:	880f883a 	mov	r7,r17
 508a478:	1009883a 	mov	r4,r2
 508a47c:	180b883a 	mov	r5,r3
 508a480:	5083c100 	call	5083c10 <__muldf3>
 508a484:	100d883a 	mov	r6,r2
 508a488:	180f883a 	mov	r7,r3
 508a48c:	9009883a 	mov	r4,r18
 508a490:	980b883a 	mov	r5,r19
 508a494:	50843280 	call	5084328 <__subdf3>
 508a498:	aa000c04 	addi	r8,r21,48
 508a49c:	a2000005 	stb	r8,0(r20)
 508a4a0:	000d883a 	mov	r6,zero
 508a4a4:	01d00934 	movhi	r7,16420
 508a4a8:	1009883a 	mov	r4,r2
 508a4ac:	180b883a 	mov	r5,r3
 508a4b0:	a5c00044 	addi	r23,r20,1
 508a4b4:	b53fd91e 	bne	r22,r20,508a41c <_dtoa_r+0x858>
 508a4b8:	100d883a 	mov	r6,r2
 508a4bc:	180f883a 	mov	r7,r3
 508a4c0:	1009883a 	mov	r4,r2
 508a4c4:	180b883a 	mov	r5,r3
 508a4c8:	50832700 	call	5083270 <__adddf3>
 508a4cc:	100d883a 	mov	r6,r2
 508a4d0:	180f883a 	mov	r7,r3
 508a4d4:	8009883a 	mov	r4,r16
 508a4d8:	880b883a 	mov	r5,r17
 508a4dc:	1027883a 	mov	r19,r2
 508a4e0:	1825883a 	mov	r18,r3
 508a4e4:	5083b1c0 	call	5083b1c <__ledf2>
 508a4e8:	10000816 	blt	r2,zero,508a50c <_dtoa_r+0x948>
 508a4ec:	980d883a 	mov	r6,r19
 508a4f0:	900f883a 	mov	r7,r18
 508a4f4:	8009883a 	mov	r4,r16
 508a4f8:	880b883a 	mov	r5,r17
 508a4fc:	5092f1c0 	call	5092f1c <__eqdf2>
 508a500:	103f5a1e 	bne	r2,zero,508a26c <_dtoa_r+0x6a8>
 508a504:	ad40004c 	andi	r21,r21,1
 508a508:	a83f5826 	beq	r21,zero,508a26c <_dtoa_r+0x6a8>
 508a50c:	bd3fffc3 	ldbu	r20,-1(r23)
 508a510:	b8bfffc4 	addi	r2,r23,-1
 508a514:	1007883a 	mov	r3,r2
 508a518:	01400e44 	movi	r5,57
 508a51c:	d9800717 	ldw	r6,28(sp)
 508a520:	00000506 	br	508a538 <_dtoa_r+0x974>
 508a524:	18ffffc4 	addi	r3,r3,-1
 508a528:	11824726 	beq	r2,r6,508ae48 <_dtoa_r+0x1284>
 508a52c:	1d000003 	ldbu	r20,0(r3)
 508a530:	102f883a 	mov	r23,r2
 508a534:	10bfffc4 	addi	r2,r2,-1
 508a538:	a1003fcc 	andi	r4,r20,255
 508a53c:	2100201c 	xori	r4,r4,128
 508a540:	213fe004 	addi	r4,r4,-128
 508a544:	217ff726 	beq	r4,r5,508a524 <_dtoa_r+0x960>
 508a548:	a2000044 	addi	r8,r20,1
 508a54c:	12000005 	stb	r8,0(r2)
 508a550:	003f4606 	br	508a26c <_dtoa_r+0x6a8>
 508a554:	d9000b17 	ldw	r4,44(sp)
 508a558:	2000c826 	beq	r4,zero,508a87c <_dtoa_r+0xcb8>
 508a55c:	d9800317 	ldw	r6,12(sp)
 508a560:	00c00044 	movi	r3,1
 508a564:	1980f90e 	bge	r3,r6,508a94c <_dtoa_r+0xd88>
 508a568:	d8800617 	ldw	r2,24(sp)
 508a56c:	d8c00a17 	ldw	r3,40(sp)
 508a570:	157fffc4 	addi	r21,r2,-1
 508a574:	1d41f316 	blt	r3,r21,508ad44 <_dtoa_r+0x1180>
 508a578:	1d6bc83a 	sub	r21,r3,r21
 508a57c:	d9c00617 	ldw	r7,24(sp)
 508a580:	3802aa16 	blt	r7,zero,508b02c <_dtoa_r+0x1468>
 508a584:	dd000817 	ldw	r20,32(sp)
 508a588:	d8800617 	ldw	r2,24(sp)
 508a58c:	d8c00817 	ldw	r3,32(sp)
 508a590:	01400044 	movi	r5,1
 508a594:	e009883a 	mov	r4,fp
 508a598:	1887883a 	add	r3,r3,r2
 508a59c:	d8c00815 	stw	r3,32(sp)
 508a5a0:	b0ad883a 	add	r22,r22,r2
 508a5a4:	508d3c80 	call	508d3c8 <__i2b>
 508a5a8:	1023883a 	mov	r17,r2
 508a5ac:	a0000826 	beq	r20,zero,508a5d0 <_dtoa_r+0xa0c>
 508a5b0:	0580070e 	bge	zero,r22,508a5d0 <_dtoa_r+0xa0c>
 508a5b4:	a005883a 	mov	r2,r20
 508a5b8:	b500b916 	blt	r22,r20,508a8a0 <_dtoa_r+0xcdc>
 508a5bc:	d9000817 	ldw	r4,32(sp)
 508a5c0:	a0a9c83a 	sub	r20,r20,r2
 508a5c4:	b0adc83a 	sub	r22,r22,r2
 508a5c8:	2089c83a 	sub	r4,r4,r2
 508a5cc:	d9000815 	stw	r4,32(sp)
 508a5d0:	d9800a17 	ldw	r6,40(sp)
 508a5d4:	0181810e 	bge	zero,r6,508abdc <_dtoa_r+0x1018>
 508a5d8:	d9c00b17 	ldw	r7,44(sp)
 508a5dc:	3800b326 	beq	r7,zero,508a8ac <_dtoa_r+0xce8>
 508a5e0:	a800b226 	beq	r21,zero,508a8ac <_dtoa_r+0xce8>
 508a5e4:	880b883a 	mov	r5,r17
 508a5e8:	a80d883a 	mov	r6,r21
 508a5ec:	e009883a 	mov	r4,fp
 508a5f0:	508d5fc0 	call	508d5fc <__pow5mult>
 508a5f4:	d9800917 	ldw	r6,36(sp)
 508a5f8:	100b883a 	mov	r5,r2
 508a5fc:	e009883a 	mov	r4,fp
 508a600:	1023883a 	mov	r17,r2
 508a604:	508d4040 	call	508d404 <__multiply>
 508a608:	1021883a 	mov	r16,r2
 508a60c:	d8800a17 	ldw	r2,40(sp)
 508a610:	d9400917 	ldw	r5,36(sp)
 508a614:	e009883a 	mov	r4,fp
 508a618:	1545c83a 	sub	r2,r2,r21
 508a61c:	d8800a15 	stw	r2,40(sp)
 508a620:	508d0640 	call	508d064 <_Bfree>
 508a624:	d8c00a17 	ldw	r3,40(sp)
 508a628:	18009f1e 	bne	r3,zero,508a8a8 <_dtoa_r+0xce4>
 508a62c:	05c00044 	movi	r23,1
 508a630:	e009883a 	mov	r4,fp
 508a634:	b80b883a 	mov	r5,r23
 508a638:	508d3c80 	call	508d3c8 <__i2b>
 508a63c:	d9000d17 	ldw	r4,52(sp)
 508a640:	102b883a 	mov	r21,r2
 508a644:	2000ce26 	beq	r4,zero,508a980 <_dtoa_r+0xdbc>
 508a648:	200d883a 	mov	r6,r4
 508a64c:	100b883a 	mov	r5,r2
 508a650:	e009883a 	mov	r4,fp
 508a654:	508d5fc0 	call	508d5fc <__pow5mult>
 508a658:	d9800317 	ldw	r6,12(sp)
 508a65c:	102b883a 	mov	r21,r2
 508a660:	b981810e 	bge	r23,r6,508ac68 <_dtoa_r+0x10a4>
 508a664:	0027883a 	mov	r19,zero
 508a668:	a8800417 	ldw	r2,16(r21)
 508a66c:	05c00804 	movi	r23,32
 508a670:	10800104 	addi	r2,r2,4
 508a674:	1085883a 	add	r2,r2,r2
 508a678:	1085883a 	add	r2,r2,r2
 508a67c:	a885883a 	add	r2,r21,r2
 508a680:	11000017 	ldw	r4,0(r2)
 508a684:	508d2b00 	call	508d2b0 <__hi0bits>
 508a688:	b885c83a 	sub	r2,r23,r2
 508a68c:	1585883a 	add	r2,r2,r22
 508a690:	108007cc 	andi	r2,r2,31
 508a694:	1000b326 	beq	r2,zero,508a964 <_dtoa_r+0xda0>
 508a698:	00c00804 	movi	r3,32
 508a69c:	1887c83a 	sub	r3,r3,r2
 508a6a0:	01000104 	movi	r4,4
 508a6a4:	20c2cd0e 	bge	r4,r3,508b1dc <_dtoa_r+0x1618>
 508a6a8:	00c00704 	movi	r3,28
 508a6ac:	1885c83a 	sub	r2,r3,r2
 508a6b0:	d8c00817 	ldw	r3,32(sp)
 508a6b4:	a0a9883a 	add	r20,r20,r2
 508a6b8:	b0ad883a 	add	r22,r22,r2
 508a6bc:	1887883a 	add	r3,r3,r2
 508a6c0:	d8c00815 	stw	r3,32(sp)
 508a6c4:	d9800817 	ldw	r6,32(sp)
 508a6c8:	0180040e 	bge	zero,r6,508a6dc <_dtoa_r+0xb18>
 508a6cc:	800b883a 	mov	r5,r16
 508a6d0:	e009883a 	mov	r4,fp
 508a6d4:	508d73c0 	call	508d73c <__lshift>
 508a6d8:	1021883a 	mov	r16,r2
 508a6dc:	0580050e 	bge	zero,r22,508a6f4 <_dtoa_r+0xb30>
 508a6e0:	a80b883a 	mov	r5,r21
 508a6e4:	b00d883a 	mov	r6,r22
 508a6e8:	e009883a 	mov	r4,fp
 508a6ec:	508d73c0 	call	508d73c <__lshift>
 508a6f0:	102b883a 	mov	r21,r2
 508a6f4:	d9c00e17 	ldw	r7,56(sp)
 508a6f8:	3801211e 	bne	r7,zero,508ab80 <_dtoa_r+0xfbc>
 508a6fc:	d9800617 	ldw	r6,24(sp)
 508a700:	0181380e 	bge	zero,r6,508abe4 <_dtoa_r+0x1020>
 508a704:	d8c00b17 	ldw	r3,44(sp)
 508a708:	1800ab1e 	bne	r3,zero,508a9b8 <_dtoa_r+0xdf4>
 508a70c:	dc800717 	ldw	r18,28(sp)
 508a710:	dcc00617 	ldw	r19,24(sp)
 508a714:	9029883a 	mov	r20,r18
 508a718:	00000206 	br	508a724 <_dtoa_r+0xb60>
 508a71c:	508d08c0 	call	508d08c <__multadd>
 508a720:	1021883a 	mov	r16,r2
 508a724:	a80b883a 	mov	r5,r21
 508a728:	8009883a 	mov	r4,r16
 508a72c:	50899c40 	call	50899c4 <quorem>
 508a730:	10800c04 	addi	r2,r2,48
 508a734:	90800005 	stb	r2,0(r18)
 508a738:	94800044 	addi	r18,r18,1
 508a73c:	9507c83a 	sub	r3,r18,r20
 508a740:	000f883a 	mov	r7,zero
 508a744:	01800284 	movi	r6,10
 508a748:	800b883a 	mov	r5,r16
 508a74c:	e009883a 	mov	r4,fp
 508a750:	1cfff216 	blt	r3,r19,508a71c <_dtoa_r+0xb58>
 508a754:	1011883a 	mov	r8,r2
 508a758:	d8800617 	ldw	r2,24(sp)
 508a75c:	0082370e 	bge	zero,r2,508b03c <_dtoa_r+0x1478>
 508a760:	d9000717 	ldw	r4,28(sp)
 508a764:	0025883a 	mov	r18,zero
 508a768:	20af883a 	add	r23,r4,r2
 508a76c:	01800044 	movi	r6,1
 508a770:	800b883a 	mov	r5,r16
 508a774:	e009883a 	mov	r4,fp
 508a778:	da001715 	stw	r8,92(sp)
 508a77c:	508d73c0 	call	508d73c <__lshift>
 508a780:	a80b883a 	mov	r5,r21
 508a784:	1009883a 	mov	r4,r2
 508a788:	d8800915 	stw	r2,36(sp)
 508a78c:	508d8840 	call	508d884 <__mcmp>
 508a790:	da001717 	ldw	r8,92(sp)
 508a794:	0081800e 	bge	zero,r2,508ad98 <_dtoa_r+0x11d4>
 508a798:	b93fffc3 	ldbu	r4,-1(r23)
 508a79c:	b8bfffc4 	addi	r2,r23,-1
 508a7a0:	1007883a 	mov	r3,r2
 508a7a4:	01800e44 	movi	r6,57
 508a7a8:	d9c00717 	ldw	r7,28(sp)
 508a7ac:	00000506 	br	508a7c4 <_dtoa_r+0xc00>
 508a7b0:	18ffffc4 	addi	r3,r3,-1
 508a7b4:	11c12326 	beq	r2,r7,508ac44 <_dtoa_r+0x1080>
 508a7b8:	19000003 	ldbu	r4,0(r3)
 508a7bc:	102f883a 	mov	r23,r2
 508a7c0:	10bfffc4 	addi	r2,r2,-1
 508a7c4:	21403fcc 	andi	r5,r4,255
 508a7c8:	2940201c 	xori	r5,r5,128
 508a7cc:	297fe004 	addi	r5,r5,-128
 508a7d0:	29bff726 	beq	r5,r6,508a7b0 <_dtoa_r+0xbec>
 508a7d4:	21000044 	addi	r4,r4,1
 508a7d8:	11000005 	stb	r4,0(r2)
 508a7dc:	a80b883a 	mov	r5,r21
 508a7e0:	e009883a 	mov	r4,fp
 508a7e4:	508d0640 	call	508d064 <_Bfree>
 508a7e8:	883ea026 	beq	r17,zero,508a26c <_dtoa_r+0x6a8>
 508a7ec:	90000426 	beq	r18,zero,508a800 <_dtoa_r+0xc3c>
 508a7f0:	94400326 	beq	r18,r17,508a800 <_dtoa_r+0xc3c>
 508a7f4:	900b883a 	mov	r5,r18
 508a7f8:	e009883a 	mov	r4,fp
 508a7fc:	508d0640 	call	508d064 <_Bfree>
 508a800:	880b883a 	mov	r5,r17
 508a804:	e009883a 	mov	r4,fp
 508a808:	508d0640 	call	508d064 <_Bfree>
 508a80c:	003e9706 	br	508a26c <_dtoa_r+0x6a8>
 508a810:	01800044 	movi	r6,1
 508a814:	d9800e15 	stw	r6,56(sp)
 508a818:	003d9606 	br	5089e74 <_dtoa_r+0x2b0>
 508a81c:	d8800817 	ldw	r2,32(sp)
 508a820:	d8c00517 	ldw	r3,20(sp)
 508a824:	d8000d15 	stw	zero,52(sp)
 508a828:	10c5c83a 	sub	r2,r2,r3
 508a82c:	00c9c83a 	sub	r4,zero,r3
 508a830:	d8800815 	stw	r2,32(sp)
 508a834:	d9000a15 	stw	r4,40(sp)
 508a838:	003d9706 	br	5089e98 <_dtoa_r+0x2d4>
 508a83c:	05adc83a 	sub	r22,zero,r22
 508a840:	dd800815 	stw	r22,32(sp)
 508a844:	002d883a 	mov	r22,zero
 508a848:	003d8e06 	br	5089e84 <_dtoa_r+0x2c0>
 508a84c:	d9000517 	ldw	r4,20(sp)
 508a850:	5084c240 	call	5084c24 <__floatsidf>
 508a854:	100d883a 	mov	r6,r2
 508a858:	180f883a 	mov	r7,r3
 508a85c:	a009883a 	mov	r4,r20
 508a860:	880b883a 	mov	r5,r17
 508a864:	5092f1c0 	call	5092f1c <__eqdf2>
 508a868:	103d7126 	beq	r2,zero,5089e30 <_dtoa_r+0x26c>
 508a86c:	d9c00517 	ldw	r7,20(sp)
 508a870:	39ffffc4 	addi	r7,r7,-1
 508a874:	d9c00515 	stw	r7,20(sp)
 508a878:	003d6d06 	br	5089e30 <_dtoa_r+0x26c>
 508a87c:	dd400a17 	ldw	r21,40(sp)
 508a880:	dd000817 	ldw	r20,32(sp)
 508a884:	0023883a 	mov	r17,zero
 508a888:	003f4806 	br	508a5ac <_dtoa_r+0x9e8>
 508a88c:	10e3c83a 	sub	r17,r2,r3
 508a890:	9448983a 	sll	r4,r18,r17
 508a894:	003d3206 	br	5089d60 <_dtoa_r+0x19c>
 508a898:	d8000e15 	stw	zero,56(sp)
 508a89c:	003d7506 	br	5089e74 <_dtoa_r+0x2b0>
 508a8a0:	b005883a 	mov	r2,r22
 508a8a4:	003f4506 	br	508a5bc <_dtoa_r+0x9f8>
 508a8a8:	dc000915 	stw	r16,36(sp)
 508a8ac:	d9800a17 	ldw	r6,40(sp)
 508a8b0:	d9400917 	ldw	r5,36(sp)
 508a8b4:	e009883a 	mov	r4,fp
 508a8b8:	508d5fc0 	call	508d5fc <__pow5mult>
 508a8bc:	1021883a 	mov	r16,r2
 508a8c0:	003f5a06 	br	508a62c <_dtoa_r+0xa68>
 508a8c4:	01c00044 	movi	r7,1
 508a8c8:	d9c00b15 	stw	r7,44(sp)
 508a8cc:	d8802217 	ldw	r2,136(sp)
 508a8d0:	0081280e 	bge	zero,r2,508ad74 <_dtoa_r+0x11b0>
 508a8d4:	100d883a 	mov	r6,r2
 508a8d8:	1021883a 	mov	r16,r2
 508a8dc:	d8800c15 	stw	r2,48(sp)
 508a8e0:	d8800615 	stw	r2,24(sp)
 508a8e4:	003d8806 	br	5089f08 <_dtoa_r+0x344>
 508a8e8:	d8800617 	ldw	r2,24(sp)
 508a8ec:	00be9b16 	blt	zero,r2,508a35c <_dtoa_r+0x798>
 508a8f0:	10010f1e 	bne	r2,zero,508ad30 <_dtoa_r+0x116c>
 508a8f4:	880b883a 	mov	r5,r17
 508a8f8:	000d883a 	mov	r6,zero
 508a8fc:	01d00534 	movhi	r7,16404
 508a900:	8009883a 	mov	r4,r16
 508a904:	5083c100 	call	5083c10 <__muldf3>
 508a908:	900d883a 	mov	r6,r18
 508a90c:	980f883a 	mov	r7,r19
 508a910:	1009883a 	mov	r4,r2
 508a914:	180b883a 	mov	r5,r3
 508a918:	5092fa40 	call	5092fa4 <__gedf2>
 508a91c:	002b883a 	mov	r21,zero
 508a920:	0023883a 	mov	r17,zero
 508a924:	1000bf16 	blt	r2,zero,508ac24 <_dtoa_r+0x1060>
 508a928:	d9802217 	ldw	r6,136(sp)
 508a92c:	ddc00717 	ldw	r23,28(sp)
 508a930:	018c303a 	nor	r6,zero,r6
 508a934:	d9800515 	stw	r6,20(sp)
 508a938:	a80b883a 	mov	r5,r21
 508a93c:	e009883a 	mov	r4,fp
 508a940:	508d0640 	call	508d064 <_Bfree>
 508a944:	883e4926 	beq	r17,zero,508a26c <_dtoa_r+0x6a8>
 508a948:	003fad06 	br	508a800 <_dtoa_r+0xc3c>
 508a94c:	d9c01117 	ldw	r7,68(sp)
 508a950:	3801bc26 	beq	r7,zero,508b044 <_dtoa_r+0x1480>
 508a954:	10810cc4 	addi	r2,r2,1075
 508a958:	dd400a17 	ldw	r21,40(sp)
 508a95c:	dd000817 	ldw	r20,32(sp)
 508a960:	003f0a06 	br	508a58c <_dtoa_r+0x9c8>
 508a964:	00800704 	movi	r2,28
 508a968:	d9000817 	ldw	r4,32(sp)
 508a96c:	a0a9883a 	add	r20,r20,r2
 508a970:	b0ad883a 	add	r22,r22,r2
 508a974:	2089883a 	add	r4,r4,r2
 508a978:	d9000815 	stw	r4,32(sp)
 508a97c:	003f5106 	br	508a6c4 <_dtoa_r+0xb00>
 508a980:	d8c00317 	ldw	r3,12(sp)
 508a984:	b8c1fc0e 	bge	r23,r3,508b178 <_dtoa_r+0x15b4>
 508a988:	0027883a 	mov	r19,zero
 508a98c:	b805883a 	mov	r2,r23
 508a990:	003f3e06 	br	508a68c <_dtoa_r+0xac8>
 508a994:	880b883a 	mov	r5,r17
 508a998:	e009883a 	mov	r4,fp
 508a99c:	000f883a 	mov	r7,zero
 508a9a0:	01800284 	movi	r6,10
 508a9a4:	508d08c0 	call	508d08c <__multadd>
 508a9a8:	d9000c17 	ldw	r4,48(sp)
 508a9ac:	1023883a 	mov	r17,r2
 508a9b0:	0102040e 	bge	zero,r4,508b1c4 <_dtoa_r+0x1600>
 508a9b4:	d9000615 	stw	r4,24(sp)
 508a9b8:	0500050e 	bge	zero,r20,508a9d0 <_dtoa_r+0xe0c>
 508a9bc:	880b883a 	mov	r5,r17
 508a9c0:	a00d883a 	mov	r6,r20
 508a9c4:	e009883a 	mov	r4,fp
 508a9c8:	508d73c0 	call	508d73c <__lshift>
 508a9cc:	1023883a 	mov	r17,r2
 508a9d0:	9801241e 	bne	r19,zero,508ae64 <_dtoa_r+0x12a0>
 508a9d4:	8829883a 	mov	r20,r17
 508a9d8:	d9000617 	ldw	r4,24(sp)
 508a9dc:	dcc00717 	ldw	r19,28(sp)
 508a9e0:	9480004c 	andi	r18,r18,1
 508a9e4:	20bfffc4 	addi	r2,r4,-1
 508a9e8:	9885883a 	add	r2,r19,r2
 508a9ec:	d8800415 	stw	r2,16(sp)
 508a9f0:	dc800615 	stw	r18,24(sp)
 508a9f4:	a80b883a 	mov	r5,r21
 508a9f8:	8009883a 	mov	r4,r16
 508a9fc:	50899c40 	call	50899c4 <quorem>
 508aa00:	880b883a 	mov	r5,r17
 508aa04:	8009883a 	mov	r4,r16
 508aa08:	102f883a 	mov	r23,r2
 508aa0c:	508d8840 	call	508d884 <__mcmp>
 508aa10:	a80b883a 	mov	r5,r21
 508aa14:	a00d883a 	mov	r6,r20
 508aa18:	e009883a 	mov	r4,fp
 508aa1c:	102d883a 	mov	r22,r2
 508aa20:	508d8e40 	call	508d8e4 <__mdiff>
 508aa24:	1007883a 	mov	r3,r2
 508aa28:	10800317 	ldw	r2,12(r2)
 508aa2c:	bc800c04 	addi	r18,r23,48
 508aa30:	180b883a 	mov	r5,r3
 508aa34:	10004e1e 	bne	r2,zero,508ab70 <_dtoa_r+0xfac>
 508aa38:	8009883a 	mov	r4,r16
 508aa3c:	d8c01615 	stw	r3,88(sp)
 508aa40:	508d8840 	call	508d884 <__mcmp>
 508aa44:	d8c01617 	ldw	r3,88(sp)
 508aa48:	e009883a 	mov	r4,fp
 508aa4c:	d8801615 	stw	r2,88(sp)
 508aa50:	180b883a 	mov	r5,r3
 508aa54:	508d0640 	call	508d064 <_Bfree>
 508aa58:	d8801617 	ldw	r2,88(sp)
 508aa5c:	1000041e 	bne	r2,zero,508aa70 <_dtoa_r+0xeac>
 508aa60:	d9800317 	ldw	r6,12(sp)
 508aa64:	3000021e 	bne	r6,zero,508aa70 <_dtoa_r+0xeac>
 508aa68:	d8c00617 	ldw	r3,24(sp)
 508aa6c:	18003726 	beq	r3,zero,508ab4c <_dtoa_r+0xf88>
 508aa70:	b0002016 	blt	r22,zero,508aaf4 <_dtoa_r+0xf30>
 508aa74:	b000041e 	bne	r22,zero,508aa88 <_dtoa_r+0xec4>
 508aa78:	d9000317 	ldw	r4,12(sp)
 508aa7c:	2000021e 	bne	r4,zero,508aa88 <_dtoa_r+0xec4>
 508aa80:	d8c00617 	ldw	r3,24(sp)
 508aa84:	18001b26 	beq	r3,zero,508aaf4 <_dtoa_r+0xf30>
 508aa88:	00810716 	blt	zero,r2,508aea8 <_dtoa_r+0x12e4>
 508aa8c:	d8c00417 	ldw	r3,16(sp)
 508aa90:	9d800044 	addi	r22,r19,1
 508aa94:	9c800005 	stb	r18,0(r19)
 508aa98:	b02f883a 	mov	r23,r22
 508aa9c:	98c10626 	beq	r19,r3,508aeb8 <_dtoa_r+0x12f4>
 508aaa0:	800b883a 	mov	r5,r16
 508aaa4:	000f883a 	mov	r7,zero
 508aaa8:	01800284 	movi	r6,10
 508aaac:	e009883a 	mov	r4,fp
 508aab0:	508d08c0 	call	508d08c <__multadd>
 508aab4:	1021883a 	mov	r16,r2
 508aab8:	000f883a 	mov	r7,zero
 508aabc:	01800284 	movi	r6,10
 508aac0:	880b883a 	mov	r5,r17
 508aac4:	e009883a 	mov	r4,fp
 508aac8:	8d002526 	beq	r17,r20,508ab60 <_dtoa_r+0xf9c>
 508aacc:	508d08c0 	call	508d08c <__multadd>
 508aad0:	a00b883a 	mov	r5,r20
 508aad4:	000f883a 	mov	r7,zero
 508aad8:	01800284 	movi	r6,10
 508aadc:	e009883a 	mov	r4,fp
 508aae0:	1023883a 	mov	r17,r2
 508aae4:	508d08c0 	call	508d08c <__multadd>
 508aae8:	1029883a 	mov	r20,r2
 508aaec:	b027883a 	mov	r19,r22
 508aaf0:	003fc006 	br	508a9f4 <_dtoa_r+0xe30>
 508aaf4:	9011883a 	mov	r8,r18
 508aaf8:	00800e0e 	bge	zero,r2,508ab34 <_dtoa_r+0xf70>
 508aafc:	800b883a 	mov	r5,r16
 508ab00:	01800044 	movi	r6,1
 508ab04:	e009883a 	mov	r4,fp
 508ab08:	da001715 	stw	r8,92(sp)
 508ab0c:	508d73c0 	call	508d73c <__lshift>
 508ab10:	a80b883a 	mov	r5,r21
 508ab14:	1009883a 	mov	r4,r2
 508ab18:	1021883a 	mov	r16,r2
 508ab1c:	508d8840 	call	508d884 <__mcmp>
 508ab20:	da001717 	ldw	r8,92(sp)
 508ab24:	0081960e 	bge	zero,r2,508b180 <_dtoa_r+0x15bc>
 508ab28:	00800e44 	movi	r2,57
 508ab2c:	40817026 	beq	r8,r2,508b0f0 <_dtoa_r+0x152c>
 508ab30:	ba000c44 	addi	r8,r23,49
 508ab34:	8825883a 	mov	r18,r17
 508ab38:	9dc00044 	addi	r23,r19,1
 508ab3c:	9a000005 	stb	r8,0(r19)
 508ab40:	a023883a 	mov	r17,r20
 508ab44:	dc000915 	stw	r16,36(sp)
 508ab48:	003f2406 	br	508a7dc <_dtoa_r+0xc18>
 508ab4c:	00800e44 	movi	r2,57
 508ab50:	9011883a 	mov	r8,r18
 508ab54:	90816626 	beq	r18,r2,508b0f0 <_dtoa_r+0x152c>
 508ab58:	05bff516 	blt	zero,r22,508ab30 <_dtoa_r+0xf6c>
 508ab5c:	003ff506 	br	508ab34 <_dtoa_r+0xf70>
 508ab60:	508d08c0 	call	508d08c <__multadd>
 508ab64:	1023883a 	mov	r17,r2
 508ab68:	1029883a 	mov	r20,r2
 508ab6c:	003fdf06 	br	508aaec <_dtoa_r+0xf28>
 508ab70:	e009883a 	mov	r4,fp
 508ab74:	508d0640 	call	508d064 <_Bfree>
 508ab78:	00800044 	movi	r2,1
 508ab7c:	003fbc06 	br	508aa70 <_dtoa_r+0xeac>
 508ab80:	a80b883a 	mov	r5,r21
 508ab84:	8009883a 	mov	r4,r16
 508ab88:	508d8840 	call	508d884 <__mcmp>
 508ab8c:	103edb0e 	bge	r2,zero,508a6fc <_dtoa_r+0xb38>
 508ab90:	800b883a 	mov	r5,r16
 508ab94:	000f883a 	mov	r7,zero
 508ab98:	01800284 	movi	r6,10
 508ab9c:	e009883a 	mov	r4,fp
 508aba0:	508d08c0 	call	508d08c <__multadd>
 508aba4:	1021883a 	mov	r16,r2
 508aba8:	d8800517 	ldw	r2,20(sp)
 508abac:	d8c00b17 	ldw	r3,44(sp)
 508abb0:	10bfffc4 	addi	r2,r2,-1
 508abb4:	d8800515 	stw	r2,20(sp)
 508abb8:	183f761e 	bne	r3,zero,508a994 <_dtoa_r+0xdd0>
 508abbc:	d9000c17 	ldw	r4,48(sp)
 508abc0:	0101730e 	bge	zero,r4,508b190 <_dtoa_r+0x15cc>
 508abc4:	d9000615 	stw	r4,24(sp)
 508abc8:	003ed006 	br	508a70c <_dtoa_r+0xb48>
 508abcc:	00800084 	movi	r2,2
 508abd0:	3081861e 	bne	r6,r2,508b1ec <_dtoa_r+0x1628>
 508abd4:	d8000b15 	stw	zero,44(sp)
 508abd8:	003f3c06 	br	508a8cc <_dtoa_r+0xd08>
 508abdc:	dc000917 	ldw	r16,36(sp)
 508abe0:	003e9206 	br	508a62c <_dtoa_r+0xa68>
 508abe4:	d9c00317 	ldw	r7,12(sp)
 508abe8:	00800084 	movi	r2,2
 508abec:	11fec50e 	bge	r2,r7,508a704 <_dtoa_r+0xb40>
 508abf0:	d9000617 	ldw	r4,24(sp)
 508abf4:	20013c1e 	bne	r4,zero,508b0e8 <_dtoa_r+0x1524>
 508abf8:	a80b883a 	mov	r5,r21
 508abfc:	000f883a 	mov	r7,zero
 508ac00:	01800144 	movi	r6,5
 508ac04:	e009883a 	mov	r4,fp
 508ac08:	508d08c0 	call	508d08c <__multadd>
 508ac0c:	100b883a 	mov	r5,r2
 508ac10:	8009883a 	mov	r4,r16
 508ac14:	102b883a 	mov	r21,r2
 508ac18:	508d8840 	call	508d884 <__mcmp>
 508ac1c:	dc000915 	stw	r16,36(sp)
 508ac20:	00bf410e 	bge	zero,r2,508a928 <_dtoa_r+0xd64>
 508ac24:	d9c00717 	ldw	r7,28(sp)
 508ac28:	00800c44 	movi	r2,49
 508ac2c:	38800005 	stb	r2,0(r7)
 508ac30:	d8800517 	ldw	r2,20(sp)
 508ac34:	3dc00044 	addi	r23,r7,1
 508ac38:	10800044 	addi	r2,r2,1
 508ac3c:	d8800515 	stw	r2,20(sp)
 508ac40:	003f3d06 	br	508a938 <_dtoa_r+0xd74>
 508ac44:	d9800517 	ldw	r6,20(sp)
 508ac48:	d9c00717 	ldw	r7,28(sp)
 508ac4c:	00800c44 	movi	r2,49
 508ac50:	31800044 	addi	r6,r6,1
 508ac54:	d9800515 	stw	r6,20(sp)
 508ac58:	38800005 	stb	r2,0(r7)
 508ac5c:	003edf06 	br	508a7dc <_dtoa_r+0xc18>
 508ac60:	d8000b15 	stw	zero,44(sp)
 508ac64:	003c9f06 	br	5089ee4 <_dtoa_r+0x320>
 508ac68:	903e7e1e 	bne	r18,zero,508a664 <_dtoa_r+0xaa0>
 508ac6c:	00800434 	movhi	r2,16
 508ac70:	10bfffc4 	addi	r2,r2,-1
 508ac74:	9884703a 	and	r2,r19,r2
 508ac78:	1000ea1e 	bne	r2,zero,508b024 <_dtoa_r+0x1460>
 508ac7c:	9cdffc2c 	andhi	r19,r19,32752
 508ac80:	9800e826 	beq	r19,zero,508b024 <_dtoa_r+0x1460>
 508ac84:	d9c00817 	ldw	r7,32(sp)
 508ac88:	b5800044 	addi	r22,r22,1
 508ac8c:	04c00044 	movi	r19,1
 508ac90:	39c00044 	addi	r7,r7,1
 508ac94:	d9c00815 	stw	r7,32(sp)
 508ac98:	d8800d17 	ldw	r2,52(sp)
 508ac9c:	103e721e 	bne	r2,zero,508a668 <_dtoa_r+0xaa4>
 508aca0:	00800044 	movi	r2,1
 508aca4:	003e7906 	br	508a68c <_dtoa_r+0xac8>
 508aca8:	8009883a 	mov	r4,r16
 508acac:	5084c240 	call	5084c24 <__floatsidf>
 508acb0:	d9800f17 	ldw	r6,60(sp)
 508acb4:	d9c01017 	ldw	r7,64(sp)
 508acb8:	1009883a 	mov	r4,r2
 508acbc:	180b883a 	mov	r5,r3
 508acc0:	5083c100 	call	5083c10 <__muldf3>
 508acc4:	000d883a 	mov	r6,zero
 508acc8:	01d00734 	movhi	r7,16412
 508accc:	1009883a 	mov	r4,r2
 508acd0:	180b883a 	mov	r5,r3
 508acd4:	50832700 	call	5083270 <__adddf3>
 508acd8:	047f3034 	movhi	r17,64704
 508acdc:	1021883a 	mov	r16,r2
 508ace0:	1c63883a 	add	r17,r3,r17
 508ace4:	d9000f17 	ldw	r4,60(sp)
 508ace8:	d9401017 	ldw	r5,64(sp)
 508acec:	000d883a 	mov	r6,zero
 508acf0:	01d00534 	movhi	r7,16404
 508acf4:	50843280 	call	5084328 <__subdf3>
 508acf8:	800d883a 	mov	r6,r16
 508acfc:	880f883a 	mov	r7,r17
 508ad00:	1009883a 	mov	r4,r2
 508ad04:	180b883a 	mov	r5,r3
 508ad08:	102b883a 	mov	r21,r2
 508ad0c:	1829883a 	mov	r20,r3
 508ad10:	5092fa40 	call	5092fa4 <__gedf2>
 508ad14:	00806c16 	blt	zero,r2,508aec8 <_dtoa_r+0x1304>
 508ad18:	89e0003c 	xorhi	r7,r17,32768
 508ad1c:	800d883a 	mov	r6,r16
 508ad20:	a809883a 	mov	r4,r21
 508ad24:	a00b883a 	mov	r5,r20
 508ad28:	5083b1c0 	call	5083b1c <__ledf2>
 508ad2c:	103d7e0e 	bge	r2,zero,508a328 <_dtoa_r+0x764>
 508ad30:	002b883a 	mov	r21,zero
 508ad34:	0023883a 	mov	r17,zero
 508ad38:	003efb06 	br	508a928 <_dtoa_r+0xd64>
 508ad3c:	d8800717 	ldw	r2,28(sp)
 508ad40:	003bd006 	br	5089c84 <_dtoa_r+0xc0>
 508ad44:	d9000a17 	ldw	r4,40(sp)
 508ad48:	d9800d17 	ldw	r6,52(sp)
 508ad4c:	dd400a15 	stw	r21,40(sp)
 508ad50:	a905c83a 	sub	r2,r21,r4
 508ad54:	308d883a 	add	r6,r6,r2
 508ad58:	d9800d15 	stw	r6,52(sp)
 508ad5c:	002b883a 	mov	r21,zero
 508ad60:	003e0606 	br	508a57c <_dtoa_r+0x9b8>
 508ad64:	9023883a 	mov	r17,r18
 508ad68:	9829883a 	mov	r20,r19
 508ad6c:	04000084 	movi	r16,2
 508ad70:	003c9206 	br	5089fbc <_dtoa_r+0x3f8>
 508ad74:	04000044 	movi	r16,1
 508ad78:	dc000c15 	stw	r16,48(sp)
 508ad7c:	dc000615 	stw	r16,24(sp)
 508ad80:	dc002215 	stw	r16,136(sp)
 508ad84:	e0001115 	stw	zero,68(fp)
 508ad88:	000b883a 	mov	r5,zero
 508ad8c:	003c6906 	br	5089f34 <_dtoa_r+0x370>
 508ad90:	3021883a 	mov	r16,r6
 508ad94:	003ffb06 	br	508ad84 <_dtoa_r+0x11c0>
 508ad98:	1000021e 	bne	r2,zero,508ada4 <_dtoa_r+0x11e0>
 508ad9c:	4200004c 	andi	r8,r8,1
 508ada0:	403e7d1e 	bne	r8,zero,508a798 <_dtoa_r+0xbd4>
 508ada4:	01000c04 	movi	r4,48
 508ada8:	00000106 	br	508adb0 <_dtoa_r+0x11ec>
 508adac:	102f883a 	mov	r23,r2
 508adb0:	b8bfffc4 	addi	r2,r23,-1
 508adb4:	10c00007 	ldb	r3,0(r2)
 508adb8:	193ffc26 	beq	r3,r4,508adac <_dtoa_r+0x11e8>
 508adbc:	003e8706 	br	508a7dc <_dtoa_r+0xc18>
 508adc0:	d8800517 	ldw	r2,20(sp)
 508adc4:	00a3c83a 	sub	r17,zero,r2
 508adc8:	8800a426 	beq	r17,zero,508b05c <_dtoa_r+0x1498>
 508adcc:	888003cc 	andi	r2,r17,15
 508add0:	100490fa 	slli	r2,r2,3
 508add4:	00c14274 	movhi	r3,1289
 508add8:	18da7704 	addi	r3,r3,27100
 508addc:	1885883a 	add	r2,r3,r2
 508ade0:	11800017 	ldw	r6,0(r2)
 508ade4:	11c00117 	ldw	r7,4(r2)
 508ade8:	9009883a 	mov	r4,r18
 508adec:	980b883a 	mov	r5,r19
 508adf0:	8823d13a 	srai	r17,r17,4
 508adf4:	5083c100 	call	5083c10 <__muldf3>
 508adf8:	d8800f15 	stw	r2,60(sp)
 508adfc:	d8c01015 	stw	r3,64(sp)
 508ae00:	8800e826 	beq	r17,zero,508b1a4 <_dtoa_r+0x15e0>
 508ae04:	05014274 	movhi	r20,1289
 508ae08:	a51a6d04 	addi	r20,r20,27060
 508ae0c:	04000084 	movi	r16,2
 508ae10:	8980004c 	andi	r6,r17,1
 508ae14:	1009883a 	mov	r4,r2
 508ae18:	8823d07a 	srai	r17,r17,1
 508ae1c:	180b883a 	mov	r5,r3
 508ae20:	30000426 	beq	r6,zero,508ae34 <_dtoa_r+0x1270>
 508ae24:	a1800017 	ldw	r6,0(r20)
 508ae28:	a1c00117 	ldw	r7,4(r20)
 508ae2c:	84000044 	addi	r16,r16,1
 508ae30:	5083c100 	call	5083c10 <__muldf3>
 508ae34:	a5000204 	addi	r20,r20,8
 508ae38:	883ff51e 	bne	r17,zero,508ae10 <_dtoa_r+0x124c>
 508ae3c:	d8800f15 	stw	r2,60(sp)
 508ae40:	d8c01015 	stw	r3,64(sp)
 508ae44:	003c7606 	br	508a020 <_dtoa_r+0x45c>
 508ae48:	00c00c04 	movi	r3,48
 508ae4c:	10c00005 	stb	r3,0(r2)
 508ae50:	d8c00517 	ldw	r3,20(sp)
 508ae54:	bd3fffc3 	ldbu	r20,-1(r23)
 508ae58:	18c00044 	addi	r3,r3,1
 508ae5c:	d8c00515 	stw	r3,20(sp)
 508ae60:	003db906 	br	508a548 <_dtoa_r+0x984>
 508ae64:	89400117 	ldw	r5,4(r17)
 508ae68:	e009883a 	mov	r4,fp
 508ae6c:	508cfbc0 	call	508cfbc <_Balloc>
 508ae70:	89800417 	ldw	r6,16(r17)
 508ae74:	89400304 	addi	r5,r17,12
 508ae78:	11000304 	addi	r4,r2,12
 508ae7c:	31800084 	addi	r6,r6,2
 508ae80:	318d883a 	add	r6,r6,r6
 508ae84:	318d883a 	add	r6,r6,r6
 508ae88:	1027883a 	mov	r19,r2
 508ae8c:	5084d640 	call	5084d64 <memcpy>
 508ae90:	01800044 	movi	r6,1
 508ae94:	980b883a 	mov	r5,r19
 508ae98:	e009883a 	mov	r4,fp
 508ae9c:	508d73c0 	call	508d73c <__lshift>
 508aea0:	1029883a 	mov	r20,r2
 508aea4:	003ecc06 	br	508a9d8 <_dtoa_r+0xe14>
 508aea8:	00800e44 	movi	r2,57
 508aeac:	90809026 	beq	r18,r2,508b0f0 <_dtoa_r+0x152c>
 508aeb0:	92000044 	addi	r8,r18,1
 508aeb4:	003f1f06 	br	508ab34 <_dtoa_r+0xf70>
 508aeb8:	9011883a 	mov	r8,r18
 508aebc:	8825883a 	mov	r18,r17
 508aec0:	a023883a 	mov	r17,r20
 508aec4:	003e2906 	br	508a76c <_dtoa_r+0xba8>
 508aec8:	002b883a 	mov	r21,zero
 508aecc:	0023883a 	mov	r17,zero
 508aed0:	003f5406 	br	508ac24 <_dtoa_r+0x1060>
 508aed4:	61bfffc4 	addi	r6,r12,-1
 508aed8:	300490fa 	slli	r2,r6,3
 508aedc:	00c14274 	movhi	r3,1289
 508aee0:	18da7704 	addi	r3,r3,27100
 508aee4:	1885883a 	add	r2,r3,r2
 508aee8:	11000017 	ldw	r4,0(r2)
 508aeec:	11400117 	ldw	r5,4(r2)
 508aef0:	d8800717 	ldw	r2,28(sp)
 508aef4:	880f883a 	mov	r7,r17
 508aef8:	d9801215 	stw	r6,72(sp)
 508aefc:	800d883a 	mov	r6,r16
 508af00:	db001615 	stw	r12,88(sp)
 508af04:	15c00044 	addi	r23,r2,1
 508af08:	5083c100 	call	5083c10 <__muldf3>
 508af0c:	d9401017 	ldw	r5,64(sp)
 508af10:	d9000f17 	ldw	r4,60(sp)
 508af14:	d8c01515 	stw	r3,84(sp)
 508af18:	d8801415 	stw	r2,80(sp)
 508af1c:	50930800 	call	5093080 <__fixdfsi>
 508af20:	1009883a 	mov	r4,r2
 508af24:	1021883a 	mov	r16,r2
 508af28:	5084c240 	call	5084c24 <__floatsidf>
 508af2c:	d9000f17 	ldw	r4,60(sp)
 508af30:	d9401017 	ldw	r5,64(sp)
 508af34:	100d883a 	mov	r6,r2
 508af38:	180f883a 	mov	r7,r3
 508af3c:	50843280 	call	5084328 <__subdf3>
 508af40:	1829883a 	mov	r20,r3
 508af44:	d8c00717 	ldw	r3,28(sp)
 508af48:	84000c04 	addi	r16,r16,48
 508af4c:	1023883a 	mov	r17,r2
 508af50:	1c000005 	stb	r16,0(r3)
 508af54:	db001617 	ldw	r12,88(sp)
 508af58:	00800044 	movi	r2,1
 508af5c:	60802226 	beq	r12,r2,508afe8 <_dtoa_r+0x1424>
 508af60:	d9c00717 	ldw	r7,28(sp)
 508af64:	8805883a 	mov	r2,r17
 508af68:	b82b883a 	mov	r21,r23
 508af6c:	3b19883a 	add	r12,r7,r12
 508af70:	6023883a 	mov	r17,r12
 508af74:	a007883a 	mov	r3,r20
 508af78:	dc800f15 	stw	r18,60(sp)
 508af7c:	000d883a 	mov	r6,zero
 508af80:	01d00934 	movhi	r7,16420
 508af84:	1009883a 	mov	r4,r2
 508af88:	180b883a 	mov	r5,r3
 508af8c:	5083c100 	call	5083c10 <__muldf3>
 508af90:	180b883a 	mov	r5,r3
 508af94:	1009883a 	mov	r4,r2
 508af98:	1829883a 	mov	r20,r3
 508af9c:	1025883a 	mov	r18,r2
 508afa0:	50930800 	call	5093080 <__fixdfsi>
 508afa4:	1009883a 	mov	r4,r2
 508afa8:	1021883a 	mov	r16,r2
 508afac:	5084c240 	call	5084c24 <__floatsidf>
 508afb0:	100d883a 	mov	r6,r2
 508afb4:	180f883a 	mov	r7,r3
 508afb8:	9009883a 	mov	r4,r18
 508afbc:	a00b883a 	mov	r5,r20
 508afc0:	84000c04 	addi	r16,r16,48
 508afc4:	50843280 	call	5084328 <__subdf3>
 508afc8:	ad400044 	addi	r21,r21,1
 508afcc:	ac3fffc5 	stb	r16,-1(r21)
 508afd0:	ac7fea1e 	bne	r21,r17,508af7c <_dtoa_r+0x13b8>
 508afd4:	1023883a 	mov	r17,r2
 508afd8:	d8801217 	ldw	r2,72(sp)
 508afdc:	dc800f17 	ldw	r18,60(sp)
 508afe0:	1829883a 	mov	r20,r3
 508afe4:	b8af883a 	add	r23,r23,r2
 508afe8:	d9001417 	ldw	r4,80(sp)
 508afec:	d9401517 	ldw	r5,84(sp)
 508aff0:	000d883a 	mov	r6,zero
 508aff4:	01cff834 	movhi	r7,16352
 508aff8:	50832700 	call	5083270 <__adddf3>
 508affc:	880d883a 	mov	r6,r17
 508b000:	a00f883a 	mov	r7,r20
 508b004:	1009883a 	mov	r4,r2
 508b008:	180b883a 	mov	r5,r3
 508b00c:	5083b1c0 	call	5083b1c <__ledf2>
 508b010:	10003e0e 	bge	r2,zero,508b10c <_dtoa_r+0x1548>
 508b014:	d9001317 	ldw	r4,76(sp)
 508b018:	bd3fffc3 	ldbu	r20,-1(r23)
 508b01c:	d9000515 	stw	r4,20(sp)
 508b020:	003d3b06 	br	508a510 <_dtoa_r+0x94c>
 508b024:	0027883a 	mov	r19,zero
 508b028:	003f1b06 	br	508ac98 <_dtoa_r+0x10d4>
 508b02c:	d8800817 	ldw	r2,32(sp)
 508b030:	11e9c83a 	sub	r20,r2,r7
 508b034:	0005883a 	mov	r2,zero
 508b038:	003d5406 	br	508a58c <_dtoa_r+0x9c8>
 508b03c:	00800044 	movi	r2,1
 508b040:	003dc706 	br	508a760 <_dtoa_r+0xb9c>
 508b044:	d8c00217 	ldw	r3,8(sp)
 508b048:	00800d84 	movi	r2,54
 508b04c:	dd400a17 	ldw	r21,40(sp)
 508b050:	10c5c83a 	sub	r2,r2,r3
 508b054:	dd000817 	ldw	r20,32(sp)
 508b058:	003d4c06 	br	508a58c <_dtoa_r+0x9c8>
 508b05c:	dc800f15 	stw	r18,60(sp)
 508b060:	dcc01015 	stw	r19,64(sp)
 508b064:	04000084 	movi	r16,2
 508b068:	003bed06 	br	508a020 <_dtoa_r+0x45c>
 508b06c:	d9000617 	ldw	r4,24(sp)
 508b070:	203f0d26 	beq	r4,zero,508aca8 <_dtoa_r+0x10e4>
 508b074:	d9800c17 	ldw	r6,48(sp)
 508b078:	01bcab0e 	bge	zero,r6,508a328 <_dtoa_r+0x764>
 508b07c:	d9401017 	ldw	r5,64(sp)
 508b080:	d9000f17 	ldw	r4,60(sp)
 508b084:	000d883a 	mov	r6,zero
 508b088:	01d00934 	movhi	r7,16420
 508b08c:	5083c100 	call	5083c10 <__muldf3>
 508b090:	81000044 	addi	r4,r16,1
 508b094:	d8800f15 	stw	r2,60(sp)
 508b098:	d8c01015 	stw	r3,64(sp)
 508b09c:	5084c240 	call	5084c24 <__floatsidf>
 508b0a0:	d9800f17 	ldw	r6,60(sp)
 508b0a4:	d9c01017 	ldw	r7,64(sp)
 508b0a8:	1009883a 	mov	r4,r2
 508b0ac:	180b883a 	mov	r5,r3
 508b0b0:	5083c100 	call	5083c10 <__muldf3>
 508b0b4:	01d00734 	movhi	r7,16412
 508b0b8:	000d883a 	mov	r6,zero
 508b0bc:	1009883a 	mov	r4,r2
 508b0c0:	180b883a 	mov	r5,r3
 508b0c4:	50832700 	call	5083270 <__adddf3>
 508b0c8:	d9c00517 	ldw	r7,20(sp)
 508b0cc:	047f3034 	movhi	r17,64704
 508b0d0:	1021883a 	mov	r16,r2
 508b0d4:	39ffffc4 	addi	r7,r7,-1
 508b0d8:	d9c01315 	stw	r7,76(sp)
 508b0dc:	1c63883a 	add	r17,r3,r17
 508b0e0:	db000c17 	ldw	r12,48(sp)
 508b0e4:	003bea06 	br	508a090 <_dtoa_r+0x4cc>
 508b0e8:	dc000915 	stw	r16,36(sp)
 508b0ec:	003e0e06 	br	508a928 <_dtoa_r+0xd64>
 508b0f0:	01000e44 	movi	r4,57
 508b0f4:	8825883a 	mov	r18,r17
 508b0f8:	9dc00044 	addi	r23,r19,1
 508b0fc:	99000005 	stb	r4,0(r19)
 508b100:	a023883a 	mov	r17,r20
 508b104:	dc000915 	stw	r16,36(sp)
 508b108:	003da406 	br	508a79c <_dtoa_r+0xbd8>
 508b10c:	d9801417 	ldw	r6,80(sp)
 508b110:	d9c01517 	ldw	r7,84(sp)
 508b114:	0009883a 	mov	r4,zero
 508b118:	014ff834 	movhi	r5,16352
 508b11c:	50843280 	call	5084328 <__subdf3>
 508b120:	880d883a 	mov	r6,r17
 508b124:	a00f883a 	mov	r7,r20
 508b128:	1009883a 	mov	r4,r2
 508b12c:	180b883a 	mov	r5,r3
 508b130:	5092fa40 	call	5092fa4 <__gedf2>
 508b134:	00bc7c0e 	bge	zero,r2,508a328 <_dtoa_r+0x764>
 508b138:	01000c04 	movi	r4,48
 508b13c:	00000106 	br	508b144 <_dtoa_r+0x1580>
 508b140:	102f883a 	mov	r23,r2
 508b144:	b8bfffc4 	addi	r2,r23,-1
 508b148:	10c00007 	ldb	r3,0(r2)
 508b14c:	193ffc26 	beq	r3,r4,508b140 <_dtoa_r+0x157c>
 508b150:	d9801317 	ldw	r6,76(sp)
 508b154:	d9800515 	stw	r6,20(sp)
 508b158:	003c4406 	br	508a26c <_dtoa_r+0x6a8>
 508b15c:	d9801317 	ldw	r6,76(sp)
 508b160:	d9800515 	stw	r6,20(sp)
 508b164:	003cea06 	br	508a510 <_dtoa_r+0x94c>
 508b168:	dd800f17 	ldw	r22,60(sp)
 508b16c:	dcc01017 	ldw	r19,64(sp)
 508b170:	dc801217 	ldw	r18,72(sp)
 508b174:	003c6c06 	br	508a328 <_dtoa_r+0x764>
 508b178:	903e031e 	bne	r18,zero,508a988 <_dtoa_r+0xdc4>
 508b17c:	003ebb06 	br	508ac6c <_dtoa_r+0x10a8>
 508b180:	103e6c1e 	bne	r2,zero,508ab34 <_dtoa_r+0xf70>
 508b184:	4080004c 	andi	r2,r8,1
 508b188:	103e6a26 	beq	r2,zero,508ab34 <_dtoa_r+0xf70>
 508b18c:	003e6606 	br	508ab28 <_dtoa_r+0xf64>
 508b190:	d8c00317 	ldw	r3,12(sp)
 508b194:	00800084 	movi	r2,2
 508b198:	10c02916 	blt	r2,r3,508b240 <_dtoa_r+0x167c>
 508b19c:	d9000c17 	ldw	r4,48(sp)
 508b1a0:	003e8806 	br	508abc4 <_dtoa_r+0x1000>
 508b1a4:	04000084 	movi	r16,2
 508b1a8:	003b9d06 	br	508a020 <_dtoa_r+0x45c>
 508b1ac:	d9001317 	ldw	r4,76(sp)
 508b1b0:	d9000515 	stw	r4,20(sp)
 508b1b4:	003cd606 	br	508a510 <_dtoa_r+0x94c>
 508b1b8:	d8801317 	ldw	r2,76(sp)
 508b1bc:	d8800515 	stw	r2,20(sp)
 508b1c0:	003c2a06 	br	508a26c <_dtoa_r+0x6a8>
 508b1c4:	d9800317 	ldw	r6,12(sp)
 508b1c8:	00800084 	movi	r2,2
 508b1cc:	11801516 	blt	r2,r6,508b224 <_dtoa_r+0x1660>
 508b1d0:	d9c00c17 	ldw	r7,48(sp)
 508b1d4:	d9c00615 	stw	r7,24(sp)
 508b1d8:	003df706 	br	508a9b8 <_dtoa_r+0xdf4>
 508b1dc:	193d3926 	beq	r3,r4,508a6c4 <_dtoa_r+0xb00>
 508b1e0:	00c00f04 	movi	r3,60
 508b1e4:	1885c83a 	sub	r2,r3,r2
 508b1e8:	003ddf06 	br	508a968 <_dtoa_r+0xda4>
 508b1ec:	e009883a 	mov	r4,fp
 508b1f0:	e0001115 	stw	zero,68(fp)
 508b1f4:	000b883a 	mov	r5,zero
 508b1f8:	508cfbc0 	call	508cfbc <_Balloc>
 508b1fc:	d8800715 	stw	r2,28(sp)
 508b200:	d8c00717 	ldw	r3,28(sp)
 508b204:	00bfffc4 	movi	r2,-1
 508b208:	01000044 	movi	r4,1
 508b20c:	d8800c15 	stw	r2,48(sp)
 508b210:	e0c01015 	stw	r3,64(fp)
 508b214:	d9000b15 	stw	r4,44(sp)
 508b218:	d8800615 	stw	r2,24(sp)
 508b21c:	d8002215 	stw	zero,136(sp)
 508b220:	003c4106 	br	508a328 <_dtoa_r+0x764>
 508b224:	d8c00c17 	ldw	r3,48(sp)
 508b228:	d8c00615 	stw	r3,24(sp)
 508b22c:	003e7006 	br	508abf0 <_dtoa_r+0x102c>
 508b230:	04400044 	movi	r17,1
 508b234:	003b2006 	br	5089eb8 <_dtoa_r+0x2f4>
 508b238:	000b883a 	mov	r5,zero
 508b23c:	003b3d06 	br	5089f34 <_dtoa_r+0x370>
 508b240:	d8800c17 	ldw	r2,48(sp)
 508b244:	d8800615 	stw	r2,24(sp)
 508b248:	003e6906 	br	508abf0 <_dtoa_r+0x102c>

0508b24c <__sflush_r>:
 508b24c:	2880030b 	ldhu	r2,12(r5)
 508b250:	defffb04 	addi	sp,sp,-20
 508b254:	dcc00315 	stw	r19,12(sp)
 508b258:	dc400115 	stw	r17,4(sp)
 508b25c:	dfc00415 	stw	ra,16(sp)
 508b260:	dc800215 	stw	r18,8(sp)
 508b264:	dc000015 	stw	r16,0(sp)
 508b268:	10c0020c 	andi	r3,r2,8
 508b26c:	2823883a 	mov	r17,r5
 508b270:	2027883a 	mov	r19,r4
 508b274:	1800311e 	bne	r3,zero,508b33c <__sflush_r+0xf0>
 508b278:	28c00117 	ldw	r3,4(r5)
 508b27c:	10820014 	ori	r2,r2,2048
 508b280:	2880030d 	sth	r2,12(r5)
 508b284:	00c04b0e 	bge	zero,r3,508b3b4 <__sflush_r+0x168>
 508b288:	8a000a17 	ldw	r8,40(r17)
 508b28c:	40002326 	beq	r8,zero,508b31c <__sflush_r+0xd0>
 508b290:	9c000017 	ldw	r16,0(r19)
 508b294:	10c4000c 	andi	r3,r2,4096
 508b298:	98000015 	stw	zero,0(r19)
 508b29c:	18004826 	beq	r3,zero,508b3c0 <__sflush_r+0x174>
 508b2a0:	89801417 	ldw	r6,80(r17)
 508b2a4:	10c0010c 	andi	r3,r2,4
 508b2a8:	18000626 	beq	r3,zero,508b2c4 <__sflush_r+0x78>
 508b2ac:	88c00117 	ldw	r3,4(r17)
 508b2b0:	88800c17 	ldw	r2,48(r17)
 508b2b4:	30cdc83a 	sub	r6,r6,r3
 508b2b8:	10000226 	beq	r2,zero,508b2c4 <__sflush_r+0x78>
 508b2bc:	88800f17 	ldw	r2,60(r17)
 508b2c0:	308dc83a 	sub	r6,r6,r2
 508b2c4:	89400717 	ldw	r5,28(r17)
 508b2c8:	000f883a 	mov	r7,zero
 508b2cc:	9809883a 	mov	r4,r19
 508b2d0:	403ee83a 	callr	r8
 508b2d4:	00ffffc4 	movi	r3,-1
 508b2d8:	10c04426 	beq	r2,r3,508b3ec <__sflush_r+0x1a0>
 508b2dc:	88c0030b 	ldhu	r3,12(r17)
 508b2e0:	89000417 	ldw	r4,16(r17)
 508b2e4:	88000115 	stw	zero,4(r17)
 508b2e8:	197dffcc 	andi	r5,r3,63487
 508b2ec:	8940030d 	sth	r5,12(r17)
 508b2f0:	89000015 	stw	r4,0(r17)
 508b2f4:	18c4000c 	andi	r3,r3,4096
 508b2f8:	18002c1e 	bne	r3,zero,508b3ac <__sflush_r+0x160>
 508b2fc:	89400c17 	ldw	r5,48(r17)
 508b300:	9c000015 	stw	r16,0(r19)
 508b304:	28000526 	beq	r5,zero,508b31c <__sflush_r+0xd0>
 508b308:	88801004 	addi	r2,r17,64
 508b30c:	28800226 	beq	r5,r2,508b318 <__sflush_r+0xcc>
 508b310:	9809883a 	mov	r4,r19
 508b314:	508b9b80 	call	508b9b8 <_free_r>
 508b318:	88000c15 	stw	zero,48(r17)
 508b31c:	0005883a 	mov	r2,zero
 508b320:	dfc00417 	ldw	ra,16(sp)
 508b324:	dcc00317 	ldw	r19,12(sp)
 508b328:	dc800217 	ldw	r18,8(sp)
 508b32c:	dc400117 	ldw	r17,4(sp)
 508b330:	dc000017 	ldw	r16,0(sp)
 508b334:	dec00504 	addi	sp,sp,20
 508b338:	f800283a 	ret
 508b33c:	2c800417 	ldw	r18,16(r5)
 508b340:	903ff626 	beq	r18,zero,508b31c <__sflush_r+0xd0>
 508b344:	2c000017 	ldw	r16,0(r5)
 508b348:	108000cc 	andi	r2,r2,3
 508b34c:	2c800015 	stw	r18,0(r5)
 508b350:	84a1c83a 	sub	r16,r16,r18
 508b354:	1000131e 	bne	r2,zero,508b3a4 <__sflush_r+0x158>
 508b358:	28800517 	ldw	r2,20(r5)
 508b35c:	88800215 	stw	r2,8(r17)
 508b360:	04000316 	blt	zero,r16,508b370 <__sflush_r+0x124>
 508b364:	003fed06 	br	508b31c <__sflush_r+0xd0>
 508b368:	90a5883a 	add	r18,r18,r2
 508b36c:	043feb0e 	bge	zero,r16,508b31c <__sflush_r+0xd0>
 508b370:	88800917 	ldw	r2,36(r17)
 508b374:	89400717 	ldw	r5,28(r17)
 508b378:	800f883a 	mov	r7,r16
 508b37c:	900d883a 	mov	r6,r18
 508b380:	9809883a 	mov	r4,r19
 508b384:	103ee83a 	callr	r2
 508b388:	80a1c83a 	sub	r16,r16,r2
 508b38c:	00bff616 	blt	zero,r2,508b368 <__sflush_r+0x11c>
 508b390:	88c0030b 	ldhu	r3,12(r17)
 508b394:	00bfffc4 	movi	r2,-1
 508b398:	18c01014 	ori	r3,r3,64
 508b39c:	88c0030d 	sth	r3,12(r17)
 508b3a0:	003fdf06 	br	508b320 <__sflush_r+0xd4>
 508b3a4:	0005883a 	mov	r2,zero
 508b3a8:	003fec06 	br	508b35c <__sflush_r+0x110>
 508b3ac:	88801415 	stw	r2,80(r17)
 508b3b0:	003fd206 	br	508b2fc <__sflush_r+0xb0>
 508b3b4:	28c00f17 	ldw	r3,60(r5)
 508b3b8:	00ffb316 	blt	zero,r3,508b288 <__sflush_r+0x3c>
 508b3bc:	003fd706 	br	508b31c <__sflush_r+0xd0>
 508b3c0:	89400717 	ldw	r5,28(r17)
 508b3c4:	000d883a 	mov	r6,zero
 508b3c8:	01c00044 	movi	r7,1
 508b3cc:	9809883a 	mov	r4,r19
 508b3d0:	403ee83a 	callr	r8
 508b3d4:	100d883a 	mov	r6,r2
 508b3d8:	00bfffc4 	movi	r2,-1
 508b3dc:	30801426 	beq	r6,r2,508b430 <__sflush_r+0x1e4>
 508b3e0:	8880030b 	ldhu	r2,12(r17)
 508b3e4:	8a000a17 	ldw	r8,40(r17)
 508b3e8:	003fae06 	br	508b2a4 <__sflush_r+0x58>
 508b3ec:	98c00017 	ldw	r3,0(r19)
 508b3f0:	183fba26 	beq	r3,zero,508b2dc <__sflush_r+0x90>
 508b3f4:	01000744 	movi	r4,29
 508b3f8:	19000626 	beq	r3,r4,508b414 <__sflush_r+0x1c8>
 508b3fc:	01000584 	movi	r4,22
 508b400:	19000426 	beq	r3,r4,508b414 <__sflush_r+0x1c8>
 508b404:	88c0030b 	ldhu	r3,12(r17)
 508b408:	18c01014 	ori	r3,r3,64
 508b40c:	88c0030d 	sth	r3,12(r17)
 508b410:	003fc306 	br	508b320 <__sflush_r+0xd4>
 508b414:	8880030b 	ldhu	r2,12(r17)
 508b418:	88c00417 	ldw	r3,16(r17)
 508b41c:	88000115 	stw	zero,4(r17)
 508b420:	10bdffcc 	andi	r2,r2,63487
 508b424:	8880030d 	sth	r2,12(r17)
 508b428:	88c00015 	stw	r3,0(r17)
 508b42c:	003fb306 	br	508b2fc <__sflush_r+0xb0>
 508b430:	98800017 	ldw	r2,0(r19)
 508b434:	103fea26 	beq	r2,zero,508b3e0 <__sflush_r+0x194>
 508b438:	00c00744 	movi	r3,29
 508b43c:	10c00226 	beq	r2,r3,508b448 <__sflush_r+0x1fc>
 508b440:	00c00584 	movi	r3,22
 508b444:	10c0031e 	bne	r2,r3,508b454 <__sflush_r+0x208>
 508b448:	9c000015 	stw	r16,0(r19)
 508b44c:	0005883a 	mov	r2,zero
 508b450:	003fb306 	br	508b320 <__sflush_r+0xd4>
 508b454:	88c0030b 	ldhu	r3,12(r17)
 508b458:	3005883a 	mov	r2,r6
 508b45c:	18c01014 	ori	r3,r3,64
 508b460:	88c0030d 	sth	r3,12(r17)
 508b464:	003fae06 	br	508b320 <__sflush_r+0xd4>

0508b468 <_fflush_r>:
 508b468:	defffd04 	addi	sp,sp,-12
 508b46c:	dc000115 	stw	r16,4(sp)
 508b470:	dfc00215 	stw	ra,8(sp)
 508b474:	2021883a 	mov	r16,r4
 508b478:	20000226 	beq	r4,zero,508b484 <_fflush_r+0x1c>
 508b47c:	20800e17 	ldw	r2,56(r4)
 508b480:	10000c26 	beq	r2,zero,508b4b4 <_fflush_r+0x4c>
 508b484:	2880030f 	ldh	r2,12(r5)
 508b488:	1000051e 	bne	r2,zero,508b4a0 <_fflush_r+0x38>
 508b48c:	0005883a 	mov	r2,zero
 508b490:	dfc00217 	ldw	ra,8(sp)
 508b494:	dc000117 	ldw	r16,4(sp)
 508b498:	dec00304 	addi	sp,sp,12
 508b49c:	f800283a 	ret
 508b4a0:	8009883a 	mov	r4,r16
 508b4a4:	dfc00217 	ldw	ra,8(sp)
 508b4a8:	dc000117 	ldw	r16,4(sp)
 508b4ac:	dec00304 	addi	sp,sp,12
 508b4b0:	508b24c1 	jmpi	508b24c <__sflush_r>
 508b4b4:	d9400015 	stw	r5,0(sp)
 508b4b8:	508b8440 	call	508b844 <__sinit>
 508b4bc:	d9400017 	ldw	r5,0(sp)
 508b4c0:	003ff006 	br	508b484 <_fflush_r+0x1c>

0508b4c4 <fflush>:
 508b4c4:	20000526 	beq	r4,zero,508b4dc <fflush+0x18>
 508b4c8:	008142b4 	movhi	r2,1290
 508b4cc:	10a17404 	addi	r2,r2,-31280
 508b4d0:	200b883a 	mov	r5,r4
 508b4d4:	11000017 	ldw	r4,0(r2)
 508b4d8:	508b4681 	jmpi	508b468 <_fflush_r>
 508b4dc:	008142b4 	movhi	r2,1290
 508b4e0:	10a17304 	addi	r2,r2,-31284
 508b4e4:	11000017 	ldw	r4,0(r2)
 508b4e8:	01414274 	movhi	r5,1289
 508b4ec:	296d1a04 	addi	r5,r5,-19352
 508b4f0:	508c2481 	jmpi	508c248 <_fwalk_reent>

0508b4f4 <__fp_unlock>:
 508b4f4:	0005883a 	mov	r2,zero
 508b4f8:	f800283a 	ret

0508b4fc <_cleanup_r>:
 508b4fc:	01414274 	movhi	r5,1289
 508b500:	2944f204 	addi	r5,r5,5064
 508b504:	508c2481 	jmpi	508c248 <_fwalk_reent>

0508b508 <__sinit.part.1>:
 508b508:	defff704 	addi	sp,sp,-36
 508b50c:	00c14274 	movhi	r3,1289
 508b510:	dfc00815 	stw	ra,32(sp)
 508b514:	ddc00715 	stw	r23,28(sp)
 508b518:	dd800615 	stw	r22,24(sp)
 508b51c:	dd400515 	stw	r21,20(sp)
 508b520:	dd000415 	stw	r20,16(sp)
 508b524:	dcc00315 	stw	r19,12(sp)
 508b528:	dc800215 	stw	r18,8(sp)
 508b52c:	dc400115 	stw	r17,4(sp)
 508b530:	dc000015 	stw	r16,0(sp)
 508b534:	18ed3f04 	addi	r3,r3,-19204
 508b538:	24000117 	ldw	r16,4(r4)
 508b53c:	20c00f15 	stw	r3,60(r4)
 508b540:	2080bb04 	addi	r2,r4,748
 508b544:	00c000c4 	movi	r3,3
 508b548:	20c0b915 	stw	r3,740(r4)
 508b54c:	2080ba15 	stw	r2,744(r4)
 508b550:	2000b815 	stw	zero,736(r4)
 508b554:	05c00204 	movi	r23,8
 508b558:	00800104 	movi	r2,4
 508b55c:	2025883a 	mov	r18,r4
 508b560:	b80d883a 	mov	r6,r23
 508b564:	81001704 	addi	r4,r16,92
 508b568:	000b883a 	mov	r5,zero
 508b56c:	80000015 	stw	zero,0(r16)
 508b570:	80000115 	stw	zero,4(r16)
 508b574:	80000215 	stw	zero,8(r16)
 508b578:	8080030d 	sth	r2,12(r16)
 508b57c:	80001915 	stw	zero,100(r16)
 508b580:	8000038d 	sth	zero,14(r16)
 508b584:	80000415 	stw	zero,16(r16)
 508b588:	80000515 	stw	zero,20(r16)
 508b58c:	80000615 	stw	zero,24(r16)
 508b590:	508ce940 	call	508ce94 <memset>
 508b594:	05814274 	movhi	r22,1289
 508b598:	94400217 	ldw	r17,8(r18)
 508b59c:	05414274 	movhi	r21,1289
 508b5a0:	05014274 	movhi	r20,1289
 508b5a4:	04c14274 	movhi	r19,1289
 508b5a8:	b5b97904 	addi	r22,r22,-6684
 508b5ac:	ad799004 	addi	r21,r21,-6592
 508b5b0:	a539af04 	addi	r20,r20,-6468
 508b5b4:	9cf9c604 	addi	r19,r19,-6376
 508b5b8:	85800815 	stw	r22,32(r16)
 508b5bc:	85400915 	stw	r21,36(r16)
 508b5c0:	85000a15 	stw	r20,40(r16)
 508b5c4:	84c00b15 	stw	r19,44(r16)
 508b5c8:	84000715 	stw	r16,28(r16)
 508b5cc:	00800284 	movi	r2,10
 508b5d0:	8880030d 	sth	r2,12(r17)
 508b5d4:	00800044 	movi	r2,1
 508b5d8:	b80d883a 	mov	r6,r23
 508b5dc:	89001704 	addi	r4,r17,92
 508b5e0:	000b883a 	mov	r5,zero
 508b5e4:	88000015 	stw	zero,0(r17)
 508b5e8:	88000115 	stw	zero,4(r17)
 508b5ec:	88000215 	stw	zero,8(r17)
 508b5f0:	88001915 	stw	zero,100(r17)
 508b5f4:	8880038d 	sth	r2,14(r17)
 508b5f8:	88000415 	stw	zero,16(r17)
 508b5fc:	88000515 	stw	zero,20(r17)
 508b600:	88000615 	stw	zero,24(r17)
 508b604:	508ce940 	call	508ce94 <memset>
 508b608:	94000317 	ldw	r16,12(r18)
 508b60c:	00800484 	movi	r2,18
 508b610:	8c400715 	stw	r17,28(r17)
 508b614:	8d800815 	stw	r22,32(r17)
 508b618:	8d400915 	stw	r21,36(r17)
 508b61c:	8d000a15 	stw	r20,40(r17)
 508b620:	8cc00b15 	stw	r19,44(r17)
 508b624:	8080030d 	sth	r2,12(r16)
 508b628:	00800084 	movi	r2,2
 508b62c:	80000015 	stw	zero,0(r16)
 508b630:	80000115 	stw	zero,4(r16)
 508b634:	80000215 	stw	zero,8(r16)
 508b638:	80001915 	stw	zero,100(r16)
 508b63c:	8080038d 	sth	r2,14(r16)
 508b640:	80000415 	stw	zero,16(r16)
 508b644:	80000515 	stw	zero,20(r16)
 508b648:	80000615 	stw	zero,24(r16)
 508b64c:	b80d883a 	mov	r6,r23
 508b650:	000b883a 	mov	r5,zero
 508b654:	81001704 	addi	r4,r16,92
 508b658:	508ce940 	call	508ce94 <memset>
 508b65c:	00800044 	movi	r2,1
 508b660:	84000715 	stw	r16,28(r16)
 508b664:	85800815 	stw	r22,32(r16)
 508b668:	85400915 	stw	r21,36(r16)
 508b66c:	85000a15 	stw	r20,40(r16)
 508b670:	84c00b15 	stw	r19,44(r16)
 508b674:	90800e15 	stw	r2,56(r18)
 508b678:	dfc00817 	ldw	ra,32(sp)
 508b67c:	ddc00717 	ldw	r23,28(sp)
 508b680:	dd800617 	ldw	r22,24(sp)
 508b684:	dd400517 	ldw	r21,20(sp)
 508b688:	dd000417 	ldw	r20,16(sp)
 508b68c:	dcc00317 	ldw	r19,12(sp)
 508b690:	dc800217 	ldw	r18,8(sp)
 508b694:	dc400117 	ldw	r17,4(sp)
 508b698:	dc000017 	ldw	r16,0(sp)
 508b69c:	dec00904 	addi	sp,sp,36
 508b6a0:	f800283a 	ret

0508b6a4 <__fp_lock>:
 508b6a4:	0005883a 	mov	r2,zero
 508b6a8:	f800283a 	ret

0508b6ac <__sfmoreglue>:
 508b6ac:	defffc04 	addi	sp,sp,-16
 508b6b0:	dc400115 	stw	r17,4(sp)
 508b6b4:	2c7fffc4 	addi	r17,r5,-1
 508b6b8:	8c401a24 	muli	r17,r17,104
 508b6bc:	dc800215 	stw	r18,8(sp)
 508b6c0:	2825883a 	mov	r18,r5
 508b6c4:	89401d04 	addi	r5,r17,116
 508b6c8:	dc000015 	stw	r16,0(sp)
 508b6cc:	dfc00315 	stw	ra,12(sp)
 508b6d0:	508c5a40 	call	508c5a4 <_malloc_r>
 508b6d4:	1021883a 	mov	r16,r2
 508b6d8:	10000726 	beq	r2,zero,508b6f8 <__sfmoreglue+0x4c>
 508b6dc:	11000304 	addi	r4,r2,12
 508b6e0:	10000015 	stw	zero,0(r2)
 508b6e4:	14800115 	stw	r18,4(r2)
 508b6e8:	11000215 	stw	r4,8(r2)
 508b6ec:	89801a04 	addi	r6,r17,104
 508b6f0:	000b883a 	mov	r5,zero
 508b6f4:	508ce940 	call	508ce94 <memset>
 508b6f8:	8005883a 	mov	r2,r16
 508b6fc:	dfc00317 	ldw	ra,12(sp)
 508b700:	dc800217 	ldw	r18,8(sp)
 508b704:	dc400117 	ldw	r17,4(sp)
 508b708:	dc000017 	ldw	r16,0(sp)
 508b70c:	dec00404 	addi	sp,sp,16
 508b710:	f800283a 	ret

0508b714 <__sfp>:
 508b714:	defffb04 	addi	sp,sp,-20
 508b718:	dc000015 	stw	r16,0(sp)
 508b71c:	040142b4 	movhi	r16,1290
 508b720:	84217304 	addi	r16,r16,-31284
 508b724:	dcc00315 	stw	r19,12(sp)
 508b728:	2027883a 	mov	r19,r4
 508b72c:	81000017 	ldw	r4,0(r16)
 508b730:	dfc00415 	stw	ra,16(sp)
 508b734:	dc800215 	stw	r18,8(sp)
 508b738:	20800e17 	ldw	r2,56(r4)
 508b73c:	dc400115 	stw	r17,4(sp)
 508b740:	1000021e 	bne	r2,zero,508b74c <__sfp+0x38>
 508b744:	508b5080 	call	508b508 <__sinit.part.1>
 508b748:	81000017 	ldw	r4,0(r16)
 508b74c:	2480b804 	addi	r18,r4,736
 508b750:	047fffc4 	movi	r17,-1
 508b754:	91000117 	ldw	r4,4(r18)
 508b758:	94000217 	ldw	r16,8(r18)
 508b75c:	213fffc4 	addi	r4,r4,-1
 508b760:	20000a16 	blt	r4,zero,508b78c <__sfp+0x78>
 508b764:	8080030f 	ldh	r2,12(r16)
 508b768:	10000c26 	beq	r2,zero,508b79c <__sfp+0x88>
 508b76c:	80c01d04 	addi	r3,r16,116
 508b770:	00000206 	br	508b77c <__sfp+0x68>
 508b774:	18bfe60f 	ldh	r2,-104(r3)
 508b778:	10000826 	beq	r2,zero,508b79c <__sfp+0x88>
 508b77c:	213fffc4 	addi	r4,r4,-1
 508b780:	1c3ffd04 	addi	r16,r3,-12
 508b784:	18c01a04 	addi	r3,r3,104
 508b788:	247ffa1e 	bne	r4,r17,508b774 <__sfp+0x60>
 508b78c:	90800017 	ldw	r2,0(r18)
 508b790:	10001d26 	beq	r2,zero,508b808 <__sfp+0xf4>
 508b794:	1025883a 	mov	r18,r2
 508b798:	003fee06 	br	508b754 <__sfp+0x40>
 508b79c:	00bfffc4 	movi	r2,-1
 508b7a0:	8080038d 	sth	r2,14(r16)
 508b7a4:	00800044 	movi	r2,1
 508b7a8:	8080030d 	sth	r2,12(r16)
 508b7ac:	80001915 	stw	zero,100(r16)
 508b7b0:	80000015 	stw	zero,0(r16)
 508b7b4:	80000215 	stw	zero,8(r16)
 508b7b8:	80000115 	stw	zero,4(r16)
 508b7bc:	80000415 	stw	zero,16(r16)
 508b7c0:	80000515 	stw	zero,20(r16)
 508b7c4:	80000615 	stw	zero,24(r16)
 508b7c8:	01800204 	movi	r6,8
 508b7cc:	000b883a 	mov	r5,zero
 508b7d0:	81001704 	addi	r4,r16,92
 508b7d4:	508ce940 	call	508ce94 <memset>
 508b7d8:	8005883a 	mov	r2,r16
 508b7dc:	80000c15 	stw	zero,48(r16)
 508b7e0:	80000d15 	stw	zero,52(r16)
 508b7e4:	80001115 	stw	zero,68(r16)
 508b7e8:	80001215 	stw	zero,72(r16)
 508b7ec:	dfc00417 	ldw	ra,16(sp)
 508b7f0:	dcc00317 	ldw	r19,12(sp)
 508b7f4:	dc800217 	ldw	r18,8(sp)
 508b7f8:	dc400117 	ldw	r17,4(sp)
 508b7fc:	dc000017 	ldw	r16,0(sp)
 508b800:	dec00504 	addi	sp,sp,20
 508b804:	f800283a 	ret
 508b808:	01400104 	movi	r5,4
 508b80c:	9809883a 	mov	r4,r19
 508b810:	508b6ac0 	call	508b6ac <__sfmoreglue>
 508b814:	90800015 	stw	r2,0(r18)
 508b818:	103fde1e 	bne	r2,zero,508b794 <__sfp+0x80>
 508b81c:	00800304 	movi	r2,12
 508b820:	98800015 	stw	r2,0(r19)
 508b824:	0005883a 	mov	r2,zero
 508b828:	003ff006 	br	508b7ec <__sfp+0xd8>

0508b82c <_cleanup>:
 508b82c:	008142b4 	movhi	r2,1290
 508b830:	10a17304 	addi	r2,r2,-31284
 508b834:	11000017 	ldw	r4,0(r2)
 508b838:	01414274 	movhi	r5,1289
 508b83c:	2944f204 	addi	r5,r5,5064
 508b840:	508c2481 	jmpi	508c248 <_fwalk_reent>

0508b844 <__sinit>:
 508b844:	20800e17 	ldw	r2,56(r4)
 508b848:	10000126 	beq	r2,zero,508b850 <__sinit+0xc>
 508b84c:	f800283a 	ret
 508b850:	508b5081 	jmpi	508b508 <__sinit.part.1>

0508b854 <__sfp_lock_acquire>:
 508b854:	f800283a 	ret

0508b858 <__sfp_lock_release>:
 508b858:	f800283a 	ret

0508b85c <__sinit_lock_acquire>:
 508b85c:	f800283a 	ret

0508b860 <__sinit_lock_release>:
 508b860:	f800283a 	ret

0508b864 <__fp_lock_all>:
 508b864:	008142b4 	movhi	r2,1290
 508b868:	10a17404 	addi	r2,r2,-31280
 508b86c:	11000017 	ldw	r4,0(r2)
 508b870:	01414274 	movhi	r5,1289
 508b874:	296da904 	addi	r5,r5,-18780
 508b878:	508c1841 	jmpi	508c184 <_fwalk>

0508b87c <__fp_unlock_all>:
 508b87c:	008142b4 	movhi	r2,1290
 508b880:	10a17404 	addi	r2,r2,-31280
 508b884:	11000017 	ldw	r4,0(r2)
 508b888:	01414274 	movhi	r5,1289
 508b88c:	296d3d04 	addi	r5,r5,-19212
 508b890:	508c1841 	jmpi	508c184 <_fwalk>

0508b894 <_malloc_trim_r>:
 508b894:	defffb04 	addi	sp,sp,-20
 508b898:	dcc00315 	stw	r19,12(sp)
 508b89c:	04c14274 	movhi	r19,1289
 508b8a0:	dc800215 	stw	r18,8(sp)
 508b8a4:	dc400115 	stw	r17,4(sp)
 508b8a8:	dc000015 	stw	r16,0(sp)
 508b8ac:	dfc00415 	stw	ra,16(sp)
 508b8b0:	2821883a 	mov	r16,r5
 508b8b4:	9cdbef04 	addi	r19,r19,28604
 508b8b8:	2025883a 	mov	r18,r4
 508b8bc:	50938a40 	call	50938a4 <__malloc_lock>
 508b8c0:	98800217 	ldw	r2,8(r19)
 508b8c4:	14400117 	ldw	r17,4(r2)
 508b8c8:	00bfff04 	movi	r2,-4
 508b8cc:	88a2703a 	and	r17,r17,r2
 508b8d0:	8c21c83a 	sub	r16,r17,r16
 508b8d4:	8403fbc4 	addi	r16,r16,4079
 508b8d8:	8020d33a 	srli	r16,r16,12
 508b8dc:	0083ffc4 	movi	r2,4095
 508b8e0:	843fffc4 	addi	r16,r16,-1
 508b8e4:	8020933a 	slli	r16,r16,12
 508b8e8:	1400060e 	bge	r2,r16,508b904 <_malloc_trim_r+0x70>
 508b8ec:	000b883a 	mov	r5,zero
 508b8f0:	9009883a 	mov	r4,r18
 508b8f4:	508e5900 	call	508e590 <_sbrk_r>
 508b8f8:	98c00217 	ldw	r3,8(r19)
 508b8fc:	1c47883a 	add	r3,r3,r17
 508b900:	10c00a26 	beq	r2,r3,508b92c <_malloc_trim_r+0x98>
 508b904:	9009883a 	mov	r4,r18
 508b908:	50938c80 	call	50938c8 <__malloc_unlock>
 508b90c:	0005883a 	mov	r2,zero
 508b910:	dfc00417 	ldw	ra,16(sp)
 508b914:	dcc00317 	ldw	r19,12(sp)
 508b918:	dc800217 	ldw	r18,8(sp)
 508b91c:	dc400117 	ldw	r17,4(sp)
 508b920:	dc000017 	ldw	r16,0(sp)
 508b924:	dec00504 	addi	sp,sp,20
 508b928:	f800283a 	ret
 508b92c:	040bc83a 	sub	r5,zero,r16
 508b930:	9009883a 	mov	r4,r18
 508b934:	508e5900 	call	508e590 <_sbrk_r>
 508b938:	00ffffc4 	movi	r3,-1
 508b93c:	10c00d26 	beq	r2,r3,508b974 <_malloc_trim_r+0xe0>
 508b940:	00c142b4 	movhi	r3,1290
 508b944:	18e85d04 	addi	r3,r3,-24204
 508b948:	18800017 	ldw	r2,0(r3)
 508b94c:	99000217 	ldw	r4,8(r19)
 508b950:	8c23c83a 	sub	r17,r17,r16
 508b954:	8c400054 	ori	r17,r17,1
 508b958:	1421c83a 	sub	r16,r2,r16
 508b95c:	24400115 	stw	r17,4(r4)
 508b960:	9009883a 	mov	r4,r18
 508b964:	1c000015 	stw	r16,0(r3)
 508b968:	50938c80 	call	50938c8 <__malloc_unlock>
 508b96c:	00800044 	movi	r2,1
 508b970:	003fe706 	br	508b910 <_malloc_trim_r+0x7c>
 508b974:	000b883a 	mov	r5,zero
 508b978:	9009883a 	mov	r4,r18
 508b97c:	508e5900 	call	508e590 <_sbrk_r>
 508b980:	99000217 	ldw	r4,8(r19)
 508b984:	014003c4 	movi	r5,15
 508b988:	1107c83a 	sub	r3,r2,r4
 508b98c:	28ffdd0e 	bge	r5,r3,508b904 <_malloc_trim_r+0x70>
 508b990:	014142b4 	movhi	r5,1290
 508b994:	29617604 	addi	r5,r5,-31272
 508b998:	29400017 	ldw	r5,0(r5)
 508b99c:	18c00054 	ori	r3,r3,1
 508b9a0:	20c00115 	stw	r3,4(r4)
 508b9a4:	00c142b4 	movhi	r3,1290
 508b9a8:	1145c83a 	sub	r2,r2,r5
 508b9ac:	18e85d04 	addi	r3,r3,-24204
 508b9b0:	18800015 	stw	r2,0(r3)
 508b9b4:	003fd306 	br	508b904 <_malloc_trim_r+0x70>

0508b9b8 <_free_r>:
 508b9b8:	28004126 	beq	r5,zero,508bac0 <_free_r+0x108>
 508b9bc:	defffd04 	addi	sp,sp,-12
 508b9c0:	dc400115 	stw	r17,4(sp)
 508b9c4:	dc000015 	stw	r16,0(sp)
 508b9c8:	2023883a 	mov	r17,r4
 508b9cc:	2821883a 	mov	r16,r5
 508b9d0:	dfc00215 	stw	ra,8(sp)
 508b9d4:	50938a40 	call	50938a4 <__malloc_lock>
 508b9d8:	81ffff17 	ldw	r7,-4(r16)
 508b9dc:	00bfff84 	movi	r2,-2
 508b9e0:	01014274 	movhi	r4,1289
 508b9e4:	81bffe04 	addi	r6,r16,-8
 508b9e8:	3884703a 	and	r2,r7,r2
 508b9ec:	211bef04 	addi	r4,r4,28604
 508b9f0:	308b883a 	add	r5,r6,r2
 508b9f4:	2a400117 	ldw	r9,4(r5)
 508b9f8:	22000217 	ldw	r8,8(r4)
 508b9fc:	00ffff04 	movi	r3,-4
 508ba00:	48c6703a 	and	r3,r9,r3
 508ba04:	2a005726 	beq	r5,r8,508bb64 <_free_r+0x1ac>
 508ba08:	28c00115 	stw	r3,4(r5)
 508ba0c:	39c0004c 	andi	r7,r7,1
 508ba10:	3800091e 	bne	r7,zero,508ba38 <_free_r+0x80>
 508ba14:	823ffe17 	ldw	r8,-8(r16)
 508ba18:	22400204 	addi	r9,r4,8
 508ba1c:	320dc83a 	sub	r6,r6,r8
 508ba20:	31c00217 	ldw	r7,8(r6)
 508ba24:	1205883a 	add	r2,r2,r8
 508ba28:	3a406526 	beq	r7,r9,508bbc0 <_free_r+0x208>
 508ba2c:	32000317 	ldw	r8,12(r6)
 508ba30:	3a000315 	stw	r8,12(r7)
 508ba34:	41c00215 	stw	r7,8(r8)
 508ba38:	28cf883a 	add	r7,r5,r3
 508ba3c:	39c00117 	ldw	r7,4(r7)
 508ba40:	39c0004c 	andi	r7,r7,1
 508ba44:	38003a26 	beq	r7,zero,508bb30 <_free_r+0x178>
 508ba48:	10c00054 	ori	r3,r2,1
 508ba4c:	30c00115 	stw	r3,4(r6)
 508ba50:	3087883a 	add	r3,r6,r2
 508ba54:	18800015 	stw	r2,0(r3)
 508ba58:	00c07fc4 	movi	r3,511
 508ba5c:	18801936 	bltu	r3,r2,508bac4 <_free_r+0x10c>
 508ba60:	1004d0fa 	srli	r2,r2,3
 508ba64:	01c00044 	movi	r7,1
 508ba68:	21400117 	ldw	r5,4(r4)
 508ba6c:	10c00044 	addi	r3,r2,1
 508ba70:	18c7883a 	add	r3,r3,r3
 508ba74:	1005d0ba 	srai	r2,r2,2
 508ba78:	18c7883a 	add	r3,r3,r3
 508ba7c:	18c7883a 	add	r3,r3,r3
 508ba80:	1907883a 	add	r3,r3,r4
 508ba84:	3884983a 	sll	r2,r7,r2
 508ba88:	19c00017 	ldw	r7,0(r3)
 508ba8c:	1a3ffe04 	addi	r8,r3,-8
 508ba90:	1144b03a 	or	r2,r2,r5
 508ba94:	32000315 	stw	r8,12(r6)
 508ba98:	31c00215 	stw	r7,8(r6)
 508ba9c:	20800115 	stw	r2,4(r4)
 508baa0:	19800015 	stw	r6,0(r3)
 508baa4:	39800315 	stw	r6,12(r7)
 508baa8:	8809883a 	mov	r4,r17
 508baac:	dfc00217 	ldw	ra,8(sp)
 508bab0:	dc400117 	ldw	r17,4(sp)
 508bab4:	dc000017 	ldw	r16,0(sp)
 508bab8:	dec00304 	addi	sp,sp,12
 508babc:	50938c81 	jmpi	50938c8 <__malloc_unlock>
 508bac0:	f800283a 	ret
 508bac4:	100ad27a 	srli	r5,r2,9
 508bac8:	00c00104 	movi	r3,4
 508bacc:	19404a36 	bltu	r3,r5,508bbf8 <_free_r+0x240>
 508bad0:	100ad1ba 	srli	r5,r2,6
 508bad4:	28c00e44 	addi	r3,r5,57
 508bad8:	18c7883a 	add	r3,r3,r3
 508badc:	29400e04 	addi	r5,r5,56
 508bae0:	18c7883a 	add	r3,r3,r3
 508bae4:	18c7883a 	add	r3,r3,r3
 508bae8:	1909883a 	add	r4,r3,r4
 508baec:	20c00017 	ldw	r3,0(r4)
 508baf0:	01c14274 	movhi	r7,1289
 508baf4:	213ffe04 	addi	r4,r4,-8
 508baf8:	39dbef04 	addi	r7,r7,28604
 508bafc:	20c04426 	beq	r4,r3,508bc10 <_free_r+0x258>
 508bb00:	01ffff04 	movi	r7,-4
 508bb04:	19400117 	ldw	r5,4(r3)
 508bb08:	29ca703a 	and	r5,r5,r7
 508bb0c:	1140022e 	bgeu	r2,r5,508bb18 <_free_r+0x160>
 508bb10:	18c00217 	ldw	r3,8(r3)
 508bb14:	20fffb1e 	bne	r4,r3,508bb04 <_free_r+0x14c>
 508bb18:	19000317 	ldw	r4,12(r3)
 508bb1c:	31000315 	stw	r4,12(r6)
 508bb20:	30c00215 	stw	r3,8(r6)
 508bb24:	21800215 	stw	r6,8(r4)
 508bb28:	19800315 	stw	r6,12(r3)
 508bb2c:	003fde06 	br	508baa8 <_free_r+0xf0>
 508bb30:	29c00217 	ldw	r7,8(r5)
 508bb34:	10c5883a 	add	r2,r2,r3
 508bb38:	00c14274 	movhi	r3,1289
 508bb3c:	18dbf104 	addi	r3,r3,28612
 508bb40:	38c03b26 	beq	r7,r3,508bc30 <_free_r+0x278>
 508bb44:	2a000317 	ldw	r8,12(r5)
 508bb48:	11400054 	ori	r5,r2,1
 508bb4c:	3087883a 	add	r3,r6,r2
 508bb50:	3a000315 	stw	r8,12(r7)
 508bb54:	41c00215 	stw	r7,8(r8)
 508bb58:	31400115 	stw	r5,4(r6)
 508bb5c:	18800015 	stw	r2,0(r3)
 508bb60:	003fbd06 	br	508ba58 <_free_r+0xa0>
 508bb64:	39c0004c 	andi	r7,r7,1
 508bb68:	10c5883a 	add	r2,r2,r3
 508bb6c:	3800071e 	bne	r7,zero,508bb8c <_free_r+0x1d4>
 508bb70:	81fffe17 	ldw	r7,-8(r16)
 508bb74:	31cdc83a 	sub	r6,r6,r7
 508bb78:	30c00317 	ldw	r3,12(r6)
 508bb7c:	31400217 	ldw	r5,8(r6)
 508bb80:	11c5883a 	add	r2,r2,r7
 508bb84:	28c00315 	stw	r3,12(r5)
 508bb88:	19400215 	stw	r5,8(r3)
 508bb8c:	10c00054 	ori	r3,r2,1
 508bb90:	30c00115 	stw	r3,4(r6)
 508bb94:	00c142b4 	movhi	r3,1290
 508bb98:	18e17704 	addi	r3,r3,-31268
 508bb9c:	18c00017 	ldw	r3,0(r3)
 508bba0:	21800215 	stw	r6,8(r4)
 508bba4:	10ffc036 	bltu	r2,r3,508baa8 <_free_r+0xf0>
 508bba8:	008142b4 	movhi	r2,1290
 508bbac:	10a84a04 	addi	r2,r2,-24280
 508bbb0:	11400017 	ldw	r5,0(r2)
 508bbb4:	8809883a 	mov	r4,r17
 508bbb8:	508b8940 	call	508b894 <_malloc_trim_r>
 508bbbc:	003fba06 	br	508baa8 <_free_r+0xf0>
 508bbc0:	28c9883a 	add	r4,r5,r3
 508bbc4:	21000117 	ldw	r4,4(r4)
 508bbc8:	2100004c 	andi	r4,r4,1
 508bbcc:	2000391e 	bne	r4,zero,508bcb4 <_free_r+0x2fc>
 508bbd0:	29c00217 	ldw	r7,8(r5)
 508bbd4:	29000317 	ldw	r4,12(r5)
 508bbd8:	1885883a 	add	r2,r3,r2
 508bbdc:	10c00054 	ori	r3,r2,1
 508bbe0:	39000315 	stw	r4,12(r7)
 508bbe4:	21c00215 	stw	r7,8(r4)
 508bbe8:	30c00115 	stw	r3,4(r6)
 508bbec:	308d883a 	add	r6,r6,r2
 508bbf0:	30800015 	stw	r2,0(r6)
 508bbf4:	003fac06 	br	508baa8 <_free_r+0xf0>
 508bbf8:	00c00504 	movi	r3,20
 508bbfc:	19401536 	bltu	r3,r5,508bc54 <_free_r+0x29c>
 508bc00:	28c01704 	addi	r3,r5,92
 508bc04:	18c7883a 	add	r3,r3,r3
 508bc08:	294016c4 	addi	r5,r5,91
 508bc0c:	003fb406 	br	508bae0 <_free_r+0x128>
 508bc10:	280bd0ba 	srai	r5,r5,2
 508bc14:	00c00044 	movi	r3,1
 508bc18:	38800117 	ldw	r2,4(r7)
 508bc1c:	194a983a 	sll	r5,r3,r5
 508bc20:	2007883a 	mov	r3,r4
 508bc24:	2884b03a 	or	r2,r5,r2
 508bc28:	38800115 	stw	r2,4(r7)
 508bc2c:	003fbb06 	br	508bb1c <_free_r+0x164>
 508bc30:	21800515 	stw	r6,20(r4)
 508bc34:	21800415 	stw	r6,16(r4)
 508bc38:	10c00054 	ori	r3,r2,1
 508bc3c:	31c00315 	stw	r7,12(r6)
 508bc40:	31c00215 	stw	r7,8(r6)
 508bc44:	30c00115 	stw	r3,4(r6)
 508bc48:	308d883a 	add	r6,r6,r2
 508bc4c:	30800015 	stw	r2,0(r6)
 508bc50:	003f9506 	br	508baa8 <_free_r+0xf0>
 508bc54:	00c01504 	movi	r3,84
 508bc58:	19400536 	bltu	r3,r5,508bc70 <_free_r+0x2b8>
 508bc5c:	100ad33a 	srli	r5,r2,12
 508bc60:	28c01bc4 	addi	r3,r5,111
 508bc64:	18c7883a 	add	r3,r3,r3
 508bc68:	29401b84 	addi	r5,r5,110
 508bc6c:	003f9c06 	br	508bae0 <_free_r+0x128>
 508bc70:	00c05504 	movi	r3,340
 508bc74:	19400536 	bltu	r3,r5,508bc8c <_free_r+0x2d4>
 508bc78:	100ad3fa 	srli	r5,r2,15
 508bc7c:	28c01e04 	addi	r3,r5,120
 508bc80:	18c7883a 	add	r3,r3,r3
 508bc84:	29401dc4 	addi	r5,r5,119
 508bc88:	003f9506 	br	508bae0 <_free_r+0x128>
 508bc8c:	00c15504 	movi	r3,1364
 508bc90:	19400536 	bltu	r3,r5,508bca8 <_free_r+0x2f0>
 508bc94:	100ad4ba 	srli	r5,r2,18
 508bc98:	28c01f44 	addi	r3,r5,125
 508bc9c:	18c7883a 	add	r3,r3,r3
 508bca0:	29401f04 	addi	r5,r5,124
 508bca4:	003f8e06 	br	508bae0 <_free_r+0x128>
 508bca8:	00c03f84 	movi	r3,254
 508bcac:	01401f84 	movi	r5,126
 508bcb0:	003f8b06 	br	508bae0 <_free_r+0x128>
 508bcb4:	10c00054 	ori	r3,r2,1
 508bcb8:	30c00115 	stw	r3,4(r6)
 508bcbc:	308d883a 	add	r6,r6,r2
 508bcc0:	30800015 	stw	r2,0(r6)
 508bcc4:	003f7806 	br	508baa8 <_free_r+0xf0>

0508bcc8 <__sfvwrite_r>:
 508bcc8:	30800217 	ldw	r2,8(r6)
 508bccc:	10006726 	beq	r2,zero,508be6c <__sfvwrite_r+0x1a4>
 508bcd0:	28c0030b 	ldhu	r3,12(r5)
 508bcd4:	defff404 	addi	sp,sp,-48
 508bcd8:	dd400715 	stw	r21,28(sp)
 508bcdc:	dd000615 	stw	r20,24(sp)
 508bce0:	dc000215 	stw	r16,8(sp)
 508bce4:	dfc00b15 	stw	ra,44(sp)
 508bce8:	df000a15 	stw	fp,40(sp)
 508bcec:	ddc00915 	stw	r23,36(sp)
 508bcf0:	dd800815 	stw	r22,32(sp)
 508bcf4:	dcc00515 	stw	r19,20(sp)
 508bcf8:	dc800415 	stw	r18,16(sp)
 508bcfc:	dc400315 	stw	r17,12(sp)
 508bd00:	1880020c 	andi	r2,r3,8
 508bd04:	2821883a 	mov	r16,r5
 508bd08:	202b883a 	mov	r21,r4
 508bd0c:	3029883a 	mov	r20,r6
 508bd10:	10002726 	beq	r2,zero,508bdb0 <__sfvwrite_r+0xe8>
 508bd14:	28800417 	ldw	r2,16(r5)
 508bd18:	10002526 	beq	r2,zero,508bdb0 <__sfvwrite_r+0xe8>
 508bd1c:	1880008c 	andi	r2,r3,2
 508bd20:	a4400017 	ldw	r17,0(r20)
 508bd24:	10002a26 	beq	r2,zero,508bdd0 <__sfvwrite_r+0x108>
 508bd28:	05a00034 	movhi	r22,32768
 508bd2c:	0027883a 	mov	r19,zero
 508bd30:	0025883a 	mov	r18,zero
 508bd34:	b5bf0004 	addi	r22,r22,-1024
 508bd38:	980d883a 	mov	r6,r19
 508bd3c:	a809883a 	mov	r4,r21
 508bd40:	90004626 	beq	r18,zero,508be5c <__sfvwrite_r+0x194>
 508bd44:	900f883a 	mov	r7,r18
 508bd48:	b480022e 	bgeu	r22,r18,508bd54 <__sfvwrite_r+0x8c>
 508bd4c:	01e00034 	movhi	r7,32768
 508bd50:	39ff0004 	addi	r7,r7,-1024
 508bd54:	80800917 	ldw	r2,36(r16)
 508bd58:	81400717 	ldw	r5,28(r16)
 508bd5c:	103ee83a 	callr	r2
 508bd60:	0080570e 	bge	zero,r2,508bec0 <__sfvwrite_r+0x1f8>
 508bd64:	a0c00217 	ldw	r3,8(r20)
 508bd68:	98a7883a 	add	r19,r19,r2
 508bd6c:	90a5c83a 	sub	r18,r18,r2
 508bd70:	1885c83a 	sub	r2,r3,r2
 508bd74:	a0800215 	stw	r2,8(r20)
 508bd78:	103fef1e 	bne	r2,zero,508bd38 <__sfvwrite_r+0x70>
 508bd7c:	0005883a 	mov	r2,zero
 508bd80:	dfc00b17 	ldw	ra,44(sp)
 508bd84:	df000a17 	ldw	fp,40(sp)
 508bd88:	ddc00917 	ldw	r23,36(sp)
 508bd8c:	dd800817 	ldw	r22,32(sp)
 508bd90:	dd400717 	ldw	r21,28(sp)
 508bd94:	dd000617 	ldw	r20,24(sp)
 508bd98:	dcc00517 	ldw	r19,20(sp)
 508bd9c:	dc800417 	ldw	r18,16(sp)
 508bda0:	dc400317 	ldw	r17,12(sp)
 508bda4:	dc000217 	ldw	r16,8(sp)
 508bda8:	dec00c04 	addi	sp,sp,48
 508bdac:	f800283a 	ret
 508bdb0:	800b883a 	mov	r5,r16
 508bdb4:	a809883a 	mov	r4,r21
 508bdb8:	50898700 	call	5089870 <__swsetup_r>
 508bdbc:	1000eb1e 	bne	r2,zero,508c16c <__sfvwrite_r+0x4a4>
 508bdc0:	80c0030b 	ldhu	r3,12(r16)
 508bdc4:	a4400017 	ldw	r17,0(r20)
 508bdc8:	1880008c 	andi	r2,r3,2
 508bdcc:	103fd61e 	bne	r2,zero,508bd28 <__sfvwrite_r+0x60>
 508bdd0:	1880004c 	andi	r2,r3,1
 508bdd4:	10003f1e 	bne	r2,zero,508bed4 <__sfvwrite_r+0x20c>
 508bdd8:	0039883a 	mov	fp,zero
 508bddc:	0025883a 	mov	r18,zero
 508bde0:	90001a26 	beq	r18,zero,508be4c <__sfvwrite_r+0x184>
 508bde4:	1880800c 	andi	r2,r3,512
 508bde8:	84c00217 	ldw	r19,8(r16)
 508bdec:	10002126 	beq	r2,zero,508be74 <__sfvwrite_r+0x1ac>
 508bdf0:	982f883a 	mov	r23,r19
 508bdf4:	94c09336 	bltu	r18,r19,508c044 <__sfvwrite_r+0x37c>
 508bdf8:	1881200c 	andi	r2,r3,1152
 508bdfc:	10009e1e 	bne	r2,zero,508c078 <__sfvwrite_r+0x3b0>
 508be00:	81000017 	ldw	r4,0(r16)
 508be04:	b80d883a 	mov	r6,r23
 508be08:	e00b883a 	mov	r5,fp
 508be0c:	5084eac0 	call	5084eac <memmove>
 508be10:	80c00217 	ldw	r3,8(r16)
 508be14:	81000017 	ldw	r4,0(r16)
 508be18:	9005883a 	mov	r2,r18
 508be1c:	1ce7c83a 	sub	r19,r3,r19
 508be20:	25cf883a 	add	r7,r4,r23
 508be24:	84c00215 	stw	r19,8(r16)
 508be28:	81c00015 	stw	r7,0(r16)
 508be2c:	a0c00217 	ldw	r3,8(r20)
 508be30:	e0b9883a 	add	fp,fp,r2
 508be34:	90a5c83a 	sub	r18,r18,r2
 508be38:	18a7c83a 	sub	r19,r3,r2
 508be3c:	a4c00215 	stw	r19,8(r20)
 508be40:	983fce26 	beq	r19,zero,508bd7c <__sfvwrite_r+0xb4>
 508be44:	80c0030b 	ldhu	r3,12(r16)
 508be48:	903fe61e 	bne	r18,zero,508bde4 <__sfvwrite_r+0x11c>
 508be4c:	8f000017 	ldw	fp,0(r17)
 508be50:	8c800117 	ldw	r18,4(r17)
 508be54:	8c400204 	addi	r17,r17,8
 508be58:	003fe106 	br	508bde0 <__sfvwrite_r+0x118>
 508be5c:	8cc00017 	ldw	r19,0(r17)
 508be60:	8c800117 	ldw	r18,4(r17)
 508be64:	8c400204 	addi	r17,r17,8
 508be68:	003fb306 	br	508bd38 <__sfvwrite_r+0x70>
 508be6c:	0005883a 	mov	r2,zero
 508be70:	f800283a 	ret
 508be74:	81000017 	ldw	r4,0(r16)
 508be78:	80800417 	ldw	r2,16(r16)
 508be7c:	11005736 	bltu	r2,r4,508bfdc <__sfvwrite_r+0x314>
 508be80:	85c00517 	ldw	r23,20(r16)
 508be84:	95c05536 	bltu	r18,r23,508bfdc <__sfvwrite_r+0x314>
 508be88:	00a00034 	movhi	r2,32768
 508be8c:	10bfffc4 	addi	r2,r2,-1
 508be90:	9009883a 	mov	r4,r18
 508be94:	1480012e 	bgeu	r2,r18,508be9c <__sfvwrite_r+0x1d4>
 508be98:	1009883a 	mov	r4,r2
 508be9c:	b80b883a 	mov	r5,r23
 508bea0:	50830bc0 	call	50830bc <__divsi3>
 508bea4:	15cf383a 	mul	r7,r2,r23
 508bea8:	81400717 	ldw	r5,28(r16)
 508beac:	80800917 	ldw	r2,36(r16)
 508beb0:	e00d883a 	mov	r6,fp
 508beb4:	a809883a 	mov	r4,r21
 508beb8:	103ee83a 	callr	r2
 508bebc:	00bfdb16 	blt	zero,r2,508be2c <__sfvwrite_r+0x164>
 508bec0:	8080030b 	ldhu	r2,12(r16)
 508bec4:	10801014 	ori	r2,r2,64
 508bec8:	8080030d 	sth	r2,12(r16)
 508becc:	00bfffc4 	movi	r2,-1
 508bed0:	003fab06 	br	508bd80 <__sfvwrite_r+0xb8>
 508bed4:	0027883a 	mov	r19,zero
 508bed8:	0011883a 	mov	r8,zero
 508bedc:	0039883a 	mov	fp,zero
 508bee0:	0025883a 	mov	r18,zero
 508bee4:	90001f26 	beq	r18,zero,508bf64 <__sfvwrite_r+0x29c>
 508bee8:	40005a26 	beq	r8,zero,508c054 <__sfvwrite_r+0x38c>
 508beec:	982d883a 	mov	r22,r19
 508bef0:	94c0012e 	bgeu	r18,r19,508bef8 <__sfvwrite_r+0x230>
 508bef4:	902d883a 	mov	r22,r18
 508bef8:	81000017 	ldw	r4,0(r16)
 508befc:	80800417 	ldw	r2,16(r16)
 508bf00:	b02f883a 	mov	r23,r22
 508bf04:	81c00517 	ldw	r7,20(r16)
 508bf08:	1100032e 	bgeu	r2,r4,508bf18 <__sfvwrite_r+0x250>
 508bf0c:	80c00217 	ldw	r3,8(r16)
 508bf10:	38c7883a 	add	r3,r7,r3
 508bf14:	1d801816 	blt	r3,r22,508bf78 <__sfvwrite_r+0x2b0>
 508bf18:	b1c03e16 	blt	r22,r7,508c014 <__sfvwrite_r+0x34c>
 508bf1c:	80800917 	ldw	r2,36(r16)
 508bf20:	81400717 	ldw	r5,28(r16)
 508bf24:	e00d883a 	mov	r6,fp
 508bf28:	da000115 	stw	r8,4(sp)
 508bf2c:	a809883a 	mov	r4,r21
 508bf30:	103ee83a 	callr	r2
 508bf34:	102f883a 	mov	r23,r2
 508bf38:	da000117 	ldw	r8,4(sp)
 508bf3c:	00bfe00e 	bge	zero,r2,508bec0 <__sfvwrite_r+0x1f8>
 508bf40:	9de7c83a 	sub	r19,r19,r23
 508bf44:	98001f26 	beq	r19,zero,508bfc4 <__sfvwrite_r+0x2fc>
 508bf48:	a0800217 	ldw	r2,8(r20)
 508bf4c:	e5f9883a 	add	fp,fp,r23
 508bf50:	95e5c83a 	sub	r18,r18,r23
 508bf54:	15efc83a 	sub	r23,r2,r23
 508bf58:	a5c00215 	stw	r23,8(r20)
 508bf5c:	b83f8726 	beq	r23,zero,508bd7c <__sfvwrite_r+0xb4>
 508bf60:	903fe11e 	bne	r18,zero,508bee8 <__sfvwrite_r+0x220>
 508bf64:	8f000017 	ldw	fp,0(r17)
 508bf68:	8c800117 	ldw	r18,4(r17)
 508bf6c:	0011883a 	mov	r8,zero
 508bf70:	8c400204 	addi	r17,r17,8
 508bf74:	003fdb06 	br	508bee4 <__sfvwrite_r+0x21c>
 508bf78:	180d883a 	mov	r6,r3
 508bf7c:	e00b883a 	mov	r5,fp
 508bf80:	da000115 	stw	r8,4(sp)
 508bf84:	d8c00015 	stw	r3,0(sp)
 508bf88:	5084eac0 	call	5084eac <memmove>
 508bf8c:	d8c00017 	ldw	r3,0(sp)
 508bf90:	80800017 	ldw	r2,0(r16)
 508bf94:	800b883a 	mov	r5,r16
 508bf98:	a809883a 	mov	r4,r21
 508bf9c:	10c5883a 	add	r2,r2,r3
 508bfa0:	80800015 	stw	r2,0(r16)
 508bfa4:	d8c00015 	stw	r3,0(sp)
 508bfa8:	508b4680 	call	508b468 <_fflush_r>
 508bfac:	d8c00017 	ldw	r3,0(sp)
 508bfb0:	da000117 	ldw	r8,4(sp)
 508bfb4:	103fc21e 	bne	r2,zero,508bec0 <__sfvwrite_r+0x1f8>
 508bfb8:	182f883a 	mov	r23,r3
 508bfbc:	9de7c83a 	sub	r19,r19,r23
 508bfc0:	983fe11e 	bne	r19,zero,508bf48 <__sfvwrite_r+0x280>
 508bfc4:	800b883a 	mov	r5,r16
 508bfc8:	a809883a 	mov	r4,r21
 508bfcc:	508b4680 	call	508b468 <_fflush_r>
 508bfd0:	103fbb1e 	bne	r2,zero,508bec0 <__sfvwrite_r+0x1f8>
 508bfd4:	0011883a 	mov	r8,zero
 508bfd8:	003fdb06 	br	508bf48 <__sfvwrite_r+0x280>
 508bfdc:	94c0012e 	bgeu	r18,r19,508bfe4 <__sfvwrite_r+0x31c>
 508bfe0:	9027883a 	mov	r19,r18
 508bfe4:	980d883a 	mov	r6,r19
 508bfe8:	e00b883a 	mov	r5,fp
 508bfec:	5084eac0 	call	5084eac <memmove>
 508bff0:	80800217 	ldw	r2,8(r16)
 508bff4:	80c00017 	ldw	r3,0(r16)
 508bff8:	14c5c83a 	sub	r2,r2,r19
 508bffc:	1cc7883a 	add	r3,r3,r19
 508c000:	80800215 	stw	r2,8(r16)
 508c004:	80c00015 	stw	r3,0(r16)
 508c008:	10004326 	beq	r2,zero,508c118 <__sfvwrite_r+0x450>
 508c00c:	9805883a 	mov	r2,r19
 508c010:	003f8606 	br	508be2c <__sfvwrite_r+0x164>
 508c014:	b00d883a 	mov	r6,r22
 508c018:	e00b883a 	mov	r5,fp
 508c01c:	da000115 	stw	r8,4(sp)
 508c020:	5084eac0 	call	5084eac <memmove>
 508c024:	80800217 	ldw	r2,8(r16)
 508c028:	80c00017 	ldw	r3,0(r16)
 508c02c:	da000117 	ldw	r8,4(sp)
 508c030:	1585c83a 	sub	r2,r2,r22
 508c034:	1dad883a 	add	r22,r3,r22
 508c038:	80800215 	stw	r2,8(r16)
 508c03c:	85800015 	stw	r22,0(r16)
 508c040:	003fbf06 	br	508bf40 <__sfvwrite_r+0x278>
 508c044:	81000017 	ldw	r4,0(r16)
 508c048:	9027883a 	mov	r19,r18
 508c04c:	902f883a 	mov	r23,r18
 508c050:	003f6c06 	br	508be04 <__sfvwrite_r+0x13c>
 508c054:	900d883a 	mov	r6,r18
 508c058:	01400284 	movi	r5,10
 508c05c:	e009883a 	mov	r4,fp
 508c060:	508cdb00 	call	508cdb0 <memchr>
 508c064:	10003e26 	beq	r2,zero,508c160 <__sfvwrite_r+0x498>
 508c068:	10800044 	addi	r2,r2,1
 508c06c:	1727c83a 	sub	r19,r2,fp
 508c070:	02000044 	movi	r8,1
 508c074:	003f9d06 	br	508beec <__sfvwrite_r+0x224>
 508c078:	80800517 	ldw	r2,20(r16)
 508c07c:	81400417 	ldw	r5,16(r16)
 508c080:	81c00017 	ldw	r7,0(r16)
 508c084:	10a7883a 	add	r19,r2,r2
 508c088:	9885883a 	add	r2,r19,r2
 508c08c:	1026d7fa 	srli	r19,r2,31
 508c090:	396dc83a 	sub	r22,r7,r5
 508c094:	b1000044 	addi	r4,r22,1
 508c098:	9885883a 	add	r2,r19,r2
 508c09c:	1027d07a 	srai	r19,r2,1
 508c0a0:	2485883a 	add	r2,r4,r18
 508c0a4:	980d883a 	mov	r6,r19
 508c0a8:	9880022e 	bgeu	r19,r2,508c0b4 <__sfvwrite_r+0x3ec>
 508c0ac:	1027883a 	mov	r19,r2
 508c0b0:	100d883a 	mov	r6,r2
 508c0b4:	18c1000c 	andi	r3,r3,1024
 508c0b8:	18001c26 	beq	r3,zero,508c12c <__sfvwrite_r+0x464>
 508c0bc:	300b883a 	mov	r5,r6
 508c0c0:	a809883a 	mov	r4,r21
 508c0c4:	508c5a40 	call	508c5a4 <_malloc_r>
 508c0c8:	102f883a 	mov	r23,r2
 508c0cc:	10002926 	beq	r2,zero,508c174 <__sfvwrite_r+0x4ac>
 508c0d0:	81400417 	ldw	r5,16(r16)
 508c0d4:	b00d883a 	mov	r6,r22
 508c0d8:	1009883a 	mov	r4,r2
 508c0dc:	5084d640 	call	5084d64 <memcpy>
 508c0e0:	8080030b 	ldhu	r2,12(r16)
 508c0e4:	00fedfc4 	movi	r3,-1153
 508c0e8:	10c4703a 	and	r2,r2,r3
 508c0ec:	10802014 	ori	r2,r2,128
 508c0f0:	8080030d 	sth	r2,12(r16)
 508c0f4:	bd89883a 	add	r4,r23,r22
 508c0f8:	9d8fc83a 	sub	r7,r19,r22
 508c0fc:	85c00415 	stw	r23,16(r16)
 508c100:	84c00515 	stw	r19,20(r16)
 508c104:	81000015 	stw	r4,0(r16)
 508c108:	9027883a 	mov	r19,r18
 508c10c:	81c00215 	stw	r7,8(r16)
 508c110:	902f883a 	mov	r23,r18
 508c114:	003f3b06 	br	508be04 <__sfvwrite_r+0x13c>
 508c118:	800b883a 	mov	r5,r16
 508c11c:	a809883a 	mov	r4,r21
 508c120:	508b4680 	call	508b468 <_fflush_r>
 508c124:	103fb926 	beq	r2,zero,508c00c <__sfvwrite_r+0x344>
 508c128:	003f6506 	br	508bec0 <__sfvwrite_r+0x1f8>
 508c12c:	a809883a 	mov	r4,r21
 508c130:	508dfb80 	call	508dfb8 <_realloc_r>
 508c134:	102f883a 	mov	r23,r2
 508c138:	103fee1e 	bne	r2,zero,508c0f4 <__sfvwrite_r+0x42c>
 508c13c:	81400417 	ldw	r5,16(r16)
 508c140:	a809883a 	mov	r4,r21
 508c144:	508b9b80 	call	508b9b8 <_free_r>
 508c148:	8080030b 	ldhu	r2,12(r16)
 508c14c:	00ffdfc4 	movi	r3,-129
 508c150:	1884703a 	and	r2,r3,r2
 508c154:	00c00304 	movi	r3,12
 508c158:	a8c00015 	stw	r3,0(r21)
 508c15c:	003f5906 	br	508bec4 <__sfvwrite_r+0x1fc>
 508c160:	94c00044 	addi	r19,r18,1
 508c164:	02000044 	movi	r8,1
 508c168:	003f6006 	br	508beec <__sfvwrite_r+0x224>
 508c16c:	00bfffc4 	movi	r2,-1
 508c170:	003f0306 	br	508bd80 <__sfvwrite_r+0xb8>
 508c174:	00800304 	movi	r2,12
 508c178:	a8800015 	stw	r2,0(r21)
 508c17c:	8080030b 	ldhu	r2,12(r16)
 508c180:	003f5006 	br	508bec4 <__sfvwrite_r+0x1fc>

0508c184 <_fwalk>:
 508c184:	defff704 	addi	sp,sp,-36
 508c188:	dd000415 	stw	r20,16(sp)
 508c18c:	dfc00815 	stw	ra,32(sp)
 508c190:	ddc00715 	stw	r23,28(sp)
 508c194:	dd800615 	stw	r22,24(sp)
 508c198:	dd400515 	stw	r21,20(sp)
 508c19c:	dcc00315 	stw	r19,12(sp)
 508c1a0:	dc800215 	stw	r18,8(sp)
 508c1a4:	dc400115 	stw	r17,4(sp)
 508c1a8:	dc000015 	stw	r16,0(sp)
 508c1ac:	2500b804 	addi	r20,r4,736
 508c1b0:	a0002326 	beq	r20,zero,508c240 <_fwalk+0xbc>
 508c1b4:	282b883a 	mov	r21,r5
 508c1b8:	002f883a 	mov	r23,zero
 508c1bc:	05800044 	movi	r22,1
 508c1c0:	04ffffc4 	movi	r19,-1
 508c1c4:	a4400117 	ldw	r17,4(r20)
 508c1c8:	a4800217 	ldw	r18,8(r20)
 508c1cc:	8c7fffc4 	addi	r17,r17,-1
 508c1d0:	88000d16 	blt	r17,zero,508c208 <_fwalk+0x84>
 508c1d4:	94000304 	addi	r16,r18,12
 508c1d8:	94800384 	addi	r18,r18,14
 508c1dc:	8080000b 	ldhu	r2,0(r16)
 508c1e0:	8c7fffc4 	addi	r17,r17,-1
 508c1e4:	813ffd04 	addi	r4,r16,-12
 508c1e8:	b080042e 	bgeu	r22,r2,508c1fc <_fwalk+0x78>
 508c1ec:	9080000f 	ldh	r2,0(r18)
 508c1f0:	14c00226 	beq	r2,r19,508c1fc <_fwalk+0x78>
 508c1f4:	a83ee83a 	callr	r21
 508c1f8:	b8aeb03a 	or	r23,r23,r2
 508c1fc:	84001a04 	addi	r16,r16,104
 508c200:	94801a04 	addi	r18,r18,104
 508c204:	8cfff51e 	bne	r17,r19,508c1dc <_fwalk+0x58>
 508c208:	a5000017 	ldw	r20,0(r20)
 508c20c:	a03fed1e 	bne	r20,zero,508c1c4 <_fwalk+0x40>
 508c210:	b805883a 	mov	r2,r23
 508c214:	dfc00817 	ldw	ra,32(sp)
 508c218:	ddc00717 	ldw	r23,28(sp)
 508c21c:	dd800617 	ldw	r22,24(sp)
 508c220:	dd400517 	ldw	r21,20(sp)
 508c224:	dd000417 	ldw	r20,16(sp)
 508c228:	dcc00317 	ldw	r19,12(sp)
 508c22c:	dc800217 	ldw	r18,8(sp)
 508c230:	dc400117 	ldw	r17,4(sp)
 508c234:	dc000017 	ldw	r16,0(sp)
 508c238:	dec00904 	addi	sp,sp,36
 508c23c:	f800283a 	ret
 508c240:	002f883a 	mov	r23,zero
 508c244:	003ff206 	br	508c210 <_fwalk+0x8c>

0508c248 <_fwalk_reent>:
 508c248:	defff704 	addi	sp,sp,-36
 508c24c:	dd000415 	stw	r20,16(sp)
 508c250:	dfc00815 	stw	ra,32(sp)
 508c254:	ddc00715 	stw	r23,28(sp)
 508c258:	dd800615 	stw	r22,24(sp)
 508c25c:	dd400515 	stw	r21,20(sp)
 508c260:	dcc00315 	stw	r19,12(sp)
 508c264:	dc800215 	stw	r18,8(sp)
 508c268:	dc400115 	stw	r17,4(sp)
 508c26c:	dc000015 	stw	r16,0(sp)
 508c270:	2500b804 	addi	r20,r4,736
 508c274:	a0002326 	beq	r20,zero,508c304 <_fwalk_reent+0xbc>
 508c278:	282b883a 	mov	r21,r5
 508c27c:	2027883a 	mov	r19,r4
 508c280:	002f883a 	mov	r23,zero
 508c284:	05800044 	movi	r22,1
 508c288:	04bfffc4 	movi	r18,-1
 508c28c:	a4400117 	ldw	r17,4(r20)
 508c290:	a4000217 	ldw	r16,8(r20)
 508c294:	8c7fffc4 	addi	r17,r17,-1
 508c298:	88000c16 	blt	r17,zero,508c2cc <_fwalk_reent+0x84>
 508c29c:	84000304 	addi	r16,r16,12
 508c2a0:	8080000b 	ldhu	r2,0(r16)
 508c2a4:	8c7fffc4 	addi	r17,r17,-1
 508c2a8:	817ffd04 	addi	r5,r16,-12
 508c2ac:	b080052e 	bgeu	r22,r2,508c2c4 <_fwalk_reent+0x7c>
 508c2b0:	8080008f 	ldh	r2,2(r16)
 508c2b4:	9809883a 	mov	r4,r19
 508c2b8:	14800226 	beq	r2,r18,508c2c4 <_fwalk_reent+0x7c>
 508c2bc:	a83ee83a 	callr	r21
 508c2c0:	b8aeb03a 	or	r23,r23,r2
 508c2c4:	84001a04 	addi	r16,r16,104
 508c2c8:	8cbff51e 	bne	r17,r18,508c2a0 <_fwalk_reent+0x58>
 508c2cc:	a5000017 	ldw	r20,0(r20)
 508c2d0:	a03fee1e 	bne	r20,zero,508c28c <_fwalk_reent+0x44>
 508c2d4:	b805883a 	mov	r2,r23
 508c2d8:	dfc00817 	ldw	ra,32(sp)
 508c2dc:	ddc00717 	ldw	r23,28(sp)
 508c2e0:	dd800617 	ldw	r22,24(sp)
 508c2e4:	dd400517 	ldw	r21,20(sp)
 508c2e8:	dd000417 	ldw	r20,16(sp)
 508c2ec:	dcc00317 	ldw	r19,12(sp)
 508c2f0:	dc800217 	ldw	r18,8(sp)
 508c2f4:	dc400117 	ldw	r17,4(sp)
 508c2f8:	dc000017 	ldw	r16,0(sp)
 508c2fc:	dec00904 	addi	sp,sp,36
 508c300:	f800283a 	ret
 508c304:	002f883a 	mov	r23,zero
 508c308:	003ff206 	br	508c2d4 <_fwalk_reent+0x8c>

0508c30c <_setlocale_r>:
 508c30c:	30001b26 	beq	r6,zero,508c37c <_setlocale_r+0x70>
 508c310:	01414274 	movhi	r5,1289
 508c314:	defffe04 	addi	sp,sp,-8
 508c318:	295a5d04 	addi	r5,r5,26996
 508c31c:	3009883a 	mov	r4,r6
 508c320:	dc000015 	stw	r16,0(sp)
 508c324:	dfc00115 	stw	ra,4(sp)
 508c328:	3021883a 	mov	r16,r6
 508c32c:	508e7200 	call	508e720 <strcmp>
 508c330:	1000061e 	bne	r2,zero,508c34c <_setlocale_r+0x40>
 508c334:	00814274 	movhi	r2,1289
 508c338:	109a5c04 	addi	r2,r2,26992
 508c33c:	dfc00117 	ldw	ra,4(sp)
 508c340:	dc000017 	ldw	r16,0(sp)
 508c344:	dec00204 	addi	sp,sp,8
 508c348:	f800283a 	ret
 508c34c:	01414274 	movhi	r5,1289
 508c350:	295a5c04 	addi	r5,r5,26992
 508c354:	8009883a 	mov	r4,r16
 508c358:	508e7200 	call	508e720 <strcmp>
 508c35c:	103ff526 	beq	r2,zero,508c334 <_setlocale_r+0x28>
 508c360:	01414274 	movhi	r5,1289
 508c364:	295a3f04 	addi	r5,r5,26876
 508c368:	8009883a 	mov	r4,r16
 508c36c:	508e7200 	call	508e720 <strcmp>
 508c370:	103ff026 	beq	r2,zero,508c334 <_setlocale_r+0x28>
 508c374:	0005883a 	mov	r2,zero
 508c378:	003ff006 	br	508c33c <_setlocale_r+0x30>
 508c37c:	00814274 	movhi	r2,1289
 508c380:	109a5c04 	addi	r2,r2,26992
 508c384:	f800283a 	ret

0508c388 <__locale_charset>:
 508c388:	00814274 	movhi	r2,1289
 508c38c:	109bd904 	addi	r2,r2,28516
 508c390:	f800283a 	ret

0508c394 <__locale_mb_cur_max>:
 508c394:	008142b4 	movhi	r2,1290
 508c398:	10a17504 	addi	r2,r2,-31276
 508c39c:	10800017 	ldw	r2,0(r2)
 508c3a0:	f800283a 	ret

0508c3a4 <__locale_msgcharset>:
 508c3a4:	00814274 	movhi	r2,1289
 508c3a8:	109bd104 	addi	r2,r2,28484
 508c3ac:	f800283a 	ret

0508c3b0 <__locale_cjk_lang>:
 508c3b0:	0005883a 	mov	r2,zero
 508c3b4:	f800283a 	ret

0508c3b8 <_localeconv_r>:
 508c3b8:	00814274 	movhi	r2,1289
 508c3bc:	109be104 	addi	r2,r2,28548
 508c3c0:	f800283a 	ret

0508c3c4 <setlocale>:
 508c3c4:	008142b4 	movhi	r2,1290
 508c3c8:	10a17404 	addi	r2,r2,-31280
 508c3cc:	280d883a 	mov	r6,r5
 508c3d0:	200b883a 	mov	r5,r4
 508c3d4:	11000017 	ldw	r4,0(r2)
 508c3d8:	508c30c1 	jmpi	508c30c <_setlocale_r>

0508c3dc <localeconv>:
 508c3dc:	00814274 	movhi	r2,1289
 508c3e0:	109be104 	addi	r2,r2,28548
 508c3e4:	f800283a 	ret

0508c3e8 <__smakebuf_r>:
 508c3e8:	2880030b 	ldhu	r2,12(r5)
 508c3ec:	10c0008c 	andi	r3,r2,2
 508c3f0:	1800411e 	bne	r3,zero,508c4f8 <__smakebuf_r+0x110>
 508c3f4:	deffec04 	addi	sp,sp,-80
 508c3f8:	dc000f15 	stw	r16,60(sp)
 508c3fc:	2821883a 	mov	r16,r5
 508c400:	2940038f 	ldh	r5,14(r5)
 508c404:	dc401015 	stw	r17,64(sp)
 508c408:	dfc01315 	stw	ra,76(sp)
 508c40c:	dcc01215 	stw	r19,72(sp)
 508c410:	dc801115 	stw	r18,68(sp)
 508c414:	2023883a 	mov	r17,r4
 508c418:	28001c16 	blt	r5,zero,508c48c <__smakebuf_r+0xa4>
 508c41c:	d80d883a 	mov	r6,sp
 508c420:	50916d40 	call	50916d4 <_fstat_r>
 508c424:	10001816 	blt	r2,zero,508c488 <__smakebuf_r+0xa0>
 508c428:	d8800117 	ldw	r2,4(sp)
 508c42c:	00e00014 	movui	r3,32768
 508c430:	10bc000c 	andi	r2,r2,61440
 508c434:	14c80020 	cmpeqi	r19,r2,8192
 508c438:	10c03726 	beq	r2,r3,508c518 <__smakebuf_r+0x130>
 508c43c:	80c0030b 	ldhu	r3,12(r16)
 508c440:	18c20014 	ori	r3,r3,2048
 508c444:	80c0030d 	sth	r3,12(r16)
 508c448:	00c80004 	movi	r3,8192
 508c44c:	10c0521e 	bne	r2,r3,508c598 <__smakebuf_r+0x1b0>
 508c450:	8140038f 	ldh	r5,14(r16)
 508c454:	8809883a 	mov	r4,r17
 508c458:	50917300 	call	5091730 <_isatty_r>
 508c45c:	10004c26 	beq	r2,zero,508c590 <__smakebuf_r+0x1a8>
 508c460:	8080030b 	ldhu	r2,12(r16)
 508c464:	80c010c4 	addi	r3,r16,67
 508c468:	80c00015 	stw	r3,0(r16)
 508c46c:	10800054 	ori	r2,r2,1
 508c470:	8080030d 	sth	r2,12(r16)
 508c474:	00800044 	movi	r2,1
 508c478:	80c00415 	stw	r3,16(r16)
 508c47c:	80800515 	stw	r2,20(r16)
 508c480:	04810004 	movi	r18,1024
 508c484:	00000706 	br	508c4a4 <__smakebuf_r+0xbc>
 508c488:	8080030b 	ldhu	r2,12(r16)
 508c48c:	10c0200c 	andi	r3,r2,128
 508c490:	18001f1e 	bne	r3,zero,508c510 <__smakebuf_r+0x128>
 508c494:	04810004 	movi	r18,1024
 508c498:	10820014 	ori	r2,r2,2048
 508c49c:	8080030d 	sth	r2,12(r16)
 508c4a0:	0027883a 	mov	r19,zero
 508c4a4:	900b883a 	mov	r5,r18
 508c4a8:	8809883a 	mov	r4,r17
 508c4ac:	508c5a40 	call	508c5a4 <_malloc_r>
 508c4b0:	10002c26 	beq	r2,zero,508c564 <__smakebuf_r+0x17c>
 508c4b4:	80c0030b 	ldhu	r3,12(r16)
 508c4b8:	01014274 	movhi	r4,1289
 508c4bc:	212d3f04 	addi	r4,r4,-19204
 508c4c0:	89000f15 	stw	r4,60(r17)
 508c4c4:	18c02014 	ori	r3,r3,128
 508c4c8:	80c0030d 	sth	r3,12(r16)
 508c4cc:	80800015 	stw	r2,0(r16)
 508c4d0:	80800415 	stw	r2,16(r16)
 508c4d4:	84800515 	stw	r18,20(r16)
 508c4d8:	98001a1e 	bne	r19,zero,508c544 <__smakebuf_r+0x15c>
 508c4dc:	dfc01317 	ldw	ra,76(sp)
 508c4e0:	dcc01217 	ldw	r19,72(sp)
 508c4e4:	dc801117 	ldw	r18,68(sp)
 508c4e8:	dc401017 	ldw	r17,64(sp)
 508c4ec:	dc000f17 	ldw	r16,60(sp)
 508c4f0:	dec01404 	addi	sp,sp,80
 508c4f4:	f800283a 	ret
 508c4f8:	288010c4 	addi	r2,r5,67
 508c4fc:	28800015 	stw	r2,0(r5)
 508c500:	28800415 	stw	r2,16(r5)
 508c504:	00800044 	movi	r2,1
 508c508:	28800515 	stw	r2,20(r5)
 508c50c:	f800283a 	ret
 508c510:	04801004 	movi	r18,64
 508c514:	003fe006 	br	508c498 <__smakebuf_r+0xb0>
 508c518:	81000a17 	ldw	r4,40(r16)
 508c51c:	00c14274 	movhi	r3,1289
 508c520:	18f9af04 	addi	r3,r3,-6468
 508c524:	20ffc51e 	bne	r4,r3,508c43c <__smakebuf_r+0x54>
 508c528:	8080030b 	ldhu	r2,12(r16)
 508c52c:	04810004 	movi	r18,1024
 508c530:	84801315 	stw	r18,76(r16)
 508c534:	1484b03a 	or	r2,r2,r18
 508c538:	8080030d 	sth	r2,12(r16)
 508c53c:	0027883a 	mov	r19,zero
 508c540:	003fd806 	br	508c4a4 <__smakebuf_r+0xbc>
 508c544:	8140038f 	ldh	r5,14(r16)
 508c548:	8809883a 	mov	r4,r17
 508c54c:	50917300 	call	5091730 <_isatty_r>
 508c550:	103fe226 	beq	r2,zero,508c4dc <__smakebuf_r+0xf4>
 508c554:	8080030b 	ldhu	r2,12(r16)
 508c558:	10800054 	ori	r2,r2,1
 508c55c:	8080030d 	sth	r2,12(r16)
 508c560:	003fde06 	br	508c4dc <__smakebuf_r+0xf4>
 508c564:	8080030b 	ldhu	r2,12(r16)
 508c568:	10c0800c 	andi	r3,r2,512
 508c56c:	183fdb1e 	bne	r3,zero,508c4dc <__smakebuf_r+0xf4>
 508c570:	10800094 	ori	r2,r2,2
 508c574:	80c010c4 	addi	r3,r16,67
 508c578:	8080030d 	sth	r2,12(r16)
 508c57c:	00800044 	movi	r2,1
 508c580:	80c00015 	stw	r3,0(r16)
 508c584:	80c00415 	stw	r3,16(r16)
 508c588:	80800515 	stw	r2,20(r16)
 508c58c:	003fd306 	br	508c4dc <__smakebuf_r+0xf4>
 508c590:	04810004 	movi	r18,1024
 508c594:	003fc306 	br	508c4a4 <__smakebuf_r+0xbc>
 508c598:	0027883a 	mov	r19,zero
 508c59c:	04810004 	movi	r18,1024
 508c5a0:	003fc006 	br	508c4a4 <__smakebuf_r+0xbc>

0508c5a4 <_malloc_r>:
 508c5a4:	defff504 	addi	sp,sp,-44
 508c5a8:	dc800315 	stw	r18,12(sp)
 508c5ac:	dfc00a15 	stw	ra,40(sp)
 508c5b0:	df000915 	stw	fp,36(sp)
 508c5b4:	ddc00815 	stw	r23,32(sp)
 508c5b8:	dd800715 	stw	r22,28(sp)
 508c5bc:	dd400615 	stw	r21,24(sp)
 508c5c0:	dd000515 	stw	r20,20(sp)
 508c5c4:	dcc00415 	stw	r19,16(sp)
 508c5c8:	dc400215 	stw	r17,8(sp)
 508c5cc:	dc000115 	stw	r16,4(sp)
 508c5d0:	288002c4 	addi	r2,r5,11
 508c5d4:	00c00584 	movi	r3,22
 508c5d8:	2025883a 	mov	r18,r4
 508c5dc:	18807f2e 	bgeu	r3,r2,508c7dc <_malloc_r+0x238>
 508c5e0:	047ffe04 	movi	r17,-8
 508c5e4:	1462703a 	and	r17,r2,r17
 508c5e8:	8800a316 	blt	r17,zero,508c878 <_malloc_r+0x2d4>
 508c5ec:	8940a236 	bltu	r17,r5,508c878 <_malloc_r+0x2d4>
 508c5f0:	50938a40 	call	50938a4 <__malloc_lock>
 508c5f4:	00807dc4 	movi	r2,503
 508c5f8:	1441e92e 	bgeu	r2,r17,508cda0 <_malloc_r+0x7fc>
 508c5fc:	8804d27a 	srli	r2,r17,9
 508c600:	1000a126 	beq	r2,zero,508c888 <_malloc_r+0x2e4>
 508c604:	00c00104 	movi	r3,4
 508c608:	18811e36 	bltu	r3,r2,508ca84 <_malloc_r+0x4e0>
 508c60c:	8804d1ba 	srli	r2,r17,6
 508c610:	12000e44 	addi	r8,r2,57
 508c614:	11c00e04 	addi	r7,r2,56
 508c618:	4209883a 	add	r4,r8,r8
 508c61c:	04c14274 	movhi	r19,1289
 508c620:	2109883a 	add	r4,r4,r4
 508c624:	9cdbef04 	addi	r19,r19,28604
 508c628:	2109883a 	add	r4,r4,r4
 508c62c:	9909883a 	add	r4,r19,r4
 508c630:	24000117 	ldw	r16,4(r4)
 508c634:	213ffe04 	addi	r4,r4,-8
 508c638:	24009726 	beq	r4,r16,508c898 <_malloc_r+0x2f4>
 508c63c:	80800117 	ldw	r2,4(r16)
 508c640:	01bfff04 	movi	r6,-4
 508c644:	014003c4 	movi	r5,15
 508c648:	1184703a 	and	r2,r2,r6
 508c64c:	1447c83a 	sub	r3,r2,r17
 508c650:	28c00716 	blt	r5,r3,508c670 <_malloc_r+0xcc>
 508c654:	1800920e 	bge	r3,zero,508c8a0 <_malloc_r+0x2fc>
 508c658:	84000317 	ldw	r16,12(r16)
 508c65c:	24008e26 	beq	r4,r16,508c898 <_malloc_r+0x2f4>
 508c660:	80800117 	ldw	r2,4(r16)
 508c664:	1184703a 	and	r2,r2,r6
 508c668:	1447c83a 	sub	r3,r2,r17
 508c66c:	28fff90e 	bge	r5,r3,508c654 <_malloc_r+0xb0>
 508c670:	3809883a 	mov	r4,r7
 508c674:	01814274 	movhi	r6,1289
 508c678:	9c000417 	ldw	r16,16(r19)
 508c67c:	319bef04 	addi	r6,r6,28604
 508c680:	32000204 	addi	r8,r6,8
 508c684:	82013426 	beq	r16,r8,508cb58 <_malloc_r+0x5b4>
 508c688:	80c00117 	ldw	r3,4(r16)
 508c68c:	00bfff04 	movi	r2,-4
 508c690:	188e703a 	and	r7,r3,r2
 508c694:	3c45c83a 	sub	r2,r7,r17
 508c698:	00c003c4 	movi	r3,15
 508c69c:	18811f16 	blt	r3,r2,508cb1c <_malloc_r+0x578>
 508c6a0:	32000515 	stw	r8,20(r6)
 508c6a4:	32000415 	stw	r8,16(r6)
 508c6a8:	10007f0e 	bge	r2,zero,508c8a8 <_malloc_r+0x304>
 508c6ac:	00807fc4 	movi	r2,511
 508c6b0:	11c0fd36 	bltu	r2,r7,508caa8 <_malloc_r+0x504>
 508c6b4:	3806d0fa 	srli	r3,r7,3
 508c6b8:	01c00044 	movi	r7,1
 508c6bc:	30800117 	ldw	r2,4(r6)
 508c6c0:	19400044 	addi	r5,r3,1
 508c6c4:	294b883a 	add	r5,r5,r5
 508c6c8:	1807d0ba 	srai	r3,r3,2
 508c6cc:	294b883a 	add	r5,r5,r5
 508c6d0:	294b883a 	add	r5,r5,r5
 508c6d4:	298b883a 	add	r5,r5,r6
 508c6d8:	38c6983a 	sll	r3,r7,r3
 508c6dc:	29c00017 	ldw	r7,0(r5)
 508c6e0:	2a7ffe04 	addi	r9,r5,-8
 508c6e4:	1886b03a 	or	r3,r3,r2
 508c6e8:	82400315 	stw	r9,12(r16)
 508c6ec:	81c00215 	stw	r7,8(r16)
 508c6f0:	30c00115 	stw	r3,4(r6)
 508c6f4:	2c000015 	stw	r16,0(r5)
 508c6f8:	3c000315 	stw	r16,12(r7)
 508c6fc:	2005d0ba 	srai	r2,r4,2
 508c700:	01400044 	movi	r5,1
 508c704:	288a983a 	sll	r5,r5,r2
 508c708:	19406f36 	bltu	r3,r5,508c8c8 <_malloc_r+0x324>
 508c70c:	28c4703a 	and	r2,r5,r3
 508c710:	10000a1e 	bne	r2,zero,508c73c <_malloc_r+0x198>
 508c714:	00bfff04 	movi	r2,-4
 508c718:	294b883a 	add	r5,r5,r5
 508c71c:	2088703a 	and	r4,r4,r2
 508c720:	28c4703a 	and	r2,r5,r3
 508c724:	21000104 	addi	r4,r4,4
 508c728:	1000041e 	bne	r2,zero,508c73c <_malloc_r+0x198>
 508c72c:	294b883a 	add	r5,r5,r5
 508c730:	28c4703a 	and	r2,r5,r3
 508c734:	21000104 	addi	r4,r4,4
 508c738:	103ffc26 	beq	r2,zero,508c72c <_malloc_r+0x188>
 508c73c:	02bfff04 	movi	r10,-4
 508c740:	024003c4 	movi	r9,15
 508c744:	21800044 	addi	r6,r4,1
 508c748:	318d883a 	add	r6,r6,r6
 508c74c:	318d883a 	add	r6,r6,r6
 508c750:	318d883a 	add	r6,r6,r6
 508c754:	998d883a 	add	r6,r19,r6
 508c758:	333ffe04 	addi	r12,r6,-8
 508c75c:	2017883a 	mov	r11,r4
 508c760:	31800104 	addi	r6,r6,4
 508c764:	34000017 	ldw	r16,0(r6)
 508c768:	31fffd04 	addi	r7,r6,-12
 508c76c:	81c0041e 	bne	r16,r7,508c780 <_malloc_r+0x1dc>
 508c770:	0000fb06 	br	508cb60 <_malloc_r+0x5bc>
 508c774:	1801030e 	bge	r3,zero,508cb84 <_malloc_r+0x5e0>
 508c778:	84000317 	ldw	r16,12(r16)
 508c77c:	81c0f826 	beq	r16,r7,508cb60 <_malloc_r+0x5bc>
 508c780:	80800117 	ldw	r2,4(r16)
 508c784:	1284703a 	and	r2,r2,r10
 508c788:	1447c83a 	sub	r3,r2,r17
 508c78c:	48fff90e 	bge	r9,r3,508c774 <_malloc_r+0x1d0>
 508c790:	80800317 	ldw	r2,12(r16)
 508c794:	81000217 	ldw	r4,8(r16)
 508c798:	89400054 	ori	r5,r17,1
 508c79c:	81400115 	stw	r5,4(r16)
 508c7a0:	20800315 	stw	r2,12(r4)
 508c7a4:	11000215 	stw	r4,8(r2)
 508c7a8:	8463883a 	add	r17,r16,r17
 508c7ac:	9c400515 	stw	r17,20(r19)
 508c7b0:	9c400415 	stw	r17,16(r19)
 508c7b4:	18800054 	ori	r2,r3,1
 508c7b8:	88800115 	stw	r2,4(r17)
 508c7bc:	8a000315 	stw	r8,12(r17)
 508c7c0:	8a000215 	stw	r8,8(r17)
 508c7c4:	88e3883a 	add	r17,r17,r3
 508c7c8:	88c00015 	stw	r3,0(r17)
 508c7cc:	9009883a 	mov	r4,r18
 508c7d0:	50938c80 	call	50938c8 <__malloc_unlock>
 508c7d4:	80800204 	addi	r2,r16,8
 508c7d8:	00001b06 	br	508c848 <_malloc_r+0x2a4>
 508c7dc:	04400404 	movi	r17,16
 508c7e0:	89402536 	bltu	r17,r5,508c878 <_malloc_r+0x2d4>
 508c7e4:	50938a40 	call	50938a4 <__malloc_lock>
 508c7e8:	00800184 	movi	r2,6
 508c7ec:	01000084 	movi	r4,2
 508c7f0:	04c14274 	movhi	r19,1289
 508c7f4:	1085883a 	add	r2,r2,r2
 508c7f8:	9cdbef04 	addi	r19,r19,28604
 508c7fc:	1085883a 	add	r2,r2,r2
 508c800:	9885883a 	add	r2,r19,r2
 508c804:	14000117 	ldw	r16,4(r2)
 508c808:	10fffe04 	addi	r3,r2,-8
 508c80c:	80c0d926 	beq	r16,r3,508cb74 <_malloc_r+0x5d0>
 508c810:	80c00117 	ldw	r3,4(r16)
 508c814:	81000317 	ldw	r4,12(r16)
 508c818:	00bfff04 	movi	r2,-4
 508c81c:	1884703a 	and	r2,r3,r2
 508c820:	81400217 	ldw	r5,8(r16)
 508c824:	8085883a 	add	r2,r16,r2
 508c828:	10c00117 	ldw	r3,4(r2)
 508c82c:	29000315 	stw	r4,12(r5)
 508c830:	21400215 	stw	r5,8(r4)
 508c834:	18c00054 	ori	r3,r3,1
 508c838:	10c00115 	stw	r3,4(r2)
 508c83c:	9009883a 	mov	r4,r18
 508c840:	50938c80 	call	50938c8 <__malloc_unlock>
 508c844:	80800204 	addi	r2,r16,8
 508c848:	dfc00a17 	ldw	ra,40(sp)
 508c84c:	df000917 	ldw	fp,36(sp)
 508c850:	ddc00817 	ldw	r23,32(sp)
 508c854:	dd800717 	ldw	r22,28(sp)
 508c858:	dd400617 	ldw	r21,24(sp)
 508c85c:	dd000517 	ldw	r20,20(sp)
 508c860:	dcc00417 	ldw	r19,16(sp)
 508c864:	dc800317 	ldw	r18,12(sp)
 508c868:	dc400217 	ldw	r17,8(sp)
 508c86c:	dc000117 	ldw	r16,4(sp)
 508c870:	dec00b04 	addi	sp,sp,44
 508c874:	f800283a 	ret
 508c878:	00800304 	movi	r2,12
 508c87c:	90800015 	stw	r2,0(r18)
 508c880:	0005883a 	mov	r2,zero
 508c884:	003ff006 	br	508c848 <_malloc_r+0x2a4>
 508c888:	01002004 	movi	r4,128
 508c88c:	02001004 	movi	r8,64
 508c890:	01c00fc4 	movi	r7,63
 508c894:	003f6106 	br	508c61c <_malloc_r+0x78>
 508c898:	4009883a 	mov	r4,r8
 508c89c:	003f7506 	br	508c674 <_malloc_r+0xd0>
 508c8a0:	81000317 	ldw	r4,12(r16)
 508c8a4:	003fde06 	br	508c820 <_malloc_r+0x27c>
 508c8a8:	81c5883a 	add	r2,r16,r7
 508c8ac:	11400117 	ldw	r5,4(r2)
 508c8b0:	9009883a 	mov	r4,r18
 508c8b4:	29400054 	ori	r5,r5,1
 508c8b8:	11400115 	stw	r5,4(r2)
 508c8bc:	50938c80 	call	50938c8 <__malloc_unlock>
 508c8c0:	80800204 	addi	r2,r16,8
 508c8c4:	003fe006 	br	508c848 <_malloc_r+0x2a4>
 508c8c8:	9c000217 	ldw	r16,8(r19)
 508c8cc:	00bfff04 	movi	r2,-4
 508c8d0:	85800117 	ldw	r22,4(r16)
 508c8d4:	b0ac703a 	and	r22,r22,r2
 508c8d8:	b4400336 	bltu	r22,r17,508c8e8 <_malloc_r+0x344>
 508c8dc:	b445c83a 	sub	r2,r22,r17
 508c8e0:	00c003c4 	movi	r3,15
 508c8e4:	18805d16 	blt	r3,r2,508ca5c <_malloc_r+0x4b8>
 508c8e8:	05c142b4 	movhi	r23,1290
 508c8ec:	008142b4 	movhi	r2,1290
 508c8f0:	10a84a04 	addi	r2,r2,-24280
 508c8f4:	bde17604 	addi	r23,r23,-31272
 508c8f8:	15400017 	ldw	r21,0(r2)
 508c8fc:	b8c00017 	ldw	r3,0(r23)
 508c900:	00bfffc4 	movi	r2,-1
 508c904:	858d883a 	add	r6,r16,r22
 508c908:	8d6b883a 	add	r21,r17,r21
 508c90c:	1880ea26 	beq	r3,r2,508ccb8 <_malloc_r+0x714>
 508c910:	ad4403c4 	addi	r21,r21,4111
 508c914:	00bc0004 	movi	r2,-4096
 508c918:	a8aa703a 	and	r21,r21,r2
 508c91c:	a80b883a 	mov	r5,r21
 508c920:	9009883a 	mov	r4,r18
 508c924:	d9800015 	stw	r6,0(sp)
 508c928:	508e5900 	call	508e590 <_sbrk_r>
 508c92c:	1029883a 	mov	r20,r2
 508c930:	00bfffc4 	movi	r2,-1
 508c934:	d9800017 	ldw	r6,0(sp)
 508c938:	a080e826 	beq	r20,r2,508ccdc <_malloc_r+0x738>
 508c93c:	a180a636 	bltu	r20,r6,508cbd8 <_malloc_r+0x634>
 508c940:	070142b4 	movhi	fp,1290
 508c944:	e7285d04 	addi	fp,fp,-24204
 508c948:	e0800017 	ldw	r2,0(fp)
 508c94c:	a887883a 	add	r3,r21,r2
 508c950:	e0c00015 	stw	r3,0(fp)
 508c954:	3500e626 	beq	r6,r20,508ccf0 <_malloc_r+0x74c>
 508c958:	b9000017 	ldw	r4,0(r23)
 508c95c:	00bfffc4 	movi	r2,-1
 508c960:	2080ee26 	beq	r4,r2,508cd1c <_malloc_r+0x778>
 508c964:	a185c83a 	sub	r2,r20,r6
 508c968:	10c5883a 	add	r2,r2,r3
 508c96c:	e0800015 	stw	r2,0(fp)
 508c970:	a0c001cc 	andi	r3,r20,7
 508c974:	1800bc26 	beq	r3,zero,508cc68 <_malloc_r+0x6c4>
 508c978:	a0e9c83a 	sub	r20,r20,r3
 508c97c:	00840204 	movi	r2,4104
 508c980:	a5000204 	addi	r20,r20,8
 508c984:	10c7c83a 	sub	r3,r2,r3
 508c988:	a545883a 	add	r2,r20,r21
 508c98c:	1083ffcc 	andi	r2,r2,4095
 508c990:	18abc83a 	sub	r21,r3,r2
 508c994:	a80b883a 	mov	r5,r21
 508c998:	9009883a 	mov	r4,r18
 508c99c:	508e5900 	call	508e590 <_sbrk_r>
 508c9a0:	00ffffc4 	movi	r3,-1
 508c9a4:	10c0e126 	beq	r2,r3,508cd2c <_malloc_r+0x788>
 508c9a8:	1505c83a 	sub	r2,r2,r20
 508c9ac:	1545883a 	add	r2,r2,r21
 508c9b0:	10800054 	ori	r2,r2,1
 508c9b4:	e0c00017 	ldw	r3,0(fp)
 508c9b8:	9d000215 	stw	r20,8(r19)
 508c9bc:	a0800115 	stw	r2,4(r20)
 508c9c0:	a8c7883a 	add	r3,r21,r3
 508c9c4:	e0c00015 	stw	r3,0(fp)
 508c9c8:	84c00e26 	beq	r16,r19,508ca04 <_malloc_r+0x460>
 508c9cc:	018003c4 	movi	r6,15
 508c9d0:	3580a72e 	bgeu	r6,r22,508cc70 <_malloc_r+0x6cc>
 508c9d4:	81400117 	ldw	r5,4(r16)
 508c9d8:	013ffe04 	movi	r4,-8
 508c9dc:	b0bffd04 	addi	r2,r22,-12
 508c9e0:	1104703a 	and	r2,r2,r4
 508c9e4:	2900004c 	andi	r4,r5,1
 508c9e8:	2088b03a 	or	r4,r4,r2
 508c9ec:	81000115 	stw	r4,4(r16)
 508c9f0:	01400144 	movi	r5,5
 508c9f4:	8089883a 	add	r4,r16,r2
 508c9f8:	21400115 	stw	r5,4(r4)
 508c9fc:	21400215 	stw	r5,8(r4)
 508ca00:	3080cd36 	bltu	r6,r2,508cd38 <_malloc_r+0x794>
 508ca04:	008142b4 	movhi	r2,1290
 508ca08:	10a84904 	addi	r2,r2,-24284
 508ca0c:	11000017 	ldw	r4,0(r2)
 508ca10:	20c0012e 	bgeu	r4,r3,508ca18 <_malloc_r+0x474>
 508ca14:	10c00015 	stw	r3,0(r2)
 508ca18:	008142b4 	movhi	r2,1290
 508ca1c:	10a84804 	addi	r2,r2,-24288
 508ca20:	11000017 	ldw	r4,0(r2)
 508ca24:	9c000217 	ldw	r16,8(r19)
 508ca28:	20c0012e 	bgeu	r4,r3,508ca30 <_malloc_r+0x48c>
 508ca2c:	10c00015 	stw	r3,0(r2)
 508ca30:	80c00117 	ldw	r3,4(r16)
 508ca34:	00bfff04 	movi	r2,-4
 508ca38:	1886703a 	and	r3,r3,r2
 508ca3c:	1c45c83a 	sub	r2,r3,r17
 508ca40:	1c400236 	bltu	r3,r17,508ca4c <_malloc_r+0x4a8>
 508ca44:	00c003c4 	movi	r3,15
 508ca48:	18800416 	blt	r3,r2,508ca5c <_malloc_r+0x4b8>
 508ca4c:	9009883a 	mov	r4,r18
 508ca50:	50938c80 	call	50938c8 <__malloc_unlock>
 508ca54:	0005883a 	mov	r2,zero
 508ca58:	003f7b06 	br	508c848 <_malloc_r+0x2a4>
 508ca5c:	88c00054 	ori	r3,r17,1
 508ca60:	80c00115 	stw	r3,4(r16)
 508ca64:	8463883a 	add	r17,r16,r17
 508ca68:	10800054 	ori	r2,r2,1
 508ca6c:	9c400215 	stw	r17,8(r19)
 508ca70:	88800115 	stw	r2,4(r17)
 508ca74:	9009883a 	mov	r4,r18
 508ca78:	50938c80 	call	50938c8 <__malloc_unlock>
 508ca7c:	80800204 	addi	r2,r16,8
 508ca80:	003f7106 	br	508c848 <_malloc_r+0x2a4>
 508ca84:	00c00504 	movi	r3,20
 508ca88:	18804a2e 	bgeu	r3,r2,508cbb4 <_malloc_r+0x610>
 508ca8c:	00c01504 	movi	r3,84
 508ca90:	18806e36 	bltu	r3,r2,508cc4c <_malloc_r+0x6a8>
 508ca94:	8804d33a 	srli	r2,r17,12
 508ca98:	12001bc4 	addi	r8,r2,111
 508ca9c:	11c01b84 	addi	r7,r2,110
 508caa0:	4209883a 	add	r4,r8,r8
 508caa4:	003edd06 	br	508c61c <_malloc_r+0x78>
 508caa8:	3804d27a 	srli	r2,r7,9
 508caac:	00c00104 	movi	r3,4
 508cab0:	1880442e 	bgeu	r3,r2,508cbc4 <_malloc_r+0x620>
 508cab4:	00c00504 	movi	r3,20
 508cab8:	18808136 	bltu	r3,r2,508ccc0 <_malloc_r+0x71c>
 508cabc:	11401704 	addi	r5,r2,92
 508cac0:	10c016c4 	addi	r3,r2,91
 508cac4:	294b883a 	add	r5,r5,r5
 508cac8:	294b883a 	add	r5,r5,r5
 508cacc:	294b883a 	add	r5,r5,r5
 508cad0:	994b883a 	add	r5,r19,r5
 508cad4:	28800017 	ldw	r2,0(r5)
 508cad8:	01814274 	movhi	r6,1289
 508cadc:	297ffe04 	addi	r5,r5,-8
 508cae0:	319bef04 	addi	r6,r6,28604
 508cae4:	28806526 	beq	r5,r2,508cc7c <_malloc_r+0x6d8>
 508cae8:	01bfff04 	movi	r6,-4
 508caec:	10c00117 	ldw	r3,4(r2)
 508caf0:	1986703a 	and	r3,r3,r6
 508caf4:	38c0022e 	bgeu	r7,r3,508cb00 <_malloc_r+0x55c>
 508caf8:	10800217 	ldw	r2,8(r2)
 508cafc:	28bffb1e 	bne	r5,r2,508caec <_malloc_r+0x548>
 508cb00:	11400317 	ldw	r5,12(r2)
 508cb04:	98c00117 	ldw	r3,4(r19)
 508cb08:	81400315 	stw	r5,12(r16)
 508cb0c:	80800215 	stw	r2,8(r16)
 508cb10:	2c000215 	stw	r16,8(r5)
 508cb14:	14000315 	stw	r16,12(r2)
 508cb18:	003ef806 	br	508c6fc <_malloc_r+0x158>
 508cb1c:	88c00054 	ori	r3,r17,1
 508cb20:	80c00115 	stw	r3,4(r16)
 508cb24:	8463883a 	add	r17,r16,r17
 508cb28:	34400515 	stw	r17,20(r6)
 508cb2c:	34400415 	stw	r17,16(r6)
 508cb30:	10c00054 	ori	r3,r2,1
 508cb34:	8a000315 	stw	r8,12(r17)
 508cb38:	8a000215 	stw	r8,8(r17)
 508cb3c:	88c00115 	stw	r3,4(r17)
 508cb40:	88a3883a 	add	r17,r17,r2
 508cb44:	88800015 	stw	r2,0(r17)
 508cb48:	9009883a 	mov	r4,r18
 508cb4c:	50938c80 	call	50938c8 <__malloc_unlock>
 508cb50:	80800204 	addi	r2,r16,8
 508cb54:	003f3c06 	br	508c848 <_malloc_r+0x2a4>
 508cb58:	30c00117 	ldw	r3,4(r6)
 508cb5c:	003ee706 	br	508c6fc <_malloc_r+0x158>
 508cb60:	5ac00044 	addi	r11,r11,1
 508cb64:	588000cc 	andi	r2,r11,3
 508cb68:	31800204 	addi	r6,r6,8
 508cb6c:	103efd1e 	bne	r2,zero,508c764 <_malloc_r+0x1c0>
 508cb70:	00002406 	br	508cc04 <_malloc_r+0x660>
 508cb74:	14000317 	ldw	r16,12(r2)
 508cb78:	143f251e 	bne	r2,r16,508c810 <_malloc_r+0x26c>
 508cb7c:	21000084 	addi	r4,r4,2
 508cb80:	003ebc06 	br	508c674 <_malloc_r+0xd0>
 508cb84:	8085883a 	add	r2,r16,r2
 508cb88:	10c00117 	ldw	r3,4(r2)
 508cb8c:	81000317 	ldw	r4,12(r16)
 508cb90:	81400217 	ldw	r5,8(r16)
 508cb94:	18c00054 	ori	r3,r3,1
 508cb98:	10c00115 	stw	r3,4(r2)
 508cb9c:	29000315 	stw	r4,12(r5)
 508cba0:	21400215 	stw	r5,8(r4)
 508cba4:	9009883a 	mov	r4,r18
 508cba8:	50938c80 	call	50938c8 <__malloc_unlock>
 508cbac:	80800204 	addi	r2,r16,8
 508cbb0:	003f2506 	br	508c848 <_malloc_r+0x2a4>
 508cbb4:	12001704 	addi	r8,r2,92
 508cbb8:	11c016c4 	addi	r7,r2,91
 508cbbc:	4209883a 	add	r4,r8,r8
 508cbc0:	003e9606 	br	508c61c <_malloc_r+0x78>
 508cbc4:	3804d1ba 	srli	r2,r7,6
 508cbc8:	11400e44 	addi	r5,r2,57
 508cbcc:	10c00e04 	addi	r3,r2,56
 508cbd0:	294b883a 	add	r5,r5,r5
 508cbd4:	003fbc06 	br	508cac8 <_malloc_r+0x524>
 508cbd8:	84ff5926 	beq	r16,r19,508c940 <_malloc_r+0x39c>
 508cbdc:	00814274 	movhi	r2,1289
 508cbe0:	109bef04 	addi	r2,r2,28604
 508cbe4:	14000217 	ldw	r16,8(r2)
 508cbe8:	00bfff04 	movi	r2,-4
 508cbec:	80c00117 	ldw	r3,4(r16)
 508cbf0:	1886703a 	and	r3,r3,r2
 508cbf4:	003f9106 	br	508ca3c <_malloc_r+0x498>
 508cbf8:	60800217 	ldw	r2,8(r12)
 508cbfc:	213fffc4 	addi	r4,r4,-1
 508cc00:	1300651e 	bne	r2,r12,508cd98 <_malloc_r+0x7f4>
 508cc04:	208000cc 	andi	r2,r4,3
 508cc08:	633ffe04 	addi	r12,r12,-8
 508cc0c:	103ffa1e 	bne	r2,zero,508cbf8 <_malloc_r+0x654>
 508cc10:	98800117 	ldw	r2,4(r19)
 508cc14:	0146303a 	nor	r3,zero,r5
 508cc18:	1884703a 	and	r2,r3,r2
 508cc1c:	98800115 	stw	r2,4(r19)
 508cc20:	294b883a 	add	r5,r5,r5
 508cc24:	117f2836 	bltu	r2,r5,508c8c8 <_malloc_r+0x324>
 508cc28:	283f2726 	beq	r5,zero,508c8c8 <_malloc_r+0x324>
 508cc2c:	2886703a 	and	r3,r5,r2
 508cc30:	5809883a 	mov	r4,r11
 508cc34:	183ec31e 	bne	r3,zero,508c744 <_malloc_r+0x1a0>
 508cc38:	294b883a 	add	r5,r5,r5
 508cc3c:	2886703a 	and	r3,r5,r2
 508cc40:	21000104 	addi	r4,r4,4
 508cc44:	183ffc26 	beq	r3,zero,508cc38 <_malloc_r+0x694>
 508cc48:	003ebe06 	br	508c744 <_malloc_r+0x1a0>
 508cc4c:	00c05504 	movi	r3,340
 508cc50:	18801236 	bltu	r3,r2,508cc9c <_malloc_r+0x6f8>
 508cc54:	8804d3fa 	srli	r2,r17,15
 508cc58:	12001e04 	addi	r8,r2,120
 508cc5c:	11c01dc4 	addi	r7,r2,119
 508cc60:	4209883a 	add	r4,r8,r8
 508cc64:	003e6d06 	br	508c61c <_malloc_r+0x78>
 508cc68:	00c40004 	movi	r3,4096
 508cc6c:	003f4606 	br	508c988 <_malloc_r+0x3e4>
 508cc70:	00800044 	movi	r2,1
 508cc74:	a0800115 	stw	r2,4(r20)
 508cc78:	003f7406 	br	508ca4c <_malloc_r+0x4a8>
 508cc7c:	1805d0ba 	srai	r2,r3,2
 508cc80:	01c00044 	movi	r7,1
 508cc84:	30c00117 	ldw	r3,4(r6)
 508cc88:	388e983a 	sll	r7,r7,r2
 508cc8c:	2805883a 	mov	r2,r5
 508cc90:	38c6b03a 	or	r3,r7,r3
 508cc94:	30c00115 	stw	r3,4(r6)
 508cc98:	003f9b06 	br	508cb08 <_malloc_r+0x564>
 508cc9c:	00c15504 	movi	r3,1364
 508cca0:	18801a36 	bltu	r3,r2,508cd0c <_malloc_r+0x768>
 508cca4:	8804d4ba 	srli	r2,r17,18
 508cca8:	12001f44 	addi	r8,r2,125
 508ccac:	11c01f04 	addi	r7,r2,124
 508ccb0:	4209883a 	add	r4,r8,r8
 508ccb4:	003e5906 	br	508c61c <_malloc_r+0x78>
 508ccb8:	ad400404 	addi	r21,r21,16
 508ccbc:	003f1706 	br	508c91c <_malloc_r+0x378>
 508ccc0:	00c01504 	movi	r3,84
 508ccc4:	18802336 	bltu	r3,r2,508cd54 <_malloc_r+0x7b0>
 508ccc8:	3804d33a 	srli	r2,r7,12
 508cccc:	11401bc4 	addi	r5,r2,111
 508ccd0:	10c01b84 	addi	r3,r2,110
 508ccd4:	294b883a 	add	r5,r5,r5
 508ccd8:	003f7b06 	br	508cac8 <_malloc_r+0x524>
 508ccdc:	9c000217 	ldw	r16,8(r19)
 508cce0:	00bfff04 	movi	r2,-4
 508cce4:	80c00117 	ldw	r3,4(r16)
 508cce8:	1886703a 	and	r3,r3,r2
 508ccec:	003f5306 	br	508ca3c <_malloc_r+0x498>
 508ccf0:	3083ffcc 	andi	r2,r6,4095
 508ccf4:	103f181e 	bne	r2,zero,508c958 <_malloc_r+0x3b4>
 508ccf8:	99000217 	ldw	r4,8(r19)
 508ccfc:	b545883a 	add	r2,r22,r21
 508cd00:	10800054 	ori	r2,r2,1
 508cd04:	20800115 	stw	r2,4(r4)
 508cd08:	003f3e06 	br	508ca04 <_malloc_r+0x460>
 508cd0c:	01003f84 	movi	r4,254
 508cd10:	02001fc4 	movi	r8,127
 508cd14:	01c01f84 	movi	r7,126
 508cd18:	003e4006 	br	508c61c <_malloc_r+0x78>
 508cd1c:	008142b4 	movhi	r2,1290
 508cd20:	10a17604 	addi	r2,r2,-31272
 508cd24:	15000015 	stw	r20,0(r2)
 508cd28:	003f1106 	br	508c970 <_malloc_r+0x3cc>
 508cd2c:	00800044 	movi	r2,1
 508cd30:	002b883a 	mov	r21,zero
 508cd34:	003f1f06 	br	508c9b4 <_malloc_r+0x410>
 508cd38:	81400204 	addi	r5,r16,8
 508cd3c:	9009883a 	mov	r4,r18
 508cd40:	508b9b80 	call	508b9b8 <_free_r>
 508cd44:	008142b4 	movhi	r2,1290
 508cd48:	10a85d04 	addi	r2,r2,-24204
 508cd4c:	10c00017 	ldw	r3,0(r2)
 508cd50:	003f2c06 	br	508ca04 <_malloc_r+0x460>
 508cd54:	00c05504 	movi	r3,340
 508cd58:	18800536 	bltu	r3,r2,508cd70 <_malloc_r+0x7cc>
 508cd5c:	3804d3fa 	srli	r2,r7,15
 508cd60:	11401e04 	addi	r5,r2,120
 508cd64:	10c01dc4 	addi	r3,r2,119
 508cd68:	294b883a 	add	r5,r5,r5
 508cd6c:	003f5606 	br	508cac8 <_malloc_r+0x524>
 508cd70:	00c15504 	movi	r3,1364
 508cd74:	18800536 	bltu	r3,r2,508cd8c <_malloc_r+0x7e8>
 508cd78:	3804d4ba 	srli	r2,r7,18
 508cd7c:	11401f44 	addi	r5,r2,125
 508cd80:	10c01f04 	addi	r3,r2,124
 508cd84:	294b883a 	add	r5,r5,r5
 508cd88:	003f4f06 	br	508cac8 <_malloc_r+0x524>
 508cd8c:	01403f84 	movi	r5,254
 508cd90:	00c01f84 	movi	r3,126
 508cd94:	003f4c06 	br	508cac8 <_malloc_r+0x524>
 508cd98:	98800117 	ldw	r2,4(r19)
 508cd9c:	003fa006 	br	508cc20 <_malloc_r+0x67c>
 508cda0:	8808d0fa 	srli	r4,r17,3
 508cda4:	20800044 	addi	r2,r4,1
 508cda8:	1085883a 	add	r2,r2,r2
 508cdac:	003e9006 	br	508c7f0 <_malloc_r+0x24c>

0508cdb0 <memchr>:
 508cdb0:	208000cc 	andi	r2,r4,3
 508cdb4:	280f883a 	mov	r7,r5
 508cdb8:	10003426 	beq	r2,zero,508ce8c <memchr+0xdc>
 508cdbc:	30bfffc4 	addi	r2,r6,-1
 508cdc0:	30001a26 	beq	r6,zero,508ce2c <memchr+0x7c>
 508cdc4:	20c00003 	ldbu	r3,0(r4)
 508cdc8:	29803fcc 	andi	r6,r5,255
 508cdcc:	30c0051e 	bne	r6,r3,508cde4 <memchr+0x34>
 508cdd0:	00001806 	br	508ce34 <memchr+0x84>
 508cdd4:	10001526 	beq	r2,zero,508ce2c <memchr+0x7c>
 508cdd8:	20c00003 	ldbu	r3,0(r4)
 508cddc:	10bfffc4 	addi	r2,r2,-1
 508cde0:	30c01426 	beq	r6,r3,508ce34 <memchr+0x84>
 508cde4:	21000044 	addi	r4,r4,1
 508cde8:	20c000cc 	andi	r3,r4,3
 508cdec:	183ff91e 	bne	r3,zero,508cdd4 <memchr+0x24>
 508cdf0:	020000c4 	movi	r8,3
 508cdf4:	40801136 	bltu	r8,r2,508ce3c <memchr+0x8c>
 508cdf8:	10000c26 	beq	r2,zero,508ce2c <memchr+0x7c>
 508cdfc:	20c00003 	ldbu	r3,0(r4)
 508ce00:	29403fcc 	andi	r5,r5,255
 508ce04:	28c00b26 	beq	r5,r3,508ce34 <memchr+0x84>
 508ce08:	20c00044 	addi	r3,r4,1
 508ce0c:	39803fcc 	andi	r6,r7,255
 508ce10:	2089883a 	add	r4,r4,r2
 508ce14:	00000306 	br	508ce24 <memchr+0x74>
 508ce18:	18c00044 	addi	r3,r3,1
 508ce1c:	197fffc3 	ldbu	r5,-1(r3)
 508ce20:	31400526 	beq	r6,r5,508ce38 <memchr+0x88>
 508ce24:	1805883a 	mov	r2,r3
 508ce28:	20fffb1e 	bne	r4,r3,508ce18 <memchr+0x68>
 508ce2c:	0005883a 	mov	r2,zero
 508ce30:	f800283a 	ret
 508ce34:	2005883a 	mov	r2,r4
 508ce38:	f800283a 	ret
 508ce3c:	28c03fcc 	andi	r3,r5,255
 508ce40:	1812923a 	slli	r9,r3,8
 508ce44:	02ffbff4 	movhi	r11,65279
 508ce48:	02a02074 	movhi	r10,32897
 508ce4c:	48d2b03a 	or	r9,r9,r3
 508ce50:	4806943a 	slli	r3,r9,16
 508ce54:	5affbfc4 	addi	r11,r11,-257
 508ce58:	52a02004 	addi	r10,r10,-32640
 508ce5c:	48d2b03a 	or	r9,r9,r3
 508ce60:	20c00017 	ldw	r3,0(r4)
 508ce64:	48c6f03a 	xor	r3,r9,r3
 508ce68:	1acd883a 	add	r6,r3,r11
 508ce6c:	00c6303a 	nor	r3,zero,r3
 508ce70:	30c6703a 	and	r3,r6,r3
 508ce74:	1a86703a 	and	r3,r3,r10
 508ce78:	183fe01e 	bne	r3,zero,508cdfc <memchr+0x4c>
 508ce7c:	10bfff04 	addi	r2,r2,-4
 508ce80:	21000104 	addi	r4,r4,4
 508ce84:	40bff636 	bltu	r8,r2,508ce60 <memchr+0xb0>
 508ce88:	003fdb06 	br	508cdf8 <memchr+0x48>
 508ce8c:	3005883a 	mov	r2,r6
 508ce90:	003fd706 	br	508cdf0 <memchr+0x40>

0508ce94 <memset>:
 508ce94:	20c000cc 	andi	r3,r4,3
 508ce98:	2005883a 	mov	r2,r4
 508ce9c:	18004426 	beq	r3,zero,508cfb0 <memset+0x11c>
 508cea0:	31ffffc4 	addi	r7,r6,-1
 508cea4:	30004026 	beq	r6,zero,508cfa8 <memset+0x114>
 508cea8:	2813883a 	mov	r9,r5
 508ceac:	200d883a 	mov	r6,r4
 508ceb0:	2007883a 	mov	r3,r4
 508ceb4:	00000406 	br	508cec8 <memset+0x34>
 508ceb8:	3a3fffc4 	addi	r8,r7,-1
 508cebc:	31800044 	addi	r6,r6,1
 508cec0:	38003926 	beq	r7,zero,508cfa8 <memset+0x114>
 508cec4:	400f883a 	mov	r7,r8
 508cec8:	18c00044 	addi	r3,r3,1
 508cecc:	32400005 	stb	r9,0(r6)
 508ced0:	1a0000cc 	andi	r8,r3,3
 508ced4:	403ff81e 	bne	r8,zero,508ceb8 <memset+0x24>
 508ced8:	010000c4 	movi	r4,3
 508cedc:	21c02d2e 	bgeu	r4,r7,508cf94 <memset+0x100>
 508cee0:	29003fcc 	andi	r4,r5,255
 508cee4:	200c923a 	slli	r6,r4,8
 508cee8:	3108b03a 	or	r4,r6,r4
 508ceec:	200c943a 	slli	r6,r4,16
 508cef0:	218cb03a 	or	r6,r4,r6
 508cef4:	010003c4 	movi	r4,15
 508cef8:	21c0182e 	bgeu	r4,r7,508cf5c <memset+0xc8>
 508cefc:	3b3ffc04 	addi	r12,r7,-16
 508cf00:	6018d13a 	srli	r12,r12,4
 508cf04:	1a000104 	addi	r8,r3,4
 508cf08:	1ac00204 	addi	r11,r3,8
 508cf0c:	6008913a 	slli	r4,r12,4
 508cf10:	1a800304 	addi	r10,r3,12
 508cf14:	1813883a 	mov	r9,r3
 508cf18:	21000504 	addi	r4,r4,20
 508cf1c:	1909883a 	add	r4,r3,r4
 508cf20:	49800015 	stw	r6,0(r9)
 508cf24:	41800015 	stw	r6,0(r8)
 508cf28:	59800015 	stw	r6,0(r11)
 508cf2c:	51800015 	stw	r6,0(r10)
 508cf30:	42000404 	addi	r8,r8,16
 508cf34:	4a400404 	addi	r9,r9,16
 508cf38:	5ac00404 	addi	r11,r11,16
 508cf3c:	52800404 	addi	r10,r10,16
 508cf40:	413ff71e 	bne	r8,r4,508cf20 <memset+0x8c>
 508cf44:	63000044 	addi	r12,r12,1
 508cf48:	6018913a 	slli	r12,r12,4
 508cf4c:	39c003cc 	andi	r7,r7,15
 508cf50:	010000c4 	movi	r4,3
 508cf54:	1b07883a 	add	r3,r3,r12
 508cf58:	21c00e2e 	bgeu	r4,r7,508cf94 <memset+0x100>
 508cf5c:	1813883a 	mov	r9,r3
 508cf60:	3811883a 	mov	r8,r7
 508cf64:	010000c4 	movi	r4,3
 508cf68:	49800015 	stw	r6,0(r9)
 508cf6c:	423fff04 	addi	r8,r8,-4
 508cf70:	4a400104 	addi	r9,r9,4
 508cf74:	223ffc36 	bltu	r4,r8,508cf68 <memset+0xd4>
 508cf78:	393fff04 	addi	r4,r7,-4
 508cf7c:	2008d0ba 	srli	r4,r4,2
 508cf80:	39c000cc 	andi	r7,r7,3
 508cf84:	21000044 	addi	r4,r4,1
 508cf88:	2109883a 	add	r4,r4,r4
 508cf8c:	2109883a 	add	r4,r4,r4
 508cf90:	1907883a 	add	r3,r3,r4
 508cf94:	38000526 	beq	r7,zero,508cfac <memset+0x118>
 508cf98:	19cf883a 	add	r7,r3,r7
 508cf9c:	19400005 	stb	r5,0(r3)
 508cfa0:	18c00044 	addi	r3,r3,1
 508cfa4:	38fffd1e 	bne	r7,r3,508cf9c <memset+0x108>
 508cfa8:	f800283a 	ret
 508cfac:	f800283a 	ret
 508cfb0:	2007883a 	mov	r3,r4
 508cfb4:	300f883a 	mov	r7,r6
 508cfb8:	003fc706 	br	508ced8 <memset+0x44>

0508cfbc <_Balloc>:
 508cfbc:	20801317 	ldw	r2,76(r4)
 508cfc0:	defffc04 	addi	sp,sp,-16
 508cfc4:	dc400115 	stw	r17,4(sp)
 508cfc8:	dc000015 	stw	r16,0(sp)
 508cfcc:	dfc00315 	stw	ra,12(sp)
 508cfd0:	dc800215 	stw	r18,8(sp)
 508cfd4:	2023883a 	mov	r17,r4
 508cfd8:	2821883a 	mov	r16,r5
 508cfdc:	10000f26 	beq	r2,zero,508d01c <_Balloc+0x60>
 508cfe0:	8407883a 	add	r3,r16,r16
 508cfe4:	18c7883a 	add	r3,r3,r3
 508cfe8:	10c7883a 	add	r3,r2,r3
 508cfec:	18800017 	ldw	r2,0(r3)
 508cff0:	10001126 	beq	r2,zero,508d038 <_Balloc+0x7c>
 508cff4:	11000017 	ldw	r4,0(r2)
 508cff8:	19000015 	stw	r4,0(r3)
 508cffc:	10000415 	stw	zero,16(r2)
 508d000:	10000315 	stw	zero,12(r2)
 508d004:	dfc00317 	ldw	ra,12(sp)
 508d008:	dc800217 	ldw	r18,8(sp)
 508d00c:	dc400117 	ldw	r17,4(sp)
 508d010:	dc000017 	ldw	r16,0(sp)
 508d014:	dec00404 	addi	sp,sp,16
 508d018:	f800283a 	ret
 508d01c:	01800844 	movi	r6,33
 508d020:	01400104 	movi	r5,4
 508d024:	50913040 	call	5091304 <_calloc_r>
 508d028:	88801315 	stw	r2,76(r17)
 508d02c:	103fec1e 	bne	r2,zero,508cfe0 <_Balloc+0x24>
 508d030:	0005883a 	mov	r2,zero
 508d034:	003ff306 	br	508d004 <_Balloc+0x48>
 508d038:	01400044 	movi	r5,1
 508d03c:	2c24983a 	sll	r18,r5,r16
 508d040:	8809883a 	mov	r4,r17
 508d044:	91800144 	addi	r6,r18,5
 508d048:	318d883a 	add	r6,r6,r6
 508d04c:	318d883a 	add	r6,r6,r6
 508d050:	50913040 	call	5091304 <_calloc_r>
 508d054:	103ff626 	beq	r2,zero,508d030 <_Balloc+0x74>
 508d058:	14000115 	stw	r16,4(r2)
 508d05c:	14800215 	stw	r18,8(r2)
 508d060:	003fe606 	br	508cffc <_Balloc+0x40>

0508d064 <_Bfree>:
 508d064:	28000826 	beq	r5,zero,508d088 <_Bfree+0x24>
 508d068:	28c00117 	ldw	r3,4(r5)
 508d06c:	20801317 	ldw	r2,76(r4)
 508d070:	18c7883a 	add	r3,r3,r3
 508d074:	18c7883a 	add	r3,r3,r3
 508d078:	10c5883a 	add	r2,r2,r3
 508d07c:	10c00017 	ldw	r3,0(r2)
 508d080:	28c00015 	stw	r3,0(r5)
 508d084:	11400015 	stw	r5,0(r2)
 508d088:	f800283a 	ret

0508d08c <__multadd>:
 508d08c:	defffa04 	addi	sp,sp,-24
 508d090:	dc800315 	stw	r18,12(sp)
 508d094:	dc400215 	stw	r17,8(sp)
 508d098:	dc000115 	stw	r16,4(sp)
 508d09c:	2823883a 	mov	r17,r5
 508d0a0:	2c000417 	ldw	r16,16(r5)
 508d0a4:	dfc00515 	stw	ra,20(sp)
 508d0a8:	dcc00415 	stw	r19,16(sp)
 508d0ac:	2025883a 	mov	r18,r4
 508d0b0:	29400504 	addi	r5,r5,20
 508d0b4:	0011883a 	mov	r8,zero
 508d0b8:	28c00017 	ldw	r3,0(r5)
 508d0bc:	29400104 	addi	r5,r5,4
 508d0c0:	42000044 	addi	r8,r8,1
 508d0c4:	18bfffcc 	andi	r2,r3,65535
 508d0c8:	1185383a 	mul	r2,r2,r6
 508d0cc:	1806d43a 	srli	r3,r3,16
 508d0d0:	11cf883a 	add	r7,r2,r7
 508d0d4:	3808d43a 	srli	r4,r7,16
 508d0d8:	1987383a 	mul	r3,r3,r6
 508d0dc:	38bfffcc 	andi	r2,r7,65535
 508d0e0:	1907883a 	add	r3,r3,r4
 508d0e4:	1808943a 	slli	r4,r3,16
 508d0e8:	180ed43a 	srli	r7,r3,16
 508d0ec:	2085883a 	add	r2,r4,r2
 508d0f0:	28bfff15 	stw	r2,-4(r5)
 508d0f4:	443ff016 	blt	r8,r16,508d0b8 <__multadd+0x2c>
 508d0f8:	38000926 	beq	r7,zero,508d120 <__multadd+0x94>
 508d0fc:	88800217 	ldw	r2,8(r17)
 508d100:	80800f0e 	bge	r16,r2,508d140 <__multadd+0xb4>
 508d104:	80800144 	addi	r2,r16,5
 508d108:	1085883a 	add	r2,r2,r2
 508d10c:	1085883a 	add	r2,r2,r2
 508d110:	8885883a 	add	r2,r17,r2
 508d114:	11c00015 	stw	r7,0(r2)
 508d118:	84000044 	addi	r16,r16,1
 508d11c:	8c000415 	stw	r16,16(r17)
 508d120:	8805883a 	mov	r2,r17
 508d124:	dfc00517 	ldw	ra,20(sp)
 508d128:	dcc00417 	ldw	r19,16(sp)
 508d12c:	dc800317 	ldw	r18,12(sp)
 508d130:	dc400217 	ldw	r17,8(sp)
 508d134:	dc000117 	ldw	r16,4(sp)
 508d138:	dec00604 	addi	sp,sp,24
 508d13c:	f800283a 	ret
 508d140:	89400117 	ldw	r5,4(r17)
 508d144:	9009883a 	mov	r4,r18
 508d148:	d9c00015 	stw	r7,0(sp)
 508d14c:	29400044 	addi	r5,r5,1
 508d150:	508cfbc0 	call	508cfbc <_Balloc>
 508d154:	89800417 	ldw	r6,16(r17)
 508d158:	89400304 	addi	r5,r17,12
 508d15c:	11000304 	addi	r4,r2,12
 508d160:	31800084 	addi	r6,r6,2
 508d164:	318d883a 	add	r6,r6,r6
 508d168:	318d883a 	add	r6,r6,r6
 508d16c:	1027883a 	mov	r19,r2
 508d170:	5084d640 	call	5084d64 <memcpy>
 508d174:	d9c00017 	ldw	r7,0(sp)
 508d178:	88000a26 	beq	r17,zero,508d1a4 <__multadd+0x118>
 508d17c:	88c00117 	ldw	r3,4(r17)
 508d180:	90801317 	ldw	r2,76(r18)
 508d184:	18c7883a 	add	r3,r3,r3
 508d188:	18c7883a 	add	r3,r3,r3
 508d18c:	10c5883a 	add	r2,r2,r3
 508d190:	10c00017 	ldw	r3,0(r2)
 508d194:	88c00015 	stw	r3,0(r17)
 508d198:	14400015 	stw	r17,0(r2)
 508d19c:	9823883a 	mov	r17,r19
 508d1a0:	003fd806 	br	508d104 <__multadd+0x78>
 508d1a4:	9823883a 	mov	r17,r19
 508d1a8:	003fd606 	br	508d104 <__multadd+0x78>

0508d1ac <__s2b>:
 508d1ac:	defff904 	addi	sp,sp,-28
 508d1b0:	dc400115 	stw	r17,4(sp)
 508d1b4:	dc000015 	stw	r16,0(sp)
 508d1b8:	2023883a 	mov	r17,r4
 508d1bc:	2821883a 	mov	r16,r5
 508d1c0:	39000204 	addi	r4,r7,8
 508d1c4:	01400244 	movi	r5,9
 508d1c8:	dcc00315 	stw	r19,12(sp)
 508d1cc:	dc800215 	stw	r18,8(sp)
 508d1d0:	dfc00615 	stw	ra,24(sp)
 508d1d4:	dd400515 	stw	r21,20(sp)
 508d1d8:	dd000415 	stw	r20,16(sp)
 508d1dc:	3825883a 	mov	r18,r7
 508d1e0:	3027883a 	mov	r19,r6
 508d1e4:	50830bc0 	call	50830bc <__divsi3>
 508d1e8:	00c00044 	movi	r3,1
 508d1ec:	000b883a 	mov	r5,zero
 508d1f0:	1880030e 	bge	r3,r2,508d200 <__s2b+0x54>
 508d1f4:	18c7883a 	add	r3,r3,r3
 508d1f8:	29400044 	addi	r5,r5,1
 508d1fc:	18bffd16 	blt	r3,r2,508d1f4 <__s2b+0x48>
 508d200:	8809883a 	mov	r4,r17
 508d204:	508cfbc0 	call	508cfbc <_Balloc>
 508d208:	d8c00717 	ldw	r3,28(sp)
 508d20c:	10c00515 	stw	r3,20(r2)
 508d210:	00c00044 	movi	r3,1
 508d214:	10c00415 	stw	r3,16(r2)
 508d218:	00c00244 	movi	r3,9
 508d21c:	1cc0210e 	bge	r3,r19,508d2a4 <__s2b+0xf8>
 508d220:	80eb883a 	add	r21,r16,r3
 508d224:	a829883a 	mov	r20,r21
 508d228:	84e1883a 	add	r16,r16,r19
 508d22c:	a1c00007 	ldb	r7,0(r20)
 508d230:	01800284 	movi	r6,10
 508d234:	a5000044 	addi	r20,r20,1
 508d238:	100b883a 	mov	r5,r2
 508d23c:	39fff404 	addi	r7,r7,-48
 508d240:	8809883a 	mov	r4,r17
 508d244:	508d08c0 	call	508d08c <__multadd>
 508d248:	a43ff81e 	bne	r20,r16,508d22c <__s2b+0x80>
 508d24c:	ace1883a 	add	r16,r21,r19
 508d250:	843ffe04 	addi	r16,r16,-8
 508d254:	9c800a0e 	bge	r19,r18,508d280 <__s2b+0xd4>
 508d258:	94e5c83a 	sub	r18,r18,r19
 508d25c:	84a5883a 	add	r18,r16,r18
 508d260:	81c00007 	ldb	r7,0(r16)
 508d264:	01800284 	movi	r6,10
 508d268:	84000044 	addi	r16,r16,1
 508d26c:	100b883a 	mov	r5,r2
 508d270:	39fff404 	addi	r7,r7,-48
 508d274:	8809883a 	mov	r4,r17
 508d278:	508d08c0 	call	508d08c <__multadd>
 508d27c:	84bff81e 	bne	r16,r18,508d260 <__s2b+0xb4>
 508d280:	dfc00617 	ldw	ra,24(sp)
 508d284:	dd400517 	ldw	r21,20(sp)
 508d288:	dd000417 	ldw	r20,16(sp)
 508d28c:	dcc00317 	ldw	r19,12(sp)
 508d290:	dc800217 	ldw	r18,8(sp)
 508d294:	dc400117 	ldw	r17,4(sp)
 508d298:	dc000017 	ldw	r16,0(sp)
 508d29c:	dec00704 	addi	sp,sp,28
 508d2a0:	f800283a 	ret
 508d2a4:	84000284 	addi	r16,r16,10
 508d2a8:	1827883a 	mov	r19,r3
 508d2ac:	003fe906 	br	508d254 <__s2b+0xa8>

0508d2b0 <__hi0bits>:
 508d2b0:	20bfffec 	andhi	r2,r4,65535
 508d2b4:	1000141e 	bne	r2,zero,508d308 <__hi0bits+0x58>
 508d2b8:	2008943a 	slli	r4,r4,16
 508d2bc:	00800404 	movi	r2,16
 508d2c0:	20ffc02c 	andhi	r3,r4,65280
 508d2c4:	1800021e 	bne	r3,zero,508d2d0 <__hi0bits+0x20>
 508d2c8:	2008923a 	slli	r4,r4,8
 508d2cc:	10800204 	addi	r2,r2,8
 508d2d0:	20fc002c 	andhi	r3,r4,61440
 508d2d4:	1800021e 	bne	r3,zero,508d2e0 <__hi0bits+0x30>
 508d2d8:	2008913a 	slli	r4,r4,4
 508d2dc:	10800104 	addi	r2,r2,4
 508d2e0:	20f0002c 	andhi	r3,r4,49152
 508d2e4:	1800031e 	bne	r3,zero,508d2f4 <__hi0bits+0x44>
 508d2e8:	2109883a 	add	r4,r4,r4
 508d2ec:	10800084 	addi	r2,r2,2
 508d2f0:	2109883a 	add	r4,r4,r4
 508d2f4:	20000316 	blt	r4,zero,508d304 <__hi0bits+0x54>
 508d2f8:	2110002c 	andhi	r4,r4,16384
 508d2fc:	2000041e 	bne	r4,zero,508d310 <__hi0bits+0x60>
 508d300:	00800804 	movi	r2,32
 508d304:	f800283a 	ret
 508d308:	0005883a 	mov	r2,zero
 508d30c:	003fec06 	br	508d2c0 <__hi0bits+0x10>
 508d310:	10800044 	addi	r2,r2,1
 508d314:	f800283a 	ret

0508d318 <__lo0bits>:
 508d318:	20c00017 	ldw	r3,0(r4)
 508d31c:	188001cc 	andi	r2,r3,7
 508d320:	10000826 	beq	r2,zero,508d344 <__lo0bits+0x2c>
 508d324:	1880004c 	andi	r2,r3,1
 508d328:	1000211e 	bne	r2,zero,508d3b0 <__lo0bits+0x98>
 508d32c:	1880008c 	andi	r2,r3,2
 508d330:	1000211e 	bne	r2,zero,508d3b8 <__lo0bits+0xa0>
 508d334:	1806d0ba 	srli	r3,r3,2
 508d338:	00800084 	movi	r2,2
 508d33c:	20c00015 	stw	r3,0(r4)
 508d340:	f800283a 	ret
 508d344:	18bfffcc 	andi	r2,r3,65535
 508d348:	10001326 	beq	r2,zero,508d398 <__lo0bits+0x80>
 508d34c:	0005883a 	mov	r2,zero
 508d350:	19403fcc 	andi	r5,r3,255
 508d354:	2800021e 	bne	r5,zero,508d360 <__lo0bits+0x48>
 508d358:	1806d23a 	srli	r3,r3,8
 508d35c:	10800204 	addi	r2,r2,8
 508d360:	194003cc 	andi	r5,r3,15
 508d364:	2800021e 	bne	r5,zero,508d370 <__lo0bits+0x58>
 508d368:	1806d13a 	srli	r3,r3,4
 508d36c:	10800104 	addi	r2,r2,4
 508d370:	194000cc 	andi	r5,r3,3
 508d374:	2800021e 	bne	r5,zero,508d380 <__lo0bits+0x68>
 508d378:	1806d0ba 	srli	r3,r3,2
 508d37c:	10800084 	addi	r2,r2,2
 508d380:	1940004c 	andi	r5,r3,1
 508d384:	2800081e 	bne	r5,zero,508d3a8 <__lo0bits+0x90>
 508d388:	1806d07a 	srli	r3,r3,1
 508d38c:	1800051e 	bne	r3,zero,508d3a4 <__lo0bits+0x8c>
 508d390:	00800804 	movi	r2,32
 508d394:	f800283a 	ret
 508d398:	1806d43a 	srli	r3,r3,16
 508d39c:	00800404 	movi	r2,16
 508d3a0:	003feb06 	br	508d350 <__lo0bits+0x38>
 508d3a4:	10800044 	addi	r2,r2,1
 508d3a8:	20c00015 	stw	r3,0(r4)
 508d3ac:	f800283a 	ret
 508d3b0:	0005883a 	mov	r2,zero
 508d3b4:	f800283a 	ret
 508d3b8:	1806d07a 	srli	r3,r3,1
 508d3bc:	00800044 	movi	r2,1
 508d3c0:	20c00015 	stw	r3,0(r4)
 508d3c4:	f800283a 	ret

0508d3c8 <__i2b>:
 508d3c8:	defffd04 	addi	sp,sp,-12
 508d3cc:	dc000015 	stw	r16,0(sp)
 508d3d0:	04000044 	movi	r16,1
 508d3d4:	dc400115 	stw	r17,4(sp)
 508d3d8:	2823883a 	mov	r17,r5
 508d3dc:	800b883a 	mov	r5,r16
 508d3e0:	dfc00215 	stw	ra,8(sp)
 508d3e4:	508cfbc0 	call	508cfbc <_Balloc>
 508d3e8:	14400515 	stw	r17,20(r2)
 508d3ec:	14000415 	stw	r16,16(r2)
 508d3f0:	dfc00217 	ldw	ra,8(sp)
 508d3f4:	dc400117 	ldw	r17,4(sp)
 508d3f8:	dc000017 	ldw	r16,0(sp)
 508d3fc:	dec00304 	addi	sp,sp,12
 508d400:	f800283a 	ret

0508d404 <__multiply>:
 508d404:	defffa04 	addi	sp,sp,-24
 508d408:	dcc00315 	stw	r19,12(sp)
 508d40c:	dc800215 	stw	r18,8(sp)
 508d410:	34c00417 	ldw	r19,16(r6)
 508d414:	2c800417 	ldw	r18,16(r5)
 508d418:	dd000415 	stw	r20,16(sp)
 508d41c:	dc400115 	stw	r17,4(sp)
 508d420:	dfc00515 	stw	ra,20(sp)
 508d424:	dc000015 	stw	r16,0(sp)
 508d428:	2829883a 	mov	r20,r5
 508d42c:	3023883a 	mov	r17,r6
 508d430:	94c0050e 	bge	r18,r19,508d448 <__multiply+0x44>
 508d434:	9007883a 	mov	r3,r18
 508d438:	3029883a 	mov	r20,r6
 508d43c:	9825883a 	mov	r18,r19
 508d440:	2823883a 	mov	r17,r5
 508d444:	1827883a 	mov	r19,r3
 508d448:	a0800217 	ldw	r2,8(r20)
 508d44c:	94e1883a 	add	r16,r18,r19
 508d450:	a1400117 	ldw	r5,4(r20)
 508d454:	1400010e 	bge	r2,r16,508d45c <__multiply+0x58>
 508d458:	29400044 	addi	r5,r5,1
 508d45c:	508cfbc0 	call	508cfbc <_Balloc>
 508d460:	8415883a 	add	r10,r16,r16
 508d464:	12c00504 	addi	r11,r2,20
 508d468:	5295883a 	add	r10,r10,r10
 508d46c:	5a95883a 	add	r10,r11,r10
 508d470:	5807883a 	mov	r3,r11
 508d474:	5a80032e 	bgeu	r11,r10,508d484 <__multiply+0x80>
 508d478:	18000015 	stw	zero,0(r3)
 508d47c:	18c00104 	addi	r3,r3,4
 508d480:	1abffd36 	bltu	r3,r10,508d478 <__multiply+0x74>
 508d484:	9ce7883a 	add	r19,r19,r19
 508d488:	94a5883a 	add	r18,r18,r18
 508d48c:	89800504 	addi	r6,r17,20
 508d490:	9ce7883a 	add	r19,r19,r19
 508d494:	a3400504 	addi	r13,r20,20
 508d498:	94a5883a 	add	r18,r18,r18
 508d49c:	34d9883a 	add	r12,r6,r19
 508d4a0:	6c93883a 	add	r9,r13,r18
 508d4a4:	3300422e 	bgeu	r6,r12,508d5b0 <__multiply+0x1ac>
 508d4a8:	37c00017 	ldw	ra,0(r6)
 508d4ac:	fbffffcc 	andi	r15,ra,65535
 508d4b0:	78001b26 	beq	r15,zero,508d520 <__multiply+0x11c>
 508d4b4:	5811883a 	mov	r8,r11
 508d4b8:	681d883a 	mov	r14,r13
 508d4bc:	000f883a 	mov	r7,zero
 508d4c0:	71000017 	ldw	r4,0(r14)
 508d4c4:	40c00017 	ldw	r3,0(r8)
 508d4c8:	73800104 	addi	r14,r14,4
 508d4cc:	217fffcc 	andi	r5,r4,65535
 508d4d0:	2bcb383a 	mul	r5,r5,r15
 508d4d4:	2008d43a 	srli	r4,r4,16
 508d4d8:	1c7fffcc 	andi	r17,r3,65535
 508d4dc:	2c4b883a 	add	r5,r5,r17
 508d4e0:	29cb883a 	add	r5,r5,r7
 508d4e4:	23c9383a 	mul	r4,r4,r15
 508d4e8:	1806d43a 	srli	r3,r3,16
 508d4ec:	280ed43a 	srli	r7,r5,16
 508d4f0:	297fffcc 	andi	r5,r5,65535
 508d4f4:	20c7883a 	add	r3,r4,r3
 508d4f8:	19c7883a 	add	r3,r3,r7
 508d4fc:	1808943a 	slli	r4,r3,16
 508d500:	4023883a 	mov	r17,r8
 508d504:	180ed43a 	srli	r7,r3,16
 508d508:	214ab03a 	or	r5,r4,r5
 508d50c:	41400015 	stw	r5,0(r8)
 508d510:	42000104 	addi	r8,r8,4
 508d514:	727fea36 	bltu	r14,r9,508d4c0 <__multiply+0xbc>
 508d518:	89c00115 	stw	r7,4(r17)
 508d51c:	37c00017 	ldw	ra,0(r6)
 508d520:	f83ed43a 	srli	ra,ra,16
 508d524:	f8001f26 	beq	ra,zero,508d5a4 <__multiply+0x1a0>
 508d528:	58c00017 	ldw	r3,0(r11)
 508d52c:	681d883a 	mov	r14,r13
 508d530:	581f883a 	mov	r15,r11
 508d534:	1811883a 	mov	r8,r3
 508d538:	5825883a 	mov	r18,r11
 508d53c:	000f883a 	mov	r7,zero
 508d540:	00000106 	br	508d548 <__multiply+0x144>
 508d544:	8825883a 	mov	r18,r17
 508d548:	7140000b 	ldhu	r5,0(r14)
 508d54c:	4010d43a 	srli	r8,r8,16
 508d550:	193fffcc 	andi	r4,r3,65535
 508d554:	2fcb383a 	mul	r5,r5,ra
 508d558:	7bc00104 	addi	r15,r15,4
 508d55c:	73800104 	addi	r14,r14,4
 508d560:	2a0b883a 	add	r5,r5,r8
 508d564:	29cb883a 	add	r5,r5,r7
 508d568:	2806943a 	slli	r3,r5,16
 508d56c:	94400104 	addi	r17,r18,4
 508d570:	280ad43a 	srli	r5,r5,16
 508d574:	1908b03a 	or	r4,r3,r4
 508d578:	793fff15 	stw	r4,-4(r15)
 508d57c:	70ffff17 	ldw	r3,-4(r14)
 508d580:	8a000017 	ldw	r8,0(r17)
 508d584:	1806d43a 	srli	r3,r3,16
 508d588:	413fffcc 	andi	r4,r8,65535
 508d58c:	1fc7383a 	mul	r3,r3,ra
 508d590:	1907883a 	add	r3,r3,r4
 508d594:	1947883a 	add	r3,r3,r5
 508d598:	180ed43a 	srli	r7,r3,16
 508d59c:	727fe936 	bltu	r14,r9,508d544 <__multiply+0x140>
 508d5a0:	90c00115 	stw	r3,4(r18)
 508d5a4:	31800104 	addi	r6,r6,4
 508d5a8:	5ac00104 	addi	r11,r11,4
 508d5ac:	333fbe36 	bltu	r6,r12,508d4a8 <__multiply+0xa4>
 508d5b0:	0400090e 	bge	zero,r16,508d5d8 <__multiply+0x1d4>
 508d5b4:	50ffff17 	ldw	r3,-4(r10)
 508d5b8:	52bfff04 	addi	r10,r10,-4
 508d5bc:	18000326 	beq	r3,zero,508d5cc <__multiply+0x1c8>
 508d5c0:	00000506 	br	508d5d8 <__multiply+0x1d4>
 508d5c4:	50c00017 	ldw	r3,0(r10)
 508d5c8:	1800031e 	bne	r3,zero,508d5d8 <__multiply+0x1d4>
 508d5cc:	843fffc4 	addi	r16,r16,-1
 508d5d0:	52bfff04 	addi	r10,r10,-4
 508d5d4:	803ffb1e 	bne	r16,zero,508d5c4 <__multiply+0x1c0>
 508d5d8:	14000415 	stw	r16,16(r2)
 508d5dc:	dfc00517 	ldw	ra,20(sp)
 508d5e0:	dd000417 	ldw	r20,16(sp)
 508d5e4:	dcc00317 	ldw	r19,12(sp)
 508d5e8:	dc800217 	ldw	r18,8(sp)
 508d5ec:	dc400117 	ldw	r17,4(sp)
 508d5f0:	dc000017 	ldw	r16,0(sp)
 508d5f4:	dec00604 	addi	sp,sp,24
 508d5f8:	f800283a 	ret

0508d5fc <__pow5mult>:
 508d5fc:	defffa04 	addi	sp,sp,-24
 508d600:	dcc00315 	stw	r19,12(sp)
 508d604:	dc000015 	stw	r16,0(sp)
 508d608:	dfc00515 	stw	ra,20(sp)
 508d60c:	dd000415 	stw	r20,16(sp)
 508d610:	dc800215 	stw	r18,8(sp)
 508d614:	dc400115 	stw	r17,4(sp)
 508d618:	308000cc 	andi	r2,r6,3
 508d61c:	3021883a 	mov	r16,r6
 508d620:	2027883a 	mov	r19,r4
 508d624:	10002f1e 	bne	r2,zero,508d6e4 <__pow5mult+0xe8>
 508d628:	2825883a 	mov	r18,r5
 508d62c:	8021d0ba 	srai	r16,r16,2
 508d630:	80001a26 	beq	r16,zero,508d69c <__pow5mult+0xa0>
 508d634:	9c401217 	ldw	r17,72(r19)
 508d638:	8800061e 	bne	r17,zero,508d654 <__pow5mult+0x58>
 508d63c:	00003406 	br	508d710 <__pow5mult+0x114>
 508d640:	8021d07a 	srai	r16,r16,1
 508d644:	80001526 	beq	r16,zero,508d69c <__pow5mult+0xa0>
 508d648:	88800017 	ldw	r2,0(r17)
 508d64c:	10001c26 	beq	r2,zero,508d6c0 <__pow5mult+0xc4>
 508d650:	1023883a 	mov	r17,r2
 508d654:	8080004c 	andi	r2,r16,1
 508d658:	103ff926 	beq	r2,zero,508d640 <__pow5mult+0x44>
 508d65c:	880d883a 	mov	r6,r17
 508d660:	900b883a 	mov	r5,r18
 508d664:	9809883a 	mov	r4,r19
 508d668:	508d4040 	call	508d404 <__multiply>
 508d66c:	90001b26 	beq	r18,zero,508d6dc <__pow5mult+0xe0>
 508d670:	91000117 	ldw	r4,4(r18)
 508d674:	98c01317 	ldw	r3,76(r19)
 508d678:	8021d07a 	srai	r16,r16,1
 508d67c:	2109883a 	add	r4,r4,r4
 508d680:	2109883a 	add	r4,r4,r4
 508d684:	1907883a 	add	r3,r3,r4
 508d688:	19000017 	ldw	r4,0(r3)
 508d68c:	91000015 	stw	r4,0(r18)
 508d690:	1c800015 	stw	r18,0(r3)
 508d694:	1025883a 	mov	r18,r2
 508d698:	803feb1e 	bne	r16,zero,508d648 <__pow5mult+0x4c>
 508d69c:	9005883a 	mov	r2,r18
 508d6a0:	dfc00517 	ldw	ra,20(sp)
 508d6a4:	dd000417 	ldw	r20,16(sp)
 508d6a8:	dcc00317 	ldw	r19,12(sp)
 508d6ac:	dc800217 	ldw	r18,8(sp)
 508d6b0:	dc400117 	ldw	r17,4(sp)
 508d6b4:	dc000017 	ldw	r16,0(sp)
 508d6b8:	dec00604 	addi	sp,sp,24
 508d6bc:	f800283a 	ret
 508d6c0:	880d883a 	mov	r6,r17
 508d6c4:	880b883a 	mov	r5,r17
 508d6c8:	9809883a 	mov	r4,r19
 508d6cc:	508d4040 	call	508d404 <__multiply>
 508d6d0:	88800015 	stw	r2,0(r17)
 508d6d4:	10000015 	stw	zero,0(r2)
 508d6d8:	003fdd06 	br	508d650 <__pow5mult+0x54>
 508d6dc:	1025883a 	mov	r18,r2
 508d6e0:	003fd706 	br	508d640 <__pow5mult+0x44>
 508d6e4:	10bfffc4 	addi	r2,r2,-1
 508d6e8:	1085883a 	add	r2,r2,r2
 508d6ec:	00c14274 	movhi	r3,1289
 508d6f0:	18da6004 	addi	r3,r3,27008
 508d6f4:	1085883a 	add	r2,r2,r2
 508d6f8:	1885883a 	add	r2,r3,r2
 508d6fc:	11800017 	ldw	r6,0(r2)
 508d700:	000f883a 	mov	r7,zero
 508d704:	508d08c0 	call	508d08c <__multadd>
 508d708:	1025883a 	mov	r18,r2
 508d70c:	003fc706 	br	508d62c <__pow5mult+0x30>
 508d710:	05000044 	movi	r20,1
 508d714:	a00b883a 	mov	r5,r20
 508d718:	9809883a 	mov	r4,r19
 508d71c:	508cfbc0 	call	508cfbc <_Balloc>
 508d720:	1023883a 	mov	r17,r2
 508d724:	00809c44 	movi	r2,625
 508d728:	88800515 	stw	r2,20(r17)
 508d72c:	8d000415 	stw	r20,16(r17)
 508d730:	9c401215 	stw	r17,72(r19)
 508d734:	88000015 	stw	zero,0(r17)
 508d738:	003fc606 	br	508d654 <__pow5mult+0x58>

0508d73c <__lshift>:
 508d73c:	defff904 	addi	sp,sp,-28
 508d740:	dd400515 	stw	r21,20(sp)
 508d744:	dcc00315 	stw	r19,12(sp)
 508d748:	302bd17a 	srai	r21,r6,5
 508d74c:	2cc00417 	ldw	r19,16(r5)
 508d750:	28800217 	ldw	r2,8(r5)
 508d754:	dd000415 	stw	r20,16(sp)
 508d758:	ace7883a 	add	r19,r21,r19
 508d75c:	dc800215 	stw	r18,8(sp)
 508d760:	dc400115 	stw	r17,4(sp)
 508d764:	dc000015 	stw	r16,0(sp)
 508d768:	dfc00615 	stw	ra,24(sp)
 508d76c:	9c000044 	addi	r16,r19,1
 508d770:	2823883a 	mov	r17,r5
 508d774:	3029883a 	mov	r20,r6
 508d778:	2025883a 	mov	r18,r4
 508d77c:	29400117 	ldw	r5,4(r5)
 508d780:	1400030e 	bge	r2,r16,508d790 <__lshift+0x54>
 508d784:	1085883a 	add	r2,r2,r2
 508d788:	29400044 	addi	r5,r5,1
 508d78c:	143ffd16 	blt	r2,r16,508d784 <__lshift+0x48>
 508d790:	9009883a 	mov	r4,r18
 508d794:	508cfbc0 	call	508cfbc <_Balloc>
 508d798:	10c00504 	addi	r3,r2,20
 508d79c:	0540070e 	bge	zero,r21,508d7bc <__lshift+0x80>
 508d7a0:	ad6b883a 	add	r21,r21,r21
 508d7a4:	ad6b883a 	add	r21,r21,r21
 508d7a8:	1809883a 	mov	r4,r3
 508d7ac:	1d47883a 	add	r3,r3,r21
 508d7b0:	20000015 	stw	zero,0(r4)
 508d7b4:	21000104 	addi	r4,r4,4
 508d7b8:	193ffd1e 	bne	r3,r4,508d7b0 <__lshift+0x74>
 508d7bc:	8a000417 	ldw	r8,16(r17)
 508d7c0:	89000504 	addi	r4,r17,20
 508d7c4:	a18007cc 	andi	r6,r20,31
 508d7c8:	4211883a 	add	r8,r8,r8
 508d7cc:	4211883a 	add	r8,r8,r8
 508d7d0:	2211883a 	add	r8,r4,r8
 508d7d4:	30002326 	beq	r6,zero,508d864 <__lshift+0x128>
 508d7d8:	02400804 	movi	r9,32
 508d7dc:	4993c83a 	sub	r9,r9,r6
 508d7e0:	000b883a 	mov	r5,zero
 508d7e4:	21c00017 	ldw	r7,0(r4)
 508d7e8:	1815883a 	mov	r10,r3
 508d7ec:	18c00104 	addi	r3,r3,4
 508d7f0:	398e983a 	sll	r7,r7,r6
 508d7f4:	21000104 	addi	r4,r4,4
 508d7f8:	394ab03a 	or	r5,r7,r5
 508d7fc:	197fff15 	stw	r5,-4(r3)
 508d800:	217fff17 	ldw	r5,-4(r4)
 508d804:	2a4ad83a 	srl	r5,r5,r9
 508d808:	223ff636 	bltu	r4,r8,508d7e4 <__lshift+0xa8>
 508d80c:	51400115 	stw	r5,4(r10)
 508d810:	28001a1e 	bne	r5,zero,508d87c <__lshift+0x140>
 508d814:	843fffc4 	addi	r16,r16,-1
 508d818:	14000415 	stw	r16,16(r2)
 508d81c:	88000826 	beq	r17,zero,508d840 <__lshift+0x104>
 508d820:	89000117 	ldw	r4,4(r17)
 508d824:	90c01317 	ldw	r3,76(r18)
 508d828:	2109883a 	add	r4,r4,r4
 508d82c:	2109883a 	add	r4,r4,r4
 508d830:	1907883a 	add	r3,r3,r4
 508d834:	19000017 	ldw	r4,0(r3)
 508d838:	89000015 	stw	r4,0(r17)
 508d83c:	1c400015 	stw	r17,0(r3)
 508d840:	dfc00617 	ldw	ra,24(sp)
 508d844:	dd400517 	ldw	r21,20(sp)
 508d848:	dd000417 	ldw	r20,16(sp)
 508d84c:	dcc00317 	ldw	r19,12(sp)
 508d850:	dc800217 	ldw	r18,8(sp)
 508d854:	dc400117 	ldw	r17,4(sp)
 508d858:	dc000017 	ldw	r16,0(sp)
 508d85c:	dec00704 	addi	sp,sp,28
 508d860:	f800283a 	ret
 508d864:	21400017 	ldw	r5,0(r4)
 508d868:	18c00104 	addi	r3,r3,4
 508d86c:	21000104 	addi	r4,r4,4
 508d870:	197fff15 	stw	r5,-4(r3)
 508d874:	223ffb36 	bltu	r4,r8,508d864 <__lshift+0x128>
 508d878:	003fe606 	br	508d814 <__lshift+0xd8>
 508d87c:	9c000084 	addi	r16,r19,2
 508d880:	003fe406 	br	508d814 <__lshift+0xd8>

0508d884 <__mcmp>:
 508d884:	20800417 	ldw	r2,16(r4)
 508d888:	28c00417 	ldw	r3,16(r5)
 508d88c:	10c5c83a 	sub	r2,r2,r3
 508d890:	1000111e 	bne	r2,zero,508d8d8 <__mcmp+0x54>
 508d894:	18c7883a 	add	r3,r3,r3
 508d898:	18c7883a 	add	r3,r3,r3
 508d89c:	21000504 	addi	r4,r4,20
 508d8a0:	29400504 	addi	r5,r5,20
 508d8a4:	20c5883a 	add	r2,r4,r3
 508d8a8:	28cb883a 	add	r5,r5,r3
 508d8ac:	00000106 	br	508d8b4 <__mcmp+0x30>
 508d8b0:	20800a2e 	bgeu	r4,r2,508d8dc <__mcmp+0x58>
 508d8b4:	10bfff04 	addi	r2,r2,-4
 508d8b8:	297fff04 	addi	r5,r5,-4
 508d8bc:	11800017 	ldw	r6,0(r2)
 508d8c0:	28c00017 	ldw	r3,0(r5)
 508d8c4:	30fffa26 	beq	r6,r3,508d8b0 <__mcmp+0x2c>
 508d8c8:	30c00236 	bltu	r6,r3,508d8d4 <__mcmp+0x50>
 508d8cc:	00800044 	movi	r2,1
 508d8d0:	f800283a 	ret
 508d8d4:	00bfffc4 	movi	r2,-1
 508d8d8:	f800283a 	ret
 508d8dc:	0005883a 	mov	r2,zero
 508d8e0:	f800283a 	ret

0508d8e4 <__mdiff>:
 508d8e4:	28c00417 	ldw	r3,16(r5)
 508d8e8:	30800417 	ldw	r2,16(r6)
 508d8ec:	defffa04 	addi	sp,sp,-24
 508d8f0:	dcc00315 	stw	r19,12(sp)
 508d8f4:	dc800215 	stw	r18,8(sp)
 508d8f8:	dfc00515 	stw	ra,20(sp)
 508d8fc:	dd000415 	stw	r20,16(sp)
 508d900:	dc400115 	stw	r17,4(sp)
 508d904:	dc000015 	stw	r16,0(sp)
 508d908:	1887c83a 	sub	r3,r3,r2
 508d90c:	2825883a 	mov	r18,r5
 508d910:	3027883a 	mov	r19,r6
 508d914:	1800141e 	bne	r3,zero,508d968 <__mdiff+0x84>
 508d918:	1085883a 	add	r2,r2,r2
 508d91c:	1085883a 	add	r2,r2,r2
 508d920:	2a000504 	addi	r8,r5,20
 508d924:	34000504 	addi	r16,r6,20
 508d928:	4087883a 	add	r3,r8,r2
 508d92c:	8085883a 	add	r2,r16,r2
 508d930:	00000106 	br	508d938 <__mdiff+0x54>
 508d934:	40c0592e 	bgeu	r8,r3,508da9c <__mdiff+0x1b8>
 508d938:	18ffff04 	addi	r3,r3,-4
 508d93c:	10bfff04 	addi	r2,r2,-4
 508d940:	19c00017 	ldw	r7,0(r3)
 508d944:	11400017 	ldw	r5,0(r2)
 508d948:	397ffa26 	beq	r7,r5,508d934 <__mdiff+0x50>
 508d94c:	3940592e 	bgeu	r7,r5,508dab4 <__mdiff+0x1d0>
 508d950:	9005883a 	mov	r2,r18
 508d954:	4023883a 	mov	r17,r8
 508d958:	9825883a 	mov	r18,r19
 508d95c:	05000044 	movi	r20,1
 508d960:	1027883a 	mov	r19,r2
 508d964:	00000406 	br	508d978 <__mdiff+0x94>
 508d968:	18005616 	blt	r3,zero,508dac4 <__mdiff+0x1e0>
 508d96c:	34400504 	addi	r17,r6,20
 508d970:	2c000504 	addi	r16,r5,20
 508d974:	0029883a 	mov	r20,zero
 508d978:	91400117 	ldw	r5,4(r18)
 508d97c:	508cfbc0 	call	508cfbc <_Balloc>
 508d980:	92400417 	ldw	r9,16(r18)
 508d984:	9b000417 	ldw	r12,16(r19)
 508d988:	12c00504 	addi	r11,r2,20
 508d98c:	4a51883a 	add	r8,r9,r9
 508d990:	6319883a 	add	r12,r12,r12
 508d994:	4211883a 	add	r8,r8,r8
 508d998:	6319883a 	add	r12,r12,r12
 508d99c:	15000315 	stw	r20,12(r2)
 508d9a0:	8211883a 	add	r8,r16,r8
 508d9a4:	8b19883a 	add	r12,r17,r12
 508d9a8:	0007883a 	mov	r3,zero
 508d9ac:	81400017 	ldw	r5,0(r16)
 508d9b0:	89c00017 	ldw	r7,0(r17)
 508d9b4:	59800104 	addi	r6,r11,4
 508d9b8:	293fffcc 	andi	r4,r5,65535
 508d9bc:	20c7883a 	add	r3,r4,r3
 508d9c0:	393fffcc 	andi	r4,r7,65535
 508d9c4:	1909c83a 	sub	r4,r3,r4
 508d9c8:	280ad43a 	srli	r5,r5,16
 508d9cc:	380ed43a 	srli	r7,r7,16
 508d9d0:	2007d43a 	srai	r3,r4,16
 508d9d4:	213fffcc 	andi	r4,r4,65535
 508d9d8:	29cbc83a 	sub	r5,r5,r7
 508d9dc:	28c7883a 	add	r3,r5,r3
 508d9e0:	180a943a 	slli	r5,r3,16
 508d9e4:	8c400104 	addi	r17,r17,4
 508d9e8:	84000104 	addi	r16,r16,4
 508d9ec:	2908b03a 	or	r4,r5,r4
 508d9f0:	59000015 	stw	r4,0(r11)
 508d9f4:	1807d43a 	srai	r3,r3,16
 508d9f8:	3015883a 	mov	r10,r6
 508d9fc:	3017883a 	mov	r11,r6
 508da00:	8b3fea36 	bltu	r17,r12,508d9ac <__mdiff+0xc8>
 508da04:	8200162e 	bgeu	r16,r8,508da60 <__mdiff+0x17c>
 508da08:	8017883a 	mov	r11,r16
 508da0c:	59400017 	ldw	r5,0(r11)
 508da10:	31800104 	addi	r6,r6,4
 508da14:	5ac00104 	addi	r11,r11,4
 508da18:	293fffcc 	andi	r4,r5,65535
 508da1c:	20c7883a 	add	r3,r4,r3
 508da20:	280ed43a 	srli	r7,r5,16
 508da24:	180bd43a 	srai	r5,r3,16
 508da28:	193fffcc 	andi	r4,r3,65535
 508da2c:	3947883a 	add	r3,r7,r5
 508da30:	180a943a 	slli	r5,r3,16
 508da34:	1807d43a 	srai	r3,r3,16
 508da38:	2908b03a 	or	r4,r5,r4
 508da3c:	313fff15 	stw	r4,-4(r6)
 508da40:	5a3ff236 	bltu	r11,r8,508da0c <__mdiff+0x128>
 508da44:	0406303a 	nor	r3,zero,r16
 508da48:	1a07883a 	add	r3,r3,r8
 508da4c:	1806d0ba 	srli	r3,r3,2
 508da50:	18c00044 	addi	r3,r3,1
 508da54:	18c7883a 	add	r3,r3,r3
 508da58:	18c7883a 	add	r3,r3,r3
 508da5c:	50d5883a 	add	r10,r10,r3
 508da60:	50ffff04 	addi	r3,r10,-4
 508da64:	2000041e 	bne	r4,zero,508da78 <__mdiff+0x194>
 508da68:	18ffff04 	addi	r3,r3,-4
 508da6c:	19000017 	ldw	r4,0(r3)
 508da70:	4a7fffc4 	addi	r9,r9,-1
 508da74:	203ffc26 	beq	r4,zero,508da68 <__mdiff+0x184>
 508da78:	12400415 	stw	r9,16(r2)
 508da7c:	dfc00517 	ldw	ra,20(sp)
 508da80:	dd000417 	ldw	r20,16(sp)
 508da84:	dcc00317 	ldw	r19,12(sp)
 508da88:	dc800217 	ldw	r18,8(sp)
 508da8c:	dc400117 	ldw	r17,4(sp)
 508da90:	dc000017 	ldw	r16,0(sp)
 508da94:	dec00604 	addi	sp,sp,24
 508da98:	f800283a 	ret
 508da9c:	000b883a 	mov	r5,zero
 508daa0:	508cfbc0 	call	508cfbc <_Balloc>
 508daa4:	00c00044 	movi	r3,1
 508daa8:	10c00415 	stw	r3,16(r2)
 508daac:	10000515 	stw	zero,20(r2)
 508dab0:	003ff206 	br	508da7c <__mdiff+0x198>
 508dab4:	8023883a 	mov	r17,r16
 508dab8:	0029883a 	mov	r20,zero
 508dabc:	4021883a 	mov	r16,r8
 508dac0:	003fad06 	br	508d978 <__mdiff+0x94>
 508dac4:	9005883a 	mov	r2,r18
 508dac8:	94400504 	addi	r17,r18,20
 508dacc:	9c000504 	addi	r16,r19,20
 508dad0:	9825883a 	mov	r18,r19
 508dad4:	05000044 	movi	r20,1
 508dad8:	1027883a 	mov	r19,r2
 508dadc:	003fa606 	br	508d978 <__mdiff+0x94>

0508dae0 <__ulp>:
 508dae0:	295ffc2c 	andhi	r5,r5,32752
 508dae4:	00bf3034 	movhi	r2,64704
 508dae8:	2887883a 	add	r3,r5,r2
 508daec:	00c0020e 	bge	zero,r3,508daf8 <__ulp+0x18>
 508daf0:	0005883a 	mov	r2,zero
 508daf4:	f800283a 	ret
 508daf8:	00c7c83a 	sub	r3,zero,r3
 508dafc:	1807d53a 	srai	r3,r3,20
 508db00:	008004c4 	movi	r2,19
 508db04:	10c00b0e 	bge	r2,r3,508db34 <__ulp+0x54>
 508db08:	18bffb04 	addi	r2,r3,-20
 508db0c:	01000784 	movi	r4,30
 508db10:	0007883a 	mov	r3,zero
 508db14:	20800516 	blt	r4,r2,508db2c <__ulp+0x4c>
 508db18:	010007c4 	movi	r4,31
 508db1c:	2089c83a 	sub	r4,r4,r2
 508db20:	00800044 	movi	r2,1
 508db24:	1104983a 	sll	r2,r2,r4
 508db28:	f800283a 	ret
 508db2c:	00800044 	movi	r2,1
 508db30:	f800283a 	ret
 508db34:	01400234 	movhi	r5,8
 508db38:	28c7d83a 	sra	r3,r5,r3
 508db3c:	0005883a 	mov	r2,zero
 508db40:	f800283a 	ret

0508db44 <__b2d>:
 508db44:	defffa04 	addi	sp,sp,-24
 508db48:	dc000015 	stw	r16,0(sp)
 508db4c:	24000417 	ldw	r16,16(r4)
 508db50:	dc400115 	stw	r17,4(sp)
 508db54:	24400504 	addi	r17,r4,20
 508db58:	8421883a 	add	r16,r16,r16
 508db5c:	8421883a 	add	r16,r16,r16
 508db60:	8c21883a 	add	r16,r17,r16
 508db64:	dc800215 	stw	r18,8(sp)
 508db68:	84bfff17 	ldw	r18,-4(r16)
 508db6c:	dd000415 	stw	r20,16(sp)
 508db70:	dcc00315 	stw	r19,12(sp)
 508db74:	9009883a 	mov	r4,r18
 508db78:	2829883a 	mov	r20,r5
 508db7c:	dfc00515 	stw	ra,20(sp)
 508db80:	508d2b00 	call	508d2b0 <__hi0bits>
 508db84:	00c00804 	movi	r3,32
 508db88:	1889c83a 	sub	r4,r3,r2
 508db8c:	a1000015 	stw	r4,0(r20)
 508db90:	01000284 	movi	r4,10
 508db94:	84ffff04 	addi	r19,r16,-4
 508db98:	20801216 	blt	r4,r2,508dbe4 <__b2d+0xa0>
 508db9c:	018002c4 	movi	r6,11
 508dba0:	308dc83a 	sub	r6,r6,r2
 508dba4:	9186d83a 	srl	r3,r18,r6
 508dba8:	18cffc34 	orhi	r3,r3,16368
 508dbac:	8cc0212e 	bgeu	r17,r19,508dc34 <__b2d+0xf0>
 508dbb0:	813ffe17 	ldw	r4,-8(r16)
 508dbb4:	218cd83a 	srl	r6,r4,r6
 508dbb8:	10800544 	addi	r2,r2,21
 508dbbc:	9084983a 	sll	r2,r18,r2
 508dbc0:	1184b03a 	or	r2,r2,r6
 508dbc4:	dfc00517 	ldw	ra,20(sp)
 508dbc8:	dd000417 	ldw	r20,16(sp)
 508dbcc:	dcc00317 	ldw	r19,12(sp)
 508dbd0:	dc800217 	ldw	r18,8(sp)
 508dbd4:	dc400117 	ldw	r17,4(sp)
 508dbd8:	dc000017 	ldw	r16,0(sp)
 508dbdc:	dec00604 	addi	sp,sp,24
 508dbe0:	f800283a 	ret
 508dbe4:	8cc00f2e 	bgeu	r17,r19,508dc24 <__b2d+0xe0>
 508dbe8:	117ffd44 	addi	r5,r2,-11
 508dbec:	80bffe17 	ldw	r2,-8(r16)
 508dbf0:	28000e26 	beq	r5,zero,508dc2c <__b2d+0xe8>
 508dbf4:	1949c83a 	sub	r4,r3,r5
 508dbf8:	9164983a 	sll	r18,r18,r5
 508dbfc:	1106d83a 	srl	r3,r2,r4
 508dc00:	81bffe04 	addi	r6,r16,-8
 508dc04:	948ffc34 	orhi	r18,r18,16368
 508dc08:	90c6b03a 	or	r3,r18,r3
 508dc0c:	89800e2e 	bgeu	r17,r6,508dc48 <__b2d+0x104>
 508dc10:	81bffd17 	ldw	r6,-12(r16)
 508dc14:	1144983a 	sll	r2,r2,r5
 508dc18:	310ad83a 	srl	r5,r6,r4
 508dc1c:	2884b03a 	or	r2,r5,r2
 508dc20:	003fe806 	br	508dbc4 <__b2d+0x80>
 508dc24:	10bffd44 	addi	r2,r2,-11
 508dc28:	1000041e 	bne	r2,zero,508dc3c <__b2d+0xf8>
 508dc2c:	90cffc34 	orhi	r3,r18,16368
 508dc30:	003fe406 	br	508dbc4 <__b2d+0x80>
 508dc34:	000d883a 	mov	r6,zero
 508dc38:	003fdf06 	br	508dbb8 <__b2d+0x74>
 508dc3c:	90a4983a 	sll	r18,r18,r2
 508dc40:	0005883a 	mov	r2,zero
 508dc44:	003ff906 	br	508dc2c <__b2d+0xe8>
 508dc48:	1144983a 	sll	r2,r2,r5
 508dc4c:	003fdd06 	br	508dbc4 <__b2d+0x80>

0508dc50 <__d2b>:
 508dc50:	defff804 	addi	sp,sp,-32
 508dc54:	dc000215 	stw	r16,8(sp)
 508dc58:	3021883a 	mov	r16,r6
 508dc5c:	dc400315 	stw	r17,12(sp)
 508dc60:	8022907a 	slli	r17,r16,1
 508dc64:	dd000615 	stw	r20,24(sp)
 508dc68:	2829883a 	mov	r20,r5
 508dc6c:	01400044 	movi	r5,1
 508dc70:	dcc00515 	stw	r19,20(sp)
 508dc74:	dc800415 	stw	r18,16(sp)
 508dc78:	dfc00715 	stw	ra,28(sp)
 508dc7c:	3825883a 	mov	r18,r7
 508dc80:	8822d57a 	srli	r17,r17,21
 508dc84:	508cfbc0 	call	508cfbc <_Balloc>
 508dc88:	1027883a 	mov	r19,r2
 508dc8c:	00800434 	movhi	r2,16
 508dc90:	10bfffc4 	addi	r2,r2,-1
 508dc94:	808c703a 	and	r6,r16,r2
 508dc98:	88000126 	beq	r17,zero,508dca0 <__d2b+0x50>
 508dc9c:	31800434 	orhi	r6,r6,16
 508dca0:	d9800015 	stw	r6,0(sp)
 508dca4:	a0002426 	beq	r20,zero,508dd38 <__d2b+0xe8>
 508dca8:	d9000104 	addi	r4,sp,4
 508dcac:	dd000115 	stw	r20,4(sp)
 508dcb0:	508d3180 	call	508d318 <__lo0bits>
 508dcb4:	d8c00017 	ldw	r3,0(sp)
 508dcb8:	10002f1e 	bne	r2,zero,508dd78 <__d2b+0x128>
 508dcbc:	d9000117 	ldw	r4,4(sp)
 508dcc0:	99000515 	stw	r4,20(r19)
 508dcc4:	1821003a 	cmpeq	r16,r3,zero
 508dcc8:	01000084 	movi	r4,2
 508dccc:	2421c83a 	sub	r16,r4,r16
 508dcd0:	98c00615 	stw	r3,24(r19)
 508dcd4:	9c000415 	stw	r16,16(r19)
 508dcd8:	88001f1e 	bne	r17,zero,508dd58 <__d2b+0x108>
 508dcdc:	10bef384 	addi	r2,r2,-1074
 508dce0:	90800015 	stw	r2,0(r18)
 508dce4:	00900034 	movhi	r2,16384
 508dce8:	10bfffc4 	addi	r2,r2,-1
 508dcec:	8085883a 	add	r2,r16,r2
 508dcf0:	1085883a 	add	r2,r2,r2
 508dcf4:	1085883a 	add	r2,r2,r2
 508dcf8:	9885883a 	add	r2,r19,r2
 508dcfc:	11000517 	ldw	r4,20(r2)
 508dd00:	8020917a 	slli	r16,r16,5
 508dd04:	508d2b00 	call	508d2b0 <__hi0bits>
 508dd08:	d8c00817 	ldw	r3,32(sp)
 508dd0c:	8085c83a 	sub	r2,r16,r2
 508dd10:	18800015 	stw	r2,0(r3)
 508dd14:	9805883a 	mov	r2,r19
 508dd18:	dfc00717 	ldw	ra,28(sp)
 508dd1c:	dd000617 	ldw	r20,24(sp)
 508dd20:	dcc00517 	ldw	r19,20(sp)
 508dd24:	dc800417 	ldw	r18,16(sp)
 508dd28:	dc400317 	ldw	r17,12(sp)
 508dd2c:	dc000217 	ldw	r16,8(sp)
 508dd30:	dec00804 	addi	sp,sp,32
 508dd34:	f800283a 	ret
 508dd38:	d809883a 	mov	r4,sp
 508dd3c:	508d3180 	call	508d318 <__lo0bits>
 508dd40:	d8c00017 	ldw	r3,0(sp)
 508dd44:	04000044 	movi	r16,1
 508dd48:	9c000415 	stw	r16,16(r19)
 508dd4c:	98c00515 	stw	r3,20(r19)
 508dd50:	10800804 	addi	r2,r2,32
 508dd54:	883fe126 	beq	r17,zero,508dcdc <__d2b+0x8c>
 508dd58:	00c00d44 	movi	r3,53
 508dd5c:	8c7ef344 	addi	r17,r17,-1075
 508dd60:	88a3883a 	add	r17,r17,r2
 508dd64:	1885c83a 	sub	r2,r3,r2
 508dd68:	d8c00817 	ldw	r3,32(sp)
 508dd6c:	94400015 	stw	r17,0(r18)
 508dd70:	18800015 	stw	r2,0(r3)
 508dd74:	003fe706 	br	508dd14 <__d2b+0xc4>
 508dd78:	01000804 	movi	r4,32
 508dd7c:	2089c83a 	sub	r4,r4,r2
 508dd80:	1908983a 	sll	r4,r3,r4
 508dd84:	d9400117 	ldw	r5,4(sp)
 508dd88:	1886d83a 	srl	r3,r3,r2
 508dd8c:	2148b03a 	or	r4,r4,r5
 508dd90:	99000515 	stw	r4,20(r19)
 508dd94:	d8c00015 	stw	r3,0(sp)
 508dd98:	003fca06 	br	508dcc4 <__d2b+0x74>

0508dd9c <__ratio>:
 508dd9c:	defff904 	addi	sp,sp,-28
 508dda0:	dc400315 	stw	r17,12(sp)
 508dda4:	2823883a 	mov	r17,r5
 508dda8:	d9400104 	addi	r5,sp,4
 508ddac:	dfc00615 	stw	ra,24(sp)
 508ddb0:	dcc00515 	stw	r19,20(sp)
 508ddb4:	dc800415 	stw	r18,16(sp)
 508ddb8:	2027883a 	mov	r19,r4
 508ddbc:	dc000215 	stw	r16,8(sp)
 508ddc0:	508db440 	call	508db44 <__b2d>
 508ddc4:	d80b883a 	mov	r5,sp
 508ddc8:	8809883a 	mov	r4,r17
 508ddcc:	1025883a 	mov	r18,r2
 508ddd0:	1821883a 	mov	r16,r3
 508ddd4:	508db440 	call	508db44 <__b2d>
 508ddd8:	8a000417 	ldw	r8,16(r17)
 508dddc:	99000417 	ldw	r4,16(r19)
 508dde0:	d9400117 	ldw	r5,4(sp)
 508dde4:	2209c83a 	sub	r4,r4,r8
 508dde8:	2010917a 	slli	r8,r4,5
 508ddec:	d9000017 	ldw	r4,0(sp)
 508ddf0:	2909c83a 	sub	r4,r5,r4
 508ddf4:	4109883a 	add	r4,r8,r4
 508ddf8:	01000e0e 	bge	zero,r4,508de34 <__ratio+0x98>
 508ddfc:	2008953a 	slli	r4,r4,20
 508de00:	2421883a 	add	r16,r4,r16
 508de04:	100d883a 	mov	r6,r2
 508de08:	180f883a 	mov	r7,r3
 508de0c:	9009883a 	mov	r4,r18
 508de10:	800b883a 	mov	r5,r16
 508de14:	50926340 	call	5092634 <__divdf3>
 508de18:	dfc00617 	ldw	ra,24(sp)
 508de1c:	dcc00517 	ldw	r19,20(sp)
 508de20:	dc800417 	ldw	r18,16(sp)
 508de24:	dc400317 	ldw	r17,12(sp)
 508de28:	dc000217 	ldw	r16,8(sp)
 508de2c:	dec00704 	addi	sp,sp,28
 508de30:	f800283a 	ret
 508de34:	2008953a 	slli	r4,r4,20
 508de38:	1907c83a 	sub	r3,r3,r4
 508de3c:	003ff106 	br	508de04 <__ratio+0x68>

0508de40 <_mprec_log10>:
 508de40:	defffe04 	addi	sp,sp,-8
 508de44:	dc000015 	stw	r16,0(sp)
 508de48:	dfc00115 	stw	ra,4(sp)
 508de4c:	008005c4 	movi	r2,23
 508de50:	2021883a 	mov	r16,r4
 508de54:	11000d0e 	bge	r2,r4,508de8c <_mprec_log10+0x4c>
 508de58:	0005883a 	mov	r2,zero
 508de5c:	00cffc34 	movhi	r3,16368
 508de60:	843fffc4 	addi	r16,r16,-1
 508de64:	000d883a 	mov	r6,zero
 508de68:	01d00934 	movhi	r7,16420
 508de6c:	1009883a 	mov	r4,r2
 508de70:	180b883a 	mov	r5,r3
 508de74:	5083c100 	call	5083c10 <__muldf3>
 508de78:	803ff91e 	bne	r16,zero,508de60 <_mprec_log10+0x20>
 508de7c:	dfc00117 	ldw	ra,4(sp)
 508de80:	dc000017 	ldw	r16,0(sp)
 508de84:	dec00204 	addi	sp,sp,8
 508de88:	f800283a 	ret
 508de8c:	202090fa 	slli	r16,r4,3
 508de90:	00814274 	movhi	r2,1289
 508de94:	109a7704 	addi	r2,r2,27100
 508de98:	1421883a 	add	r16,r2,r16
 508de9c:	80800017 	ldw	r2,0(r16)
 508dea0:	80c00117 	ldw	r3,4(r16)
 508dea4:	dfc00117 	ldw	ra,4(sp)
 508dea8:	dc000017 	ldw	r16,0(sp)
 508deac:	dec00204 	addi	sp,sp,8
 508deb0:	f800283a 	ret

0508deb4 <__copybits>:
 508deb4:	297fffc4 	addi	r5,r5,-1
 508deb8:	280fd17a 	srai	r7,r5,5
 508debc:	30c00417 	ldw	r3,16(r6)
 508dec0:	30800504 	addi	r2,r6,20
 508dec4:	39c00044 	addi	r7,r7,1
 508dec8:	18c7883a 	add	r3,r3,r3
 508decc:	39cf883a 	add	r7,r7,r7
 508ded0:	18c7883a 	add	r3,r3,r3
 508ded4:	39cf883a 	add	r7,r7,r7
 508ded8:	10c7883a 	add	r3,r2,r3
 508dedc:	21cf883a 	add	r7,r4,r7
 508dee0:	10c00d2e 	bgeu	r2,r3,508df18 <__copybits+0x64>
 508dee4:	200b883a 	mov	r5,r4
 508dee8:	12000017 	ldw	r8,0(r2)
 508deec:	29400104 	addi	r5,r5,4
 508def0:	10800104 	addi	r2,r2,4
 508def4:	2a3fff15 	stw	r8,-4(r5)
 508def8:	10fffb36 	bltu	r2,r3,508dee8 <__copybits+0x34>
 508defc:	1985c83a 	sub	r2,r3,r6
 508df00:	10bffac4 	addi	r2,r2,-21
 508df04:	1004d0ba 	srli	r2,r2,2
 508df08:	10800044 	addi	r2,r2,1
 508df0c:	1085883a 	add	r2,r2,r2
 508df10:	1085883a 	add	r2,r2,r2
 508df14:	2089883a 	add	r4,r4,r2
 508df18:	21c0032e 	bgeu	r4,r7,508df28 <__copybits+0x74>
 508df1c:	20000015 	stw	zero,0(r4)
 508df20:	21000104 	addi	r4,r4,4
 508df24:	21fffd36 	bltu	r4,r7,508df1c <__copybits+0x68>
 508df28:	f800283a 	ret

0508df2c <__any_on>:
 508df2c:	20c00417 	ldw	r3,16(r4)
 508df30:	2805d17a 	srai	r2,r5,5
 508df34:	21000504 	addi	r4,r4,20
 508df38:	18800d0e 	bge	r3,r2,508df70 <__any_on+0x44>
 508df3c:	18c7883a 	add	r3,r3,r3
 508df40:	18c7883a 	add	r3,r3,r3
 508df44:	20c7883a 	add	r3,r4,r3
 508df48:	20c0192e 	bgeu	r4,r3,508dfb0 <__any_on+0x84>
 508df4c:	18bfff17 	ldw	r2,-4(r3)
 508df50:	18ffff04 	addi	r3,r3,-4
 508df54:	1000041e 	bne	r2,zero,508df68 <__any_on+0x3c>
 508df58:	20c0142e 	bgeu	r4,r3,508dfac <__any_on+0x80>
 508df5c:	18ffff04 	addi	r3,r3,-4
 508df60:	19400017 	ldw	r5,0(r3)
 508df64:	283ffc26 	beq	r5,zero,508df58 <__any_on+0x2c>
 508df68:	00800044 	movi	r2,1
 508df6c:	f800283a 	ret
 508df70:	10c00a0e 	bge	r2,r3,508df9c <__any_on+0x70>
 508df74:	1085883a 	add	r2,r2,r2
 508df78:	1085883a 	add	r2,r2,r2
 508df7c:	294007cc 	andi	r5,r5,31
 508df80:	2087883a 	add	r3,r4,r2
 508df84:	283ff026 	beq	r5,zero,508df48 <__any_on+0x1c>
 508df88:	19800017 	ldw	r6,0(r3)
 508df8c:	3144d83a 	srl	r2,r6,r5
 508df90:	114a983a 	sll	r5,r2,r5
 508df94:	317ff41e 	bne	r6,r5,508df68 <__any_on+0x3c>
 508df98:	003feb06 	br	508df48 <__any_on+0x1c>
 508df9c:	1085883a 	add	r2,r2,r2
 508dfa0:	1085883a 	add	r2,r2,r2
 508dfa4:	2087883a 	add	r3,r4,r2
 508dfa8:	003fe706 	br	508df48 <__any_on+0x1c>
 508dfac:	f800283a 	ret
 508dfb0:	0005883a 	mov	r2,zero
 508dfb4:	f800283a 	ret

0508dfb8 <_realloc_r>:
 508dfb8:	defff604 	addi	sp,sp,-40
 508dfbc:	dc800215 	stw	r18,8(sp)
 508dfc0:	dfc00915 	stw	ra,36(sp)
 508dfc4:	df000815 	stw	fp,32(sp)
 508dfc8:	ddc00715 	stw	r23,28(sp)
 508dfcc:	dd800615 	stw	r22,24(sp)
 508dfd0:	dd400515 	stw	r21,20(sp)
 508dfd4:	dd000415 	stw	r20,16(sp)
 508dfd8:	dcc00315 	stw	r19,12(sp)
 508dfdc:	dc400115 	stw	r17,4(sp)
 508dfe0:	dc000015 	stw	r16,0(sp)
 508dfe4:	3025883a 	mov	r18,r6
 508dfe8:	2800b726 	beq	r5,zero,508e2c8 <_realloc_r+0x310>
 508dfec:	282b883a 	mov	r21,r5
 508dff0:	2029883a 	mov	r20,r4
 508dff4:	50938a40 	call	50938a4 <__malloc_lock>
 508dff8:	a8bfff17 	ldw	r2,-4(r21)
 508dffc:	043fff04 	movi	r16,-4
 508e000:	90c002c4 	addi	r3,r18,11
 508e004:	01000584 	movi	r4,22
 508e008:	acfffe04 	addi	r19,r21,-8
 508e00c:	1420703a 	and	r16,r2,r16
 508e010:	20c0332e 	bgeu	r4,r3,508e0e0 <_realloc_r+0x128>
 508e014:	047ffe04 	movi	r17,-8
 508e018:	1c62703a 	and	r17,r3,r17
 508e01c:	8807883a 	mov	r3,r17
 508e020:	88005816 	blt	r17,zero,508e184 <_realloc_r+0x1cc>
 508e024:	8c805736 	bltu	r17,r18,508e184 <_realloc_r+0x1cc>
 508e028:	80c0300e 	bge	r16,r3,508e0ec <_realloc_r+0x134>
 508e02c:	07014274 	movhi	fp,1289
 508e030:	e71bef04 	addi	fp,fp,28604
 508e034:	e1c00217 	ldw	r7,8(fp)
 508e038:	9c09883a 	add	r4,r19,r16
 508e03c:	22000117 	ldw	r8,4(r4)
 508e040:	21c06326 	beq	r4,r7,508e1d0 <_realloc_r+0x218>
 508e044:	017fff84 	movi	r5,-2
 508e048:	414a703a 	and	r5,r8,r5
 508e04c:	214b883a 	add	r5,r4,r5
 508e050:	29800117 	ldw	r6,4(r5)
 508e054:	3180004c 	andi	r6,r6,1
 508e058:	30003f26 	beq	r6,zero,508e158 <_realloc_r+0x1a0>
 508e05c:	1080004c 	andi	r2,r2,1
 508e060:	10008326 	beq	r2,zero,508e270 <_realloc_r+0x2b8>
 508e064:	900b883a 	mov	r5,r18
 508e068:	a009883a 	mov	r4,r20
 508e06c:	508c5a40 	call	508c5a4 <_malloc_r>
 508e070:	1025883a 	mov	r18,r2
 508e074:	10011e26 	beq	r2,zero,508e4f0 <_realloc_r+0x538>
 508e078:	a93fff17 	ldw	r4,-4(r21)
 508e07c:	10fffe04 	addi	r3,r2,-8
 508e080:	00bfff84 	movi	r2,-2
 508e084:	2084703a 	and	r2,r4,r2
 508e088:	9885883a 	add	r2,r19,r2
 508e08c:	1880ee26 	beq	r3,r2,508e448 <_realloc_r+0x490>
 508e090:	81bfff04 	addi	r6,r16,-4
 508e094:	00800904 	movi	r2,36
 508e098:	1180b836 	bltu	r2,r6,508e37c <_realloc_r+0x3c4>
 508e09c:	00c004c4 	movi	r3,19
 508e0a0:	19809636 	bltu	r3,r6,508e2fc <_realloc_r+0x344>
 508e0a4:	9005883a 	mov	r2,r18
 508e0a8:	a807883a 	mov	r3,r21
 508e0ac:	19000017 	ldw	r4,0(r3)
 508e0b0:	11000015 	stw	r4,0(r2)
 508e0b4:	19000117 	ldw	r4,4(r3)
 508e0b8:	11000115 	stw	r4,4(r2)
 508e0bc:	18c00217 	ldw	r3,8(r3)
 508e0c0:	10c00215 	stw	r3,8(r2)
 508e0c4:	a80b883a 	mov	r5,r21
 508e0c8:	a009883a 	mov	r4,r20
 508e0cc:	508b9b80 	call	508b9b8 <_free_r>
 508e0d0:	a009883a 	mov	r4,r20
 508e0d4:	50938c80 	call	50938c8 <__malloc_unlock>
 508e0d8:	9005883a 	mov	r2,r18
 508e0dc:	00001206 	br	508e128 <_realloc_r+0x170>
 508e0e0:	00c00404 	movi	r3,16
 508e0e4:	1823883a 	mov	r17,r3
 508e0e8:	003fce06 	br	508e024 <_realloc_r+0x6c>
 508e0ec:	a825883a 	mov	r18,r21
 508e0f0:	8445c83a 	sub	r2,r16,r17
 508e0f4:	00c003c4 	movi	r3,15
 508e0f8:	18802636 	bltu	r3,r2,508e194 <_realloc_r+0x1dc>
 508e0fc:	99800117 	ldw	r6,4(r19)
 508e100:	9c07883a 	add	r3,r19,r16
 508e104:	3180004c 	andi	r6,r6,1
 508e108:	3420b03a 	or	r16,r6,r16
 508e10c:	9c000115 	stw	r16,4(r19)
 508e110:	18800117 	ldw	r2,4(r3)
 508e114:	10800054 	ori	r2,r2,1
 508e118:	18800115 	stw	r2,4(r3)
 508e11c:	a009883a 	mov	r4,r20
 508e120:	50938c80 	call	50938c8 <__malloc_unlock>
 508e124:	9005883a 	mov	r2,r18
 508e128:	dfc00917 	ldw	ra,36(sp)
 508e12c:	df000817 	ldw	fp,32(sp)
 508e130:	ddc00717 	ldw	r23,28(sp)
 508e134:	dd800617 	ldw	r22,24(sp)
 508e138:	dd400517 	ldw	r21,20(sp)
 508e13c:	dd000417 	ldw	r20,16(sp)
 508e140:	dcc00317 	ldw	r19,12(sp)
 508e144:	dc800217 	ldw	r18,8(sp)
 508e148:	dc400117 	ldw	r17,4(sp)
 508e14c:	dc000017 	ldw	r16,0(sp)
 508e150:	dec00a04 	addi	sp,sp,40
 508e154:	f800283a 	ret
 508e158:	017fff04 	movi	r5,-4
 508e15c:	414a703a 	and	r5,r8,r5
 508e160:	814d883a 	add	r6,r16,r5
 508e164:	30c01f16 	blt	r6,r3,508e1e4 <_realloc_r+0x22c>
 508e168:	20800317 	ldw	r2,12(r4)
 508e16c:	20c00217 	ldw	r3,8(r4)
 508e170:	a825883a 	mov	r18,r21
 508e174:	3021883a 	mov	r16,r6
 508e178:	18800315 	stw	r2,12(r3)
 508e17c:	10c00215 	stw	r3,8(r2)
 508e180:	003fdb06 	br	508e0f0 <_realloc_r+0x138>
 508e184:	00800304 	movi	r2,12
 508e188:	a0800015 	stw	r2,0(r20)
 508e18c:	0005883a 	mov	r2,zero
 508e190:	003fe506 	br	508e128 <_realloc_r+0x170>
 508e194:	98c00117 	ldw	r3,4(r19)
 508e198:	9c4b883a 	add	r5,r19,r17
 508e19c:	11000054 	ori	r4,r2,1
 508e1a0:	18c0004c 	andi	r3,r3,1
 508e1a4:	1c62b03a 	or	r17,r3,r17
 508e1a8:	9c400115 	stw	r17,4(r19)
 508e1ac:	29000115 	stw	r4,4(r5)
 508e1b0:	2885883a 	add	r2,r5,r2
 508e1b4:	10c00117 	ldw	r3,4(r2)
 508e1b8:	29400204 	addi	r5,r5,8
 508e1bc:	a009883a 	mov	r4,r20
 508e1c0:	18c00054 	ori	r3,r3,1
 508e1c4:	10c00115 	stw	r3,4(r2)
 508e1c8:	508b9b80 	call	508b9b8 <_free_r>
 508e1cc:	003fd306 	br	508e11c <_realloc_r+0x164>
 508e1d0:	017fff04 	movi	r5,-4
 508e1d4:	414a703a 	and	r5,r8,r5
 508e1d8:	89800404 	addi	r6,r17,16
 508e1dc:	8151883a 	add	r8,r16,r5
 508e1e0:	4180590e 	bge	r8,r6,508e348 <_realloc_r+0x390>
 508e1e4:	1080004c 	andi	r2,r2,1
 508e1e8:	103f9e1e 	bne	r2,zero,508e064 <_realloc_r+0xac>
 508e1ec:	adbffe17 	ldw	r22,-8(r21)
 508e1f0:	00bfff04 	movi	r2,-4
 508e1f4:	9dadc83a 	sub	r22,r19,r22
 508e1f8:	b1800117 	ldw	r6,4(r22)
 508e1fc:	3084703a 	and	r2,r6,r2
 508e200:	20002026 	beq	r4,zero,508e284 <_realloc_r+0x2cc>
 508e204:	80af883a 	add	r23,r16,r2
 508e208:	b96f883a 	add	r23,r23,r5
 508e20c:	21c05f26 	beq	r4,r7,508e38c <_realloc_r+0x3d4>
 508e210:	b8c01c16 	blt	r23,r3,508e284 <_realloc_r+0x2cc>
 508e214:	20800317 	ldw	r2,12(r4)
 508e218:	20c00217 	ldw	r3,8(r4)
 508e21c:	81bfff04 	addi	r6,r16,-4
 508e220:	01000904 	movi	r4,36
 508e224:	18800315 	stw	r2,12(r3)
 508e228:	10c00215 	stw	r3,8(r2)
 508e22c:	b0c00217 	ldw	r3,8(r22)
 508e230:	b0800317 	ldw	r2,12(r22)
 508e234:	b4800204 	addi	r18,r22,8
 508e238:	18800315 	stw	r2,12(r3)
 508e23c:	10c00215 	stw	r3,8(r2)
 508e240:	21801b36 	bltu	r4,r6,508e2b0 <_realloc_r+0x2f8>
 508e244:	008004c4 	movi	r2,19
 508e248:	1180352e 	bgeu	r2,r6,508e320 <_realloc_r+0x368>
 508e24c:	a8800017 	ldw	r2,0(r21)
 508e250:	b0800215 	stw	r2,8(r22)
 508e254:	a8800117 	ldw	r2,4(r21)
 508e258:	b0800315 	stw	r2,12(r22)
 508e25c:	008006c4 	movi	r2,27
 508e260:	11807f36 	bltu	r2,r6,508e460 <_realloc_r+0x4a8>
 508e264:	b0800404 	addi	r2,r22,16
 508e268:	ad400204 	addi	r21,r21,8
 508e26c:	00002d06 	br	508e324 <_realloc_r+0x36c>
 508e270:	adbffe17 	ldw	r22,-8(r21)
 508e274:	00bfff04 	movi	r2,-4
 508e278:	9dadc83a 	sub	r22,r19,r22
 508e27c:	b1000117 	ldw	r4,4(r22)
 508e280:	2084703a 	and	r2,r4,r2
 508e284:	b03f7726 	beq	r22,zero,508e064 <_realloc_r+0xac>
 508e288:	80af883a 	add	r23,r16,r2
 508e28c:	b8ff7516 	blt	r23,r3,508e064 <_realloc_r+0xac>
 508e290:	b0800317 	ldw	r2,12(r22)
 508e294:	b0c00217 	ldw	r3,8(r22)
 508e298:	81bfff04 	addi	r6,r16,-4
 508e29c:	01000904 	movi	r4,36
 508e2a0:	18800315 	stw	r2,12(r3)
 508e2a4:	10c00215 	stw	r3,8(r2)
 508e2a8:	b4800204 	addi	r18,r22,8
 508e2ac:	21bfe52e 	bgeu	r4,r6,508e244 <_realloc_r+0x28c>
 508e2b0:	a80b883a 	mov	r5,r21
 508e2b4:	9009883a 	mov	r4,r18
 508e2b8:	5084eac0 	call	5084eac <memmove>
 508e2bc:	b821883a 	mov	r16,r23
 508e2c0:	b027883a 	mov	r19,r22
 508e2c4:	003f8a06 	br	508e0f0 <_realloc_r+0x138>
 508e2c8:	300b883a 	mov	r5,r6
 508e2cc:	dfc00917 	ldw	ra,36(sp)
 508e2d0:	df000817 	ldw	fp,32(sp)
 508e2d4:	ddc00717 	ldw	r23,28(sp)
 508e2d8:	dd800617 	ldw	r22,24(sp)
 508e2dc:	dd400517 	ldw	r21,20(sp)
 508e2e0:	dd000417 	ldw	r20,16(sp)
 508e2e4:	dcc00317 	ldw	r19,12(sp)
 508e2e8:	dc800217 	ldw	r18,8(sp)
 508e2ec:	dc400117 	ldw	r17,4(sp)
 508e2f0:	dc000017 	ldw	r16,0(sp)
 508e2f4:	dec00a04 	addi	sp,sp,40
 508e2f8:	508c5a41 	jmpi	508c5a4 <_malloc_r>
 508e2fc:	a8c00017 	ldw	r3,0(r21)
 508e300:	90c00015 	stw	r3,0(r18)
 508e304:	a8c00117 	ldw	r3,4(r21)
 508e308:	90c00115 	stw	r3,4(r18)
 508e30c:	00c006c4 	movi	r3,27
 508e310:	19804536 	bltu	r3,r6,508e428 <_realloc_r+0x470>
 508e314:	90800204 	addi	r2,r18,8
 508e318:	a8c00204 	addi	r3,r21,8
 508e31c:	003f6306 	br	508e0ac <_realloc_r+0xf4>
 508e320:	9005883a 	mov	r2,r18
 508e324:	a8c00017 	ldw	r3,0(r21)
 508e328:	b821883a 	mov	r16,r23
 508e32c:	b027883a 	mov	r19,r22
 508e330:	10c00015 	stw	r3,0(r2)
 508e334:	a8c00117 	ldw	r3,4(r21)
 508e338:	10c00115 	stw	r3,4(r2)
 508e33c:	a8c00217 	ldw	r3,8(r21)
 508e340:	10c00215 	stw	r3,8(r2)
 508e344:	003f6a06 	br	508e0f0 <_realloc_r+0x138>
 508e348:	9c67883a 	add	r19,r19,r17
 508e34c:	4445c83a 	sub	r2,r8,r17
 508e350:	e4c00215 	stw	r19,8(fp)
 508e354:	10800054 	ori	r2,r2,1
 508e358:	98800115 	stw	r2,4(r19)
 508e35c:	a8bfff17 	ldw	r2,-4(r21)
 508e360:	a009883a 	mov	r4,r20
 508e364:	1080004c 	andi	r2,r2,1
 508e368:	1462b03a 	or	r17,r2,r17
 508e36c:	ac7fff15 	stw	r17,-4(r21)
 508e370:	50938c80 	call	50938c8 <__malloc_unlock>
 508e374:	a805883a 	mov	r2,r21
 508e378:	003f6b06 	br	508e128 <_realloc_r+0x170>
 508e37c:	a80b883a 	mov	r5,r21
 508e380:	9009883a 	mov	r4,r18
 508e384:	5084eac0 	call	5084eac <memmove>
 508e388:	003f4e06 	br	508e0c4 <_realloc_r+0x10c>
 508e38c:	89000404 	addi	r4,r17,16
 508e390:	b93fbc16 	blt	r23,r4,508e284 <_realloc_r+0x2cc>
 508e394:	b0800317 	ldw	r2,12(r22)
 508e398:	b0c00217 	ldw	r3,8(r22)
 508e39c:	81bfff04 	addi	r6,r16,-4
 508e3a0:	01000904 	movi	r4,36
 508e3a4:	18800315 	stw	r2,12(r3)
 508e3a8:	10c00215 	stw	r3,8(r2)
 508e3ac:	b4800204 	addi	r18,r22,8
 508e3b0:	21804336 	bltu	r4,r6,508e4c0 <_realloc_r+0x508>
 508e3b4:	008004c4 	movi	r2,19
 508e3b8:	11803f2e 	bgeu	r2,r6,508e4b8 <_realloc_r+0x500>
 508e3bc:	a8800017 	ldw	r2,0(r21)
 508e3c0:	b0800215 	stw	r2,8(r22)
 508e3c4:	a8800117 	ldw	r2,4(r21)
 508e3c8:	b0800315 	stw	r2,12(r22)
 508e3cc:	008006c4 	movi	r2,27
 508e3d0:	11803f36 	bltu	r2,r6,508e4d0 <_realloc_r+0x518>
 508e3d4:	b0800404 	addi	r2,r22,16
 508e3d8:	ad400204 	addi	r21,r21,8
 508e3dc:	a8c00017 	ldw	r3,0(r21)
 508e3e0:	10c00015 	stw	r3,0(r2)
 508e3e4:	a8c00117 	ldw	r3,4(r21)
 508e3e8:	10c00115 	stw	r3,4(r2)
 508e3ec:	a8c00217 	ldw	r3,8(r21)
 508e3f0:	10c00215 	stw	r3,8(r2)
 508e3f4:	b447883a 	add	r3,r22,r17
 508e3f8:	bc45c83a 	sub	r2,r23,r17
 508e3fc:	e0c00215 	stw	r3,8(fp)
 508e400:	10800054 	ori	r2,r2,1
 508e404:	18800115 	stw	r2,4(r3)
 508e408:	b0800117 	ldw	r2,4(r22)
 508e40c:	a009883a 	mov	r4,r20
 508e410:	1080004c 	andi	r2,r2,1
 508e414:	1462b03a 	or	r17,r2,r17
 508e418:	b4400115 	stw	r17,4(r22)
 508e41c:	50938c80 	call	50938c8 <__malloc_unlock>
 508e420:	9005883a 	mov	r2,r18
 508e424:	003f4006 	br	508e128 <_realloc_r+0x170>
 508e428:	a8c00217 	ldw	r3,8(r21)
 508e42c:	90c00215 	stw	r3,8(r18)
 508e430:	a8c00317 	ldw	r3,12(r21)
 508e434:	90c00315 	stw	r3,12(r18)
 508e438:	30801126 	beq	r6,r2,508e480 <_realloc_r+0x4c8>
 508e43c:	90800404 	addi	r2,r18,16
 508e440:	a8c00404 	addi	r3,r21,16
 508e444:	003f1906 	br	508e0ac <_realloc_r+0xf4>
 508e448:	90ffff17 	ldw	r3,-4(r18)
 508e44c:	00bfff04 	movi	r2,-4
 508e450:	a825883a 	mov	r18,r21
 508e454:	1884703a 	and	r2,r3,r2
 508e458:	80a1883a 	add	r16,r16,r2
 508e45c:	003f2406 	br	508e0f0 <_realloc_r+0x138>
 508e460:	a8800217 	ldw	r2,8(r21)
 508e464:	b0800415 	stw	r2,16(r22)
 508e468:	a8800317 	ldw	r2,12(r21)
 508e46c:	b0800515 	stw	r2,20(r22)
 508e470:	31000a26 	beq	r6,r4,508e49c <_realloc_r+0x4e4>
 508e474:	b0800604 	addi	r2,r22,24
 508e478:	ad400404 	addi	r21,r21,16
 508e47c:	003fa906 	br	508e324 <_realloc_r+0x36c>
 508e480:	a9000417 	ldw	r4,16(r21)
 508e484:	90800604 	addi	r2,r18,24
 508e488:	a8c00604 	addi	r3,r21,24
 508e48c:	91000415 	stw	r4,16(r18)
 508e490:	a9000517 	ldw	r4,20(r21)
 508e494:	91000515 	stw	r4,20(r18)
 508e498:	003f0406 	br	508e0ac <_realloc_r+0xf4>
 508e49c:	a8c00417 	ldw	r3,16(r21)
 508e4a0:	ad400604 	addi	r21,r21,24
 508e4a4:	b0800804 	addi	r2,r22,32
 508e4a8:	b0c00615 	stw	r3,24(r22)
 508e4ac:	a8ffff17 	ldw	r3,-4(r21)
 508e4b0:	b0c00715 	stw	r3,28(r22)
 508e4b4:	003f9b06 	br	508e324 <_realloc_r+0x36c>
 508e4b8:	9005883a 	mov	r2,r18
 508e4bc:	003fc706 	br	508e3dc <_realloc_r+0x424>
 508e4c0:	a80b883a 	mov	r5,r21
 508e4c4:	9009883a 	mov	r4,r18
 508e4c8:	5084eac0 	call	5084eac <memmove>
 508e4cc:	003fc906 	br	508e3f4 <_realloc_r+0x43c>
 508e4d0:	a8800217 	ldw	r2,8(r21)
 508e4d4:	b0800415 	stw	r2,16(r22)
 508e4d8:	a8800317 	ldw	r2,12(r21)
 508e4dc:	b0800515 	stw	r2,20(r22)
 508e4e0:	31000726 	beq	r6,r4,508e500 <_realloc_r+0x548>
 508e4e4:	b0800604 	addi	r2,r22,24
 508e4e8:	ad400404 	addi	r21,r21,16
 508e4ec:	003fbb06 	br	508e3dc <_realloc_r+0x424>
 508e4f0:	a009883a 	mov	r4,r20
 508e4f4:	50938c80 	call	50938c8 <__malloc_unlock>
 508e4f8:	0005883a 	mov	r2,zero
 508e4fc:	003f0a06 	br	508e128 <_realloc_r+0x170>
 508e500:	a8c00417 	ldw	r3,16(r21)
 508e504:	ad400604 	addi	r21,r21,24
 508e508:	b0800804 	addi	r2,r22,32
 508e50c:	b0c00615 	stw	r3,24(r22)
 508e510:	a8ffff17 	ldw	r3,-4(r21)
 508e514:	b0c00715 	stw	r3,28(r22)
 508e518:	003fb006 	br	508e3dc <_realloc_r+0x424>

0508e51c <__fpclassifyd>:
 508e51c:	00a00034 	movhi	r2,32768
 508e520:	10bfffc4 	addi	r2,r2,-1
 508e524:	2884703a 	and	r2,r5,r2
 508e528:	10000726 	beq	r2,zero,508e548 <__fpclassifyd+0x2c>
 508e52c:	00fffc34 	movhi	r3,65520
 508e530:	019ff834 	movhi	r6,32736
 508e534:	28c7883a 	add	r3,r5,r3
 508e538:	31bfffc4 	addi	r6,r6,-1
 508e53c:	30c00536 	bltu	r6,r3,508e554 <__fpclassifyd+0x38>
 508e540:	00800104 	movi	r2,4
 508e544:	f800283a 	ret
 508e548:	2000021e 	bne	r4,zero,508e554 <__fpclassifyd+0x38>
 508e54c:	00800084 	movi	r2,2
 508e550:	f800283a 	ret
 508e554:	00dffc34 	movhi	r3,32752
 508e558:	019ff834 	movhi	r6,32736
 508e55c:	28cb883a 	add	r5,r5,r3
 508e560:	31bfffc4 	addi	r6,r6,-1
 508e564:	317ff62e 	bgeu	r6,r5,508e540 <__fpclassifyd+0x24>
 508e568:	01400434 	movhi	r5,16
 508e56c:	297fffc4 	addi	r5,r5,-1
 508e570:	28800236 	bltu	r5,r2,508e57c <__fpclassifyd+0x60>
 508e574:	008000c4 	movi	r2,3
 508e578:	f800283a 	ret
 508e57c:	10c00226 	beq	r2,r3,508e588 <__fpclassifyd+0x6c>
 508e580:	0005883a 	mov	r2,zero
 508e584:	f800283a 	ret
 508e588:	2005003a 	cmpeq	r2,r4,zero
 508e58c:	f800283a 	ret

0508e590 <_sbrk_r>:
 508e590:	defffd04 	addi	sp,sp,-12
 508e594:	dc000015 	stw	r16,0(sp)
 508e598:	040142b4 	movhi	r16,1290
 508e59c:	dc400115 	stw	r17,4(sp)
 508e5a0:	84284b04 	addi	r16,r16,-24276
 508e5a4:	2023883a 	mov	r17,r4
 508e5a8:	2809883a 	mov	r4,r5
 508e5ac:	dfc00215 	stw	ra,8(sp)
 508e5b0:	80000015 	stw	zero,0(r16)
 508e5b4:	5093a880 	call	5093a88 <sbrk>
 508e5b8:	00ffffc4 	movi	r3,-1
 508e5bc:	10c00526 	beq	r2,r3,508e5d4 <_sbrk_r+0x44>
 508e5c0:	dfc00217 	ldw	ra,8(sp)
 508e5c4:	dc400117 	ldw	r17,4(sp)
 508e5c8:	dc000017 	ldw	r16,0(sp)
 508e5cc:	dec00304 	addi	sp,sp,12
 508e5d0:	f800283a 	ret
 508e5d4:	80c00017 	ldw	r3,0(r16)
 508e5d8:	183ff926 	beq	r3,zero,508e5c0 <_sbrk_r+0x30>
 508e5dc:	88c00015 	stw	r3,0(r17)
 508e5e0:	003ff706 	br	508e5c0 <_sbrk_r+0x30>

0508e5e4 <__sread>:
 508e5e4:	defffe04 	addi	sp,sp,-8
 508e5e8:	dc000015 	stw	r16,0(sp)
 508e5ec:	2821883a 	mov	r16,r5
 508e5f0:	2940038f 	ldh	r5,14(r5)
 508e5f4:	dfc00115 	stw	ra,4(sp)
 508e5f8:	50917e40 	call	50917e4 <_read_r>
 508e5fc:	10000716 	blt	r2,zero,508e61c <__sread+0x38>
 508e600:	80c01417 	ldw	r3,80(r16)
 508e604:	1887883a 	add	r3,r3,r2
 508e608:	80c01415 	stw	r3,80(r16)
 508e60c:	dfc00117 	ldw	ra,4(sp)
 508e610:	dc000017 	ldw	r16,0(sp)
 508e614:	dec00204 	addi	sp,sp,8
 508e618:	f800283a 	ret
 508e61c:	80c0030b 	ldhu	r3,12(r16)
 508e620:	18fbffcc 	andi	r3,r3,61439
 508e624:	80c0030d 	sth	r3,12(r16)
 508e628:	dfc00117 	ldw	ra,4(sp)
 508e62c:	dc000017 	ldw	r16,0(sp)
 508e630:	dec00204 	addi	sp,sp,8
 508e634:	f800283a 	ret

0508e638 <__seofread>:
 508e638:	0005883a 	mov	r2,zero
 508e63c:	f800283a 	ret

0508e640 <__swrite>:
 508e640:	2880030b 	ldhu	r2,12(r5)
 508e644:	defffb04 	addi	sp,sp,-20
 508e648:	dcc00315 	stw	r19,12(sp)
 508e64c:	dc800215 	stw	r18,8(sp)
 508e650:	dc400115 	stw	r17,4(sp)
 508e654:	dc000015 	stw	r16,0(sp)
 508e658:	dfc00415 	stw	ra,16(sp)
 508e65c:	10c0400c 	andi	r3,r2,256
 508e660:	2821883a 	mov	r16,r5
 508e664:	2023883a 	mov	r17,r4
 508e668:	3025883a 	mov	r18,r6
 508e66c:	3827883a 	mov	r19,r7
 508e670:	18000526 	beq	r3,zero,508e688 <__swrite+0x48>
 508e674:	2940038f 	ldh	r5,14(r5)
 508e678:	01c00084 	movi	r7,2
 508e67c:	000d883a 	mov	r6,zero
 508e680:	50917840 	call	5091784 <_lseek_r>
 508e684:	8080030b 	ldhu	r2,12(r16)
 508e688:	8140038f 	ldh	r5,14(r16)
 508e68c:	10bbffcc 	andi	r2,r2,61439
 508e690:	980f883a 	mov	r7,r19
 508e694:	900d883a 	mov	r6,r18
 508e698:	8809883a 	mov	r4,r17
 508e69c:	8080030d 	sth	r2,12(r16)
 508e6a0:	dfc00417 	ldw	ra,16(sp)
 508e6a4:	dcc00317 	ldw	r19,12(sp)
 508e6a8:	dc800217 	ldw	r18,8(sp)
 508e6ac:	dc400117 	ldw	r17,4(sp)
 508e6b0:	dc000017 	ldw	r16,0(sp)
 508e6b4:	dec00504 	addi	sp,sp,20
 508e6b8:	50912501 	jmpi	5091250 <_write_r>

0508e6bc <__sseek>:
 508e6bc:	defffe04 	addi	sp,sp,-8
 508e6c0:	dc000015 	stw	r16,0(sp)
 508e6c4:	2821883a 	mov	r16,r5
 508e6c8:	2940038f 	ldh	r5,14(r5)
 508e6cc:	dfc00115 	stw	ra,4(sp)
 508e6d0:	50917840 	call	5091784 <_lseek_r>
 508e6d4:	00ffffc4 	movi	r3,-1
 508e6d8:	10c00826 	beq	r2,r3,508e6fc <__sseek+0x40>
 508e6dc:	80c0030b 	ldhu	r3,12(r16)
 508e6e0:	80801415 	stw	r2,80(r16)
 508e6e4:	18c40014 	ori	r3,r3,4096
 508e6e8:	80c0030d 	sth	r3,12(r16)
 508e6ec:	dfc00117 	ldw	ra,4(sp)
 508e6f0:	dc000017 	ldw	r16,0(sp)
 508e6f4:	dec00204 	addi	sp,sp,8
 508e6f8:	f800283a 	ret
 508e6fc:	80c0030b 	ldhu	r3,12(r16)
 508e700:	18fbffcc 	andi	r3,r3,61439
 508e704:	80c0030d 	sth	r3,12(r16)
 508e708:	dfc00117 	ldw	ra,4(sp)
 508e70c:	dc000017 	ldw	r16,0(sp)
 508e710:	dec00204 	addi	sp,sp,8
 508e714:	f800283a 	ret

0508e718 <__sclose>:
 508e718:	2940038f 	ldh	r5,14(r5)
 508e71c:	50912b01 	jmpi	50912b0 <_close_r>

0508e720 <strcmp>:
 508e720:	2144b03a 	or	r2,r4,r5
 508e724:	108000cc 	andi	r2,r2,3
 508e728:	1000171e 	bne	r2,zero,508e788 <strcmp+0x68>
 508e72c:	20800017 	ldw	r2,0(r4)
 508e730:	28c00017 	ldw	r3,0(r5)
 508e734:	10c0141e 	bne	r2,r3,508e788 <strcmp+0x68>
 508e738:	027fbff4 	movhi	r9,65279
 508e73c:	4a7fbfc4 	addi	r9,r9,-257
 508e740:	0086303a 	nor	r3,zero,r2
 508e744:	02202074 	movhi	r8,32897
 508e748:	1245883a 	add	r2,r2,r9
 508e74c:	42202004 	addi	r8,r8,-32640
 508e750:	10c4703a 	and	r2,r2,r3
 508e754:	1204703a 	and	r2,r2,r8
 508e758:	10000226 	beq	r2,zero,508e764 <strcmp+0x44>
 508e75c:	00002306 	br	508e7ec <strcmp+0xcc>
 508e760:	1000221e 	bne	r2,zero,508e7ec <strcmp+0xcc>
 508e764:	21000104 	addi	r4,r4,4
 508e768:	20c00017 	ldw	r3,0(r4)
 508e76c:	29400104 	addi	r5,r5,4
 508e770:	29800017 	ldw	r6,0(r5)
 508e774:	1a4f883a 	add	r7,r3,r9
 508e778:	00c4303a 	nor	r2,zero,r3
 508e77c:	3884703a 	and	r2,r7,r2
 508e780:	1204703a 	and	r2,r2,r8
 508e784:	19bff626 	beq	r3,r6,508e760 <strcmp+0x40>
 508e788:	20800003 	ldbu	r2,0(r4)
 508e78c:	10c03fcc 	andi	r3,r2,255
 508e790:	18c0201c 	xori	r3,r3,128
 508e794:	18ffe004 	addi	r3,r3,-128
 508e798:	18000c26 	beq	r3,zero,508e7cc <strcmp+0xac>
 508e79c:	29800007 	ldb	r6,0(r5)
 508e7a0:	19800326 	beq	r3,r6,508e7b0 <strcmp+0x90>
 508e7a4:	00001306 	br	508e7f4 <strcmp+0xd4>
 508e7a8:	29800007 	ldb	r6,0(r5)
 508e7ac:	11800b1e 	bne	r2,r6,508e7dc <strcmp+0xbc>
 508e7b0:	21000044 	addi	r4,r4,1
 508e7b4:	20c00003 	ldbu	r3,0(r4)
 508e7b8:	29400044 	addi	r5,r5,1
 508e7bc:	18803fcc 	andi	r2,r3,255
 508e7c0:	1080201c 	xori	r2,r2,128
 508e7c4:	10bfe004 	addi	r2,r2,-128
 508e7c8:	103ff71e 	bne	r2,zero,508e7a8 <strcmp+0x88>
 508e7cc:	0007883a 	mov	r3,zero
 508e7d0:	28800003 	ldbu	r2,0(r5)
 508e7d4:	1885c83a 	sub	r2,r3,r2
 508e7d8:	f800283a 	ret
 508e7dc:	28800003 	ldbu	r2,0(r5)
 508e7e0:	18c03fcc 	andi	r3,r3,255
 508e7e4:	1885c83a 	sub	r2,r3,r2
 508e7e8:	f800283a 	ret
 508e7ec:	0005883a 	mov	r2,zero
 508e7f0:	f800283a 	ret
 508e7f4:	10c03fcc 	andi	r3,r2,255
 508e7f8:	003ff506 	br	508e7d0 <strcmp+0xb0>

0508e7fc <__ssprint_r>:
 508e7fc:	30800217 	ldw	r2,8(r6)
 508e800:	defff604 	addi	sp,sp,-40
 508e804:	dc800215 	stw	r18,8(sp)
 508e808:	dfc00915 	stw	ra,36(sp)
 508e80c:	df000815 	stw	fp,32(sp)
 508e810:	ddc00715 	stw	r23,28(sp)
 508e814:	dd800615 	stw	r22,24(sp)
 508e818:	dd400515 	stw	r21,20(sp)
 508e81c:	dd000415 	stw	r20,16(sp)
 508e820:	dcc00315 	stw	r19,12(sp)
 508e824:	dc400115 	stw	r17,4(sp)
 508e828:	dc000015 	stw	r16,0(sp)
 508e82c:	3025883a 	mov	r18,r6
 508e830:	10005826 	beq	r2,zero,508e994 <__ssprint_r+0x198>
 508e834:	2027883a 	mov	r19,r4
 508e838:	35c00017 	ldw	r23,0(r6)
 508e83c:	29000017 	ldw	r4,0(r5)
 508e840:	28800217 	ldw	r2,8(r5)
 508e844:	2823883a 	mov	r17,r5
 508e848:	0039883a 	mov	fp,zero
 508e84c:	0021883a 	mov	r16,zero
 508e850:	80003926 	beq	r16,zero,508e938 <__ssprint_r+0x13c>
 508e854:	102b883a 	mov	r21,r2
 508e858:	102d883a 	mov	r22,r2
 508e85c:	80803a36 	bltu	r16,r2,508e948 <__ssprint_r+0x14c>
 508e860:	88c0030b 	ldhu	r3,12(r17)
 508e864:	1881200c 	andi	r2,r3,1152
 508e868:	10002626 	beq	r2,zero,508e904 <__ssprint_r+0x108>
 508e86c:	88800517 	ldw	r2,20(r17)
 508e870:	89400417 	ldw	r5,16(r17)
 508e874:	81800044 	addi	r6,r16,1
 508e878:	108f883a 	add	r7,r2,r2
 508e87c:	3885883a 	add	r2,r7,r2
 508e880:	100ed7fa 	srli	r7,r2,31
 508e884:	216dc83a 	sub	r22,r4,r5
 508e888:	3589883a 	add	r4,r6,r22
 508e88c:	3885883a 	add	r2,r7,r2
 508e890:	102bd07a 	srai	r21,r2,1
 508e894:	a80d883a 	mov	r6,r21
 508e898:	a900022e 	bgeu	r21,r4,508e8a4 <__ssprint_r+0xa8>
 508e89c:	202b883a 	mov	r21,r4
 508e8a0:	200d883a 	mov	r6,r4
 508e8a4:	18c1000c 	andi	r3,r3,1024
 508e8a8:	18002a26 	beq	r3,zero,508e954 <__ssprint_r+0x158>
 508e8ac:	300b883a 	mov	r5,r6
 508e8b0:	9809883a 	mov	r4,r19
 508e8b4:	508c5a40 	call	508c5a4 <_malloc_r>
 508e8b8:	1029883a 	mov	r20,r2
 508e8bc:	10002c26 	beq	r2,zero,508e970 <__ssprint_r+0x174>
 508e8c0:	89400417 	ldw	r5,16(r17)
 508e8c4:	b00d883a 	mov	r6,r22
 508e8c8:	1009883a 	mov	r4,r2
 508e8cc:	5084d640 	call	5084d64 <memcpy>
 508e8d0:	8880030b 	ldhu	r2,12(r17)
 508e8d4:	00fedfc4 	movi	r3,-1153
 508e8d8:	10c4703a 	and	r2,r2,r3
 508e8dc:	10802014 	ori	r2,r2,128
 508e8e0:	8880030d 	sth	r2,12(r17)
 508e8e4:	a589883a 	add	r4,r20,r22
 508e8e8:	adadc83a 	sub	r22,r21,r22
 508e8ec:	8d400515 	stw	r21,20(r17)
 508e8f0:	8d800215 	stw	r22,8(r17)
 508e8f4:	8d000415 	stw	r20,16(r17)
 508e8f8:	89000015 	stw	r4,0(r17)
 508e8fc:	802b883a 	mov	r21,r16
 508e900:	802d883a 	mov	r22,r16
 508e904:	b00d883a 	mov	r6,r22
 508e908:	e00b883a 	mov	r5,fp
 508e90c:	5084eac0 	call	5084eac <memmove>
 508e910:	88800217 	ldw	r2,8(r17)
 508e914:	89000017 	ldw	r4,0(r17)
 508e918:	90c00217 	ldw	r3,8(r18)
 508e91c:	1545c83a 	sub	r2,r2,r21
 508e920:	2589883a 	add	r4,r4,r22
 508e924:	88800215 	stw	r2,8(r17)
 508e928:	89000015 	stw	r4,0(r17)
 508e92c:	1c21c83a 	sub	r16,r3,r16
 508e930:	94000215 	stw	r16,8(r18)
 508e934:	80001726 	beq	r16,zero,508e994 <__ssprint_r+0x198>
 508e938:	bf000017 	ldw	fp,0(r23)
 508e93c:	bc000117 	ldw	r16,4(r23)
 508e940:	bdc00204 	addi	r23,r23,8
 508e944:	003fc206 	br	508e850 <__ssprint_r+0x54>
 508e948:	802b883a 	mov	r21,r16
 508e94c:	802d883a 	mov	r22,r16
 508e950:	003fec06 	br	508e904 <__ssprint_r+0x108>
 508e954:	9809883a 	mov	r4,r19
 508e958:	508dfb80 	call	508dfb8 <_realloc_r>
 508e95c:	1029883a 	mov	r20,r2
 508e960:	103fe01e 	bne	r2,zero,508e8e4 <__ssprint_r+0xe8>
 508e964:	89400417 	ldw	r5,16(r17)
 508e968:	9809883a 	mov	r4,r19
 508e96c:	508b9b80 	call	508b9b8 <_free_r>
 508e970:	88c0030b 	ldhu	r3,12(r17)
 508e974:	00800304 	movi	r2,12
 508e978:	98800015 	stw	r2,0(r19)
 508e97c:	18c01014 	ori	r3,r3,64
 508e980:	88c0030d 	sth	r3,12(r17)
 508e984:	00bfffc4 	movi	r2,-1
 508e988:	90000215 	stw	zero,8(r18)
 508e98c:	90000115 	stw	zero,4(r18)
 508e990:	00000206 	br	508e99c <__ssprint_r+0x1a0>
 508e994:	90000115 	stw	zero,4(r18)
 508e998:	0005883a 	mov	r2,zero
 508e99c:	dfc00917 	ldw	ra,36(sp)
 508e9a0:	df000817 	ldw	fp,32(sp)
 508e9a4:	ddc00717 	ldw	r23,28(sp)
 508e9a8:	dd800617 	ldw	r22,24(sp)
 508e9ac:	dd400517 	ldw	r21,20(sp)
 508e9b0:	dd000417 	ldw	r20,16(sp)
 508e9b4:	dcc00317 	ldw	r19,12(sp)
 508e9b8:	dc800217 	ldw	r18,8(sp)
 508e9bc:	dc400117 	ldw	r17,4(sp)
 508e9c0:	dc000017 	ldw	r16,0(sp)
 508e9c4:	dec00a04 	addi	sp,sp,40
 508e9c8:	f800283a 	ret

0508e9cc <___svfiprintf_internal_r>:
 508e9cc:	2880030b 	ldhu	r2,12(r5)
 508e9d0:	deffc804 	addi	sp,sp,-224
 508e9d4:	dcc03115 	stw	r19,196(sp)
 508e9d8:	dfc03715 	stw	ra,220(sp)
 508e9dc:	df003615 	stw	fp,216(sp)
 508e9e0:	ddc03515 	stw	r23,212(sp)
 508e9e4:	dd803415 	stw	r22,208(sp)
 508e9e8:	dd403315 	stw	r21,204(sp)
 508e9ec:	dd003215 	stw	r20,200(sp)
 508e9f0:	dc803015 	stw	r18,192(sp)
 508e9f4:	dc402f15 	stw	r17,188(sp)
 508e9f8:	dc002e15 	stw	r16,184(sp)
 508e9fc:	d9402715 	stw	r5,156(sp)
 508ea00:	d9002a15 	stw	r4,168(sp)
 508ea04:	1080200c 	andi	r2,r2,128
 508ea08:	d9c02315 	stw	r7,140(sp)
 508ea0c:	3027883a 	mov	r19,r6
 508ea10:	10000226 	beq	r2,zero,508ea1c <___svfiprintf_internal_r+0x50>
 508ea14:	28800417 	ldw	r2,16(r5)
 508ea18:	10041d26 	beq	r2,zero,508fa90 <___svfiprintf_internal_r+0x10c4>
 508ea1c:	dac01a04 	addi	r11,sp,104
 508ea20:	dac01e15 	stw	r11,120(sp)
 508ea24:	d8801e17 	ldw	r2,120(sp)
 508ea28:	dac019c4 	addi	r11,sp,103
 508ea2c:	dd402a17 	ldw	r21,168(sp)
 508ea30:	ddc02717 	ldw	r23,156(sp)
 508ea34:	05814274 	movhi	r22,1289
 508ea38:	05014274 	movhi	r20,1289
 508ea3c:	dac01f15 	stw	r11,124(sp)
 508ea40:	12d7c83a 	sub	r11,r2,r11
 508ea44:	b59aad04 	addi	r22,r22,27316
 508ea48:	a51aa904 	addi	r20,r20,27300
 508ea4c:	dec01a15 	stw	sp,104(sp)
 508ea50:	d8001c15 	stw	zero,112(sp)
 508ea54:	d8001b15 	stw	zero,108(sp)
 508ea58:	d811883a 	mov	r8,sp
 508ea5c:	d8002915 	stw	zero,164(sp)
 508ea60:	d8002515 	stw	zero,148(sp)
 508ea64:	dac02b15 	stw	r11,172(sp)
 508ea68:	98800007 	ldb	r2,0(r19)
 508ea6c:	1002dd26 	beq	r2,zero,508f5e4 <___svfiprintf_internal_r+0xc18>
 508ea70:	00c00944 	movi	r3,37
 508ea74:	9823883a 	mov	r17,r19
 508ea78:	10c0021e 	bne	r2,r3,508ea84 <___svfiprintf_internal_r+0xb8>
 508ea7c:	00001406 	br	508ead0 <___svfiprintf_internal_r+0x104>
 508ea80:	10c00326 	beq	r2,r3,508ea90 <___svfiprintf_internal_r+0xc4>
 508ea84:	8c400044 	addi	r17,r17,1
 508ea88:	88800007 	ldb	r2,0(r17)
 508ea8c:	103ffc1e 	bne	r2,zero,508ea80 <___svfiprintf_internal_r+0xb4>
 508ea90:	8ce1c83a 	sub	r16,r17,r19
 508ea94:	80000e26 	beq	r16,zero,508ead0 <___svfiprintf_internal_r+0x104>
 508ea98:	d8c01c17 	ldw	r3,112(sp)
 508ea9c:	d8801b17 	ldw	r2,108(sp)
 508eaa0:	44c00015 	stw	r19,0(r8)
 508eaa4:	1c07883a 	add	r3,r3,r16
 508eaa8:	10800044 	addi	r2,r2,1
 508eaac:	d8c01c15 	stw	r3,112(sp)
 508eab0:	44000115 	stw	r16,4(r8)
 508eab4:	d8801b15 	stw	r2,108(sp)
 508eab8:	00c001c4 	movi	r3,7
 508eabc:	18831e16 	blt	r3,r2,508f738 <___svfiprintf_internal_r+0xd6c>
 508eac0:	42000204 	addi	r8,r8,8
 508eac4:	dac02517 	ldw	r11,148(sp)
 508eac8:	5c17883a 	add	r11,r11,r16
 508eacc:	dac02515 	stw	r11,148(sp)
 508ead0:	88800007 	ldb	r2,0(r17)
 508ead4:	1002c526 	beq	r2,zero,508f5ec <___svfiprintf_internal_r+0xc20>
 508ead8:	88c00047 	ldb	r3,1(r17)
 508eadc:	8cc00044 	addi	r19,r17,1
 508eae0:	d8001d85 	stb	zero,118(sp)
 508eae4:	0009883a 	mov	r4,zero
 508eae8:	000f883a 	mov	r7,zero
 508eaec:	043fffc4 	movi	r16,-1
 508eaf0:	d8002415 	stw	zero,144(sp)
 508eaf4:	0025883a 	mov	r18,zero
 508eaf8:	01401604 	movi	r5,88
 508eafc:	01800244 	movi	r6,9
 508eb00:	02800a84 	movi	r10,42
 508eb04:	02401b04 	movi	r9,108
 508eb08:	9cc00044 	addi	r19,r19,1
 508eb0c:	18bff804 	addi	r2,r3,-32
 508eb10:	2881dd36 	bltu	r5,r2,508f288 <___svfiprintf_internal_r+0x8bc>
 508eb14:	100490ba 	slli	r2,r2,2
 508eb18:	02c14274 	movhi	r11,1289
 508eb1c:	5afacb04 	addi	r11,r11,-5332
 508eb20:	12c5883a 	add	r2,r2,r11
 508eb24:	10800017 	ldw	r2,0(r2)
 508eb28:	1000683a 	jmp	r2
 508eb2c:	0508ed28 	cmpgeui	r20,zero,9140
 508eb30:	0508f288 	cmpgei	r20,zero,9162
 508eb34:	0508f288 	cmpgei	r20,zero,9162
 508eb38:	0508ed1c 	xori	r20,zero,9140
 508eb3c:	0508f288 	cmpgei	r20,zero,9162
 508eb40:	0508f288 	cmpgei	r20,zero,9162
 508eb44:	0508f288 	cmpgei	r20,zero,9162
 508eb48:	0508f288 	cmpgei	r20,zero,9162
 508eb4c:	0508f288 	cmpgei	r20,zero,9162
 508eb50:	0508f288 	cmpgei	r20,zero,9162
 508eb54:	0508ec90 	cmplti	r20,zero,9138
 508eb58:	0508ee6c 	andhi	r20,zero,9145
 508eb5c:	0508f288 	cmpgei	r20,zero,9162
 508eb60:	0508ecbc 	xorhi	r20,zero,9138
 508eb64:	0508f2bc 	xorhi	r20,zero,9162
 508eb68:	0508f288 	cmpgei	r20,zero,9162
 508eb6c:	0508f2b0 	cmpltui	r20,zero,9162
 508eb70:	0508f250 	cmplti	r20,zero,9161
 508eb74:	0508f250 	cmplti	r20,zero,9161
 508eb78:	0508f250 	cmplti	r20,zero,9161
 508eb7c:	0508f250 	cmplti	r20,zero,9161
 508eb80:	0508f250 	cmplti	r20,zero,9161
 508eb84:	0508f250 	cmplti	r20,zero,9161
 508eb88:	0508f250 	cmplti	r20,zero,9161
 508eb8c:	0508f250 	cmplti	r20,zero,9161
 508eb90:	0508f250 	cmplti	r20,zero,9161
 508eb94:	0508f288 	cmpgei	r20,zero,9162
 508eb98:	0508f288 	cmpgei	r20,zero,9162
 508eb9c:	0508f288 	cmpgei	r20,zero,9162
 508eba0:	0508f288 	cmpgei	r20,zero,9162
 508eba4:	0508f288 	cmpgei	r20,zero,9162
 508eba8:	0508f288 	cmpgei	r20,zero,9162
 508ebac:	0508f288 	cmpgei	r20,zero,9162
 508ebb0:	0508f288 	cmpgei	r20,zero,9162
 508ebb4:	0508f288 	cmpgei	r20,zero,9162
 508ebb8:	0508f288 	cmpgei	r20,zero,9162
 508ebbc:	0508f1ec 	andhi	r20,zero,9159
 508ebc0:	0508f288 	cmpgei	r20,zero,9162
 508ebc4:	0508f288 	cmpgei	r20,zero,9162
 508ebc8:	0508f288 	cmpgei	r20,zero,9162
 508ebcc:	0508f288 	cmpgei	r20,zero,9162
 508ebd0:	0508f288 	cmpgei	r20,zero,9162
 508ebd4:	0508f288 	cmpgei	r20,zero,9162
 508ebd8:	0508f288 	cmpgei	r20,zero,9162
 508ebdc:	0508f288 	cmpgei	r20,zero,9162
 508ebe0:	0508f288 	cmpgei	r20,zero,9162
 508ebe4:	0508f288 	cmpgei	r20,zero,9162
 508ebe8:	0508f364 	muli	r20,zero,9165
 508ebec:	0508f288 	cmpgei	r20,zero,9162
 508ebf0:	0508f288 	cmpgei	r20,zero,9162
 508ebf4:	0508f288 	cmpgei	r20,zero,9162
 508ebf8:	0508f288 	cmpgei	r20,zero,9162
 508ebfc:	0508f288 	cmpgei	r20,zero,9162
 508ec00:	0508f2fc 	xorhi	r20,zero,9163
 508ec04:	0508f288 	cmpgei	r20,zero,9162
 508ec08:	0508f288 	cmpgei	r20,zero,9162
 508ec0c:	0508f030 	cmpltui	r20,zero,9152
 508ec10:	0508f288 	cmpgei	r20,zero,9162
 508ec14:	0508f288 	cmpgei	r20,zero,9162
 508ec18:	0508f288 	cmpgei	r20,zero,9162
 508ec1c:	0508f288 	cmpgei	r20,zero,9162
 508ec20:	0508f288 	cmpgei	r20,zero,9162
 508ec24:	0508f288 	cmpgei	r20,zero,9162
 508ec28:	0508f288 	cmpgei	r20,zero,9162
 508ec2c:	0508f288 	cmpgei	r20,zero,9162
 508ec30:	0508f288 	cmpgei	r20,zero,9162
 508ec34:	0508f288 	cmpgei	r20,zero,9162
 508ec38:	0508ef20 	cmpeqi	r20,zero,9148
 508ec3c:	0508f0cc 	andi	r20,zero,9155
 508ec40:	0508f288 	cmpgei	r20,zero,9162
 508ec44:	0508f288 	cmpgei	r20,zero,9162
 508ec48:	0508f288 	cmpgei	r20,zero,9162
 508ec4c:	0508f0c0 	call	508f0c <__alt_mem_sdram+0x508f0c>
 508ec50:	0508f0cc 	andi	r20,zero,9155
 508ec54:	0508f288 	cmpgei	r20,zero,9162
 508ec58:	0508f288 	cmpgei	r20,zero,9162
 508ec5c:	0508f0b0 	cmpltui	r20,zero,9154
 508ec60:	0508f288 	cmpgei	r20,zero,9162
 508ec64:	0508f074 	movhi	r20,9153
 508ec68:	0508ee7c 	xorhi	r20,zero,9145
 508ec6c:	0508ecc8 	cmpgei	r20,zero,9139
 508ec70:	0508f1e0 	cmpeqi	r20,zero,9159
 508ec74:	0508f288 	cmpgei	r20,zero,9162
 508ec78:	0508f194 	movui	r20,9158
 508ec7c:	0508f288 	cmpgei	r20,zero,9162
 508ec80:	0508edec 	andhi	r20,zero,9143
 508ec84:	0508f288 	cmpgei	r20,zero,9162
 508ec88:	0508f288 	cmpgei	r20,zero,9162
 508ec8c:	0508ed48 	cmpgei	r20,zero,9141
 508ec90:	dac02317 	ldw	r11,140(sp)
 508ec94:	5ac00017 	ldw	r11,0(r11)
 508ec98:	dac02415 	stw	r11,144(sp)
 508ec9c:	dac02317 	ldw	r11,140(sp)
 508eca0:	58800104 	addi	r2,r11,4
 508eca4:	dac02417 	ldw	r11,144(sp)
 508eca8:	5802e90e 	bge	r11,zero,508f850 <___svfiprintf_internal_r+0xe84>
 508ecac:	dac02417 	ldw	r11,144(sp)
 508ecb0:	d8802315 	stw	r2,140(sp)
 508ecb4:	02d7c83a 	sub	r11,zero,r11
 508ecb8:	dac02415 	stw	r11,144(sp)
 508ecbc:	94800114 	ori	r18,r18,4
 508ecc0:	98c00007 	ldb	r3,0(r19)
 508ecc4:	003f9006 	br	508eb08 <___svfiprintf_internal_r+0x13c>
 508ecc8:	00800c04 	movi	r2,48
 508eccc:	dac02317 	ldw	r11,140(sp)
 508ecd0:	d8801d05 	stb	r2,116(sp)
 508ecd4:	00801e04 	movi	r2,120
 508ecd8:	d8801d45 	stb	r2,117(sp)
 508ecdc:	d8001d85 	stb	zero,118(sp)
 508ece0:	58c00104 	addi	r3,r11,4
 508ece4:	5f000017 	ldw	fp,0(r11)
 508ece8:	0013883a 	mov	r9,zero
 508ecec:	90800094 	ori	r2,r18,2
 508ecf0:	80032b16 	blt	r16,zero,508f9a0 <___svfiprintf_internal_r+0xfd4>
 508ecf4:	00bfdfc4 	movi	r2,-129
 508ecf8:	90a4703a 	and	r18,r18,r2
 508ecfc:	d8c02315 	stw	r3,140(sp)
 508ed00:	94800094 	ori	r18,r18,2
 508ed04:	e002dc26 	beq	fp,zero,508f878 <___svfiprintf_internal_r+0xeac>
 508ed08:	01014274 	movhi	r4,1289
 508ed0c:	211a4004 	addi	r4,r4,26880
 508ed10:	0015883a 	mov	r10,zero
 508ed14:	d9002915 	stw	r4,164(sp)
 508ed18:	00002306 	br	508eda8 <___svfiprintf_internal_r+0x3dc>
 508ed1c:	94800054 	ori	r18,r18,1
 508ed20:	98c00007 	ldb	r3,0(r19)
 508ed24:	003f7806 	br	508eb08 <___svfiprintf_internal_r+0x13c>
 508ed28:	38803fcc 	andi	r2,r7,255
 508ed2c:	1080201c 	xori	r2,r2,128
 508ed30:	10bfe004 	addi	r2,r2,-128
 508ed34:	1002f31e 	bne	r2,zero,508f904 <___svfiprintf_internal_r+0xf38>
 508ed38:	01000044 	movi	r4,1
 508ed3c:	01c00804 	movi	r7,32
 508ed40:	98c00007 	ldb	r3,0(r19)
 508ed44:	003f7006 	br	508eb08 <___svfiprintf_internal_r+0x13c>
 508ed48:	21003fcc 	andi	r4,r4,255
 508ed4c:	2003aa1e 	bne	r4,zero,508fbf8 <___svfiprintf_internal_r+0x122c>
 508ed50:	00814274 	movhi	r2,1289
 508ed54:	109a4004 	addi	r2,r2,26880
 508ed58:	d8802915 	stw	r2,164(sp)
 508ed5c:	9080080c 	andi	r2,r18,32
 508ed60:	1000ba26 	beq	r2,zero,508f04c <___svfiprintf_internal_r+0x680>
 508ed64:	dac02317 	ldw	r11,140(sp)
 508ed68:	5f000017 	ldw	fp,0(r11)
 508ed6c:	5a400117 	ldw	r9,4(r11)
 508ed70:	5ac00204 	addi	r11,r11,8
 508ed74:	dac02315 	stw	r11,140(sp)
 508ed78:	9080004c 	andi	r2,r18,1
 508ed7c:	10029026 	beq	r2,zero,508f7c0 <___svfiprintf_internal_r+0xdf4>
 508ed80:	e244b03a 	or	r2,fp,r9
 508ed84:	1002d41e 	bne	r2,zero,508f8d8 <___svfiprintf_internal_r+0xf0c>
 508ed88:	d8001d85 	stb	zero,118(sp)
 508ed8c:	80030b16 	blt	r16,zero,508f9bc <___svfiprintf_internal_r+0xff0>
 508ed90:	00bfdfc4 	movi	r2,-129
 508ed94:	90a4703a 	and	r18,r18,r2
 508ed98:	0015883a 	mov	r10,zero
 508ed9c:	80002426 	beq	r16,zero,508ee30 <___svfiprintf_internal_r+0x464>
 508eda0:	0039883a 	mov	fp,zero
 508eda4:	0013883a 	mov	r9,zero
 508eda8:	d9002917 	ldw	r4,164(sp)
 508edac:	dc401a04 	addi	r17,sp,104
 508edb0:	e08003cc 	andi	r2,fp,15
 508edb4:	4806973a 	slli	r3,r9,28
 508edb8:	2085883a 	add	r2,r4,r2
 508edbc:	e038d13a 	srli	fp,fp,4
 508edc0:	10800003 	ldbu	r2,0(r2)
 508edc4:	4812d13a 	srli	r9,r9,4
 508edc8:	8c7fffc4 	addi	r17,r17,-1
 508edcc:	1f38b03a 	or	fp,r3,fp
 508edd0:	88800005 	stb	r2,0(r17)
 508edd4:	e244b03a 	or	r2,fp,r9
 508edd8:	103ff51e 	bne	r2,zero,508edb0 <___svfiprintf_internal_r+0x3e4>
 508eddc:	dac01e17 	ldw	r11,120(sp)
 508ede0:	5c57c83a 	sub	r11,r11,r17
 508ede4:	dac02115 	stw	r11,132(sp)
 508ede8:	00001406 	br	508ee3c <___svfiprintf_internal_r+0x470>
 508edec:	21003fcc 	andi	r4,r4,255
 508edf0:	2003741e 	bne	r4,zero,508fbc4 <___svfiprintf_internal_r+0x11f8>
 508edf4:	9080080c 	andi	r2,r18,32
 508edf8:	10014526 	beq	r2,zero,508f310 <___svfiprintf_internal_r+0x944>
 508edfc:	dac02317 	ldw	r11,140(sp)
 508ee00:	d8001d85 	stb	zero,118(sp)
 508ee04:	58c00204 	addi	r3,r11,8
 508ee08:	5f000017 	ldw	fp,0(r11)
 508ee0c:	5a400117 	ldw	r9,4(r11)
 508ee10:	8002d916 	blt	r16,zero,508f978 <___svfiprintf_internal_r+0xfac>
 508ee14:	013fdfc4 	movi	r4,-129
 508ee18:	e244b03a 	or	r2,fp,r9
 508ee1c:	d8c02315 	stw	r3,140(sp)
 508ee20:	9124703a 	and	r18,r18,r4
 508ee24:	0015883a 	mov	r10,zero
 508ee28:	1000b91e 	bne	r2,zero,508f110 <___svfiprintf_internal_r+0x744>
 508ee2c:	8002e61e 	bne	r16,zero,508f9c8 <___svfiprintf_internal_r+0xffc>
 508ee30:	0021883a 	mov	r16,zero
 508ee34:	d8002115 	stw	zero,132(sp)
 508ee38:	dc401a04 	addi	r17,sp,104
 508ee3c:	d8c02117 	ldw	r3,132(sp)
 508ee40:	dc002015 	stw	r16,128(sp)
 508ee44:	80c0010e 	bge	r16,r3,508ee4c <___svfiprintf_internal_r+0x480>
 508ee48:	d8c02015 	stw	r3,128(sp)
 508ee4c:	52803fcc 	andi	r10,r10,255
 508ee50:	5280201c 	xori	r10,r10,128
 508ee54:	52bfe004 	addi	r10,r10,-128
 508ee58:	50003c26 	beq	r10,zero,508ef4c <___svfiprintf_internal_r+0x580>
 508ee5c:	dac02017 	ldw	r11,128(sp)
 508ee60:	5ac00044 	addi	r11,r11,1
 508ee64:	dac02015 	stw	r11,128(sp)
 508ee68:	00003806 	br	508ef4c <___svfiprintf_internal_r+0x580>
 508ee6c:	01000044 	movi	r4,1
 508ee70:	01c00ac4 	movi	r7,43
 508ee74:	98c00007 	ldb	r3,0(r19)
 508ee78:	003f2306 	br	508eb08 <___svfiprintf_internal_r+0x13c>
 508ee7c:	21003fcc 	andi	r4,r4,255
 508ee80:	2003481e 	bne	r4,zero,508fba4 <___svfiprintf_internal_r+0x11d8>
 508ee84:	9080080c 	andi	r2,r18,32
 508ee88:	10013b26 	beq	r2,zero,508f378 <___svfiprintf_internal_r+0x9ac>
 508ee8c:	dac02317 	ldw	r11,140(sp)
 508ee90:	d8001d85 	stb	zero,118(sp)
 508ee94:	58800204 	addi	r2,r11,8
 508ee98:	5f000017 	ldw	fp,0(r11)
 508ee9c:	5a400117 	ldw	r9,4(r11)
 508eea0:	8002a816 	blt	r16,zero,508f944 <___svfiprintf_internal_r+0xf78>
 508eea4:	013fdfc4 	movi	r4,-129
 508eea8:	e246b03a 	or	r3,fp,r9
 508eeac:	d8802315 	stw	r2,140(sp)
 508eeb0:	9124703a 	and	r18,r18,r4
 508eeb4:	18013c26 	beq	r3,zero,508f3a8 <___svfiprintf_internal_r+0x9dc>
 508eeb8:	0015883a 	mov	r10,zero
 508eebc:	dc401a04 	addi	r17,sp,104
 508eec0:	e006d0fa 	srli	r3,fp,3
 508eec4:	4808977a 	slli	r4,r9,29
 508eec8:	4812d0fa 	srli	r9,r9,3
 508eecc:	e70001cc 	andi	fp,fp,7
 508eed0:	e0800c04 	addi	r2,fp,48
 508eed4:	8c7fffc4 	addi	r17,r17,-1
 508eed8:	20f8b03a 	or	fp,r4,r3
 508eedc:	88800005 	stb	r2,0(r17)
 508eee0:	e246b03a 	or	r3,fp,r9
 508eee4:	183ff61e 	bne	r3,zero,508eec0 <___svfiprintf_internal_r+0x4f4>
 508eee8:	90c0004c 	andi	r3,r18,1
 508eeec:	1800a526 	beq	r3,zero,508f184 <___svfiprintf_internal_r+0x7b8>
 508eef0:	10803fcc 	andi	r2,r2,255
 508eef4:	1080201c 	xori	r2,r2,128
 508eef8:	10bfe004 	addi	r2,r2,-128
 508eefc:	00c00c04 	movi	r3,48
 508ef00:	10ffb626 	beq	r2,r3,508eddc <___svfiprintf_internal_r+0x410>
 508ef04:	88ffffc5 	stb	r3,-1(r17)
 508ef08:	d8c01e17 	ldw	r3,120(sp)
 508ef0c:	88bfffc4 	addi	r2,r17,-1
 508ef10:	1023883a 	mov	r17,r2
 508ef14:	1887c83a 	sub	r3,r3,r2
 508ef18:	d8c02115 	stw	r3,132(sp)
 508ef1c:	003fc706 	br	508ee3c <___svfiprintf_internal_r+0x470>
 508ef20:	dac02317 	ldw	r11,140(sp)
 508ef24:	00c00044 	movi	r3,1
 508ef28:	d8c02015 	stw	r3,128(sp)
 508ef2c:	58800017 	ldw	r2,0(r11)
 508ef30:	5ac00104 	addi	r11,r11,4
 508ef34:	d8001d85 	stb	zero,118(sp)
 508ef38:	d8801005 	stb	r2,64(sp)
 508ef3c:	dac02315 	stw	r11,140(sp)
 508ef40:	d8c02115 	stw	r3,132(sp)
 508ef44:	dc401004 	addi	r17,sp,64
 508ef48:	0021883a 	mov	r16,zero
 508ef4c:	90c0008c 	andi	r3,r18,2
 508ef50:	d8c02215 	stw	r3,136(sp)
 508ef54:	18000326 	beq	r3,zero,508ef64 <___svfiprintf_internal_r+0x598>
 508ef58:	dac02017 	ldw	r11,128(sp)
 508ef5c:	5ac00084 	addi	r11,r11,2
 508ef60:	dac02015 	stw	r11,128(sp)
 508ef64:	90c0210c 	andi	r3,r18,132
 508ef68:	d8c02615 	stw	r3,152(sp)
 508ef6c:	1801131e 	bne	r3,zero,508f3bc <___svfiprintf_internal_r+0x9f0>
 508ef70:	dac02417 	ldw	r11,144(sp)
 508ef74:	d8c02017 	ldw	r3,128(sp)
 508ef78:	58f9c83a 	sub	fp,r11,r3
 508ef7c:	07010f0e 	bge	zero,fp,508f3bc <___svfiprintf_internal_r+0x9f0>
 508ef80:	02400404 	movi	r9,16
 508ef84:	d8c01c17 	ldw	r3,112(sp)
 508ef88:	d8801b17 	ldw	r2,108(sp)
 508ef8c:	4f02d60e 	bge	r9,fp,508fae8 <___svfiprintf_internal_r+0x111c>
 508ef90:	01414274 	movhi	r5,1289
 508ef94:	295aad04 	addi	r5,r5,27316
 508ef98:	d9402815 	stw	r5,160(sp)
 508ef9c:	028001c4 	movi	r10,7
 508efa0:	00000306 	br	508efb0 <___svfiprintf_internal_r+0x5e4>
 508efa4:	e73ffc04 	addi	fp,fp,-16
 508efa8:	42000204 	addi	r8,r8,8
 508efac:	4f00150e 	bge	r9,fp,508f004 <___svfiprintf_internal_r+0x638>
 508efb0:	18c00404 	addi	r3,r3,16
 508efb4:	10800044 	addi	r2,r2,1
 508efb8:	45800015 	stw	r22,0(r8)
 508efbc:	42400115 	stw	r9,4(r8)
 508efc0:	d8c01c15 	stw	r3,112(sp)
 508efc4:	d8801b15 	stw	r2,108(sp)
 508efc8:	50bff60e 	bge	r10,r2,508efa4 <___svfiprintf_internal_r+0x5d8>
 508efcc:	d9801a04 	addi	r6,sp,104
 508efd0:	b80b883a 	mov	r5,r23
 508efd4:	a809883a 	mov	r4,r21
 508efd8:	da402c15 	stw	r9,176(sp)
 508efdc:	da802d15 	stw	r10,180(sp)
 508efe0:	508e7fc0 	call	508e7fc <__ssprint_r>
 508efe4:	da402c17 	ldw	r9,176(sp)
 508efe8:	da802d17 	ldw	r10,180(sp)
 508efec:	1001851e 	bne	r2,zero,508f604 <___svfiprintf_internal_r+0xc38>
 508eff0:	e73ffc04 	addi	fp,fp,-16
 508eff4:	d8c01c17 	ldw	r3,112(sp)
 508eff8:	d8801b17 	ldw	r2,108(sp)
 508effc:	d811883a 	mov	r8,sp
 508f000:	4f3feb16 	blt	r9,fp,508efb0 <___svfiprintf_internal_r+0x5e4>
 508f004:	dac02817 	ldw	r11,160(sp)
 508f008:	e0c7883a 	add	r3,fp,r3
 508f00c:	10800044 	addi	r2,r2,1
 508f010:	42c00015 	stw	r11,0(r8)
 508f014:	47000115 	stw	fp,4(r8)
 508f018:	d8c01c15 	stw	r3,112(sp)
 508f01c:	d8801b15 	stw	r2,108(sp)
 508f020:	010001c4 	movi	r4,7
 508f024:	2081ee16 	blt	r4,r2,508f7e0 <___svfiprintf_internal_r+0xe14>
 508f028:	42000204 	addi	r8,r8,8
 508f02c:	0000e506 	br	508f3c4 <___svfiprintf_internal_r+0x9f8>
 508f030:	21003fcc 	andi	r4,r4,255
 508f034:	2002dd1e 	bne	r4,zero,508fbac <___svfiprintf_internal_r+0x11e0>
 508f038:	00814274 	movhi	r2,1289
 508f03c:	109a3b04 	addi	r2,r2,26860
 508f040:	d8802915 	stw	r2,164(sp)
 508f044:	9080080c 	andi	r2,r18,32
 508f048:	103f461e 	bne	r2,zero,508ed64 <___svfiprintf_internal_r+0x398>
 508f04c:	9080040c 	andi	r2,r18,16
 508f050:	10022e1e 	bne	r2,zero,508f90c <___svfiprintf_internal_r+0xf40>
 508f054:	9080100c 	andi	r2,r18,64
 508f058:	dac02317 	ldw	r11,140(sp)
 508f05c:	10027326 	beq	r2,zero,508fa2c <___svfiprintf_internal_r+0x1060>
 508f060:	5f00000b 	ldhu	fp,0(r11)
 508f064:	5ac00104 	addi	r11,r11,4
 508f068:	0013883a 	mov	r9,zero
 508f06c:	dac02315 	stw	r11,140(sp)
 508f070:	003f4106 	br	508ed78 <___svfiprintf_internal_r+0x3ac>
 508f074:	21003fcc 	andi	r4,r4,255
 508f078:	2002e11e 	bne	r4,zero,508fc00 <___svfiprintf_internal_r+0x1234>
 508f07c:	9080080c 	andi	r2,r18,32
 508f080:	1002011e 	bne	r2,zero,508f888 <___svfiprintf_internal_r+0xebc>
 508f084:	9080040c 	andi	r2,r18,16
 508f088:	10023e1e 	bne	r2,zero,508f984 <___svfiprintf_internal_r+0xfb8>
 508f08c:	9480100c 	andi	r18,r18,64
 508f090:	90023c26 	beq	r18,zero,508f984 <___svfiprintf_internal_r+0xfb8>
 508f094:	dac02317 	ldw	r11,140(sp)
 508f098:	58800017 	ldw	r2,0(r11)
 508f09c:	5ac00104 	addi	r11,r11,4
 508f0a0:	dac02315 	stw	r11,140(sp)
 508f0a4:	dac02517 	ldw	r11,148(sp)
 508f0a8:	12c0000d 	sth	r11,0(r2)
 508f0ac:	003e6e06 	br	508ea68 <___svfiprintf_internal_r+0x9c>
 508f0b0:	98c00007 	ldb	r3,0(r19)
 508f0b4:	1a422926 	beq	r3,r9,508f95c <___svfiprintf_internal_r+0xf90>
 508f0b8:	94800414 	ori	r18,r18,16
 508f0bc:	003e9206 	br	508eb08 <___svfiprintf_internal_r+0x13c>
 508f0c0:	94801014 	ori	r18,r18,64
 508f0c4:	98c00007 	ldb	r3,0(r19)
 508f0c8:	003e8f06 	br	508eb08 <___svfiprintf_internal_r+0x13c>
 508f0cc:	21003fcc 	andi	r4,r4,255
 508f0d0:	2002c71e 	bne	r4,zero,508fbf0 <___svfiprintf_internal_r+0x1224>
 508f0d4:	9080080c 	andi	r2,r18,32
 508f0d8:	10004926 	beq	r2,zero,508f200 <___svfiprintf_internal_r+0x834>
 508f0dc:	dac02317 	ldw	r11,140(sp)
 508f0e0:	58800117 	ldw	r2,4(r11)
 508f0e4:	5f000017 	ldw	fp,0(r11)
 508f0e8:	5ac00204 	addi	r11,r11,8
 508f0ec:	dac02315 	stw	r11,140(sp)
 508f0f0:	1013883a 	mov	r9,r2
 508f0f4:	10004b16 	blt	r2,zero,508f224 <___svfiprintf_internal_r+0x858>
 508f0f8:	da801d83 	ldbu	r10,118(sp)
 508f0fc:	8001cb16 	blt	r16,zero,508f82c <___svfiprintf_internal_r+0xe60>
 508f100:	00ffdfc4 	movi	r3,-129
 508f104:	e244b03a 	or	r2,fp,r9
 508f108:	90e4703a 	and	r18,r18,r3
 508f10c:	103f4726 	beq	r2,zero,508ee2c <___svfiprintf_internal_r+0x460>
 508f110:	48008c26 	beq	r9,zero,508f344 <___svfiprintf_internal_r+0x978>
 508f114:	dc802015 	stw	r18,128(sp)
 508f118:	dc002115 	stw	r16,132(sp)
 508f11c:	dc401a04 	addi	r17,sp,104
 508f120:	e021883a 	mov	r16,fp
 508f124:	da002215 	stw	r8,136(sp)
 508f128:	5039883a 	mov	fp,r10
 508f12c:	4825883a 	mov	r18,r9
 508f130:	8009883a 	mov	r4,r16
 508f134:	900b883a 	mov	r5,r18
 508f138:	01800284 	movi	r6,10
 508f13c:	000f883a 	mov	r7,zero
 508f140:	50920fc0 	call	50920fc <__umoddi3>
 508f144:	10800c04 	addi	r2,r2,48
 508f148:	8c7fffc4 	addi	r17,r17,-1
 508f14c:	8009883a 	mov	r4,r16
 508f150:	900b883a 	mov	r5,r18
 508f154:	88800005 	stb	r2,0(r17)
 508f158:	01800284 	movi	r6,10
 508f15c:	000f883a 	mov	r7,zero
 508f160:	5091b840 	call	5091b84 <__udivdi3>
 508f164:	1021883a 	mov	r16,r2
 508f168:	10c4b03a 	or	r2,r2,r3
 508f16c:	1825883a 	mov	r18,r3
 508f170:	103fef1e 	bne	r2,zero,508f130 <___svfiprintf_internal_r+0x764>
 508f174:	dc802017 	ldw	r18,128(sp)
 508f178:	dc002117 	ldw	r16,132(sp)
 508f17c:	da002217 	ldw	r8,136(sp)
 508f180:	e015883a 	mov	r10,fp
 508f184:	d8c01e17 	ldw	r3,120(sp)
 508f188:	1c47c83a 	sub	r3,r3,r17
 508f18c:	d8c02115 	stw	r3,132(sp)
 508f190:	003f2a06 	br	508ee3c <___svfiprintf_internal_r+0x470>
 508f194:	dac02317 	ldw	r11,140(sp)
 508f198:	d8001d85 	stb	zero,118(sp)
 508f19c:	5c400017 	ldw	r17,0(r11)
 508f1a0:	5f000104 	addi	fp,r11,4
 508f1a4:	88022f26 	beq	r17,zero,508fa64 <___svfiprintf_internal_r+0x1098>
 508f1a8:	80022516 	blt	r16,zero,508fa40 <___svfiprintf_internal_r+0x1074>
 508f1ac:	800d883a 	mov	r6,r16
 508f1b0:	000b883a 	mov	r5,zero
 508f1b4:	8809883a 	mov	r4,r17
 508f1b8:	da002c15 	stw	r8,176(sp)
 508f1bc:	508cdb00 	call	508cdb0 <memchr>
 508f1c0:	da002c17 	ldw	r8,176(sp)
 508f1c4:	10026426 	beq	r2,zero,508fb58 <___svfiprintf_internal_r+0x118c>
 508f1c8:	1445c83a 	sub	r2,r2,r17
 508f1cc:	d8802115 	stw	r2,132(sp)
 508f1d0:	da801d83 	ldbu	r10,118(sp)
 508f1d4:	df002315 	stw	fp,140(sp)
 508f1d8:	0021883a 	mov	r16,zero
 508f1dc:	003f1706 	br	508ee3c <___svfiprintf_internal_r+0x470>
 508f1e0:	94800814 	ori	r18,r18,32
 508f1e4:	98c00007 	ldb	r3,0(r19)
 508f1e8:	003e4706 	br	508eb08 <___svfiprintf_internal_r+0x13c>
 508f1ec:	21003fcc 	andi	r4,r4,255
 508f1f0:	2002701e 	bne	r4,zero,508fbb4 <___svfiprintf_internal_r+0x11e8>
 508f1f4:	94800414 	ori	r18,r18,16
 508f1f8:	9080080c 	andi	r2,r18,32
 508f1fc:	103fb71e 	bne	r2,zero,508f0dc <___svfiprintf_internal_r+0x710>
 508f200:	9080040c 	andi	r2,r18,16
 508f204:	1001ab26 	beq	r2,zero,508f8b4 <___svfiprintf_internal_r+0xee8>
 508f208:	dac02317 	ldw	r11,140(sp)
 508f20c:	5f000017 	ldw	fp,0(r11)
 508f210:	5ac00104 	addi	r11,r11,4
 508f214:	dac02315 	stw	r11,140(sp)
 508f218:	e013d7fa 	srai	r9,fp,31
 508f21c:	4805883a 	mov	r2,r9
 508f220:	103fb50e 	bge	r2,zero,508f0f8 <___svfiprintf_internal_r+0x72c>
 508f224:	0739c83a 	sub	fp,zero,fp
 508f228:	02800b44 	movi	r10,45
 508f22c:	e004c03a 	cmpne	r2,fp,zero
 508f230:	0253c83a 	sub	r9,zero,r9
 508f234:	da801d85 	stb	r10,118(sp)
 508f238:	4893c83a 	sub	r9,r9,r2
 508f23c:	80023016 	blt	r16,zero,508fb00 <___svfiprintf_internal_r+0x1134>
 508f240:	00bfdfc4 	movi	r2,-129
 508f244:	90a4703a 	and	r18,r18,r2
 508f248:	483fb21e 	bne	r9,zero,508f114 <___svfiprintf_internal_r+0x748>
 508f24c:	00003d06 	br	508f344 <___svfiprintf_internal_r+0x978>
 508f250:	9817883a 	mov	r11,r19
 508f254:	d8002415 	stw	zero,144(sp)
 508f258:	18bff404 	addi	r2,r3,-48
 508f25c:	0019883a 	mov	r12,zero
 508f260:	58c00007 	ldb	r3,0(r11)
 508f264:	630002a4 	muli	r12,r12,10
 508f268:	9cc00044 	addi	r19,r19,1
 508f26c:	9817883a 	mov	r11,r19
 508f270:	1319883a 	add	r12,r2,r12
 508f274:	18bff404 	addi	r2,r3,-48
 508f278:	30bff92e 	bgeu	r6,r2,508f260 <___svfiprintf_internal_r+0x894>
 508f27c:	db002415 	stw	r12,144(sp)
 508f280:	18bff804 	addi	r2,r3,-32
 508f284:	28be232e 	bgeu	r5,r2,508eb14 <___svfiprintf_internal_r+0x148>
 508f288:	21003fcc 	andi	r4,r4,255
 508f28c:	20024b1e 	bne	r4,zero,508fbbc <___svfiprintf_internal_r+0x11f0>
 508f290:	1800d626 	beq	r3,zero,508f5ec <___svfiprintf_internal_r+0xc20>
 508f294:	02c00044 	movi	r11,1
 508f298:	dac02015 	stw	r11,128(sp)
 508f29c:	d8c01005 	stb	r3,64(sp)
 508f2a0:	d8001d85 	stb	zero,118(sp)
 508f2a4:	dac02115 	stw	r11,132(sp)
 508f2a8:	dc401004 	addi	r17,sp,64
 508f2ac:	003f2606 	br	508ef48 <___svfiprintf_internal_r+0x57c>
 508f2b0:	94802014 	ori	r18,r18,128
 508f2b4:	98c00007 	ldb	r3,0(r19)
 508f2b8:	003e1306 	br	508eb08 <___svfiprintf_internal_r+0x13c>
 508f2bc:	98c00007 	ldb	r3,0(r19)
 508f2c0:	9ac00044 	addi	r11,r19,1
 508f2c4:	1a822b26 	beq	r3,r10,508fb74 <___svfiprintf_internal_r+0x11a8>
 508f2c8:	18bff404 	addi	r2,r3,-48
 508f2cc:	0021883a 	mov	r16,zero
 508f2d0:	30821e36 	bltu	r6,r2,508fb4c <___svfiprintf_internal_r+0x1180>
 508f2d4:	58c00007 	ldb	r3,0(r11)
 508f2d8:	840002a4 	muli	r16,r16,10
 508f2dc:	5cc00044 	addi	r19,r11,1
 508f2e0:	9817883a 	mov	r11,r19
 508f2e4:	80a1883a 	add	r16,r16,r2
 508f2e8:	18bff404 	addi	r2,r3,-48
 508f2ec:	30bff92e 	bgeu	r6,r2,508f2d4 <___svfiprintf_internal_r+0x908>
 508f2f0:	803e060e 	bge	r16,zero,508eb0c <___svfiprintf_internal_r+0x140>
 508f2f4:	043fffc4 	movi	r16,-1
 508f2f8:	003e0406 	br	508eb0c <___svfiprintf_internal_r+0x140>
 508f2fc:	21003fcc 	andi	r4,r4,255
 508f300:	2002371e 	bne	r4,zero,508fbe0 <___svfiprintf_internal_r+0x1214>
 508f304:	94800414 	ori	r18,r18,16
 508f308:	9080080c 	andi	r2,r18,32
 508f30c:	103ebb1e 	bne	r2,zero,508edfc <___svfiprintf_internal_r+0x430>
 508f310:	9080040c 	andi	r2,r18,16
 508f314:	10013b26 	beq	r2,zero,508f804 <___svfiprintf_internal_r+0xe38>
 508f318:	dac02317 	ldw	r11,140(sp)
 508f31c:	d8001d85 	stb	zero,118(sp)
 508f320:	0013883a 	mov	r9,zero
 508f324:	58800104 	addi	r2,r11,4
 508f328:	5f000017 	ldw	fp,0(r11)
 508f32c:	80013d16 	blt	r16,zero,508f824 <___svfiprintf_internal_r+0xe58>
 508f330:	00ffdfc4 	movi	r3,-129
 508f334:	d8802315 	stw	r2,140(sp)
 508f338:	90e4703a 	and	r18,r18,r3
 508f33c:	0015883a 	mov	r10,zero
 508f340:	e03eba26 	beq	fp,zero,508ee2c <___svfiprintf_internal_r+0x460>
 508f344:	00800244 	movi	r2,9
 508f348:	173f7236 	bltu	r2,fp,508f114 <___svfiprintf_internal_r+0x748>
 508f34c:	dac02b17 	ldw	r11,172(sp)
 508f350:	e7000c04 	addi	fp,fp,48
 508f354:	df0019c5 	stb	fp,103(sp)
 508f358:	dac02115 	stw	r11,132(sp)
 508f35c:	dc4019c4 	addi	r17,sp,103
 508f360:	003eb606 	br	508ee3c <___svfiprintf_internal_r+0x470>
 508f364:	21003fcc 	andi	r4,r4,255
 508f368:	20021f1e 	bne	r4,zero,508fbe8 <___svfiprintf_internal_r+0x121c>
 508f36c:	94800414 	ori	r18,r18,16
 508f370:	9080080c 	andi	r2,r18,32
 508f374:	103ec51e 	bne	r2,zero,508ee8c <___svfiprintf_internal_r+0x4c0>
 508f378:	9080040c 	andi	r2,r18,16
 508f37c:	10016926 	beq	r2,zero,508f924 <___svfiprintf_internal_r+0xf58>
 508f380:	dac02317 	ldw	r11,140(sp)
 508f384:	d8001d85 	stb	zero,118(sp)
 508f388:	0013883a 	mov	r9,zero
 508f38c:	58800104 	addi	r2,r11,4
 508f390:	5f000017 	ldw	fp,0(r11)
 508f394:	80016b16 	blt	r16,zero,508f944 <___svfiprintf_internal_r+0xf78>
 508f398:	00ffdfc4 	movi	r3,-129
 508f39c:	d8802315 	stw	r2,140(sp)
 508f3a0:	90e4703a 	and	r18,r18,r3
 508f3a4:	e03ec41e 	bne	fp,zero,508eeb8 <___svfiprintf_internal_r+0x4ec>
 508f3a8:	0015883a 	mov	r10,zero
 508f3ac:	8001c226 	beq	r16,zero,508fab8 <___svfiprintf_internal_r+0x10ec>
 508f3b0:	0039883a 	mov	fp,zero
 508f3b4:	0013883a 	mov	r9,zero
 508f3b8:	003ec006 	br	508eebc <___svfiprintf_internal_r+0x4f0>
 508f3bc:	d8c01c17 	ldw	r3,112(sp)
 508f3c0:	d8801b17 	ldw	r2,108(sp)
 508f3c4:	d9001d87 	ldb	r4,118(sp)
 508f3c8:	20000b26 	beq	r4,zero,508f3f8 <___svfiprintf_internal_r+0xa2c>
 508f3cc:	d9001d84 	addi	r4,sp,118
 508f3d0:	18c00044 	addi	r3,r3,1
 508f3d4:	10800044 	addi	r2,r2,1
 508f3d8:	41000015 	stw	r4,0(r8)
 508f3dc:	01000044 	movi	r4,1
 508f3e0:	41000115 	stw	r4,4(r8)
 508f3e4:	d8c01c15 	stw	r3,112(sp)
 508f3e8:	d8801b15 	stw	r2,108(sp)
 508f3ec:	010001c4 	movi	r4,7
 508f3f0:	2080e116 	blt	r4,r2,508f778 <___svfiprintf_internal_r+0xdac>
 508f3f4:	42000204 	addi	r8,r8,8
 508f3f8:	dac02217 	ldw	r11,136(sp)
 508f3fc:	58000b26 	beq	r11,zero,508f42c <___svfiprintf_internal_r+0xa60>
 508f400:	d9001d04 	addi	r4,sp,116
 508f404:	18c00084 	addi	r3,r3,2
 508f408:	10800044 	addi	r2,r2,1
 508f40c:	41000015 	stw	r4,0(r8)
 508f410:	01000084 	movi	r4,2
 508f414:	41000115 	stw	r4,4(r8)
 508f418:	d8c01c15 	stw	r3,112(sp)
 508f41c:	d8801b15 	stw	r2,108(sp)
 508f420:	010001c4 	movi	r4,7
 508f424:	2080dd16 	blt	r4,r2,508f79c <___svfiprintf_internal_r+0xdd0>
 508f428:	42000204 	addi	r8,r8,8
 508f42c:	dac02617 	ldw	r11,152(sp)
 508f430:	01002004 	movi	r4,128
 508f434:	59008426 	beq	r11,r4,508f648 <___svfiprintf_internal_r+0xc7c>
 508f438:	dac02117 	ldw	r11,132(sp)
 508f43c:	82e1c83a 	sub	r16,r16,r11
 508f440:	0400270e 	bge	zero,r16,508f4e0 <___svfiprintf_internal_r+0xb14>
 508f444:	01c00404 	movi	r7,16
 508f448:	3c016a0e 	bge	r7,r16,508f9f4 <___svfiprintf_internal_r+0x1028>
 508f44c:	01414274 	movhi	r5,1289
 508f450:	295aa904 	addi	r5,r5,27300
 508f454:	d9402215 	stw	r5,136(sp)
 508f458:	070001c4 	movi	fp,7
 508f45c:	00000306 	br	508f46c <___svfiprintf_internal_r+0xaa0>
 508f460:	843ffc04 	addi	r16,r16,-16
 508f464:	42000204 	addi	r8,r8,8
 508f468:	3c00130e 	bge	r7,r16,508f4b8 <___svfiprintf_internal_r+0xaec>
 508f46c:	18c00404 	addi	r3,r3,16
 508f470:	10800044 	addi	r2,r2,1
 508f474:	45000015 	stw	r20,0(r8)
 508f478:	41c00115 	stw	r7,4(r8)
 508f47c:	d8c01c15 	stw	r3,112(sp)
 508f480:	d8801b15 	stw	r2,108(sp)
 508f484:	e0bff60e 	bge	fp,r2,508f460 <___svfiprintf_internal_r+0xa94>
 508f488:	d9801a04 	addi	r6,sp,104
 508f48c:	b80b883a 	mov	r5,r23
 508f490:	a809883a 	mov	r4,r21
 508f494:	d9c02c15 	stw	r7,176(sp)
 508f498:	508e7fc0 	call	508e7fc <__ssprint_r>
 508f49c:	d9c02c17 	ldw	r7,176(sp)
 508f4a0:	1000581e 	bne	r2,zero,508f604 <___svfiprintf_internal_r+0xc38>
 508f4a4:	843ffc04 	addi	r16,r16,-16
 508f4a8:	d8c01c17 	ldw	r3,112(sp)
 508f4ac:	d8801b17 	ldw	r2,108(sp)
 508f4b0:	d811883a 	mov	r8,sp
 508f4b4:	3c3fed16 	blt	r7,r16,508f46c <___svfiprintf_internal_r+0xaa0>
 508f4b8:	dac02217 	ldw	r11,136(sp)
 508f4bc:	1c07883a 	add	r3,r3,r16
 508f4c0:	10800044 	addi	r2,r2,1
 508f4c4:	42c00015 	stw	r11,0(r8)
 508f4c8:	44000115 	stw	r16,4(r8)
 508f4cc:	d8c01c15 	stw	r3,112(sp)
 508f4d0:	d8801b15 	stw	r2,108(sp)
 508f4d4:	010001c4 	movi	r4,7
 508f4d8:	20809e16 	blt	r4,r2,508f754 <___svfiprintf_internal_r+0xd88>
 508f4dc:	42000204 	addi	r8,r8,8
 508f4e0:	dac02117 	ldw	r11,132(sp)
 508f4e4:	10800044 	addi	r2,r2,1
 508f4e8:	44400015 	stw	r17,0(r8)
 508f4ec:	58c7883a 	add	r3,r11,r3
 508f4f0:	42c00115 	stw	r11,4(r8)
 508f4f4:	d8c01c15 	stw	r3,112(sp)
 508f4f8:	d8801b15 	stw	r2,108(sp)
 508f4fc:	010001c4 	movi	r4,7
 508f500:	20807f16 	blt	r4,r2,508f700 <___svfiprintf_internal_r+0xd34>
 508f504:	42000204 	addi	r8,r8,8
 508f508:	9480010c 	andi	r18,r18,4
 508f50c:	90002926 	beq	r18,zero,508f5b4 <___svfiprintf_internal_r+0xbe8>
 508f510:	dac02417 	ldw	r11,144(sp)
 508f514:	d8802017 	ldw	r2,128(sp)
 508f518:	58a1c83a 	sub	r16,r11,r2
 508f51c:	0400250e 	bge	zero,r16,508f5b4 <___svfiprintf_internal_r+0xbe8>
 508f520:	04400404 	movi	r17,16
 508f524:	d8801b17 	ldw	r2,108(sp)
 508f528:	8c017c0e 	bge	r17,r16,508fb1c <___svfiprintf_internal_r+0x1150>
 508f52c:	01414274 	movhi	r5,1289
 508f530:	295aad04 	addi	r5,r5,27316
 508f534:	d9402815 	stw	r5,160(sp)
 508f538:	048001c4 	movi	r18,7
 508f53c:	00000306 	br	508f54c <___svfiprintf_internal_r+0xb80>
 508f540:	843ffc04 	addi	r16,r16,-16
 508f544:	42000204 	addi	r8,r8,8
 508f548:	8c00110e 	bge	r17,r16,508f590 <___svfiprintf_internal_r+0xbc4>
 508f54c:	18c00404 	addi	r3,r3,16
 508f550:	10800044 	addi	r2,r2,1
 508f554:	45800015 	stw	r22,0(r8)
 508f558:	44400115 	stw	r17,4(r8)
 508f55c:	d8c01c15 	stw	r3,112(sp)
 508f560:	d8801b15 	stw	r2,108(sp)
 508f564:	90bff60e 	bge	r18,r2,508f540 <___svfiprintf_internal_r+0xb74>
 508f568:	d9801a04 	addi	r6,sp,104
 508f56c:	b80b883a 	mov	r5,r23
 508f570:	a809883a 	mov	r4,r21
 508f574:	508e7fc0 	call	508e7fc <__ssprint_r>
 508f578:	1000221e 	bne	r2,zero,508f604 <___svfiprintf_internal_r+0xc38>
 508f57c:	843ffc04 	addi	r16,r16,-16
 508f580:	d8c01c17 	ldw	r3,112(sp)
 508f584:	d8801b17 	ldw	r2,108(sp)
 508f588:	d811883a 	mov	r8,sp
 508f58c:	8c3fef16 	blt	r17,r16,508f54c <___svfiprintf_internal_r+0xb80>
 508f590:	dac02817 	ldw	r11,160(sp)
 508f594:	1c07883a 	add	r3,r3,r16
 508f598:	10800044 	addi	r2,r2,1
 508f59c:	42c00015 	stw	r11,0(r8)
 508f5a0:	44000115 	stw	r16,4(r8)
 508f5a4:	d8c01c15 	stw	r3,112(sp)
 508f5a8:	d8801b15 	stw	r2,108(sp)
 508f5ac:	010001c4 	movi	r4,7
 508f5b0:	2080aa16 	blt	r4,r2,508f85c <___svfiprintf_internal_r+0xe90>
 508f5b4:	d8802417 	ldw	r2,144(sp)
 508f5b8:	dac02017 	ldw	r11,128(sp)
 508f5bc:	12c0010e 	bge	r2,r11,508f5c4 <___svfiprintf_internal_r+0xbf8>
 508f5c0:	5805883a 	mov	r2,r11
 508f5c4:	dac02517 	ldw	r11,148(sp)
 508f5c8:	5897883a 	add	r11,r11,r2
 508f5cc:	dac02515 	stw	r11,148(sp)
 508f5d0:	1800531e 	bne	r3,zero,508f720 <___svfiprintf_internal_r+0xd54>
 508f5d4:	98800007 	ldb	r2,0(r19)
 508f5d8:	d8001b15 	stw	zero,108(sp)
 508f5dc:	d811883a 	mov	r8,sp
 508f5e0:	103d231e 	bne	r2,zero,508ea70 <___svfiprintf_internal_r+0xa4>
 508f5e4:	9823883a 	mov	r17,r19
 508f5e8:	003d3906 	br	508ead0 <___svfiprintf_internal_r+0x104>
 508f5ec:	d8801c17 	ldw	r2,112(sp)
 508f5f0:	10000426 	beq	r2,zero,508f604 <___svfiprintf_internal_r+0xc38>
 508f5f4:	d9402717 	ldw	r5,156(sp)
 508f5f8:	d9002a17 	ldw	r4,168(sp)
 508f5fc:	d9801a04 	addi	r6,sp,104
 508f600:	508e7fc0 	call	508e7fc <__ssprint_r>
 508f604:	dac02717 	ldw	r11,156(sp)
 508f608:	d8802517 	ldw	r2,148(sp)
 508f60c:	58c0030b 	ldhu	r3,12(r11)
 508f610:	18c0100c 	andi	r3,r3,64
 508f614:	1801381e 	bne	r3,zero,508faf8 <___svfiprintf_internal_r+0x112c>
 508f618:	dfc03717 	ldw	ra,220(sp)
 508f61c:	df003617 	ldw	fp,216(sp)
 508f620:	ddc03517 	ldw	r23,212(sp)
 508f624:	dd803417 	ldw	r22,208(sp)
 508f628:	dd403317 	ldw	r21,204(sp)
 508f62c:	dd003217 	ldw	r20,200(sp)
 508f630:	dcc03117 	ldw	r19,196(sp)
 508f634:	dc803017 	ldw	r18,192(sp)
 508f638:	dc402f17 	ldw	r17,188(sp)
 508f63c:	dc002e17 	ldw	r16,184(sp)
 508f640:	dec03804 	addi	sp,sp,224
 508f644:	f800283a 	ret
 508f648:	dac02417 	ldw	r11,144(sp)
 508f64c:	d9002017 	ldw	r4,128(sp)
 508f650:	5939c83a 	sub	fp,r11,r4
 508f654:	073f780e 	bge	zero,fp,508f438 <___svfiprintf_internal_r+0xa6c>
 508f658:	02400404 	movi	r9,16
 508f65c:	4f01370e 	bge	r9,fp,508fb3c <___svfiprintf_internal_r+0x1170>
 508f660:	02c14274 	movhi	r11,1289
 508f664:	5adaa904 	addi	r11,r11,27300
 508f668:	dac02215 	stw	r11,136(sp)
 508f66c:	028001c4 	movi	r10,7
 508f670:	00000306 	br	508f680 <___svfiprintf_internal_r+0xcb4>
 508f674:	e73ffc04 	addi	fp,fp,-16
 508f678:	42000204 	addi	r8,r8,8
 508f67c:	4f00150e 	bge	r9,fp,508f6d4 <___svfiprintf_internal_r+0xd08>
 508f680:	18c00404 	addi	r3,r3,16
 508f684:	10800044 	addi	r2,r2,1
 508f688:	45000015 	stw	r20,0(r8)
 508f68c:	42400115 	stw	r9,4(r8)
 508f690:	d8c01c15 	stw	r3,112(sp)
 508f694:	d8801b15 	stw	r2,108(sp)
 508f698:	50bff60e 	bge	r10,r2,508f674 <___svfiprintf_internal_r+0xca8>
 508f69c:	d9801a04 	addi	r6,sp,104
 508f6a0:	b80b883a 	mov	r5,r23
 508f6a4:	a809883a 	mov	r4,r21
 508f6a8:	da402c15 	stw	r9,176(sp)
 508f6ac:	da802d15 	stw	r10,180(sp)
 508f6b0:	508e7fc0 	call	508e7fc <__ssprint_r>
 508f6b4:	da402c17 	ldw	r9,176(sp)
 508f6b8:	da802d17 	ldw	r10,180(sp)
 508f6bc:	103fd11e 	bne	r2,zero,508f604 <___svfiprintf_internal_r+0xc38>
 508f6c0:	e73ffc04 	addi	fp,fp,-16
 508f6c4:	d8c01c17 	ldw	r3,112(sp)
 508f6c8:	d8801b17 	ldw	r2,108(sp)
 508f6cc:	d811883a 	mov	r8,sp
 508f6d0:	4f3feb16 	blt	r9,fp,508f680 <___svfiprintf_internal_r+0xcb4>
 508f6d4:	dac02217 	ldw	r11,136(sp)
 508f6d8:	1f07883a 	add	r3,r3,fp
 508f6dc:	10800044 	addi	r2,r2,1
 508f6e0:	42c00015 	stw	r11,0(r8)
 508f6e4:	47000115 	stw	fp,4(r8)
 508f6e8:	d8c01c15 	stw	r3,112(sp)
 508f6ec:	d8801b15 	stw	r2,108(sp)
 508f6f0:	010001c4 	movi	r4,7
 508f6f4:	2080b616 	blt	r4,r2,508f9d0 <___svfiprintf_internal_r+0x1004>
 508f6f8:	42000204 	addi	r8,r8,8
 508f6fc:	003f4e06 	br	508f438 <___svfiprintf_internal_r+0xa6c>
 508f700:	d9801a04 	addi	r6,sp,104
 508f704:	b80b883a 	mov	r5,r23
 508f708:	a809883a 	mov	r4,r21
 508f70c:	508e7fc0 	call	508e7fc <__ssprint_r>
 508f710:	103fbc1e 	bne	r2,zero,508f604 <___svfiprintf_internal_r+0xc38>
 508f714:	d8c01c17 	ldw	r3,112(sp)
 508f718:	d811883a 	mov	r8,sp
 508f71c:	003f7a06 	br	508f508 <___svfiprintf_internal_r+0xb3c>
 508f720:	d9801a04 	addi	r6,sp,104
 508f724:	b80b883a 	mov	r5,r23
 508f728:	a809883a 	mov	r4,r21
 508f72c:	508e7fc0 	call	508e7fc <__ssprint_r>
 508f730:	103fa826 	beq	r2,zero,508f5d4 <___svfiprintf_internal_r+0xc08>
 508f734:	003fb306 	br	508f604 <___svfiprintf_internal_r+0xc38>
 508f738:	d9801a04 	addi	r6,sp,104
 508f73c:	b80b883a 	mov	r5,r23
 508f740:	a809883a 	mov	r4,r21
 508f744:	508e7fc0 	call	508e7fc <__ssprint_r>
 508f748:	103fae1e 	bne	r2,zero,508f604 <___svfiprintf_internal_r+0xc38>
 508f74c:	d811883a 	mov	r8,sp
 508f750:	003cdc06 	br	508eac4 <___svfiprintf_internal_r+0xf8>
 508f754:	d9801a04 	addi	r6,sp,104
 508f758:	b80b883a 	mov	r5,r23
 508f75c:	a809883a 	mov	r4,r21
 508f760:	508e7fc0 	call	508e7fc <__ssprint_r>
 508f764:	103fa71e 	bne	r2,zero,508f604 <___svfiprintf_internal_r+0xc38>
 508f768:	d8c01c17 	ldw	r3,112(sp)
 508f76c:	d8801b17 	ldw	r2,108(sp)
 508f770:	d811883a 	mov	r8,sp
 508f774:	003f5a06 	br	508f4e0 <___svfiprintf_internal_r+0xb14>
 508f778:	d9801a04 	addi	r6,sp,104
 508f77c:	b80b883a 	mov	r5,r23
 508f780:	a809883a 	mov	r4,r21
 508f784:	508e7fc0 	call	508e7fc <__ssprint_r>
 508f788:	103f9e1e 	bne	r2,zero,508f604 <___svfiprintf_internal_r+0xc38>
 508f78c:	d8c01c17 	ldw	r3,112(sp)
 508f790:	d8801b17 	ldw	r2,108(sp)
 508f794:	d811883a 	mov	r8,sp
 508f798:	003f1706 	br	508f3f8 <___svfiprintf_internal_r+0xa2c>
 508f79c:	d9801a04 	addi	r6,sp,104
 508f7a0:	b80b883a 	mov	r5,r23
 508f7a4:	a809883a 	mov	r4,r21
 508f7a8:	508e7fc0 	call	508e7fc <__ssprint_r>
 508f7ac:	103f951e 	bne	r2,zero,508f604 <___svfiprintf_internal_r+0xc38>
 508f7b0:	d8c01c17 	ldw	r3,112(sp)
 508f7b4:	d8801b17 	ldw	r2,108(sp)
 508f7b8:	d811883a 	mov	r8,sp
 508f7bc:	003f1b06 	br	508f42c <___svfiprintf_internal_r+0xa60>
 508f7c0:	d8001d85 	stb	zero,118(sp)
 508f7c4:	80007b16 	blt	r16,zero,508f9b4 <___svfiprintf_internal_r+0xfe8>
 508f7c8:	00ffdfc4 	movi	r3,-129
 508f7cc:	e244b03a 	or	r2,fp,r9
 508f7d0:	90e4703a 	and	r18,r18,r3
 508f7d4:	103d7026 	beq	r2,zero,508ed98 <___svfiprintf_internal_r+0x3cc>
 508f7d8:	0015883a 	mov	r10,zero
 508f7dc:	003d7206 	br	508eda8 <___svfiprintf_internal_r+0x3dc>
 508f7e0:	d9801a04 	addi	r6,sp,104
 508f7e4:	b80b883a 	mov	r5,r23
 508f7e8:	a809883a 	mov	r4,r21
 508f7ec:	508e7fc0 	call	508e7fc <__ssprint_r>
 508f7f0:	103f841e 	bne	r2,zero,508f604 <___svfiprintf_internal_r+0xc38>
 508f7f4:	d8c01c17 	ldw	r3,112(sp)
 508f7f8:	d8801b17 	ldw	r2,108(sp)
 508f7fc:	d811883a 	mov	r8,sp
 508f800:	003ef006 	br	508f3c4 <___svfiprintf_internal_r+0x9f8>
 508f804:	9080100c 	andi	r2,r18,64
 508f808:	d8001d85 	stb	zero,118(sp)
 508f80c:	dac02317 	ldw	r11,140(sp)
 508f810:	10008126 	beq	r2,zero,508fa18 <___svfiprintf_internal_r+0x104c>
 508f814:	58800104 	addi	r2,r11,4
 508f818:	5f00000b 	ldhu	fp,0(r11)
 508f81c:	0013883a 	mov	r9,zero
 508f820:	803ec30e 	bge	r16,zero,508f330 <___svfiprintf_internal_r+0x964>
 508f824:	d8802315 	stw	r2,140(sp)
 508f828:	0015883a 	mov	r10,zero
 508f82c:	e244b03a 	or	r2,fp,r9
 508f830:	103e371e 	bne	r2,zero,508f110 <___svfiprintf_internal_r+0x744>
 508f834:	00800044 	movi	r2,1
 508f838:	10803fcc 	andi	r2,r2,255
 508f83c:	00c00044 	movi	r3,1
 508f840:	10c06126 	beq	r2,r3,508f9c8 <___svfiprintf_internal_r+0xffc>
 508f844:	00c00084 	movi	r3,2
 508f848:	10fd5526 	beq	r2,r3,508eda0 <___svfiprintf_internal_r+0x3d4>
 508f84c:	003ed806 	br	508f3b0 <___svfiprintf_internal_r+0x9e4>
 508f850:	d8802315 	stw	r2,140(sp)
 508f854:	98c00007 	ldb	r3,0(r19)
 508f858:	003cab06 	br	508eb08 <___svfiprintf_internal_r+0x13c>
 508f85c:	d9801a04 	addi	r6,sp,104
 508f860:	b80b883a 	mov	r5,r23
 508f864:	a809883a 	mov	r4,r21
 508f868:	508e7fc0 	call	508e7fc <__ssprint_r>
 508f86c:	103f651e 	bne	r2,zero,508f604 <___svfiprintf_internal_r+0xc38>
 508f870:	d8c01c17 	ldw	r3,112(sp)
 508f874:	003f4f06 	br	508f5b4 <___svfiprintf_internal_r+0xbe8>
 508f878:	00814274 	movhi	r2,1289
 508f87c:	109a4004 	addi	r2,r2,26880
 508f880:	d8802915 	stw	r2,164(sp)
 508f884:	003d4406 	br	508ed98 <___svfiprintf_internal_r+0x3cc>
 508f888:	dac02317 	ldw	r11,140(sp)
 508f88c:	58800017 	ldw	r2,0(r11)
 508f890:	dac02517 	ldw	r11,148(sp)
 508f894:	5807d7fa 	srai	r3,r11,31
 508f898:	dac02317 	ldw	r11,140(sp)
 508f89c:	10c00115 	stw	r3,4(r2)
 508f8a0:	5ac00104 	addi	r11,r11,4
 508f8a4:	dac02315 	stw	r11,140(sp)
 508f8a8:	dac02517 	ldw	r11,148(sp)
 508f8ac:	12c00015 	stw	r11,0(r2)
 508f8b0:	003c6d06 	br	508ea68 <___svfiprintf_internal_r+0x9c>
 508f8b4:	9080100c 	andi	r2,r18,64
 508f8b8:	dac02317 	ldw	r11,140(sp)
 508f8bc:	103e5326 	beq	r2,zero,508f20c <___svfiprintf_internal_r+0x840>
 508f8c0:	5f00000f 	ldh	fp,0(r11)
 508f8c4:	5ac00104 	addi	r11,r11,4
 508f8c8:	dac02315 	stw	r11,140(sp)
 508f8cc:	e013d7fa 	srai	r9,fp,31
 508f8d0:	4805883a 	mov	r2,r9
 508f8d4:	003e0706 	br	508f0f4 <___svfiprintf_internal_r+0x728>
 508f8d8:	00800c04 	movi	r2,48
 508f8dc:	d8801d05 	stb	r2,116(sp)
 508f8e0:	d8c01d45 	stb	r3,117(sp)
 508f8e4:	d8001d85 	stb	zero,118(sp)
 508f8e8:	90800094 	ori	r2,r18,2
 508f8ec:	80008f16 	blt	r16,zero,508fb2c <___svfiprintf_internal_r+0x1160>
 508f8f0:	00bfdfc4 	movi	r2,-129
 508f8f4:	90a4703a 	and	r18,r18,r2
 508f8f8:	94800094 	ori	r18,r18,2
 508f8fc:	0015883a 	mov	r10,zero
 508f900:	003d2906 	br	508eda8 <___svfiprintf_internal_r+0x3dc>
 508f904:	98c00007 	ldb	r3,0(r19)
 508f908:	003c7f06 	br	508eb08 <___svfiprintf_internal_r+0x13c>
 508f90c:	dac02317 	ldw	r11,140(sp)
 508f910:	0013883a 	mov	r9,zero
 508f914:	5f000017 	ldw	fp,0(r11)
 508f918:	5ac00104 	addi	r11,r11,4
 508f91c:	dac02315 	stw	r11,140(sp)
 508f920:	003d1506 	br	508ed78 <___svfiprintf_internal_r+0x3ac>
 508f924:	9080100c 	andi	r2,r18,64
 508f928:	d8001d85 	stb	zero,118(sp)
 508f92c:	dac02317 	ldw	r11,140(sp)
 508f930:	10003426 	beq	r2,zero,508fa04 <___svfiprintf_internal_r+0x1038>
 508f934:	58800104 	addi	r2,r11,4
 508f938:	5f00000b 	ldhu	fp,0(r11)
 508f93c:	0013883a 	mov	r9,zero
 508f940:	803e950e 	bge	r16,zero,508f398 <___svfiprintf_internal_r+0x9cc>
 508f944:	e246b03a 	or	r3,fp,r9
 508f948:	d8802315 	stw	r2,140(sp)
 508f94c:	183d5a1e 	bne	r3,zero,508eeb8 <___svfiprintf_internal_r+0x4ec>
 508f950:	0015883a 	mov	r10,zero
 508f954:	0005883a 	mov	r2,zero
 508f958:	003fb706 	br	508f838 <___svfiprintf_internal_r+0xe6c>
 508f95c:	98c00043 	ldbu	r3,1(r19)
 508f960:	94800814 	ori	r18,r18,32
 508f964:	9cc00044 	addi	r19,r19,1
 508f968:	18c03fcc 	andi	r3,r3,255
 508f96c:	18c0201c 	xori	r3,r3,128
 508f970:	18ffe004 	addi	r3,r3,-128
 508f974:	003c6406 	br	508eb08 <___svfiprintf_internal_r+0x13c>
 508f978:	d8c02315 	stw	r3,140(sp)
 508f97c:	0015883a 	mov	r10,zero
 508f980:	003faa06 	br	508f82c <___svfiprintf_internal_r+0xe60>
 508f984:	dac02317 	ldw	r11,140(sp)
 508f988:	58800017 	ldw	r2,0(r11)
 508f98c:	5ac00104 	addi	r11,r11,4
 508f990:	dac02315 	stw	r11,140(sp)
 508f994:	dac02517 	ldw	r11,148(sp)
 508f998:	12c00015 	stw	r11,0(r2)
 508f99c:	003c3206 	br	508ea68 <___svfiprintf_internal_r+0x9c>
 508f9a0:	01014274 	movhi	r4,1289
 508f9a4:	211a4004 	addi	r4,r4,26880
 508f9a8:	d9002915 	stw	r4,164(sp)
 508f9ac:	d8c02315 	stw	r3,140(sp)
 508f9b0:	1025883a 	mov	r18,r2
 508f9b4:	e244b03a 	or	r2,fp,r9
 508f9b8:	103f871e 	bne	r2,zero,508f7d8 <___svfiprintf_internal_r+0xe0c>
 508f9bc:	0015883a 	mov	r10,zero
 508f9c0:	00800084 	movi	r2,2
 508f9c4:	003f9c06 	br	508f838 <___svfiprintf_internal_r+0xe6c>
 508f9c8:	0039883a 	mov	fp,zero
 508f9cc:	003e5f06 	br	508f34c <___svfiprintf_internal_r+0x980>
 508f9d0:	d9801a04 	addi	r6,sp,104
 508f9d4:	b80b883a 	mov	r5,r23
 508f9d8:	a809883a 	mov	r4,r21
 508f9dc:	508e7fc0 	call	508e7fc <__ssprint_r>
 508f9e0:	103f081e 	bne	r2,zero,508f604 <___svfiprintf_internal_r+0xc38>
 508f9e4:	d8c01c17 	ldw	r3,112(sp)
 508f9e8:	d8801b17 	ldw	r2,108(sp)
 508f9ec:	d811883a 	mov	r8,sp
 508f9f0:	003e9106 	br	508f438 <___svfiprintf_internal_r+0xa6c>
 508f9f4:	01014274 	movhi	r4,1289
 508f9f8:	211aa904 	addi	r4,r4,27300
 508f9fc:	d9002215 	stw	r4,136(sp)
 508fa00:	003ead06 	br	508f4b8 <___svfiprintf_internal_r+0xaec>
 508fa04:	58800104 	addi	r2,r11,4
 508fa08:	5f000017 	ldw	fp,0(r11)
 508fa0c:	0013883a 	mov	r9,zero
 508fa10:	803e610e 	bge	r16,zero,508f398 <___svfiprintf_internal_r+0x9cc>
 508fa14:	003fcb06 	br	508f944 <___svfiprintf_internal_r+0xf78>
 508fa18:	58800104 	addi	r2,r11,4
 508fa1c:	5f000017 	ldw	fp,0(r11)
 508fa20:	0013883a 	mov	r9,zero
 508fa24:	803e420e 	bge	r16,zero,508f330 <___svfiprintf_internal_r+0x964>
 508fa28:	003f7e06 	br	508f824 <___svfiprintf_internal_r+0xe58>
 508fa2c:	5f000017 	ldw	fp,0(r11)
 508fa30:	5ac00104 	addi	r11,r11,4
 508fa34:	0013883a 	mov	r9,zero
 508fa38:	dac02315 	stw	r11,140(sp)
 508fa3c:	003cce06 	br	508ed78 <___svfiprintf_internal_r+0x3ac>
 508fa40:	8809883a 	mov	r4,r17
 508fa44:	da002c15 	stw	r8,176(sp)
 508fa48:	508520c0 	call	508520c <strlen>
 508fa4c:	d8802115 	stw	r2,132(sp)
 508fa50:	da801d83 	ldbu	r10,118(sp)
 508fa54:	df002315 	stw	fp,140(sp)
 508fa58:	0021883a 	mov	r16,zero
 508fa5c:	da002c17 	ldw	r8,176(sp)
 508fa60:	003cf606 	br	508ee3c <___svfiprintf_internal_r+0x470>
 508fa64:	00800184 	movi	r2,6
 508fa68:	1400012e 	bgeu	r2,r16,508fa70 <___svfiprintf_internal_r+0x10a4>
 508fa6c:	1021883a 	mov	r16,r2
 508fa70:	dc002115 	stw	r16,132(sp)
 508fa74:	8005883a 	mov	r2,r16
 508fa78:	80003c16 	blt	r16,zero,508fb6c <___svfiprintf_internal_r+0x11a0>
 508fa7c:	04414274 	movhi	r17,1289
 508fa80:	d8802015 	stw	r2,128(sp)
 508fa84:	df002315 	stw	fp,140(sp)
 508fa88:	8c5a4504 	addi	r17,r17,26900
 508fa8c:	003d2e06 	br	508ef48 <___svfiprintf_internal_r+0x57c>
 508fa90:	04001004 	movi	r16,64
 508fa94:	800b883a 	mov	r5,r16
 508fa98:	508c5a40 	call	508c5a4 <_malloc_r>
 508fa9c:	dac02717 	ldw	r11,156(sp)
 508faa0:	58800015 	stw	r2,0(r11)
 508faa4:	58800415 	stw	r2,16(r11)
 508faa8:	10004826 	beq	r2,zero,508fbcc <___svfiprintf_internal_r+0x1200>
 508faac:	dac02717 	ldw	r11,156(sp)
 508fab0:	5c000515 	stw	r16,20(r11)
 508fab4:	003bd906 	br	508ea1c <___svfiprintf_internal_r+0x50>
 508fab8:	9080004c 	andi	r2,r18,1
 508fabc:	0015883a 	mov	r10,zero
 508fac0:	10000626 	beq	r2,zero,508fadc <___svfiprintf_internal_r+0x1110>
 508fac4:	dac02b17 	ldw	r11,172(sp)
 508fac8:	00800c04 	movi	r2,48
 508facc:	d88019c5 	stb	r2,103(sp)
 508fad0:	dac02115 	stw	r11,132(sp)
 508fad4:	dc4019c4 	addi	r17,sp,103
 508fad8:	003cd806 	br	508ee3c <___svfiprintf_internal_r+0x470>
 508fadc:	d8002115 	stw	zero,132(sp)
 508fae0:	dc401a04 	addi	r17,sp,104
 508fae4:	003cd506 	br	508ee3c <___svfiprintf_internal_r+0x470>
 508fae8:	01014274 	movhi	r4,1289
 508faec:	211aad04 	addi	r4,r4,27316
 508faf0:	d9002815 	stw	r4,160(sp)
 508faf4:	003d4306 	br	508f004 <___svfiprintf_internal_r+0x638>
 508faf8:	00bfffc4 	movi	r2,-1
 508fafc:	003ec606 	br	508f618 <___svfiprintf_internal_r+0xc4c>
 508fb00:	00800044 	movi	r2,1
 508fb04:	10803fcc 	andi	r2,r2,255
 508fb08:	00c00044 	movi	r3,1
 508fb0c:	10fd8026 	beq	r2,r3,508f110 <___svfiprintf_internal_r+0x744>
 508fb10:	00c00084 	movi	r3,2
 508fb14:	10fca426 	beq	r2,r3,508eda8 <___svfiprintf_internal_r+0x3dc>
 508fb18:	003ce806 	br	508eebc <___svfiprintf_internal_r+0x4f0>
 508fb1c:	01014274 	movhi	r4,1289
 508fb20:	211aad04 	addi	r4,r4,27316
 508fb24:	d9002815 	stw	r4,160(sp)
 508fb28:	003e9906 	br	508f590 <___svfiprintf_internal_r+0xbc4>
 508fb2c:	1025883a 	mov	r18,r2
 508fb30:	0015883a 	mov	r10,zero
 508fb34:	00800084 	movi	r2,2
 508fb38:	003ff206 	br	508fb04 <___svfiprintf_internal_r+0x1138>
 508fb3c:	01414274 	movhi	r5,1289
 508fb40:	295aa904 	addi	r5,r5,27300
 508fb44:	d9402215 	stw	r5,136(sp)
 508fb48:	003ee206 	br	508f6d4 <___svfiprintf_internal_r+0xd08>
 508fb4c:	5827883a 	mov	r19,r11
 508fb50:	0021883a 	mov	r16,zero
 508fb54:	003bed06 	br	508eb0c <___svfiprintf_internal_r+0x140>
 508fb58:	dc002115 	stw	r16,132(sp)
 508fb5c:	da801d83 	ldbu	r10,118(sp)
 508fb60:	df002315 	stw	fp,140(sp)
 508fb64:	0021883a 	mov	r16,zero
 508fb68:	003cb406 	br	508ee3c <___svfiprintf_internal_r+0x470>
 508fb6c:	0005883a 	mov	r2,zero
 508fb70:	003fc206 	br	508fa7c <___svfiprintf_internal_r+0x10b0>
 508fb74:	d8802317 	ldw	r2,140(sp)
 508fb78:	98c00043 	ldbu	r3,1(r19)
 508fb7c:	5827883a 	mov	r19,r11
 508fb80:	14000017 	ldw	r16,0(r2)
 508fb84:	10800104 	addi	r2,r2,4
 508fb88:	d8802315 	stw	r2,140(sp)
 508fb8c:	803f760e 	bge	r16,zero,508f968 <___svfiprintf_internal_r+0xf9c>
 508fb90:	18c03fcc 	andi	r3,r3,255
 508fb94:	18c0201c 	xori	r3,r3,128
 508fb98:	043fffc4 	movi	r16,-1
 508fb9c:	18ffe004 	addi	r3,r3,-128
 508fba0:	003bd906 	br	508eb08 <___svfiprintf_internal_r+0x13c>
 508fba4:	d9c01d85 	stb	r7,118(sp)
 508fba8:	003cb606 	br	508ee84 <___svfiprintf_internal_r+0x4b8>
 508fbac:	d9c01d85 	stb	r7,118(sp)
 508fbb0:	003d2106 	br	508f038 <___svfiprintf_internal_r+0x66c>
 508fbb4:	d9c01d85 	stb	r7,118(sp)
 508fbb8:	003d8e06 	br	508f1f4 <___svfiprintf_internal_r+0x828>
 508fbbc:	d9c01d85 	stb	r7,118(sp)
 508fbc0:	003db306 	br	508f290 <___svfiprintf_internal_r+0x8c4>
 508fbc4:	d9c01d85 	stb	r7,118(sp)
 508fbc8:	003c8a06 	br	508edf4 <___svfiprintf_internal_r+0x428>
 508fbcc:	dac02a17 	ldw	r11,168(sp)
 508fbd0:	00800304 	movi	r2,12
 508fbd4:	58800015 	stw	r2,0(r11)
 508fbd8:	00bfffc4 	movi	r2,-1
 508fbdc:	003e8e06 	br	508f618 <___svfiprintf_internal_r+0xc4c>
 508fbe0:	d9c01d85 	stb	r7,118(sp)
 508fbe4:	003dc706 	br	508f304 <___svfiprintf_internal_r+0x938>
 508fbe8:	d9c01d85 	stb	r7,118(sp)
 508fbec:	003ddf06 	br	508f36c <___svfiprintf_internal_r+0x9a0>
 508fbf0:	d9c01d85 	stb	r7,118(sp)
 508fbf4:	003d3706 	br	508f0d4 <___svfiprintf_internal_r+0x708>
 508fbf8:	d9c01d85 	stb	r7,118(sp)
 508fbfc:	003c5406 	br	508ed50 <___svfiprintf_internal_r+0x384>
 508fc00:	d9c01d85 	stb	r7,118(sp)
 508fc04:	003d1d06 	br	508f07c <___svfiprintf_internal_r+0x6b0>

0508fc08 <__sprint_r.part.0>:
 508fc08:	28801917 	ldw	r2,100(r5)
 508fc0c:	defff604 	addi	sp,sp,-40
 508fc10:	dd400515 	stw	r21,20(sp)
 508fc14:	dfc00915 	stw	ra,36(sp)
 508fc18:	df000815 	stw	fp,32(sp)
 508fc1c:	ddc00715 	stw	r23,28(sp)
 508fc20:	dd800615 	stw	r22,24(sp)
 508fc24:	dd000415 	stw	r20,16(sp)
 508fc28:	dcc00315 	stw	r19,12(sp)
 508fc2c:	dc800215 	stw	r18,8(sp)
 508fc30:	dc400115 	stw	r17,4(sp)
 508fc34:	dc000015 	stw	r16,0(sp)
 508fc38:	1088000c 	andi	r2,r2,8192
 508fc3c:	302b883a 	mov	r21,r6
 508fc40:	10002e26 	beq	r2,zero,508fcfc <__sprint_r.part.0+0xf4>
 508fc44:	30800217 	ldw	r2,8(r6)
 508fc48:	35800017 	ldw	r22,0(r6)
 508fc4c:	10002926 	beq	r2,zero,508fcf4 <__sprint_r.part.0+0xec>
 508fc50:	2827883a 	mov	r19,r5
 508fc54:	2029883a 	mov	r20,r4
 508fc58:	b5c00104 	addi	r23,r22,4
 508fc5c:	04bfffc4 	movi	r18,-1
 508fc60:	bc400017 	ldw	r17,0(r23)
 508fc64:	b4000017 	ldw	r16,0(r22)
 508fc68:	0039883a 	mov	fp,zero
 508fc6c:	8822d0ba 	srli	r17,r17,2
 508fc70:	8800031e 	bne	r17,zero,508fc80 <__sprint_r.part.0+0x78>
 508fc74:	00001806 	br	508fcd8 <__sprint_r.part.0+0xd0>
 508fc78:	84000104 	addi	r16,r16,4
 508fc7c:	8f001526 	beq	r17,fp,508fcd4 <__sprint_r.part.0+0xcc>
 508fc80:	81400017 	ldw	r5,0(r16)
 508fc84:	980d883a 	mov	r6,r19
 508fc88:	a009883a 	mov	r4,r20
 508fc8c:	50916300 	call	5091630 <_fputwc_r>
 508fc90:	e7000044 	addi	fp,fp,1
 508fc94:	14bff81e 	bne	r2,r18,508fc78 <__sprint_r.part.0+0x70>
 508fc98:	9005883a 	mov	r2,r18
 508fc9c:	a8000215 	stw	zero,8(r21)
 508fca0:	a8000115 	stw	zero,4(r21)
 508fca4:	dfc00917 	ldw	ra,36(sp)
 508fca8:	df000817 	ldw	fp,32(sp)
 508fcac:	ddc00717 	ldw	r23,28(sp)
 508fcb0:	dd800617 	ldw	r22,24(sp)
 508fcb4:	dd400517 	ldw	r21,20(sp)
 508fcb8:	dd000417 	ldw	r20,16(sp)
 508fcbc:	dcc00317 	ldw	r19,12(sp)
 508fcc0:	dc800217 	ldw	r18,8(sp)
 508fcc4:	dc400117 	ldw	r17,4(sp)
 508fcc8:	dc000017 	ldw	r16,0(sp)
 508fccc:	dec00a04 	addi	sp,sp,40
 508fcd0:	f800283a 	ret
 508fcd4:	a8800217 	ldw	r2,8(r21)
 508fcd8:	8c63883a 	add	r17,r17,r17
 508fcdc:	8c63883a 	add	r17,r17,r17
 508fce0:	1445c83a 	sub	r2,r2,r17
 508fce4:	a8800215 	stw	r2,8(r21)
 508fce8:	b5800204 	addi	r22,r22,8
 508fcec:	bdc00204 	addi	r23,r23,8
 508fcf0:	103fdb1e 	bne	r2,zero,508fc60 <__sprint_r.part.0+0x58>
 508fcf4:	0005883a 	mov	r2,zero
 508fcf8:	003fe806 	br	508fc9c <__sprint_r.part.0+0x94>
 508fcfc:	508bcc80 	call	508bcc8 <__sfvwrite_r>
 508fd00:	003fe606 	br	508fc9c <__sprint_r.part.0+0x94>

0508fd04 <__sprint_r>:
 508fd04:	30c00217 	ldw	r3,8(r6)
 508fd08:	18000126 	beq	r3,zero,508fd10 <__sprint_r+0xc>
 508fd0c:	508fc081 	jmpi	508fc08 <__sprint_r.part.0>
 508fd10:	30000115 	stw	zero,4(r6)
 508fd14:	0005883a 	mov	r2,zero
 508fd18:	f800283a 	ret

0508fd1c <___vfiprintf_internal_r>:
 508fd1c:	deffc904 	addi	sp,sp,-220
 508fd20:	df003515 	stw	fp,212(sp)
 508fd24:	dd003115 	stw	r20,196(sp)
 508fd28:	dfc03615 	stw	ra,216(sp)
 508fd2c:	ddc03415 	stw	r23,208(sp)
 508fd30:	dd803315 	stw	r22,204(sp)
 508fd34:	dd403215 	stw	r21,200(sp)
 508fd38:	dcc03015 	stw	r19,192(sp)
 508fd3c:	dc802f15 	stw	r18,188(sp)
 508fd40:	dc402e15 	stw	r17,184(sp)
 508fd44:	dc002d15 	stw	r16,180(sp)
 508fd48:	d9002015 	stw	r4,128(sp)
 508fd4c:	d9c02215 	stw	r7,136(sp)
 508fd50:	2829883a 	mov	r20,r5
 508fd54:	3039883a 	mov	fp,r6
 508fd58:	20000226 	beq	r4,zero,508fd64 <___vfiprintf_internal_r+0x48>
 508fd5c:	20800e17 	ldw	r2,56(r4)
 508fd60:	1000cf26 	beq	r2,zero,50900a0 <___vfiprintf_internal_r+0x384>
 508fd64:	a080030b 	ldhu	r2,12(r20)
 508fd68:	10c8000c 	andi	r3,r2,8192
 508fd6c:	1800061e 	bne	r3,zero,508fd88 <___vfiprintf_internal_r+0x6c>
 508fd70:	a1001917 	ldw	r4,100(r20)
 508fd74:	00f7ffc4 	movi	r3,-8193
 508fd78:	10880014 	ori	r2,r2,8192
 508fd7c:	20c6703a 	and	r3,r4,r3
 508fd80:	a080030d 	sth	r2,12(r20)
 508fd84:	a0c01915 	stw	r3,100(r20)
 508fd88:	10c0020c 	andi	r3,r2,8
 508fd8c:	1800a926 	beq	r3,zero,5090034 <___vfiprintf_internal_r+0x318>
 508fd90:	a0c00417 	ldw	r3,16(r20)
 508fd94:	1800a726 	beq	r3,zero,5090034 <___vfiprintf_internal_r+0x318>
 508fd98:	1080068c 	andi	r2,r2,26
 508fd9c:	00c00284 	movi	r3,10
 508fda0:	10c0ac26 	beq	r2,r3,5090054 <___vfiprintf_internal_r+0x338>
 508fda4:	da801a04 	addi	r10,sp,104
 508fda8:	da801e15 	stw	r10,120(sp)
 508fdac:	d8801e17 	ldw	r2,120(sp)
 508fdb0:	da8019c4 	addi	r10,sp,103
 508fdb4:	05814274 	movhi	r22,1289
 508fdb8:	05c14274 	movhi	r23,1289
 508fdbc:	da801f15 	stw	r10,124(sp)
 508fdc0:	1295c83a 	sub	r10,r2,r10
 508fdc4:	b59ab504 	addi	r22,r22,27348
 508fdc8:	bddab104 	addi	r23,r23,27332
 508fdcc:	dec01a15 	stw	sp,104(sp)
 508fdd0:	d8001c15 	stw	zero,112(sp)
 508fdd4:	d8001b15 	stw	zero,108(sp)
 508fdd8:	d8002615 	stw	zero,152(sp)
 508fddc:	d8002315 	stw	zero,140(sp)
 508fde0:	da802715 	stw	r10,156(sp)
 508fde4:	d811883a 	mov	r8,sp
 508fde8:	dd002115 	stw	r20,132(sp)
 508fdec:	e021883a 	mov	r16,fp
 508fdf0:	80800007 	ldb	r2,0(r16)
 508fdf4:	1003ea26 	beq	r2,zero,5090da0 <___vfiprintf_internal_r+0x1084>
 508fdf8:	00c00944 	movi	r3,37
 508fdfc:	8025883a 	mov	r18,r16
 508fe00:	10c0021e 	bne	r2,r3,508fe0c <___vfiprintf_internal_r+0xf0>
 508fe04:	00001606 	br	508fe60 <___vfiprintf_internal_r+0x144>
 508fe08:	10c00326 	beq	r2,r3,508fe18 <___vfiprintf_internal_r+0xfc>
 508fe0c:	94800044 	addi	r18,r18,1
 508fe10:	90800007 	ldb	r2,0(r18)
 508fe14:	103ffc1e 	bne	r2,zero,508fe08 <___vfiprintf_internal_r+0xec>
 508fe18:	9423c83a 	sub	r17,r18,r16
 508fe1c:	88001026 	beq	r17,zero,508fe60 <___vfiprintf_internal_r+0x144>
 508fe20:	d8c01c17 	ldw	r3,112(sp)
 508fe24:	d8801b17 	ldw	r2,108(sp)
 508fe28:	44000015 	stw	r16,0(r8)
 508fe2c:	88c7883a 	add	r3,r17,r3
 508fe30:	10800044 	addi	r2,r2,1
 508fe34:	44400115 	stw	r17,4(r8)
 508fe38:	d8c01c15 	stw	r3,112(sp)
 508fe3c:	d8801b15 	stw	r2,108(sp)
 508fe40:	010001c4 	movi	r4,7
 508fe44:	2080760e 	bge	r4,r2,5090020 <___vfiprintf_internal_r+0x304>
 508fe48:	1803821e 	bne	r3,zero,5090c54 <___vfiprintf_internal_r+0xf38>
 508fe4c:	da802317 	ldw	r10,140(sp)
 508fe50:	d8001b15 	stw	zero,108(sp)
 508fe54:	d811883a 	mov	r8,sp
 508fe58:	5455883a 	add	r10,r10,r17
 508fe5c:	da802315 	stw	r10,140(sp)
 508fe60:	90800007 	ldb	r2,0(r18)
 508fe64:	10044626 	beq	r2,zero,5090f80 <___vfiprintf_internal_r+0x1264>
 508fe68:	90c00047 	ldb	r3,1(r18)
 508fe6c:	94000044 	addi	r16,r18,1
 508fe70:	d8001d85 	stb	zero,118(sp)
 508fe74:	0009883a 	mov	r4,zero
 508fe78:	000f883a 	mov	r7,zero
 508fe7c:	027fffc4 	movi	r9,-1
 508fe80:	0023883a 	mov	r17,zero
 508fe84:	0029883a 	mov	r20,zero
 508fe88:	01401604 	movi	r5,88
 508fe8c:	01800244 	movi	r6,9
 508fe90:	03400a84 	movi	r13,42
 508fe94:	03001b04 	movi	r12,108
 508fe98:	84000044 	addi	r16,r16,1
 508fe9c:	18bff804 	addi	r2,r3,-32
 508fea0:	28827336 	bltu	r5,r2,5090870 <___vfiprintf_internal_r+0xb54>
 508fea4:	100490ba 	slli	r2,r2,2
 508fea8:	02814274 	movhi	r10,1289
 508feac:	52bfaf04 	addi	r10,r10,-324
 508feb0:	1285883a 	add	r2,r2,r10
 508feb4:	10800017 	ldw	r2,0(r2)
 508feb8:	1000683a 	jmp	r2
 508febc:	050905a4 	muli	r20,zero,9238
 508fec0:	05090870 	cmpltui	r20,zero,9249
 508fec4:	05090870 	cmpltui	r20,zero,9249
 508fec8:	050905c4 	movi	r20,9239
 508fecc:	05090870 	cmpltui	r20,zero,9249
 508fed0:	05090870 	cmpltui	r20,zero,9249
 508fed4:	05090870 	cmpltui	r20,zero,9249
 508fed8:	05090870 	cmpltui	r20,zero,9249
 508fedc:	05090870 	cmpltui	r20,zero,9249
 508fee0:	05090870 	cmpltui	r20,zero,9249
 508fee4:	050907ac 	andhi	r20,zero,9246
 508fee8:	050907c8 	cmpgei	r20,zero,9247
 508feec:	05090870 	cmpltui	r20,zero,9249
 508fef0:	050900b0 	cmpltui	r20,zero,9218
 508fef4:	050907d8 	cmpnei	r20,zero,9247
 508fef8:	05090870 	cmpltui	r20,zero,9249
 508fefc:	050905d0 	cmplti	r20,zero,9239
 508ff00:	050905dc 	xori	r20,zero,9239
 508ff04:	050905dc 	xori	r20,zero,9239
 508ff08:	050905dc 	xori	r20,zero,9239
 508ff0c:	050905dc 	xori	r20,zero,9239
 508ff10:	050905dc 	xori	r20,zero,9239
 508ff14:	050905dc 	xori	r20,zero,9239
 508ff18:	050905dc 	xori	r20,zero,9239
 508ff1c:	050905dc 	xori	r20,zero,9239
 508ff20:	050905dc 	xori	r20,zero,9239
 508ff24:	05090870 	cmpltui	r20,zero,9249
 508ff28:	05090870 	cmpltui	r20,zero,9249
 508ff2c:	05090870 	cmpltui	r20,zero,9249
 508ff30:	05090870 	cmpltui	r20,zero,9249
 508ff34:	05090870 	cmpltui	r20,zero,9249
 508ff38:	05090870 	cmpltui	r20,zero,9249
 508ff3c:	05090870 	cmpltui	r20,zero,9249
 508ff40:	05090870 	cmpltui	r20,zero,9249
 508ff44:	05090870 	cmpltui	r20,zero,9249
 508ff48:	05090870 	cmpltui	r20,zero,9249
 508ff4c:	05090608 	cmpgei	r20,zero,9240
 508ff50:	05090870 	cmpltui	r20,zero,9249
 508ff54:	05090870 	cmpltui	r20,zero,9249
 508ff58:	05090870 	cmpltui	r20,zero,9249
 508ff5c:	05090870 	cmpltui	r20,zero,9249
 508ff60:	05090870 	cmpltui	r20,zero,9249
 508ff64:	05090870 	cmpltui	r20,zero,9249
 508ff68:	05090870 	cmpltui	r20,zero,9249
 508ff6c:	05090870 	cmpltui	r20,zero,9249
 508ff70:	05090870 	cmpltui	r20,zero,9249
 508ff74:	05090870 	cmpltui	r20,zero,9249
 508ff78:	05090640 	call	509064 <__alt_mem_sdram+0x509064>
 508ff7c:	05090870 	cmpltui	r20,zero,9249
 508ff80:	05090870 	cmpltui	r20,zero,9249
 508ff84:	05090870 	cmpltui	r20,zero,9249
 508ff88:	05090870 	cmpltui	r20,zero,9249
 508ff8c:	05090870 	cmpltui	r20,zero,9249
 508ff90:	05090698 	cmpnei	r20,zero,9242
 508ff94:	05090870 	cmpltui	r20,zero,9249
 508ff98:	05090870 	cmpltui	r20,zero,9249
 508ff9c:	05090708 	cmpgei	r20,zero,9244
 508ffa0:	05090870 	cmpltui	r20,zero,9249
 508ffa4:	05090870 	cmpltui	r20,zero,9249
 508ffa8:	05090870 	cmpltui	r20,zero,9249
 508ffac:	05090870 	cmpltui	r20,zero,9249
 508ffb0:	05090870 	cmpltui	r20,zero,9249
 508ffb4:	05090870 	cmpltui	r20,zero,9249
 508ffb8:	05090870 	cmpltui	r20,zero,9249
 508ffbc:	05090870 	cmpltui	r20,zero,9249
 508ffc0:	05090870 	cmpltui	r20,zero,9249
 508ffc4:	05090870 	cmpltui	r20,zero,9249
 508ffc8:	050904b4 	movhi	r20,9234
 508ffcc:	050904e0 	cmpeqi	r20,zero,9235
 508ffd0:	05090870 	cmpltui	r20,zero,9249
 508ffd4:	05090870 	cmpltui	r20,zero,9249
 508ffd8:	05090870 	cmpltui	r20,zero,9249
 508ffdc:	05090818 	cmpnei	r20,zero,9248
 508ffe0:	050904e0 	cmpeqi	r20,zero,9235
 508ffe4:	05090870 	cmpltui	r20,zero,9249
 508ffe8:	05090870 	cmpltui	r20,zero,9249
 508ffec:	05090374 	movhi	r20,9229
 508fff0:	05090870 	cmpltui	r20,zero,9249
 508fff4:	05090384 	movi	r20,9230
 508fff8:	050903c0 	call	50903c <__alt_mem_sdram+0x50903c>
 508fffc:	050900bc 	xorhi	r20,zero,9218
 5090000:	05090368 	cmpgeui	r20,zero,9229
 5090004:	05090870 	cmpltui	r20,zero,9249
 5090008:	05090744 	movi	r20,9245
 509000c:	05090870 	cmpltui	r20,zero,9249
 5090010:	0509079c 	xori	r20,zero,9246
 5090014:	05090870 	cmpltui	r20,zero,9249
 5090018:	05090870 	cmpltui	r20,zero,9249
 509001c:	05090460 	cmpeqi	r20,zero,9233
 5090020:	42000204 	addi	r8,r8,8
 5090024:	da802317 	ldw	r10,140(sp)
 5090028:	5455883a 	add	r10,r10,r17
 509002c:	da802315 	stw	r10,140(sp)
 5090030:	003f8b06 	br	508fe60 <___vfiprintf_internal_r+0x144>
 5090034:	d9002017 	ldw	r4,128(sp)
 5090038:	a00b883a 	mov	r5,r20
 509003c:	50898700 	call	5089870 <__swsetup_r>
 5090040:	1003b11e 	bne	r2,zero,5090f08 <___vfiprintf_internal_r+0x11ec>
 5090044:	a080030b 	ldhu	r2,12(r20)
 5090048:	00c00284 	movi	r3,10
 509004c:	1080068c 	andi	r2,r2,26
 5090050:	10ff541e 	bne	r2,r3,508fda4 <___vfiprintf_internal_r+0x88>
 5090054:	a080038f 	ldh	r2,14(r20)
 5090058:	103f5216 	blt	r2,zero,508fda4 <___vfiprintf_internal_r+0x88>
 509005c:	d9c02217 	ldw	r7,136(sp)
 5090060:	d9002017 	ldw	r4,128(sp)
 5090064:	e00d883a 	mov	r6,fp
 5090068:	a00b883a 	mov	r5,r20
 509006c:	50911940 	call	5091194 <__sbprintf>
 5090070:	dfc03617 	ldw	ra,216(sp)
 5090074:	df003517 	ldw	fp,212(sp)
 5090078:	ddc03417 	ldw	r23,208(sp)
 509007c:	dd803317 	ldw	r22,204(sp)
 5090080:	dd403217 	ldw	r21,200(sp)
 5090084:	dd003117 	ldw	r20,196(sp)
 5090088:	dcc03017 	ldw	r19,192(sp)
 509008c:	dc802f17 	ldw	r18,188(sp)
 5090090:	dc402e17 	ldw	r17,184(sp)
 5090094:	dc002d17 	ldw	r16,180(sp)
 5090098:	dec03704 	addi	sp,sp,220
 509009c:	f800283a 	ret
 50900a0:	508b8440 	call	508b844 <__sinit>
 50900a4:	003f2f06 	br	508fd64 <___vfiprintf_internal_r+0x48>
 50900a8:	0463c83a 	sub	r17,zero,r17
 50900ac:	d8802215 	stw	r2,136(sp)
 50900b0:	a5000114 	ori	r20,r20,4
 50900b4:	80c00007 	ldb	r3,0(r16)
 50900b8:	003f7706 	br	508fe98 <___vfiprintf_internal_r+0x17c>
 50900bc:	00800c04 	movi	r2,48
 50900c0:	da802217 	ldw	r10,136(sp)
 50900c4:	d8801d05 	stb	r2,116(sp)
 50900c8:	00801e04 	movi	r2,120
 50900cc:	d8801d45 	stb	r2,117(sp)
 50900d0:	d8001d85 	stb	zero,118(sp)
 50900d4:	50c00104 	addi	r3,r10,4
 50900d8:	54800017 	ldw	r18,0(r10)
 50900dc:	0027883a 	mov	r19,zero
 50900e0:	a0800094 	ori	r2,r20,2
 50900e4:	48030b16 	blt	r9,zero,5090d14 <___vfiprintf_internal_r+0xff8>
 50900e8:	00bfdfc4 	movi	r2,-129
 50900ec:	a096703a 	and	r11,r20,r2
 50900f0:	d8c02215 	stw	r3,136(sp)
 50900f4:	5d000094 	ori	r20,r11,2
 50900f8:	90032b1e 	bne	r18,zero,5090da8 <___vfiprintf_internal_r+0x108c>
 50900fc:	00814274 	movhi	r2,1289
 5090100:	109a4004 	addi	r2,r2,26880
 5090104:	d8802615 	stw	r2,152(sp)
 5090108:	0039883a 	mov	fp,zero
 509010c:	48017b1e 	bne	r9,zero,50906fc <___vfiprintf_internal_r+0x9e0>
 5090110:	0013883a 	mov	r9,zero
 5090114:	0027883a 	mov	r19,zero
 5090118:	dd401a04 	addi	r21,sp,104
 509011c:	4825883a 	mov	r18,r9
 5090120:	4cc0010e 	bge	r9,r19,5090128 <___vfiprintf_internal_r+0x40c>
 5090124:	9825883a 	mov	r18,r19
 5090128:	e7003fcc 	andi	fp,fp,255
 509012c:	e700201c 	xori	fp,fp,128
 5090130:	e73fe004 	addi	fp,fp,-128
 5090134:	e0000126 	beq	fp,zero,509013c <___vfiprintf_internal_r+0x420>
 5090138:	94800044 	addi	r18,r18,1
 509013c:	a380008c 	andi	r14,r20,2
 5090140:	70000126 	beq	r14,zero,5090148 <___vfiprintf_internal_r+0x42c>
 5090144:	94800084 	addi	r18,r18,2
 5090148:	a700210c 	andi	fp,r20,132
 509014c:	e001df1e 	bne	fp,zero,50908cc <___vfiprintf_internal_r+0xbb0>
 5090150:	8c87c83a 	sub	r3,r17,r18
 5090154:	00c1dd0e 	bge	zero,r3,50908cc <___vfiprintf_internal_r+0xbb0>
 5090158:	01c00404 	movi	r7,16
 509015c:	d8801c17 	ldw	r2,112(sp)
 5090160:	38c3ad0e 	bge	r7,r3,5091018 <___vfiprintf_internal_r+0x12fc>
 5090164:	02814274 	movhi	r10,1289
 5090168:	529ab504 	addi	r10,r10,27348
 509016c:	dc002915 	stw	r16,164(sp)
 5090170:	d9801b17 	ldw	r6,108(sp)
 5090174:	da802415 	stw	r10,144(sp)
 5090178:	03c001c4 	movi	r15,7
 509017c:	da402515 	stw	r9,148(sp)
 5090180:	db802815 	stw	r14,160(sp)
 5090184:	1821883a 	mov	r16,r3
 5090188:	00000506 	br	50901a0 <___vfiprintf_internal_r+0x484>
 509018c:	31400084 	addi	r5,r6,2
 5090190:	42000204 	addi	r8,r8,8
 5090194:	200d883a 	mov	r6,r4
 5090198:	843ffc04 	addi	r16,r16,-16
 509019c:	3c000d0e 	bge	r7,r16,50901d4 <___vfiprintf_internal_r+0x4b8>
 50901a0:	10800404 	addi	r2,r2,16
 50901a4:	31000044 	addi	r4,r6,1
 50901a8:	45800015 	stw	r22,0(r8)
 50901ac:	41c00115 	stw	r7,4(r8)
 50901b0:	d8801c15 	stw	r2,112(sp)
 50901b4:	d9001b15 	stw	r4,108(sp)
 50901b8:	793ff40e 	bge	r15,r4,509018c <___vfiprintf_internal_r+0x470>
 50901bc:	1001b51e 	bne	r2,zero,5090894 <___vfiprintf_internal_r+0xb78>
 50901c0:	843ffc04 	addi	r16,r16,-16
 50901c4:	000d883a 	mov	r6,zero
 50901c8:	01400044 	movi	r5,1
 50901cc:	d811883a 	mov	r8,sp
 50901d0:	3c3ff316 	blt	r7,r16,50901a0 <___vfiprintf_internal_r+0x484>
 50901d4:	8007883a 	mov	r3,r16
 50901d8:	da402517 	ldw	r9,148(sp)
 50901dc:	db802817 	ldw	r14,160(sp)
 50901e0:	dc002917 	ldw	r16,164(sp)
 50901e4:	da802417 	ldw	r10,144(sp)
 50901e8:	1885883a 	add	r2,r3,r2
 50901ec:	40c00115 	stw	r3,4(r8)
 50901f0:	42800015 	stw	r10,0(r8)
 50901f4:	d8801c15 	stw	r2,112(sp)
 50901f8:	d9401b15 	stw	r5,108(sp)
 50901fc:	00c001c4 	movi	r3,7
 5090200:	19426016 	blt	r3,r5,5090b84 <___vfiprintf_internal_r+0xe68>
 5090204:	d8c01d87 	ldb	r3,118(sp)
 5090208:	42000204 	addi	r8,r8,8
 509020c:	29000044 	addi	r4,r5,1
 5090210:	1801b31e 	bne	r3,zero,50908e0 <___vfiprintf_internal_r+0xbc4>
 5090214:	7001c026 	beq	r14,zero,5090918 <___vfiprintf_internal_r+0xbfc>
 5090218:	d8c01d04 	addi	r3,sp,116
 509021c:	10800084 	addi	r2,r2,2
 5090220:	40c00015 	stw	r3,0(r8)
 5090224:	00c00084 	movi	r3,2
 5090228:	40c00115 	stw	r3,4(r8)
 509022c:	d8801c15 	stw	r2,112(sp)
 5090230:	d9001b15 	stw	r4,108(sp)
 5090234:	00c001c4 	movi	r3,7
 5090238:	1902650e 	bge	r3,r4,5090bd0 <___vfiprintf_internal_r+0xeb4>
 509023c:	10029a1e 	bne	r2,zero,5090ca8 <___vfiprintf_internal_r+0xf8c>
 5090240:	00c02004 	movi	r3,128
 5090244:	01000044 	movi	r4,1
 5090248:	000b883a 	mov	r5,zero
 509024c:	d811883a 	mov	r8,sp
 5090250:	e0c1b31e 	bne	fp,r3,5090920 <___vfiprintf_internal_r+0xc04>
 5090254:	8cb9c83a 	sub	fp,r17,r18
 5090258:	0701b10e 	bge	zero,fp,5090920 <___vfiprintf_internal_r+0xc04>
 509025c:	01c00404 	movi	r7,16
 5090260:	3f03890e 	bge	r7,fp,5091088 <___vfiprintf_internal_r+0x136c>
 5090264:	00c14274 	movhi	r3,1289
 5090268:	18dab104 	addi	r3,r3,27332
 509026c:	d8c02415 	stw	r3,144(sp)
 5090270:	8007883a 	mov	r3,r16
 5090274:	034001c4 	movi	r13,7
 5090278:	e021883a 	mov	r16,fp
 509027c:	da402515 	stw	r9,148(sp)
 5090280:	1839883a 	mov	fp,r3
 5090284:	00000506 	br	509029c <___vfiprintf_internal_r+0x580>
 5090288:	29800084 	addi	r6,r5,2
 509028c:	42000204 	addi	r8,r8,8
 5090290:	180b883a 	mov	r5,r3
 5090294:	843ffc04 	addi	r16,r16,-16
 5090298:	3c000d0e 	bge	r7,r16,50902d0 <___vfiprintf_internal_r+0x5b4>
 509029c:	10800404 	addi	r2,r2,16
 50902a0:	28c00044 	addi	r3,r5,1
 50902a4:	45c00015 	stw	r23,0(r8)
 50902a8:	41c00115 	stw	r7,4(r8)
 50902ac:	d8801c15 	stw	r2,112(sp)
 50902b0:	d8c01b15 	stw	r3,108(sp)
 50902b4:	68fff40e 	bge	r13,r3,5090288 <___vfiprintf_internal_r+0x56c>
 50902b8:	1002241e 	bne	r2,zero,5090b4c <___vfiprintf_internal_r+0xe30>
 50902bc:	843ffc04 	addi	r16,r16,-16
 50902c0:	01800044 	movi	r6,1
 50902c4:	000b883a 	mov	r5,zero
 50902c8:	d811883a 	mov	r8,sp
 50902cc:	3c3ff316 	blt	r7,r16,509029c <___vfiprintf_internal_r+0x580>
 50902d0:	da402517 	ldw	r9,148(sp)
 50902d4:	e007883a 	mov	r3,fp
 50902d8:	8039883a 	mov	fp,r16
 50902dc:	1821883a 	mov	r16,r3
 50902e0:	d8c02417 	ldw	r3,144(sp)
 50902e4:	1705883a 	add	r2,r2,fp
 50902e8:	47000115 	stw	fp,4(r8)
 50902ec:	40c00015 	stw	r3,0(r8)
 50902f0:	d8801c15 	stw	r2,112(sp)
 50902f4:	d9801b15 	stw	r6,108(sp)
 50902f8:	00c001c4 	movi	r3,7
 50902fc:	19827616 	blt	r3,r6,5090cd8 <___vfiprintf_internal_r+0xfbc>
 5090300:	4cf9c83a 	sub	fp,r9,r19
 5090304:	42000204 	addi	r8,r8,8
 5090308:	31000044 	addi	r4,r6,1
 509030c:	300b883a 	mov	r5,r6
 5090310:	07018516 	blt	zero,fp,5090928 <___vfiprintf_internal_r+0xc0c>
 5090314:	9885883a 	add	r2,r19,r2
 5090318:	45400015 	stw	r21,0(r8)
 509031c:	44c00115 	stw	r19,4(r8)
 5090320:	d8801c15 	stw	r2,112(sp)
 5090324:	d9001b15 	stw	r4,108(sp)
 5090328:	00c001c4 	movi	r3,7
 509032c:	1901dd0e 	bge	r3,r4,5090aa4 <___vfiprintf_internal_r+0xd88>
 5090330:	1002401e 	bne	r2,zero,5090c34 <___vfiprintf_internal_r+0xf18>
 5090334:	d8001b15 	stw	zero,108(sp)
 5090338:	a2c0010c 	andi	r11,r20,4
 509033c:	58000226 	beq	r11,zero,5090348 <___vfiprintf_internal_r+0x62c>
 5090340:	8ca7c83a 	sub	r19,r17,r18
 5090344:	04c2f216 	blt	zero,r19,5090f10 <___vfiprintf_internal_r+0x11f4>
 5090348:	8c80010e 	bge	r17,r18,5090350 <___vfiprintf_internal_r+0x634>
 509034c:	9023883a 	mov	r17,r18
 5090350:	da802317 	ldw	r10,140(sp)
 5090354:	5455883a 	add	r10,r10,r17
 5090358:	da802315 	stw	r10,140(sp)
 509035c:	d8001b15 	stw	zero,108(sp)
 5090360:	d811883a 	mov	r8,sp
 5090364:	003ea206 	br	508fdf0 <___vfiprintf_internal_r+0xd4>
 5090368:	a5000814 	ori	r20,r20,32
 509036c:	80c00007 	ldb	r3,0(r16)
 5090370:	003ec906 	br	508fe98 <___vfiprintf_internal_r+0x17c>
 5090374:	80c00007 	ldb	r3,0(r16)
 5090378:	1b030926 	beq	r3,r12,5090fa0 <___vfiprintf_internal_r+0x1284>
 509037c:	a5000414 	ori	r20,r20,16
 5090380:	003ec506 	br	508fe98 <___vfiprintf_internal_r+0x17c>
 5090384:	21003fcc 	andi	r4,r4,255
 5090388:	20035e1e 	bne	r4,zero,5091104 <___vfiprintf_internal_r+0x13e8>
 509038c:	a080080c 	andi	r2,r20,32
 5090390:	1002a526 	beq	r2,zero,5090e28 <___vfiprintf_internal_r+0x110c>
 5090394:	da802217 	ldw	r10,136(sp)
 5090398:	50800017 	ldw	r2,0(r10)
 509039c:	da802317 	ldw	r10,140(sp)
 50903a0:	5007d7fa 	srai	r3,r10,31
 50903a4:	da802217 	ldw	r10,136(sp)
 50903a8:	10c00115 	stw	r3,4(r2)
 50903ac:	52800104 	addi	r10,r10,4
 50903b0:	da802215 	stw	r10,136(sp)
 50903b4:	da802317 	ldw	r10,140(sp)
 50903b8:	12800015 	stw	r10,0(r2)
 50903bc:	003e8c06 	br	508fdf0 <___vfiprintf_internal_r+0xd4>
 50903c0:	21003fcc 	andi	r4,r4,255
 50903c4:	2003511e 	bne	r4,zero,509110c <___vfiprintf_internal_r+0x13f0>
 50903c8:	a080080c 	andi	r2,r20,32
 50903cc:	1000a126 	beq	r2,zero,5090654 <___vfiprintf_internal_r+0x938>
 50903d0:	da802217 	ldw	r10,136(sp)
 50903d4:	d8001d85 	stb	zero,118(sp)
 50903d8:	50800204 	addi	r2,r10,8
 50903dc:	54800017 	ldw	r18,0(r10)
 50903e0:	54c00117 	ldw	r19,4(r10)
 50903e4:	4802b416 	blt	r9,zero,5090eb8 <___vfiprintf_internal_r+0x119c>
 50903e8:	013fdfc4 	movi	r4,-129
 50903ec:	94c6b03a 	or	r3,r18,r19
 50903f0:	d8802215 	stw	r2,136(sp)
 50903f4:	a128703a 	and	r20,r20,r4
 50903f8:	1800a226 	beq	r3,zero,5090684 <___vfiprintf_internal_r+0x968>
 50903fc:	0039883a 	mov	fp,zero
 5090400:	dd401a04 	addi	r21,sp,104
 5090404:	9006d0fa 	srli	r3,r18,3
 5090408:	9808977a 	slli	r4,r19,29
 509040c:	9826d0fa 	srli	r19,r19,3
 5090410:	948001cc 	andi	r18,r18,7
 5090414:	90800c04 	addi	r2,r18,48
 5090418:	ad7fffc4 	addi	r21,r21,-1
 509041c:	20e4b03a 	or	r18,r4,r3
 5090420:	a8800005 	stb	r2,0(r21)
 5090424:	94c6b03a 	or	r3,r18,r19
 5090428:	183ff61e 	bne	r3,zero,5090404 <___vfiprintf_internal_r+0x6e8>
 509042c:	a0c0004c 	andi	r3,r20,1
 5090430:	18005926 	beq	r3,zero,5090598 <___vfiprintf_internal_r+0x87c>
 5090434:	10803fcc 	andi	r2,r2,255
 5090438:	1080201c 	xori	r2,r2,128
 509043c:	10bfe004 	addi	r2,r2,-128
 5090440:	00c00c04 	movi	r3,48
 5090444:	10c05426 	beq	r2,r3,5090598 <___vfiprintf_internal_r+0x87c>
 5090448:	da801e17 	ldw	r10,120(sp)
 509044c:	a8bfffc4 	addi	r2,r21,-1
 5090450:	a8ffffc5 	stb	r3,-1(r21)
 5090454:	50a7c83a 	sub	r19,r10,r2
 5090458:	102b883a 	mov	r21,r2
 509045c:	003f2f06 	br	509011c <___vfiprintf_internal_r+0x400>
 5090460:	21003fcc 	andi	r4,r4,255
 5090464:	2003421e 	bne	r4,zero,5091170 <___vfiprintf_internal_r+0x1454>
 5090468:	00814274 	movhi	r2,1289
 509046c:	109a4004 	addi	r2,r2,26880
 5090470:	d8802615 	stw	r2,152(sp)
 5090474:	a080080c 	andi	r2,r20,32
 5090478:	1000aa26 	beq	r2,zero,5090724 <___vfiprintf_internal_r+0xa08>
 509047c:	da802217 	ldw	r10,136(sp)
 5090480:	54800017 	ldw	r18,0(r10)
 5090484:	54c00117 	ldw	r19,4(r10)
 5090488:	52800204 	addi	r10,r10,8
 509048c:	da802215 	stw	r10,136(sp)
 5090490:	a080004c 	andi	r2,r20,1
 5090494:	1001d226 	beq	r2,zero,5090be0 <___vfiprintf_internal_r+0xec4>
 5090498:	94c4b03a 	or	r2,r18,r19
 509049c:	1002351e 	bne	r2,zero,5090d74 <___vfiprintf_internal_r+0x1058>
 50904a0:	d8001d85 	stb	zero,118(sp)
 50904a4:	48022216 	blt	r9,zero,5090d30 <___vfiprintf_internal_r+0x1014>
 50904a8:	00bfdfc4 	movi	r2,-129
 50904ac:	a0a8703a 	and	r20,r20,r2
 50904b0:	003f1506 	br	5090108 <___vfiprintf_internal_r+0x3ec>
 50904b4:	da802217 	ldw	r10,136(sp)
 50904b8:	04800044 	movi	r18,1
 50904bc:	d8001d85 	stb	zero,118(sp)
 50904c0:	50800017 	ldw	r2,0(r10)
 50904c4:	52800104 	addi	r10,r10,4
 50904c8:	da802215 	stw	r10,136(sp)
 50904cc:	d8801005 	stb	r2,64(sp)
 50904d0:	9027883a 	mov	r19,r18
 50904d4:	dd401004 	addi	r21,sp,64
 50904d8:	0013883a 	mov	r9,zero
 50904dc:	003f1706 	br	509013c <___vfiprintf_internal_r+0x420>
 50904e0:	21003fcc 	andi	r4,r4,255
 50904e4:	2003201e 	bne	r4,zero,5091168 <___vfiprintf_internal_r+0x144c>
 50904e8:	a080080c 	andi	r2,r20,32
 50904ec:	10004b26 	beq	r2,zero,509061c <___vfiprintf_internal_r+0x900>
 50904f0:	da802217 	ldw	r10,136(sp)
 50904f4:	50800117 	ldw	r2,4(r10)
 50904f8:	54800017 	ldw	r18,0(r10)
 50904fc:	52800204 	addi	r10,r10,8
 5090500:	da802215 	stw	r10,136(sp)
 5090504:	1027883a 	mov	r19,r2
 5090508:	10022c16 	blt	r2,zero,5090dbc <___vfiprintf_internal_r+0x10a0>
 509050c:	df001d83 	ldbu	fp,118(sp)
 5090510:	48007216 	blt	r9,zero,50906dc <___vfiprintf_internal_r+0x9c0>
 5090514:	00ffdfc4 	movi	r3,-129
 5090518:	94c4b03a 	or	r2,r18,r19
 509051c:	a0e8703a 	and	r20,r20,r3
 5090520:	1000cc26 	beq	r2,zero,5090854 <___vfiprintf_internal_r+0xb38>
 5090524:	98021026 	beq	r19,zero,5090d68 <___vfiprintf_internal_r+0x104c>
 5090528:	dc402415 	stw	r17,144(sp)
 509052c:	dc002515 	stw	r16,148(sp)
 5090530:	9823883a 	mov	r17,r19
 5090534:	9021883a 	mov	r16,r18
 5090538:	dd401a04 	addi	r21,sp,104
 509053c:	4825883a 	mov	r18,r9
 5090540:	4027883a 	mov	r19,r8
 5090544:	8009883a 	mov	r4,r16
 5090548:	880b883a 	mov	r5,r17
 509054c:	01800284 	movi	r6,10
 5090550:	000f883a 	mov	r7,zero
 5090554:	50920fc0 	call	50920fc <__umoddi3>
 5090558:	10800c04 	addi	r2,r2,48
 509055c:	ad7fffc4 	addi	r21,r21,-1
 5090560:	8009883a 	mov	r4,r16
 5090564:	880b883a 	mov	r5,r17
 5090568:	a8800005 	stb	r2,0(r21)
 509056c:	01800284 	movi	r6,10
 5090570:	000f883a 	mov	r7,zero
 5090574:	5091b840 	call	5091b84 <__udivdi3>
 5090578:	1021883a 	mov	r16,r2
 509057c:	10c4b03a 	or	r2,r2,r3
 5090580:	1823883a 	mov	r17,r3
 5090584:	103fef1e 	bne	r2,zero,5090544 <___vfiprintf_internal_r+0x828>
 5090588:	dc402417 	ldw	r17,144(sp)
 509058c:	dc002517 	ldw	r16,148(sp)
 5090590:	9013883a 	mov	r9,r18
 5090594:	9811883a 	mov	r8,r19
 5090598:	da801e17 	ldw	r10,120(sp)
 509059c:	5567c83a 	sub	r19,r10,r21
 50905a0:	003ede06 	br	509011c <___vfiprintf_internal_r+0x400>
 50905a4:	38803fcc 	andi	r2,r7,255
 50905a8:	1080201c 	xori	r2,r2,128
 50905ac:	10bfe004 	addi	r2,r2,-128
 50905b0:	1002371e 	bne	r2,zero,5090e90 <___vfiprintf_internal_r+0x1174>
 50905b4:	01000044 	movi	r4,1
 50905b8:	01c00804 	movi	r7,32
 50905bc:	80c00007 	ldb	r3,0(r16)
 50905c0:	003e3506 	br	508fe98 <___vfiprintf_internal_r+0x17c>
 50905c4:	a5000054 	ori	r20,r20,1
 50905c8:	80c00007 	ldb	r3,0(r16)
 50905cc:	003e3206 	br	508fe98 <___vfiprintf_internal_r+0x17c>
 50905d0:	a5002014 	ori	r20,r20,128
 50905d4:	80c00007 	ldb	r3,0(r16)
 50905d8:	003e2f06 	br	508fe98 <___vfiprintf_internal_r+0x17c>
 50905dc:	8015883a 	mov	r10,r16
 50905e0:	0023883a 	mov	r17,zero
 50905e4:	18bff404 	addi	r2,r3,-48
 50905e8:	50c00007 	ldb	r3,0(r10)
 50905ec:	8c4002a4 	muli	r17,r17,10
 50905f0:	84000044 	addi	r16,r16,1
 50905f4:	8015883a 	mov	r10,r16
 50905f8:	1463883a 	add	r17,r2,r17
 50905fc:	18bff404 	addi	r2,r3,-48
 5090600:	30bff92e 	bgeu	r6,r2,50905e8 <___vfiprintf_internal_r+0x8cc>
 5090604:	003e2506 	br	508fe9c <___vfiprintf_internal_r+0x180>
 5090608:	21003fcc 	andi	r4,r4,255
 509060c:	2002d41e 	bne	r4,zero,5091160 <___vfiprintf_internal_r+0x1444>
 5090610:	a5000414 	ori	r20,r20,16
 5090614:	a080080c 	andi	r2,r20,32
 5090618:	103fb51e 	bne	r2,zero,50904f0 <___vfiprintf_internal_r+0x7d4>
 509061c:	a080040c 	andi	r2,r20,16
 5090620:	1001f826 	beq	r2,zero,5090e04 <___vfiprintf_internal_r+0x10e8>
 5090624:	da802217 	ldw	r10,136(sp)
 5090628:	54800017 	ldw	r18,0(r10)
 509062c:	52800104 	addi	r10,r10,4
 5090630:	da802215 	stw	r10,136(sp)
 5090634:	9027d7fa 	srai	r19,r18,31
 5090638:	9805883a 	mov	r2,r19
 509063c:	003fb206 	br	5090508 <___vfiprintf_internal_r+0x7ec>
 5090640:	21003fcc 	andi	r4,r4,255
 5090644:	2002c41e 	bne	r4,zero,5091158 <___vfiprintf_internal_r+0x143c>
 5090648:	a5000414 	ori	r20,r20,16
 509064c:	a080080c 	andi	r2,r20,32
 5090650:	103f5f1e 	bne	r2,zero,50903d0 <___vfiprintf_internal_r+0x6b4>
 5090654:	a080040c 	andi	r2,r20,16
 5090658:	10020f26 	beq	r2,zero,5090e98 <___vfiprintf_internal_r+0x117c>
 509065c:	da802217 	ldw	r10,136(sp)
 5090660:	d8001d85 	stb	zero,118(sp)
 5090664:	0027883a 	mov	r19,zero
 5090668:	50800104 	addi	r2,r10,4
 509066c:	54800017 	ldw	r18,0(r10)
 5090670:	48021116 	blt	r9,zero,5090eb8 <___vfiprintf_internal_r+0x119c>
 5090674:	00ffdfc4 	movi	r3,-129
 5090678:	d8802215 	stw	r2,136(sp)
 509067c:	a0e8703a 	and	r20,r20,r3
 5090680:	903f5e1e 	bne	r18,zero,50903fc <___vfiprintf_internal_r+0x6e0>
 5090684:	0039883a 	mov	fp,zero
 5090688:	4802a626 	beq	r9,zero,5091124 <___vfiprintf_internal_r+0x1408>
 509068c:	0025883a 	mov	r18,zero
 5090690:	0027883a 	mov	r19,zero
 5090694:	003f5a06 	br	5090400 <___vfiprintf_internal_r+0x6e4>
 5090698:	21003fcc 	andi	r4,r4,255
 509069c:	20029f1e 	bne	r4,zero,509111c <___vfiprintf_internal_r+0x1400>
 50906a0:	a5000414 	ori	r20,r20,16
 50906a4:	a080080c 	andi	r2,r20,32
 50906a8:	10005e1e 	bne	r2,zero,5090824 <___vfiprintf_internal_r+0xb08>
 50906ac:	a080040c 	andi	r2,r20,16
 50906b0:	1001a21e 	bne	r2,zero,5090d3c <___vfiprintf_internal_r+0x1020>
 50906b4:	a080100c 	andi	r2,r20,64
 50906b8:	d8001d85 	stb	zero,118(sp)
 50906bc:	da802217 	ldw	r10,136(sp)
 50906c0:	1002231e 	bne	r2,zero,5090f50 <___vfiprintf_internal_r+0x1234>
 50906c4:	50800104 	addi	r2,r10,4
 50906c8:	54800017 	ldw	r18,0(r10)
 50906cc:	0027883a 	mov	r19,zero
 50906d0:	4801a00e 	bge	r9,zero,5090d54 <___vfiprintf_internal_r+0x1038>
 50906d4:	d8802215 	stw	r2,136(sp)
 50906d8:	0039883a 	mov	fp,zero
 50906dc:	94c4b03a 	or	r2,r18,r19
 50906e0:	103f901e 	bne	r2,zero,5090524 <___vfiprintf_internal_r+0x808>
 50906e4:	00800044 	movi	r2,1
 50906e8:	10803fcc 	andi	r2,r2,255
 50906ec:	00c00044 	movi	r3,1
 50906f0:	10c05926 	beq	r2,r3,5090858 <___vfiprintf_internal_r+0xb3c>
 50906f4:	00c00084 	movi	r3,2
 50906f8:	10ffe41e 	bne	r2,r3,509068c <___vfiprintf_internal_r+0x970>
 50906fc:	0025883a 	mov	r18,zero
 5090700:	0027883a 	mov	r19,zero
 5090704:	00013d06 	br	5090bfc <___vfiprintf_internal_r+0xee0>
 5090708:	21003fcc 	andi	r4,r4,255
 509070c:	2002811e 	bne	r4,zero,5091114 <___vfiprintf_internal_r+0x13f8>
 5090710:	00814274 	movhi	r2,1289
 5090714:	109a3b04 	addi	r2,r2,26860
 5090718:	d8802615 	stw	r2,152(sp)
 509071c:	a080080c 	andi	r2,r20,32
 5090720:	103f561e 	bne	r2,zero,509047c <___vfiprintf_internal_r+0x760>
 5090724:	a080040c 	andi	r2,r20,16
 5090728:	1001d126 	beq	r2,zero,5090e70 <___vfiprintf_internal_r+0x1154>
 509072c:	da802217 	ldw	r10,136(sp)
 5090730:	0027883a 	mov	r19,zero
 5090734:	54800017 	ldw	r18,0(r10)
 5090738:	52800104 	addi	r10,r10,4
 509073c:	da802215 	stw	r10,136(sp)
 5090740:	003f5306 	br	5090490 <___vfiprintf_internal_r+0x774>
 5090744:	da802217 	ldw	r10,136(sp)
 5090748:	d8001d85 	stb	zero,118(sp)
 509074c:	55400017 	ldw	r21,0(r10)
 5090750:	50c00104 	addi	r3,r10,4
 5090754:	a8024226 	beq	r21,zero,5091060 <___vfiprintf_internal_r+0x1344>
 5090758:	48021816 	blt	r9,zero,5090fbc <___vfiprintf_internal_r+0x12a0>
 509075c:	480d883a 	mov	r6,r9
 5090760:	000b883a 	mov	r5,zero
 5090764:	a809883a 	mov	r4,r21
 5090768:	d8c02a15 	stw	r3,168(sp)
 509076c:	da002b15 	stw	r8,172(sp)
 5090770:	da402c15 	stw	r9,176(sp)
 5090774:	508cdb00 	call	508cdb0 <memchr>
 5090778:	d8c02a17 	ldw	r3,168(sp)
 509077c:	da002b17 	ldw	r8,172(sp)
 5090780:	da402c17 	ldw	r9,176(sp)
 5090784:	10024826 	beq	r2,zero,50910a8 <___vfiprintf_internal_r+0x138c>
 5090788:	1567c83a 	sub	r19,r2,r21
 509078c:	df001d83 	ldbu	fp,118(sp)
 5090790:	d8c02215 	stw	r3,136(sp)
 5090794:	0013883a 	mov	r9,zero
 5090798:	003e6006 	br	509011c <___vfiprintf_internal_r+0x400>
 509079c:	21003fcc 	andi	r4,r4,255
 50907a0:	203fc026 	beq	r4,zero,50906a4 <___vfiprintf_internal_r+0x988>
 50907a4:	d9c01d85 	stb	r7,118(sp)
 50907a8:	003fbe06 	br	50906a4 <___vfiprintf_internal_r+0x988>
 50907ac:	da802217 	ldw	r10,136(sp)
 50907b0:	54400017 	ldw	r17,0(r10)
 50907b4:	50800104 	addi	r2,r10,4
 50907b8:	883e3b16 	blt	r17,zero,50900a8 <___vfiprintf_internal_r+0x38c>
 50907bc:	d8802215 	stw	r2,136(sp)
 50907c0:	80c00007 	ldb	r3,0(r16)
 50907c4:	003db406 	br	508fe98 <___vfiprintf_internal_r+0x17c>
 50907c8:	01000044 	movi	r4,1
 50907cc:	01c00ac4 	movi	r7,43
 50907d0:	80c00007 	ldb	r3,0(r16)
 50907d4:	003db006 	br	508fe98 <___vfiprintf_internal_r+0x17c>
 50907d8:	80c00007 	ldb	r3,0(r16)
 50907dc:	82800044 	addi	r10,r16,1
 50907e0:	1b423c26 	beq	r3,r13,50910d4 <___vfiprintf_internal_r+0x13b8>
 50907e4:	18bff404 	addi	r2,r3,-48
 50907e8:	0013883a 	mov	r9,zero
 50907ec:	30822b36 	bltu	r6,r2,509109c <___vfiprintf_internal_r+0x1380>
 50907f0:	50c00007 	ldb	r3,0(r10)
 50907f4:	4a4002a4 	muli	r9,r9,10
 50907f8:	54000044 	addi	r16,r10,1
 50907fc:	8015883a 	mov	r10,r16
 5090800:	4893883a 	add	r9,r9,r2
 5090804:	18bff404 	addi	r2,r3,-48
 5090808:	30bff92e 	bgeu	r6,r2,50907f0 <___vfiprintf_internal_r+0xad4>
 509080c:	483da30e 	bge	r9,zero,508fe9c <___vfiprintf_internal_r+0x180>
 5090810:	027fffc4 	movi	r9,-1
 5090814:	003da106 	br	508fe9c <___vfiprintf_internal_r+0x180>
 5090818:	a5001014 	ori	r20,r20,64
 509081c:	80c00007 	ldb	r3,0(r16)
 5090820:	003d9d06 	br	508fe98 <___vfiprintf_internal_r+0x17c>
 5090824:	da802217 	ldw	r10,136(sp)
 5090828:	d8001d85 	stb	zero,118(sp)
 509082c:	50c00204 	addi	r3,r10,8
 5090830:	54800017 	ldw	r18,0(r10)
 5090834:	54c00117 	ldw	r19,4(r10)
 5090838:	4801ca16 	blt	r9,zero,5090f64 <___vfiprintf_internal_r+0x1248>
 509083c:	013fdfc4 	movi	r4,-129
 5090840:	94c4b03a 	or	r2,r18,r19
 5090844:	d8c02215 	stw	r3,136(sp)
 5090848:	a128703a 	and	r20,r20,r4
 509084c:	0039883a 	mov	fp,zero
 5090850:	103f341e 	bne	r2,zero,5090524 <___vfiprintf_internal_r+0x808>
 5090854:	483e2e26 	beq	r9,zero,5090110 <___vfiprintf_internal_r+0x3f4>
 5090858:	0025883a 	mov	r18,zero
 509085c:	94800c04 	addi	r18,r18,48
 5090860:	dc8019c5 	stb	r18,103(sp)
 5090864:	dcc02717 	ldw	r19,156(sp)
 5090868:	dd4019c4 	addi	r21,sp,103
 509086c:	003e2b06 	br	509011c <___vfiprintf_internal_r+0x400>
 5090870:	21003fcc 	andi	r4,r4,255
 5090874:	2002361e 	bne	r4,zero,5091150 <___vfiprintf_internal_r+0x1434>
 5090878:	1801c126 	beq	r3,zero,5090f80 <___vfiprintf_internal_r+0x1264>
 509087c:	04800044 	movi	r18,1
 5090880:	d8c01005 	stb	r3,64(sp)
 5090884:	d8001d85 	stb	zero,118(sp)
 5090888:	9027883a 	mov	r19,r18
 509088c:	dd401004 	addi	r21,sp,64
 5090890:	003f1106 	br	50904d8 <___vfiprintf_internal_r+0x7bc>
 5090894:	d9402117 	ldw	r5,132(sp)
 5090898:	d9002017 	ldw	r4,128(sp)
 509089c:	d9801a04 	addi	r6,sp,104
 50908a0:	d9c02b15 	stw	r7,172(sp)
 50908a4:	dbc02a15 	stw	r15,168(sp)
 50908a8:	508fc080 	call	508fc08 <__sprint_r.part.0>
 50908ac:	d9c02b17 	ldw	r7,172(sp)
 50908b0:	dbc02a17 	ldw	r15,168(sp)
 50908b4:	10006d1e 	bne	r2,zero,5090a6c <___vfiprintf_internal_r+0xd50>
 50908b8:	d9801b17 	ldw	r6,108(sp)
 50908bc:	d8801c17 	ldw	r2,112(sp)
 50908c0:	d811883a 	mov	r8,sp
 50908c4:	31400044 	addi	r5,r6,1
 50908c8:	003e3306 	br	5090198 <___vfiprintf_internal_r+0x47c>
 50908cc:	d9401b17 	ldw	r5,108(sp)
 50908d0:	d8801c17 	ldw	r2,112(sp)
 50908d4:	29000044 	addi	r4,r5,1
 50908d8:	d8c01d87 	ldb	r3,118(sp)
 50908dc:	183e4d26 	beq	r3,zero,5090214 <___vfiprintf_internal_r+0x4f8>
 50908e0:	00c00044 	movi	r3,1
 50908e4:	d9401d84 	addi	r5,sp,118
 50908e8:	10c5883a 	add	r2,r2,r3
 50908ec:	41400015 	stw	r5,0(r8)
 50908f0:	40c00115 	stw	r3,4(r8)
 50908f4:	d8801c15 	stw	r2,112(sp)
 50908f8:	d9001b15 	stw	r4,108(sp)
 50908fc:	014001c4 	movi	r5,7
 5090900:	2900a90e 	bge	r5,r4,5090ba8 <___vfiprintf_internal_r+0xe8c>
 5090904:	1000da1e 	bne	r2,zero,5090c70 <___vfiprintf_internal_r+0xf54>
 5090908:	7000ab1e 	bne	r14,zero,5090bb8 <___vfiprintf_internal_r+0xe9c>
 509090c:	000b883a 	mov	r5,zero
 5090910:	1809883a 	mov	r4,r3
 5090914:	d811883a 	mov	r8,sp
 5090918:	00c02004 	movi	r3,128
 509091c:	e0fe4d26 	beq	fp,r3,5090254 <___vfiprintf_internal_r+0x538>
 5090920:	4cf9c83a 	sub	fp,r9,r19
 5090924:	073e7b0e 	bge	zero,fp,5090314 <___vfiprintf_internal_r+0x5f8>
 5090928:	01c00404 	movi	r7,16
 509092c:	3f01900e 	bge	r7,fp,5090f70 <___vfiprintf_internal_r+0x1254>
 5090930:	00c14274 	movhi	r3,1289
 5090934:	18dab104 	addi	r3,r3,27332
 5090938:	d8c02415 	stw	r3,144(sp)
 509093c:	034001c4 	movi	r13,7
 5090940:	00000506 	br	5090958 <___vfiprintf_internal_r+0xc3c>
 5090944:	29000084 	addi	r4,r5,2
 5090948:	42000204 	addi	r8,r8,8
 509094c:	180b883a 	mov	r5,r3
 5090950:	e73ffc04 	addi	fp,fp,-16
 5090954:	3f000d0e 	bge	r7,fp,509098c <___vfiprintf_internal_r+0xc70>
 5090958:	10800404 	addi	r2,r2,16
 509095c:	28c00044 	addi	r3,r5,1
 5090960:	45c00015 	stw	r23,0(r8)
 5090964:	41c00115 	stw	r7,4(r8)
 5090968:	d8801c15 	stw	r2,112(sp)
 509096c:	d8c01b15 	stw	r3,108(sp)
 5090970:	68fff40e 	bge	r13,r3,5090944 <___vfiprintf_internal_r+0xc28>
 5090974:	1000101e 	bne	r2,zero,50909b8 <___vfiprintf_internal_r+0xc9c>
 5090978:	e73ffc04 	addi	fp,fp,-16
 509097c:	01000044 	movi	r4,1
 5090980:	000b883a 	mov	r5,zero
 5090984:	d811883a 	mov	r8,sp
 5090988:	3f3ff316 	blt	r7,fp,5090958 <___vfiprintf_internal_r+0xc3c>
 509098c:	da802417 	ldw	r10,144(sp)
 5090990:	1705883a 	add	r2,r2,fp
 5090994:	47000115 	stw	fp,4(r8)
 5090998:	42800015 	stw	r10,0(r8)
 509099c:	d8801c15 	stw	r2,112(sp)
 50909a0:	d9001b15 	stw	r4,108(sp)
 50909a4:	00c001c4 	movi	r3,7
 50909a8:	19003616 	blt	r3,r4,5090a84 <___vfiprintf_internal_r+0xd68>
 50909ac:	42000204 	addi	r8,r8,8
 50909b0:	21000044 	addi	r4,r4,1
 50909b4:	003e5706 	br	5090314 <___vfiprintf_internal_r+0x5f8>
 50909b8:	d9402117 	ldw	r5,132(sp)
 50909bc:	d9002017 	ldw	r4,128(sp)
 50909c0:	d9801a04 	addi	r6,sp,104
 50909c4:	d9c02b15 	stw	r7,172(sp)
 50909c8:	db402a15 	stw	r13,168(sp)
 50909cc:	508fc080 	call	508fc08 <__sprint_r.part.0>
 50909d0:	d9c02b17 	ldw	r7,172(sp)
 50909d4:	db402a17 	ldw	r13,168(sp)
 50909d8:	1000241e 	bne	r2,zero,5090a6c <___vfiprintf_internal_r+0xd50>
 50909dc:	d9401b17 	ldw	r5,108(sp)
 50909e0:	d8801c17 	ldw	r2,112(sp)
 50909e4:	d811883a 	mov	r8,sp
 50909e8:	29000044 	addi	r4,r5,1
 50909ec:	003fd806 	br	5090950 <___vfiprintf_internal_r+0xc34>
 50909f0:	d9401b17 	ldw	r5,108(sp)
 50909f4:	00c14274 	movhi	r3,1289
 50909f8:	18dab504 	addi	r3,r3,27348
 50909fc:	d8c02415 	stw	r3,144(sp)
 5090a00:	29400044 	addi	r5,r5,1
 5090a04:	d8c02417 	ldw	r3,144(sp)
 5090a08:	14c5883a 	add	r2,r2,r19
 5090a0c:	44c00115 	stw	r19,4(r8)
 5090a10:	40c00015 	stw	r3,0(r8)
 5090a14:	d8801c15 	stw	r2,112(sp)
 5090a18:	d9401b15 	stw	r5,108(sp)
 5090a1c:	00c001c4 	movi	r3,7
 5090a20:	1940070e 	bge	r3,r5,5090a40 <___vfiprintf_internal_r+0xd24>
 5090a24:	103e4826 	beq	r2,zero,5090348 <___vfiprintf_internal_r+0x62c>
 5090a28:	d9402117 	ldw	r5,132(sp)
 5090a2c:	d9002017 	ldw	r4,128(sp)
 5090a30:	d9801a04 	addi	r6,sp,104
 5090a34:	508fc080 	call	508fc08 <__sprint_r.part.0>
 5090a38:	10000c1e 	bne	r2,zero,5090a6c <___vfiprintf_internal_r+0xd50>
 5090a3c:	d8801c17 	ldw	r2,112(sp)
 5090a40:	8c80010e 	bge	r17,r18,5090a48 <___vfiprintf_internal_r+0xd2c>
 5090a44:	9023883a 	mov	r17,r18
 5090a48:	da802317 	ldw	r10,140(sp)
 5090a4c:	5455883a 	add	r10,r10,r17
 5090a50:	da802315 	stw	r10,140(sp)
 5090a54:	103e4126 	beq	r2,zero,509035c <___vfiprintf_internal_r+0x640>
 5090a58:	d9402117 	ldw	r5,132(sp)
 5090a5c:	d9002017 	ldw	r4,128(sp)
 5090a60:	d9801a04 	addi	r6,sp,104
 5090a64:	508fc080 	call	508fc08 <__sprint_r.part.0>
 5090a68:	103e3c26 	beq	r2,zero,509035c <___vfiprintf_internal_r+0x640>
 5090a6c:	dd002117 	ldw	r20,132(sp)
 5090a70:	a080030b 	ldhu	r2,12(r20)
 5090a74:	1080100c 	andi	r2,r2,64
 5090a78:	1001231e 	bne	r2,zero,5090f08 <___vfiprintf_internal_r+0x11ec>
 5090a7c:	d8802317 	ldw	r2,140(sp)
 5090a80:	003d7b06 	br	5090070 <___vfiprintf_internal_r+0x354>
 5090a84:	1000991e 	bne	r2,zero,5090cec <___vfiprintf_internal_r+0xfd0>
 5090a88:	00c00044 	movi	r3,1
 5090a8c:	9805883a 	mov	r2,r19
 5090a90:	dd400015 	stw	r21,0(sp)
 5090a94:	dcc00115 	stw	r19,4(sp)
 5090a98:	dcc01c15 	stw	r19,112(sp)
 5090a9c:	d8c01b15 	stw	r3,108(sp)
 5090aa0:	d811883a 	mov	r8,sp
 5090aa4:	42000204 	addi	r8,r8,8
 5090aa8:	a2c0010c 	andi	r11,r20,4
 5090aac:	583fe426 	beq	r11,zero,5090a40 <___vfiprintf_internal_r+0xd24>
 5090ab0:	8ca7c83a 	sub	r19,r17,r18
 5090ab4:	04ffe20e 	bge	zero,r19,5090a40 <___vfiprintf_internal_r+0xd24>
 5090ab8:	01c00404 	movi	r7,16
 5090abc:	3cffcc0e 	bge	r7,r19,50909f0 <___vfiprintf_internal_r+0xcd4>
 5090ac0:	02814274 	movhi	r10,1289
 5090ac4:	529ab504 	addi	r10,r10,27348
 5090ac8:	d9001b17 	ldw	r4,108(sp)
 5090acc:	da802415 	stw	r10,144(sp)
 5090ad0:	382b883a 	mov	r21,r7
 5090ad4:	050001c4 	movi	r20,7
 5090ad8:	df002017 	ldw	fp,128(sp)
 5090adc:	00000506 	br	5090af4 <___vfiprintf_internal_r+0xdd8>
 5090ae0:	21400084 	addi	r5,r4,2
 5090ae4:	42000204 	addi	r8,r8,8
 5090ae8:	1809883a 	mov	r4,r3
 5090aec:	9cfffc04 	addi	r19,r19,-16
 5090af0:	acffc40e 	bge	r21,r19,5090a04 <___vfiprintf_internal_r+0xce8>
 5090af4:	10800404 	addi	r2,r2,16
 5090af8:	20c00044 	addi	r3,r4,1
 5090afc:	45800015 	stw	r22,0(r8)
 5090b00:	45400115 	stw	r21,4(r8)
 5090b04:	d8801c15 	stw	r2,112(sp)
 5090b08:	d8c01b15 	stw	r3,108(sp)
 5090b0c:	a0fff40e 	bge	r20,r3,5090ae0 <___vfiprintf_internal_r+0xdc4>
 5090b10:	1000041e 	bne	r2,zero,5090b24 <___vfiprintf_internal_r+0xe08>
 5090b14:	01400044 	movi	r5,1
 5090b18:	0009883a 	mov	r4,zero
 5090b1c:	d811883a 	mov	r8,sp
 5090b20:	003ff206 	br	5090aec <___vfiprintf_internal_r+0xdd0>
 5090b24:	d9402117 	ldw	r5,132(sp)
 5090b28:	d9801a04 	addi	r6,sp,104
 5090b2c:	e009883a 	mov	r4,fp
 5090b30:	508fc080 	call	508fc08 <__sprint_r.part.0>
 5090b34:	103fcd1e 	bne	r2,zero,5090a6c <___vfiprintf_internal_r+0xd50>
 5090b38:	d9001b17 	ldw	r4,108(sp)
 5090b3c:	d8801c17 	ldw	r2,112(sp)
 5090b40:	d811883a 	mov	r8,sp
 5090b44:	21400044 	addi	r5,r4,1
 5090b48:	003fe806 	br	5090aec <___vfiprintf_internal_r+0xdd0>
 5090b4c:	d9402117 	ldw	r5,132(sp)
 5090b50:	d9002017 	ldw	r4,128(sp)
 5090b54:	d9801a04 	addi	r6,sp,104
 5090b58:	d9c02b15 	stw	r7,172(sp)
 5090b5c:	db402a15 	stw	r13,168(sp)
 5090b60:	508fc080 	call	508fc08 <__sprint_r.part.0>
 5090b64:	d9c02b17 	ldw	r7,172(sp)
 5090b68:	db402a17 	ldw	r13,168(sp)
 5090b6c:	103fbf1e 	bne	r2,zero,5090a6c <___vfiprintf_internal_r+0xd50>
 5090b70:	d9401b17 	ldw	r5,108(sp)
 5090b74:	d8801c17 	ldw	r2,112(sp)
 5090b78:	d811883a 	mov	r8,sp
 5090b7c:	29800044 	addi	r6,r5,1
 5090b80:	003dc406 	br	5090294 <___vfiprintf_internal_r+0x578>
 5090b84:	1000d21e 	bne	r2,zero,5090ed0 <___vfiprintf_internal_r+0x11b4>
 5090b88:	d8c01d87 	ldb	r3,118(sp)
 5090b8c:	18009526 	beq	r3,zero,5090de4 <___vfiprintf_internal_r+0x10c8>
 5090b90:	00800044 	movi	r2,1
 5090b94:	d8c01d84 	addi	r3,sp,118
 5090b98:	1009883a 	mov	r4,r2
 5090b9c:	d8c00015 	stw	r3,0(sp)
 5090ba0:	d8800115 	stw	r2,4(sp)
 5090ba4:	d811883a 	mov	r8,sp
 5090ba8:	200b883a 	mov	r5,r4
 5090bac:	42000204 	addi	r8,r8,8
 5090bb0:	21000044 	addi	r4,r4,1
 5090bb4:	003d9706 	br	5090214 <___vfiprintf_internal_r+0x4f8>
 5090bb8:	d9001d04 	addi	r4,sp,116
 5090bbc:	00800084 	movi	r2,2
 5090bc0:	d9000015 	stw	r4,0(sp)
 5090bc4:	d8800115 	stw	r2,4(sp)
 5090bc8:	1809883a 	mov	r4,r3
 5090bcc:	d811883a 	mov	r8,sp
 5090bd0:	200b883a 	mov	r5,r4
 5090bd4:	42000204 	addi	r8,r8,8
 5090bd8:	21000044 	addi	r4,r4,1
 5090bdc:	003f4e06 	br	5090918 <___vfiprintf_internal_r+0xbfc>
 5090be0:	d8001d85 	stb	zero,118(sp)
 5090be4:	48005016 	blt	r9,zero,5090d28 <___vfiprintf_internal_r+0x100c>
 5090be8:	00ffdfc4 	movi	r3,-129
 5090bec:	94c4b03a 	or	r2,r18,r19
 5090bf0:	a0e8703a 	and	r20,r20,r3
 5090bf4:	103d4426 	beq	r2,zero,5090108 <___vfiprintf_internal_r+0x3ec>
 5090bf8:	0039883a 	mov	fp,zero
 5090bfc:	d9002617 	ldw	r4,152(sp)
 5090c00:	dd401a04 	addi	r21,sp,104
 5090c04:	908003cc 	andi	r2,r18,15
 5090c08:	9806973a 	slli	r3,r19,28
 5090c0c:	2085883a 	add	r2,r4,r2
 5090c10:	9024d13a 	srli	r18,r18,4
 5090c14:	10800003 	ldbu	r2,0(r2)
 5090c18:	9826d13a 	srli	r19,r19,4
 5090c1c:	ad7fffc4 	addi	r21,r21,-1
 5090c20:	1ca4b03a 	or	r18,r3,r18
 5090c24:	a8800005 	stb	r2,0(r21)
 5090c28:	94c4b03a 	or	r2,r18,r19
 5090c2c:	103ff51e 	bne	r2,zero,5090c04 <___vfiprintf_internal_r+0xee8>
 5090c30:	003e5906 	br	5090598 <___vfiprintf_internal_r+0x87c>
 5090c34:	d9402117 	ldw	r5,132(sp)
 5090c38:	d9002017 	ldw	r4,128(sp)
 5090c3c:	d9801a04 	addi	r6,sp,104
 5090c40:	508fc080 	call	508fc08 <__sprint_r.part.0>
 5090c44:	103f891e 	bne	r2,zero,5090a6c <___vfiprintf_internal_r+0xd50>
 5090c48:	d8801c17 	ldw	r2,112(sp)
 5090c4c:	d811883a 	mov	r8,sp
 5090c50:	003f9506 	br	5090aa8 <___vfiprintf_internal_r+0xd8c>
 5090c54:	d9402117 	ldw	r5,132(sp)
 5090c58:	d9002017 	ldw	r4,128(sp)
 5090c5c:	d9801a04 	addi	r6,sp,104
 5090c60:	508fc080 	call	508fc08 <__sprint_r.part.0>
 5090c64:	103f811e 	bne	r2,zero,5090a6c <___vfiprintf_internal_r+0xd50>
 5090c68:	d811883a 	mov	r8,sp
 5090c6c:	003ced06 	br	5090024 <___vfiprintf_internal_r+0x308>
 5090c70:	d9402117 	ldw	r5,132(sp)
 5090c74:	d9002017 	ldw	r4,128(sp)
 5090c78:	d9801a04 	addi	r6,sp,104
 5090c7c:	da402c15 	stw	r9,176(sp)
 5090c80:	db802a15 	stw	r14,168(sp)
 5090c84:	508fc080 	call	508fc08 <__sprint_r.part.0>
 5090c88:	da402c17 	ldw	r9,176(sp)
 5090c8c:	db802a17 	ldw	r14,168(sp)
 5090c90:	103f761e 	bne	r2,zero,5090a6c <___vfiprintf_internal_r+0xd50>
 5090c94:	d9401b17 	ldw	r5,108(sp)
 5090c98:	d8801c17 	ldw	r2,112(sp)
 5090c9c:	d811883a 	mov	r8,sp
 5090ca0:	29000044 	addi	r4,r5,1
 5090ca4:	003d5b06 	br	5090214 <___vfiprintf_internal_r+0x4f8>
 5090ca8:	d9402117 	ldw	r5,132(sp)
 5090cac:	d9002017 	ldw	r4,128(sp)
 5090cb0:	d9801a04 	addi	r6,sp,104
 5090cb4:	da402c15 	stw	r9,176(sp)
 5090cb8:	508fc080 	call	508fc08 <__sprint_r.part.0>
 5090cbc:	da402c17 	ldw	r9,176(sp)
 5090cc0:	103f6a1e 	bne	r2,zero,5090a6c <___vfiprintf_internal_r+0xd50>
 5090cc4:	d9401b17 	ldw	r5,108(sp)
 5090cc8:	d8801c17 	ldw	r2,112(sp)
 5090ccc:	d811883a 	mov	r8,sp
 5090cd0:	29000044 	addi	r4,r5,1
 5090cd4:	003f1006 	br	5090918 <___vfiprintf_internal_r+0xbfc>
 5090cd8:	1000c31e 	bne	r2,zero,5090fe8 <___vfiprintf_internal_r+0x12cc>
 5090cdc:	01000044 	movi	r4,1
 5090ce0:	000b883a 	mov	r5,zero
 5090ce4:	d811883a 	mov	r8,sp
 5090ce8:	003f0d06 	br	5090920 <___vfiprintf_internal_r+0xc04>
 5090cec:	d9402117 	ldw	r5,132(sp)
 5090cf0:	d9002017 	ldw	r4,128(sp)
 5090cf4:	d9801a04 	addi	r6,sp,104
 5090cf8:	508fc080 	call	508fc08 <__sprint_r.part.0>
 5090cfc:	103f5b1e 	bne	r2,zero,5090a6c <___vfiprintf_internal_r+0xd50>
 5090d00:	d9001b17 	ldw	r4,108(sp)
 5090d04:	d8801c17 	ldw	r2,112(sp)
 5090d08:	d811883a 	mov	r8,sp
 5090d0c:	21000044 	addi	r4,r4,1
 5090d10:	003d8006 	br	5090314 <___vfiprintf_internal_r+0x5f8>
 5090d14:	01014274 	movhi	r4,1289
 5090d18:	211a4004 	addi	r4,r4,26880
 5090d1c:	d9002615 	stw	r4,152(sp)
 5090d20:	d8c02215 	stw	r3,136(sp)
 5090d24:	1029883a 	mov	r20,r2
 5090d28:	94c4b03a 	or	r2,r18,r19
 5090d2c:	103fb21e 	bne	r2,zero,5090bf8 <___vfiprintf_internal_r+0xedc>
 5090d30:	0039883a 	mov	fp,zero
 5090d34:	00800084 	movi	r2,2
 5090d38:	003e6b06 	br	50906e8 <___vfiprintf_internal_r+0x9cc>
 5090d3c:	da802217 	ldw	r10,136(sp)
 5090d40:	d8001d85 	stb	zero,118(sp)
 5090d44:	0027883a 	mov	r19,zero
 5090d48:	50800104 	addi	r2,r10,4
 5090d4c:	54800017 	ldw	r18,0(r10)
 5090d50:	483e6016 	blt	r9,zero,50906d4 <___vfiprintf_internal_r+0x9b8>
 5090d54:	00ffdfc4 	movi	r3,-129
 5090d58:	d8802215 	stw	r2,136(sp)
 5090d5c:	a0e8703a 	and	r20,r20,r3
 5090d60:	0039883a 	mov	fp,zero
 5090d64:	903ebb26 	beq	r18,zero,5090854 <___vfiprintf_internal_r+0xb38>
 5090d68:	00800244 	movi	r2,9
 5090d6c:	14bdee36 	bltu	r2,r18,5090528 <___vfiprintf_internal_r+0x80c>
 5090d70:	003eba06 	br	509085c <___vfiprintf_internal_r+0xb40>
 5090d74:	00800c04 	movi	r2,48
 5090d78:	d8c01d45 	stb	r3,117(sp)
 5090d7c:	d8801d05 	stb	r2,116(sp)
 5090d80:	d8001d85 	stb	zero,118(sp)
 5090d84:	a0c00094 	ori	r3,r20,2
 5090d88:	4800a916 	blt	r9,zero,5091030 <___vfiprintf_internal_r+0x1314>
 5090d8c:	00bfdfc4 	movi	r2,-129
 5090d90:	a096703a 	and	r11,r20,r2
 5090d94:	5d000094 	ori	r20,r11,2
 5090d98:	0039883a 	mov	fp,zero
 5090d9c:	003f9706 	br	5090bfc <___vfiprintf_internal_r+0xee0>
 5090da0:	8025883a 	mov	r18,r16
 5090da4:	003c2e06 	br	508fe60 <___vfiprintf_internal_r+0x144>
 5090da8:	00814274 	movhi	r2,1289
 5090dac:	109a4004 	addi	r2,r2,26880
 5090db0:	0039883a 	mov	fp,zero
 5090db4:	d8802615 	stw	r2,152(sp)
 5090db8:	003f9006 	br	5090bfc <___vfiprintf_internal_r+0xee0>
 5090dbc:	04a5c83a 	sub	r18,zero,r18
 5090dc0:	07000b44 	movi	fp,45
 5090dc4:	9004c03a 	cmpne	r2,r18,zero
 5090dc8:	04e7c83a 	sub	r19,zero,r19
 5090dcc:	df001d85 	stb	fp,118(sp)
 5090dd0:	98a7c83a 	sub	r19,r19,r2
 5090dd4:	48009f16 	blt	r9,zero,5091054 <___vfiprintf_internal_r+0x1338>
 5090dd8:	00bfdfc4 	movi	r2,-129
 5090ddc:	a0a8703a 	and	r20,r20,r2
 5090de0:	003dd006 	br	5090524 <___vfiprintf_internal_r+0x808>
 5090de4:	70004c26 	beq	r14,zero,5090f18 <___vfiprintf_internal_r+0x11fc>
 5090de8:	00800084 	movi	r2,2
 5090dec:	d8c01d04 	addi	r3,sp,116
 5090df0:	d8c00015 	stw	r3,0(sp)
 5090df4:	d8800115 	stw	r2,4(sp)
 5090df8:	01000044 	movi	r4,1
 5090dfc:	d811883a 	mov	r8,sp
 5090e00:	003f7306 	br	5090bd0 <___vfiprintf_internal_r+0xeb4>
 5090e04:	a080100c 	andi	r2,r20,64
 5090e08:	da802217 	ldw	r10,136(sp)
 5090e0c:	103e0626 	beq	r2,zero,5090628 <___vfiprintf_internal_r+0x90c>
 5090e10:	5480000f 	ldh	r18,0(r10)
 5090e14:	52800104 	addi	r10,r10,4
 5090e18:	da802215 	stw	r10,136(sp)
 5090e1c:	9027d7fa 	srai	r19,r18,31
 5090e20:	9805883a 	mov	r2,r19
 5090e24:	003db806 	br	5090508 <___vfiprintf_internal_r+0x7ec>
 5090e28:	a080040c 	andi	r2,r20,16
 5090e2c:	1000091e 	bne	r2,zero,5090e54 <___vfiprintf_internal_r+0x1138>
 5090e30:	a2c0100c 	andi	r11,r20,64
 5090e34:	58000726 	beq	r11,zero,5090e54 <___vfiprintf_internal_r+0x1138>
 5090e38:	da802217 	ldw	r10,136(sp)
 5090e3c:	50800017 	ldw	r2,0(r10)
 5090e40:	52800104 	addi	r10,r10,4
 5090e44:	da802215 	stw	r10,136(sp)
 5090e48:	da802317 	ldw	r10,140(sp)
 5090e4c:	1280000d 	sth	r10,0(r2)
 5090e50:	003be706 	br	508fdf0 <___vfiprintf_internal_r+0xd4>
 5090e54:	da802217 	ldw	r10,136(sp)
 5090e58:	50800017 	ldw	r2,0(r10)
 5090e5c:	52800104 	addi	r10,r10,4
 5090e60:	da802215 	stw	r10,136(sp)
 5090e64:	da802317 	ldw	r10,140(sp)
 5090e68:	12800015 	stw	r10,0(r2)
 5090e6c:	003be006 	br	508fdf0 <___vfiprintf_internal_r+0xd4>
 5090e70:	a080100c 	andi	r2,r20,64
 5090e74:	da802217 	ldw	r10,136(sp)
 5090e78:	10003026 	beq	r2,zero,5090f3c <___vfiprintf_internal_r+0x1220>
 5090e7c:	5480000b 	ldhu	r18,0(r10)
 5090e80:	52800104 	addi	r10,r10,4
 5090e84:	0027883a 	mov	r19,zero
 5090e88:	da802215 	stw	r10,136(sp)
 5090e8c:	003d8006 	br	5090490 <___vfiprintf_internal_r+0x774>
 5090e90:	80c00007 	ldb	r3,0(r16)
 5090e94:	003c0006 	br	508fe98 <___vfiprintf_internal_r+0x17c>
 5090e98:	a080100c 	andi	r2,r20,64
 5090e9c:	d8001d85 	stb	zero,118(sp)
 5090ea0:	da802217 	ldw	r10,136(sp)
 5090ea4:	1000201e 	bne	r2,zero,5090f28 <___vfiprintf_internal_r+0x120c>
 5090ea8:	50800104 	addi	r2,r10,4
 5090eac:	54800017 	ldw	r18,0(r10)
 5090eb0:	0027883a 	mov	r19,zero
 5090eb4:	483def0e 	bge	r9,zero,5090674 <___vfiprintf_internal_r+0x958>
 5090eb8:	94c6b03a 	or	r3,r18,r19
 5090ebc:	d8802215 	stw	r2,136(sp)
 5090ec0:	183d4e1e 	bne	r3,zero,50903fc <___vfiprintf_internal_r+0x6e0>
 5090ec4:	0039883a 	mov	fp,zero
 5090ec8:	0005883a 	mov	r2,zero
 5090ecc:	003e0606 	br	50906e8 <___vfiprintf_internal_r+0x9cc>
 5090ed0:	d9402117 	ldw	r5,132(sp)
 5090ed4:	d9002017 	ldw	r4,128(sp)
 5090ed8:	d9801a04 	addi	r6,sp,104
 5090edc:	da402c15 	stw	r9,176(sp)
 5090ee0:	db802a15 	stw	r14,168(sp)
 5090ee4:	508fc080 	call	508fc08 <__sprint_r.part.0>
 5090ee8:	da402c17 	ldw	r9,176(sp)
 5090eec:	db802a17 	ldw	r14,168(sp)
 5090ef0:	103ede1e 	bne	r2,zero,5090a6c <___vfiprintf_internal_r+0xd50>
 5090ef4:	d9401b17 	ldw	r5,108(sp)
 5090ef8:	d8801c17 	ldw	r2,112(sp)
 5090efc:	d811883a 	mov	r8,sp
 5090f00:	29000044 	addi	r4,r5,1
 5090f04:	003e7406 	br	50908d8 <___vfiprintf_internal_r+0xbbc>
 5090f08:	00bfffc4 	movi	r2,-1
 5090f0c:	003c5806 	br	5090070 <___vfiprintf_internal_r+0x354>
 5090f10:	d811883a 	mov	r8,sp
 5090f14:	003ee806 	br	5090ab8 <___vfiprintf_internal_r+0xd9c>
 5090f18:	000b883a 	mov	r5,zero
 5090f1c:	01000044 	movi	r4,1
 5090f20:	d811883a 	mov	r8,sp
 5090f24:	003e7c06 	br	5090918 <___vfiprintf_internal_r+0xbfc>
 5090f28:	50800104 	addi	r2,r10,4
 5090f2c:	5480000b 	ldhu	r18,0(r10)
 5090f30:	0027883a 	mov	r19,zero
 5090f34:	483dcf0e 	bge	r9,zero,5090674 <___vfiprintf_internal_r+0x958>
 5090f38:	003fdf06 	br	5090eb8 <___vfiprintf_internal_r+0x119c>
 5090f3c:	54800017 	ldw	r18,0(r10)
 5090f40:	52800104 	addi	r10,r10,4
 5090f44:	0027883a 	mov	r19,zero
 5090f48:	da802215 	stw	r10,136(sp)
 5090f4c:	003d5006 	br	5090490 <___vfiprintf_internal_r+0x774>
 5090f50:	50800104 	addi	r2,r10,4
 5090f54:	5480000b 	ldhu	r18,0(r10)
 5090f58:	0027883a 	mov	r19,zero
 5090f5c:	483f7d0e 	bge	r9,zero,5090d54 <___vfiprintf_internal_r+0x1038>
 5090f60:	003ddc06 	br	50906d4 <___vfiprintf_internal_r+0x9b8>
 5090f64:	d8c02215 	stw	r3,136(sp)
 5090f68:	0039883a 	mov	fp,zero
 5090f6c:	003ddb06 	br	50906dc <___vfiprintf_internal_r+0x9c0>
 5090f70:	02814274 	movhi	r10,1289
 5090f74:	529ab104 	addi	r10,r10,27332
 5090f78:	da802415 	stw	r10,144(sp)
 5090f7c:	003e8306 	br	509098c <___vfiprintf_internal_r+0xc70>
 5090f80:	d8801c17 	ldw	r2,112(sp)
 5090f84:	dd002117 	ldw	r20,132(sp)
 5090f88:	103eb926 	beq	r2,zero,5090a70 <___vfiprintf_internal_r+0xd54>
 5090f8c:	d9002017 	ldw	r4,128(sp)
 5090f90:	d9801a04 	addi	r6,sp,104
 5090f94:	a00b883a 	mov	r5,r20
 5090f98:	508fc080 	call	508fc08 <__sprint_r.part.0>
 5090f9c:	003eb406 	br	5090a70 <___vfiprintf_internal_r+0xd54>
 5090fa0:	80c00043 	ldbu	r3,1(r16)
 5090fa4:	a5000814 	ori	r20,r20,32
 5090fa8:	84000044 	addi	r16,r16,1
 5090fac:	18c03fcc 	andi	r3,r3,255
 5090fb0:	18c0201c 	xori	r3,r3,128
 5090fb4:	18ffe004 	addi	r3,r3,-128
 5090fb8:	003bb706 	br	508fe98 <___vfiprintf_internal_r+0x17c>
 5090fbc:	a809883a 	mov	r4,r21
 5090fc0:	d8c02a15 	stw	r3,168(sp)
 5090fc4:	da002b15 	stw	r8,172(sp)
 5090fc8:	508520c0 	call	508520c <strlen>
 5090fcc:	d8c02a17 	ldw	r3,168(sp)
 5090fd0:	1027883a 	mov	r19,r2
 5090fd4:	df001d83 	ldbu	fp,118(sp)
 5090fd8:	d8c02215 	stw	r3,136(sp)
 5090fdc:	0013883a 	mov	r9,zero
 5090fe0:	da002b17 	ldw	r8,172(sp)
 5090fe4:	003c4d06 	br	509011c <___vfiprintf_internal_r+0x400>
 5090fe8:	d9402117 	ldw	r5,132(sp)
 5090fec:	d9002017 	ldw	r4,128(sp)
 5090ff0:	d9801a04 	addi	r6,sp,104
 5090ff4:	da402c15 	stw	r9,176(sp)
 5090ff8:	508fc080 	call	508fc08 <__sprint_r.part.0>
 5090ffc:	da402c17 	ldw	r9,176(sp)
 5091000:	103e9a1e 	bne	r2,zero,5090a6c <___vfiprintf_internal_r+0xd50>
 5091004:	d9401b17 	ldw	r5,108(sp)
 5091008:	d8801c17 	ldw	r2,112(sp)
 509100c:	d811883a 	mov	r8,sp
 5091010:	29000044 	addi	r4,r5,1
 5091014:	003e4206 	br	5090920 <___vfiprintf_internal_r+0xc04>
 5091018:	d9401b17 	ldw	r5,108(sp)
 509101c:	01014274 	movhi	r4,1289
 5091020:	211ab504 	addi	r4,r4,27348
 5091024:	d9002415 	stw	r4,144(sp)
 5091028:	29400044 	addi	r5,r5,1
 509102c:	003c6d06 	br	50901e4 <___vfiprintf_internal_r+0x4c8>
 5091030:	0039883a 	mov	fp,zero
 5091034:	00800084 	movi	r2,2
 5091038:	10803fcc 	andi	r2,r2,255
 509103c:	01000044 	movi	r4,1
 5091040:	11001e26 	beq	r2,r4,50910bc <___vfiprintf_internal_r+0x13a0>
 5091044:	01000084 	movi	r4,2
 5091048:	11001e1e 	bne	r2,r4,50910c4 <___vfiprintf_internal_r+0x13a8>
 509104c:	1829883a 	mov	r20,r3
 5091050:	003eea06 	br	5090bfc <___vfiprintf_internal_r+0xee0>
 5091054:	a007883a 	mov	r3,r20
 5091058:	00800044 	movi	r2,1
 509105c:	003ff606 	br	5091038 <___vfiprintf_internal_r+0x131c>
 5091060:	00800184 	movi	r2,6
 5091064:	1240012e 	bgeu	r2,r9,509106c <___vfiprintf_internal_r+0x1350>
 5091068:	1013883a 	mov	r9,r2
 509106c:	4827883a 	mov	r19,r9
 5091070:	4825883a 	mov	r18,r9
 5091074:	48001516 	blt	r9,zero,50910cc <___vfiprintf_internal_r+0x13b0>
 5091078:	05414274 	movhi	r21,1289
 509107c:	d8c02215 	stw	r3,136(sp)
 5091080:	ad5a4504 	addi	r21,r21,26900
 5091084:	003d1406 	br	50904d8 <___vfiprintf_internal_r+0x7bc>
 5091088:	02814274 	movhi	r10,1289
 509108c:	529ab104 	addi	r10,r10,27332
 5091090:	da802415 	stw	r10,144(sp)
 5091094:	200d883a 	mov	r6,r4
 5091098:	003c9106 	br	50902e0 <___vfiprintf_internal_r+0x5c4>
 509109c:	5021883a 	mov	r16,r10
 50910a0:	0013883a 	mov	r9,zero
 50910a4:	003b7d06 	br	508fe9c <___vfiprintf_internal_r+0x180>
 50910a8:	4827883a 	mov	r19,r9
 50910ac:	df001d83 	ldbu	fp,118(sp)
 50910b0:	d8c02215 	stw	r3,136(sp)
 50910b4:	0013883a 	mov	r9,zero
 50910b8:	003c1806 	br	509011c <___vfiprintf_internal_r+0x400>
 50910bc:	1829883a 	mov	r20,r3
 50910c0:	003d1806 	br	5090524 <___vfiprintf_internal_r+0x808>
 50910c4:	1829883a 	mov	r20,r3
 50910c8:	003ccd06 	br	5090400 <___vfiprintf_internal_r+0x6e4>
 50910cc:	0025883a 	mov	r18,zero
 50910d0:	003fe906 	br	5091078 <___vfiprintf_internal_r+0x135c>
 50910d4:	d8802217 	ldw	r2,136(sp)
 50910d8:	80c00043 	ldbu	r3,1(r16)
 50910dc:	5021883a 	mov	r16,r10
 50910e0:	12400017 	ldw	r9,0(r2)
 50910e4:	10800104 	addi	r2,r2,4
 50910e8:	d8802215 	stw	r2,136(sp)
 50910ec:	483faf0e 	bge	r9,zero,5090fac <___vfiprintf_internal_r+0x1290>
 50910f0:	18c03fcc 	andi	r3,r3,255
 50910f4:	18c0201c 	xori	r3,r3,128
 50910f8:	027fffc4 	movi	r9,-1
 50910fc:	18ffe004 	addi	r3,r3,-128
 5091100:	003b6506 	br	508fe98 <___vfiprintf_internal_r+0x17c>
 5091104:	d9c01d85 	stb	r7,118(sp)
 5091108:	003ca006 	br	509038c <___vfiprintf_internal_r+0x670>
 509110c:	d9c01d85 	stb	r7,118(sp)
 5091110:	003cad06 	br	50903c8 <___vfiprintf_internal_r+0x6ac>
 5091114:	d9c01d85 	stb	r7,118(sp)
 5091118:	003d7d06 	br	5090710 <___vfiprintf_internal_r+0x9f4>
 509111c:	d9c01d85 	stb	r7,118(sp)
 5091120:	003d5f06 	br	50906a0 <___vfiprintf_internal_r+0x984>
 5091124:	a080004c 	andi	r2,r20,1
 5091128:	0039883a 	mov	fp,zero
 509112c:	10000526 	beq	r2,zero,5091144 <___vfiprintf_internal_r+0x1428>
 5091130:	00800c04 	movi	r2,48
 5091134:	d88019c5 	stb	r2,103(sp)
 5091138:	dcc02717 	ldw	r19,156(sp)
 509113c:	dd4019c4 	addi	r21,sp,103
 5091140:	003bf606 	br	509011c <___vfiprintf_internal_r+0x400>
 5091144:	0027883a 	mov	r19,zero
 5091148:	dd401a04 	addi	r21,sp,104
 509114c:	003bf306 	br	509011c <___vfiprintf_internal_r+0x400>
 5091150:	d9c01d85 	stb	r7,118(sp)
 5091154:	003dc806 	br	5090878 <___vfiprintf_internal_r+0xb5c>
 5091158:	d9c01d85 	stb	r7,118(sp)
 509115c:	003d3a06 	br	5090648 <___vfiprintf_internal_r+0x92c>
 5091160:	d9c01d85 	stb	r7,118(sp)
 5091164:	003d2a06 	br	5090610 <___vfiprintf_internal_r+0x8f4>
 5091168:	d9c01d85 	stb	r7,118(sp)
 509116c:	003cde06 	br	50904e8 <___vfiprintf_internal_r+0x7cc>
 5091170:	d9c01d85 	stb	r7,118(sp)
 5091174:	003cbc06 	br	5090468 <___vfiprintf_internal_r+0x74c>

05091178 <__vfiprintf_internal>:
 5091178:	008142b4 	movhi	r2,1290
 509117c:	10a17404 	addi	r2,r2,-31280
 5091180:	300f883a 	mov	r7,r6
 5091184:	280d883a 	mov	r6,r5
 5091188:	200b883a 	mov	r5,r4
 509118c:	11000017 	ldw	r4,0(r2)
 5091190:	508fd1c1 	jmpi	508fd1c <___vfiprintf_internal_r>

05091194 <__sbprintf>:
 5091194:	2880030b 	ldhu	r2,12(r5)
 5091198:	2ac01917 	ldw	r11,100(r5)
 509119c:	2a80038b 	ldhu	r10,14(r5)
 50911a0:	2a400717 	ldw	r9,28(r5)
 50911a4:	2a000917 	ldw	r8,36(r5)
 50911a8:	defee204 	addi	sp,sp,-1144
 50911ac:	00c10004 	movi	r3,1024
 50911b0:	dc011a15 	stw	r16,1128(sp)
 50911b4:	10bfff4c 	andi	r2,r2,65533
 50911b8:	2821883a 	mov	r16,r5
 50911bc:	d8cb883a 	add	r5,sp,r3
 50911c0:	dc811c15 	stw	r18,1136(sp)
 50911c4:	dc411b15 	stw	r17,1132(sp)
 50911c8:	dfc11d15 	stw	ra,1140(sp)
 50911cc:	2025883a 	mov	r18,r4
 50911d0:	d881030d 	sth	r2,1036(sp)
 50911d4:	dac11915 	stw	r11,1124(sp)
 50911d8:	da81038d 	sth	r10,1038(sp)
 50911dc:	da410715 	stw	r9,1052(sp)
 50911e0:	da010915 	stw	r8,1060(sp)
 50911e4:	dec10015 	stw	sp,1024(sp)
 50911e8:	dec10415 	stw	sp,1040(sp)
 50911ec:	d8c10215 	stw	r3,1032(sp)
 50911f0:	d8c10515 	stw	r3,1044(sp)
 50911f4:	d8010615 	stw	zero,1048(sp)
 50911f8:	508fd1c0 	call	508fd1c <___vfiprintf_internal_r>
 50911fc:	1023883a 	mov	r17,r2
 5091200:	10000416 	blt	r2,zero,5091214 <__sbprintf+0x80>
 5091204:	d9410004 	addi	r5,sp,1024
 5091208:	9009883a 	mov	r4,r18
 509120c:	508b4680 	call	508b468 <_fflush_r>
 5091210:	10000d1e 	bne	r2,zero,5091248 <__sbprintf+0xb4>
 5091214:	d881030b 	ldhu	r2,1036(sp)
 5091218:	1080100c 	andi	r2,r2,64
 509121c:	10000326 	beq	r2,zero,509122c <__sbprintf+0x98>
 5091220:	8080030b 	ldhu	r2,12(r16)
 5091224:	10801014 	ori	r2,r2,64
 5091228:	8080030d 	sth	r2,12(r16)
 509122c:	8805883a 	mov	r2,r17
 5091230:	dfc11d17 	ldw	ra,1140(sp)
 5091234:	dc811c17 	ldw	r18,1136(sp)
 5091238:	dc411b17 	ldw	r17,1132(sp)
 509123c:	dc011a17 	ldw	r16,1128(sp)
 5091240:	dec11e04 	addi	sp,sp,1144
 5091244:	f800283a 	ret
 5091248:	047fffc4 	movi	r17,-1
 509124c:	003ff106 	br	5091214 <__sbprintf+0x80>

05091250 <_write_r>:
 5091250:	defffd04 	addi	sp,sp,-12
 5091254:	2805883a 	mov	r2,r5
 5091258:	dc000015 	stw	r16,0(sp)
 509125c:	040142b4 	movhi	r16,1290
 5091260:	dc400115 	stw	r17,4(sp)
 5091264:	300b883a 	mov	r5,r6
 5091268:	84284b04 	addi	r16,r16,-24276
 509126c:	2023883a 	mov	r17,r4
 5091270:	380d883a 	mov	r6,r7
 5091274:	1009883a 	mov	r4,r2
 5091278:	dfc00215 	stw	ra,8(sp)
 509127c:	80000015 	stw	zero,0(r16)
 5091280:	5093ba40 	call	5093ba4 <write>
 5091284:	00ffffc4 	movi	r3,-1
 5091288:	10c00526 	beq	r2,r3,50912a0 <_write_r+0x50>
 509128c:	dfc00217 	ldw	ra,8(sp)
 5091290:	dc400117 	ldw	r17,4(sp)
 5091294:	dc000017 	ldw	r16,0(sp)
 5091298:	dec00304 	addi	sp,sp,12
 509129c:	f800283a 	ret
 50912a0:	80c00017 	ldw	r3,0(r16)
 50912a4:	183ff926 	beq	r3,zero,509128c <_write_r+0x3c>
 50912a8:	88c00015 	stw	r3,0(r17)
 50912ac:	003ff706 	br	509128c <_write_r+0x3c>

050912b0 <_close_r>:
 50912b0:	defffd04 	addi	sp,sp,-12
 50912b4:	dc000015 	stw	r16,0(sp)
 50912b8:	040142b4 	movhi	r16,1290
 50912bc:	dc400115 	stw	r17,4(sp)
 50912c0:	84284b04 	addi	r16,r16,-24276
 50912c4:	2023883a 	mov	r17,r4
 50912c8:	2809883a 	mov	r4,r5
 50912cc:	dfc00215 	stw	ra,8(sp)
 50912d0:	80000015 	stw	zero,0(r16)
 50912d4:	50931e40 	call	50931e4 <close>
 50912d8:	00ffffc4 	movi	r3,-1
 50912dc:	10c00526 	beq	r2,r3,50912f4 <_close_r+0x44>
 50912e0:	dfc00217 	ldw	ra,8(sp)
 50912e4:	dc400117 	ldw	r17,4(sp)
 50912e8:	dc000017 	ldw	r16,0(sp)
 50912ec:	dec00304 	addi	sp,sp,12
 50912f0:	f800283a 	ret
 50912f4:	80c00017 	ldw	r3,0(r16)
 50912f8:	183ff926 	beq	r3,zero,50912e0 <_close_r+0x30>
 50912fc:	88c00015 	stw	r3,0(r17)
 5091300:	003ff706 	br	50912e0 <_close_r+0x30>

05091304 <_calloc_r>:
 5091304:	298b383a 	mul	r5,r5,r6
 5091308:	defffe04 	addi	sp,sp,-8
 509130c:	dfc00115 	stw	ra,4(sp)
 5091310:	dc000015 	stw	r16,0(sp)
 5091314:	508c5a40 	call	508c5a4 <_malloc_r>
 5091318:	10002926 	beq	r2,zero,50913c0 <_calloc_r+0xbc>
 509131c:	11bfff17 	ldw	r6,-4(r2)
 5091320:	1021883a 	mov	r16,r2
 5091324:	00bfff04 	movi	r2,-4
 5091328:	308c703a 	and	r6,r6,r2
 509132c:	00c00904 	movi	r3,36
 5091330:	308d883a 	add	r6,r6,r2
 5091334:	19801636 	bltu	r3,r6,5091390 <_calloc_r+0x8c>
 5091338:	008004c4 	movi	r2,19
 509133c:	11800b2e 	bgeu	r2,r6,509136c <_calloc_r+0x68>
 5091340:	80000015 	stw	zero,0(r16)
 5091344:	80000115 	stw	zero,4(r16)
 5091348:	008006c4 	movi	r2,27
 509134c:	11801a2e 	bgeu	r2,r6,50913b8 <_calloc_r+0xb4>
 5091350:	80000215 	stw	zero,8(r16)
 5091354:	80000315 	stw	zero,12(r16)
 5091358:	30c0151e 	bne	r6,r3,50913b0 <_calloc_r+0xac>
 509135c:	80000415 	stw	zero,16(r16)
 5091360:	80800604 	addi	r2,r16,24
 5091364:	80000515 	stw	zero,20(r16)
 5091368:	00000106 	br	5091370 <_calloc_r+0x6c>
 509136c:	8005883a 	mov	r2,r16
 5091370:	10000015 	stw	zero,0(r2)
 5091374:	10000115 	stw	zero,4(r2)
 5091378:	10000215 	stw	zero,8(r2)
 509137c:	8005883a 	mov	r2,r16
 5091380:	dfc00117 	ldw	ra,4(sp)
 5091384:	dc000017 	ldw	r16,0(sp)
 5091388:	dec00204 	addi	sp,sp,8
 509138c:	f800283a 	ret
 5091390:	000b883a 	mov	r5,zero
 5091394:	8009883a 	mov	r4,r16
 5091398:	508ce940 	call	508ce94 <memset>
 509139c:	8005883a 	mov	r2,r16
 50913a0:	dfc00117 	ldw	ra,4(sp)
 50913a4:	dc000017 	ldw	r16,0(sp)
 50913a8:	dec00204 	addi	sp,sp,8
 50913ac:	f800283a 	ret
 50913b0:	80800404 	addi	r2,r16,16
 50913b4:	003fee06 	br	5091370 <_calloc_r+0x6c>
 50913b8:	80800204 	addi	r2,r16,8
 50913bc:	003fec06 	br	5091370 <_calloc_r+0x6c>
 50913c0:	0005883a 	mov	r2,zero
 50913c4:	003fee06 	br	5091380 <_calloc_r+0x7c>

050913c8 <_fclose_r>:
 50913c8:	28003926 	beq	r5,zero,50914b0 <_fclose_r+0xe8>
 50913cc:	defffc04 	addi	sp,sp,-16
 50913d0:	dc400115 	stw	r17,4(sp)
 50913d4:	dc000015 	stw	r16,0(sp)
 50913d8:	dfc00315 	stw	ra,12(sp)
 50913dc:	dc800215 	stw	r18,8(sp)
 50913e0:	2023883a 	mov	r17,r4
 50913e4:	2821883a 	mov	r16,r5
 50913e8:	20000226 	beq	r4,zero,50913f4 <_fclose_r+0x2c>
 50913ec:	20800e17 	ldw	r2,56(r4)
 50913f0:	10002726 	beq	r2,zero,5091490 <_fclose_r+0xc8>
 50913f4:	8080030f 	ldh	r2,12(r16)
 50913f8:	1000071e 	bne	r2,zero,5091418 <_fclose_r+0x50>
 50913fc:	0005883a 	mov	r2,zero
 5091400:	dfc00317 	ldw	ra,12(sp)
 5091404:	dc800217 	ldw	r18,8(sp)
 5091408:	dc400117 	ldw	r17,4(sp)
 509140c:	dc000017 	ldw	r16,0(sp)
 5091410:	dec00404 	addi	sp,sp,16
 5091414:	f800283a 	ret
 5091418:	800b883a 	mov	r5,r16
 509141c:	8809883a 	mov	r4,r17
 5091420:	508b24c0 	call	508b24c <__sflush_r>
 5091424:	1025883a 	mov	r18,r2
 5091428:	80800b17 	ldw	r2,44(r16)
 509142c:	10000426 	beq	r2,zero,5091440 <_fclose_r+0x78>
 5091430:	81400717 	ldw	r5,28(r16)
 5091434:	8809883a 	mov	r4,r17
 5091438:	103ee83a 	callr	r2
 509143c:	10001616 	blt	r2,zero,5091498 <_fclose_r+0xd0>
 5091440:	8080030b 	ldhu	r2,12(r16)
 5091444:	1080200c 	andi	r2,r2,128
 5091448:	1000151e 	bne	r2,zero,50914a0 <_fclose_r+0xd8>
 509144c:	81400c17 	ldw	r5,48(r16)
 5091450:	28000526 	beq	r5,zero,5091468 <_fclose_r+0xa0>
 5091454:	80801004 	addi	r2,r16,64
 5091458:	28800226 	beq	r5,r2,5091464 <_fclose_r+0x9c>
 509145c:	8809883a 	mov	r4,r17
 5091460:	508b9b80 	call	508b9b8 <_free_r>
 5091464:	80000c15 	stw	zero,48(r16)
 5091468:	81401117 	ldw	r5,68(r16)
 509146c:	28000326 	beq	r5,zero,509147c <_fclose_r+0xb4>
 5091470:	8809883a 	mov	r4,r17
 5091474:	508b9b80 	call	508b9b8 <_free_r>
 5091478:	80001115 	stw	zero,68(r16)
 509147c:	508b8540 	call	508b854 <__sfp_lock_acquire>
 5091480:	8000030d 	sth	zero,12(r16)
 5091484:	508b8580 	call	508b858 <__sfp_lock_release>
 5091488:	9005883a 	mov	r2,r18
 509148c:	003fdc06 	br	5091400 <_fclose_r+0x38>
 5091490:	508b8440 	call	508b844 <__sinit>
 5091494:	003fd706 	br	50913f4 <_fclose_r+0x2c>
 5091498:	04bfffc4 	movi	r18,-1
 509149c:	003fe806 	br	5091440 <_fclose_r+0x78>
 50914a0:	81400417 	ldw	r5,16(r16)
 50914a4:	8809883a 	mov	r4,r17
 50914a8:	508b9b80 	call	508b9b8 <_free_r>
 50914ac:	003fe706 	br	509144c <_fclose_r+0x84>
 50914b0:	0005883a 	mov	r2,zero
 50914b4:	f800283a 	ret

050914b8 <fclose>:
 50914b8:	008142b4 	movhi	r2,1290
 50914bc:	10a17404 	addi	r2,r2,-31280
 50914c0:	200b883a 	mov	r5,r4
 50914c4:	11000017 	ldw	r4,0(r2)
 50914c8:	50913c81 	jmpi	50913c8 <_fclose_r>

050914cc <__fputwc>:
 50914cc:	defff804 	addi	sp,sp,-32
 50914d0:	dcc00415 	stw	r19,16(sp)
 50914d4:	dc800315 	stw	r18,12(sp)
 50914d8:	dc000115 	stw	r16,4(sp)
 50914dc:	dfc00715 	stw	ra,28(sp)
 50914e0:	dd400615 	stw	r21,24(sp)
 50914e4:	dd000515 	stw	r20,20(sp)
 50914e8:	dc400215 	stw	r17,8(sp)
 50914ec:	2027883a 	mov	r19,r4
 50914f0:	2825883a 	mov	r18,r5
 50914f4:	3021883a 	mov	r16,r6
 50914f8:	508c3940 	call	508c394 <__locale_mb_cur_max>
 50914fc:	00c00044 	movi	r3,1
 5091500:	10c03e26 	beq	r2,r3,50915fc <__fputwc+0x130>
 5091504:	81c01704 	addi	r7,r16,92
 5091508:	900d883a 	mov	r6,r18
 509150c:	d80b883a 	mov	r5,sp
 5091510:	9809883a 	mov	r4,r19
 5091514:	509199c0 	call	509199c <_wcrtomb_r>
 5091518:	1029883a 	mov	r20,r2
 509151c:	00bfffc4 	movi	r2,-1
 5091520:	a0802026 	beq	r20,r2,50915a4 <__fputwc+0xd8>
 5091524:	d9400003 	ldbu	r5,0(sp)
 5091528:	a0001c26 	beq	r20,zero,509159c <__fputwc+0xd0>
 509152c:	0023883a 	mov	r17,zero
 5091530:	05400284 	movi	r21,10
 5091534:	00000906 	br	509155c <__fputwc+0x90>
 5091538:	80800017 	ldw	r2,0(r16)
 509153c:	11400005 	stb	r5,0(r2)
 5091540:	80c00017 	ldw	r3,0(r16)
 5091544:	18c00044 	addi	r3,r3,1
 5091548:	80c00015 	stw	r3,0(r16)
 509154c:	8c400044 	addi	r17,r17,1
 5091550:	dc45883a 	add	r2,sp,r17
 5091554:	8d00112e 	bgeu	r17,r20,509159c <__fputwc+0xd0>
 5091558:	11400003 	ldbu	r5,0(r2)
 509155c:	80c00217 	ldw	r3,8(r16)
 5091560:	18ffffc4 	addi	r3,r3,-1
 5091564:	80c00215 	stw	r3,8(r16)
 5091568:	183ff30e 	bge	r3,zero,5091538 <__fputwc+0x6c>
 509156c:	80800617 	ldw	r2,24(r16)
 5091570:	18801916 	blt	r3,r2,50915d8 <__fputwc+0x10c>
 5091574:	80800017 	ldw	r2,0(r16)
 5091578:	11400005 	stb	r5,0(r2)
 509157c:	80800017 	ldw	r2,0(r16)
 5091580:	10c00003 	ldbu	r3,0(r2)
 5091584:	10800044 	addi	r2,r2,1
 5091588:	1d402326 	beq	r3,r21,5091618 <__fputwc+0x14c>
 509158c:	80800015 	stw	r2,0(r16)
 5091590:	8c400044 	addi	r17,r17,1
 5091594:	dc45883a 	add	r2,sp,r17
 5091598:	8d3fef36 	bltu	r17,r20,5091558 <__fputwc+0x8c>
 509159c:	9005883a 	mov	r2,r18
 50915a0:	00000406 	br	50915b4 <__fputwc+0xe8>
 50915a4:	80c0030b 	ldhu	r3,12(r16)
 50915a8:	a005883a 	mov	r2,r20
 50915ac:	18c01014 	ori	r3,r3,64
 50915b0:	80c0030d 	sth	r3,12(r16)
 50915b4:	dfc00717 	ldw	ra,28(sp)
 50915b8:	dd400617 	ldw	r21,24(sp)
 50915bc:	dd000517 	ldw	r20,20(sp)
 50915c0:	dcc00417 	ldw	r19,16(sp)
 50915c4:	dc800317 	ldw	r18,12(sp)
 50915c8:	dc400217 	ldw	r17,8(sp)
 50915cc:	dc000117 	ldw	r16,4(sp)
 50915d0:	dec00804 	addi	sp,sp,32
 50915d4:	f800283a 	ret
 50915d8:	800d883a 	mov	r6,r16
 50915dc:	29403fcc 	andi	r5,r5,255
 50915e0:	9809883a 	mov	r4,r19
 50915e4:	50918440 	call	5091844 <__swbuf_r>
 50915e8:	10bfffe0 	cmpeqi	r2,r2,-1
 50915ec:	10803fcc 	andi	r2,r2,255
 50915f0:	103fd626 	beq	r2,zero,509154c <__fputwc+0x80>
 50915f4:	00bfffc4 	movi	r2,-1
 50915f8:	003fee06 	br	50915b4 <__fputwc+0xe8>
 50915fc:	90ffffc4 	addi	r3,r18,-1
 5091600:	01003f84 	movi	r4,254
 5091604:	20ffbf36 	bltu	r4,r3,5091504 <__fputwc+0x38>
 5091608:	900b883a 	mov	r5,r18
 509160c:	dc800005 	stb	r18,0(sp)
 5091610:	1029883a 	mov	r20,r2
 5091614:	003fc506 	br	509152c <__fputwc+0x60>
 5091618:	800d883a 	mov	r6,r16
 509161c:	a80b883a 	mov	r5,r21
 5091620:	9809883a 	mov	r4,r19
 5091624:	50918440 	call	5091844 <__swbuf_r>
 5091628:	10bfffe0 	cmpeqi	r2,r2,-1
 509162c:	003fef06 	br	50915ec <__fputwc+0x120>

05091630 <_fputwc_r>:
 5091630:	3080030b 	ldhu	r2,12(r6)
 5091634:	10c8000c 	andi	r3,r2,8192
 5091638:	1800051e 	bne	r3,zero,5091650 <_fputwc_r+0x20>
 509163c:	30c01917 	ldw	r3,100(r6)
 5091640:	10880014 	ori	r2,r2,8192
 5091644:	3080030d 	sth	r2,12(r6)
 5091648:	18880014 	ori	r2,r3,8192
 509164c:	30801915 	stw	r2,100(r6)
 5091650:	50914cc1 	jmpi	50914cc <__fputwc>

05091654 <fputwc>:
 5091654:	008142b4 	movhi	r2,1290
 5091658:	defffc04 	addi	sp,sp,-16
 509165c:	10a17404 	addi	r2,r2,-31280
 5091660:	dc000115 	stw	r16,4(sp)
 5091664:	14000017 	ldw	r16,0(r2)
 5091668:	dc400215 	stw	r17,8(sp)
 509166c:	dfc00315 	stw	ra,12(sp)
 5091670:	2023883a 	mov	r17,r4
 5091674:	80000226 	beq	r16,zero,5091680 <fputwc+0x2c>
 5091678:	80800e17 	ldw	r2,56(r16)
 509167c:	10001026 	beq	r2,zero,50916c0 <fputwc+0x6c>
 5091680:	2880030b 	ldhu	r2,12(r5)
 5091684:	10c8000c 	andi	r3,r2,8192
 5091688:	1800051e 	bne	r3,zero,50916a0 <fputwc+0x4c>
 509168c:	28c01917 	ldw	r3,100(r5)
 5091690:	10880014 	ori	r2,r2,8192
 5091694:	2880030d 	sth	r2,12(r5)
 5091698:	18880014 	ori	r2,r3,8192
 509169c:	28801915 	stw	r2,100(r5)
 50916a0:	280d883a 	mov	r6,r5
 50916a4:	8009883a 	mov	r4,r16
 50916a8:	880b883a 	mov	r5,r17
 50916ac:	dfc00317 	ldw	ra,12(sp)
 50916b0:	dc400217 	ldw	r17,8(sp)
 50916b4:	dc000117 	ldw	r16,4(sp)
 50916b8:	dec00404 	addi	sp,sp,16
 50916bc:	50914cc1 	jmpi	50914cc <__fputwc>
 50916c0:	8009883a 	mov	r4,r16
 50916c4:	d9400015 	stw	r5,0(sp)
 50916c8:	508b8440 	call	508b844 <__sinit>
 50916cc:	d9400017 	ldw	r5,0(sp)
 50916d0:	003feb06 	br	5091680 <fputwc+0x2c>

050916d4 <_fstat_r>:
 50916d4:	defffd04 	addi	sp,sp,-12
 50916d8:	2805883a 	mov	r2,r5
 50916dc:	dc000015 	stw	r16,0(sp)
 50916e0:	040142b4 	movhi	r16,1290
 50916e4:	dc400115 	stw	r17,4(sp)
 50916e8:	84284b04 	addi	r16,r16,-24276
 50916ec:	2023883a 	mov	r17,r4
 50916f0:	300b883a 	mov	r5,r6
 50916f4:	1009883a 	mov	r4,r2
 50916f8:	dfc00215 	stw	ra,8(sp)
 50916fc:	80000015 	stw	zero,0(r16)
 5091700:	509331c0 	call	509331c <fstat>
 5091704:	00ffffc4 	movi	r3,-1
 5091708:	10c00526 	beq	r2,r3,5091720 <_fstat_r+0x4c>
 509170c:	dfc00217 	ldw	ra,8(sp)
 5091710:	dc400117 	ldw	r17,4(sp)
 5091714:	dc000017 	ldw	r16,0(sp)
 5091718:	dec00304 	addi	sp,sp,12
 509171c:	f800283a 	ret
 5091720:	80c00017 	ldw	r3,0(r16)
 5091724:	183ff926 	beq	r3,zero,509170c <_fstat_r+0x38>
 5091728:	88c00015 	stw	r3,0(r17)
 509172c:	003ff706 	br	509170c <_fstat_r+0x38>

05091730 <_isatty_r>:
 5091730:	defffd04 	addi	sp,sp,-12
 5091734:	dc000015 	stw	r16,0(sp)
 5091738:	040142b4 	movhi	r16,1290
 509173c:	dc400115 	stw	r17,4(sp)
 5091740:	84284b04 	addi	r16,r16,-24276
 5091744:	2023883a 	mov	r17,r4
 5091748:	2809883a 	mov	r4,r5
 509174c:	dfc00215 	stw	ra,8(sp)
 5091750:	80000015 	stw	zero,0(r16)
 5091754:	50935880 	call	5093588 <isatty>
 5091758:	00ffffc4 	movi	r3,-1
 509175c:	10c00526 	beq	r2,r3,5091774 <_isatty_r+0x44>
 5091760:	dfc00217 	ldw	ra,8(sp)
 5091764:	dc400117 	ldw	r17,4(sp)
 5091768:	dc000017 	ldw	r16,0(sp)
 509176c:	dec00304 	addi	sp,sp,12
 5091770:	f800283a 	ret
 5091774:	80c00017 	ldw	r3,0(r16)
 5091778:	183ff926 	beq	r3,zero,5091760 <_isatty_r+0x30>
 509177c:	88c00015 	stw	r3,0(r17)
 5091780:	003ff706 	br	5091760 <_isatty_r+0x30>

05091784 <_lseek_r>:
 5091784:	defffd04 	addi	sp,sp,-12
 5091788:	2805883a 	mov	r2,r5
 509178c:	dc000015 	stw	r16,0(sp)
 5091790:	040142b4 	movhi	r16,1290
 5091794:	dc400115 	stw	r17,4(sp)
 5091798:	300b883a 	mov	r5,r6
 509179c:	84284b04 	addi	r16,r16,-24276
 50917a0:	2023883a 	mov	r17,r4
 50917a4:	380d883a 	mov	r6,r7
 50917a8:	1009883a 	mov	r4,r2
 50917ac:	dfc00215 	stw	ra,8(sp)
 50917b0:	80000015 	stw	zero,0(r16)
 50917b4:	50937540 	call	5093754 <lseek>
 50917b8:	00ffffc4 	movi	r3,-1
 50917bc:	10c00526 	beq	r2,r3,50917d4 <_lseek_r+0x50>
 50917c0:	dfc00217 	ldw	ra,8(sp)
 50917c4:	dc400117 	ldw	r17,4(sp)
 50917c8:	dc000017 	ldw	r16,0(sp)
 50917cc:	dec00304 	addi	sp,sp,12
 50917d0:	f800283a 	ret
 50917d4:	80c00017 	ldw	r3,0(r16)
 50917d8:	183ff926 	beq	r3,zero,50917c0 <_lseek_r+0x3c>
 50917dc:	88c00015 	stw	r3,0(r17)
 50917e0:	003ff706 	br	50917c0 <_lseek_r+0x3c>

050917e4 <_read_r>:
 50917e4:	defffd04 	addi	sp,sp,-12
 50917e8:	2805883a 	mov	r2,r5
 50917ec:	dc000015 	stw	r16,0(sp)
 50917f0:	040142b4 	movhi	r16,1290
 50917f4:	dc400115 	stw	r17,4(sp)
 50917f8:	300b883a 	mov	r5,r6
 50917fc:	84284b04 	addi	r16,r16,-24276
 5091800:	2023883a 	mov	r17,r4
 5091804:	380d883a 	mov	r6,r7
 5091808:	1009883a 	mov	r4,r2
 509180c:	dfc00215 	stw	ra,8(sp)
 5091810:	80000015 	stw	zero,0(r16)
 5091814:	50939280 	call	5093928 <read>
 5091818:	00ffffc4 	movi	r3,-1
 509181c:	10c00526 	beq	r2,r3,5091834 <_read_r+0x50>
 5091820:	dfc00217 	ldw	ra,8(sp)
 5091824:	dc400117 	ldw	r17,4(sp)
 5091828:	dc000017 	ldw	r16,0(sp)
 509182c:	dec00304 	addi	sp,sp,12
 5091830:	f800283a 	ret
 5091834:	80c00017 	ldw	r3,0(r16)
 5091838:	183ff926 	beq	r3,zero,5091820 <_read_r+0x3c>
 509183c:	88c00015 	stw	r3,0(r17)
 5091840:	003ff706 	br	5091820 <_read_r+0x3c>

05091844 <__swbuf_r>:
 5091844:	defffb04 	addi	sp,sp,-20
 5091848:	dcc00315 	stw	r19,12(sp)
 509184c:	dc800215 	stw	r18,8(sp)
 5091850:	dc000015 	stw	r16,0(sp)
 5091854:	dfc00415 	stw	ra,16(sp)
 5091858:	dc400115 	stw	r17,4(sp)
 509185c:	2025883a 	mov	r18,r4
 5091860:	2827883a 	mov	r19,r5
 5091864:	3021883a 	mov	r16,r6
 5091868:	20000226 	beq	r4,zero,5091874 <__swbuf_r+0x30>
 509186c:	20800e17 	ldw	r2,56(r4)
 5091870:	10004226 	beq	r2,zero,509197c <__swbuf_r+0x138>
 5091874:	80800617 	ldw	r2,24(r16)
 5091878:	8100030b 	ldhu	r4,12(r16)
 509187c:	80800215 	stw	r2,8(r16)
 5091880:	2080020c 	andi	r2,r4,8
 5091884:	10003626 	beq	r2,zero,5091960 <__swbuf_r+0x11c>
 5091888:	80c00417 	ldw	r3,16(r16)
 509188c:	18003426 	beq	r3,zero,5091960 <__swbuf_r+0x11c>
 5091890:	2088000c 	andi	r2,r4,8192
 5091894:	9c403fcc 	andi	r17,r19,255
 5091898:	10001a26 	beq	r2,zero,5091904 <__swbuf_r+0xc0>
 509189c:	80800017 	ldw	r2,0(r16)
 50918a0:	81000517 	ldw	r4,20(r16)
 50918a4:	10c7c83a 	sub	r3,r2,r3
 50918a8:	1900200e 	bge	r3,r4,509192c <__swbuf_r+0xe8>
 50918ac:	18c00044 	addi	r3,r3,1
 50918b0:	81000217 	ldw	r4,8(r16)
 50918b4:	11400044 	addi	r5,r2,1
 50918b8:	81400015 	stw	r5,0(r16)
 50918bc:	213fffc4 	addi	r4,r4,-1
 50918c0:	81000215 	stw	r4,8(r16)
 50918c4:	14c00005 	stb	r19,0(r2)
 50918c8:	80800517 	ldw	r2,20(r16)
 50918cc:	10c01e26 	beq	r2,r3,5091948 <__swbuf_r+0x104>
 50918d0:	8080030b 	ldhu	r2,12(r16)
 50918d4:	1080004c 	andi	r2,r2,1
 50918d8:	10000226 	beq	r2,zero,50918e4 <__swbuf_r+0xa0>
 50918dc:	00800284 	movi	r2,10
 50918e0:	88801926 	beq	r17,r2,5091948 <__swbuf_r+0x104>
 50918e4:	8805883a 	mov	r2,r17
 50918e8:	dfc00417 	ldw	ra,16(sp)
 50918ec:	dcc00317 	ldw	r19,12(sp)
 50918f0:	dc800217 	ldw	r18,8(sp)
 50918f4:	dc400117 	ldw	r17,4(sp)
 50918f8:	dc000017 	ldw	r16,0(sp)
 50918fc:	dec00504 	addi	sp,sp,20
 5091900:	f800283a 	ret
 5091904:	81401917 	ldw	r5,100(r16)
 5091908:	00b7ffc4 	movi	r2,-8193
 509190c:	21080014 	ori	r4,r4,8192
 5091910:	2884703a 	and	r2,r5,r2
 5091914:	80801915 	stw	r2,100(r16)
 5091918:	80800017 	ldw	r2,0(r16)
 509191c:	8100030d 	sth	r4,12(r16)
 5091920:	81000517 	ldw	r4,20(r16)
 5091924:	10c7c83a 	sub	r3,r2,r3
 5091928:	193fe016 	blt	r3,r4,50918ac <__swbuf_r+0x68>
 509192c:	800b883a 	mov	r5,r16
 5091930:	9009883a 	mov	r4,r18
 5091934:	508b4680 	call	508b468 <_fflush_r>
 5091938:	1000071e 	bne	r2,zero,5091958 <__swbuf_r+0x114>
 509193c:	80800017 	ldw	r2,0(r16)
 5091940:	00c00044 	movi	r3,1
 5091944:	003fda06 	br	50918b0 <__swbuf_r+0x6c>
 5091948:	800b883a 	mov	r5,r16
 509194c:	9009883a 	mov	r4,r18
 5091950:	508b4680 	call	508b468 <_fflush_r>
 5091954:	103fe326 	beq	r2,zero,50918e4 <__swbuf_r+0xa0>
 5091958:	00bfffc4 	movi	r2,-1
 509195c:	003fe206 	br	50918e8 <__swbuf_r+0xa4>
 5091960:	800b883a 	mov	r5,r16
 5091964:	9009883a 	mov	r4,r18
 5091968:	50898700 	call	5089870 <__swsetup_r>
 509196c:	103ffa1e 	bne	r2,zero,5091958 <__swbuf_r+0x114>
 5091970:	8100030b 	ldhu	r4,12(r16)
 5091974:	80c00417 	ldw	r3,16(r16)
 5091978:	003fc506 	br	5091890 <__swbuf_r+0x4c>
 509197c:	508b8440 	call	508b844 <__sinit>
 5091980:	003fbc06 	br	5091874 <__swbuf_r+0x30>

05091984 <__swbuf>:
 5091984:	008142b4 	movhi	r2,1290
 5091988:	10a17404 	addi	r2,r2,-31280
 509198c:	280d883a 	mov	r6,r5
 5091990:	200b883a 	mov	r5,r4
 5091994:	11000017 	ldw	r4,0(r2)
 5091998:	50918441 	jmpi	5091844 <__swbuf_r>

0509199c <_wcrtomb_r>:
 509199c:	defff604 	addi	sp,sp,-40
 50919a0:	008142b4 	movhi	r2,1290
 50919a4:	dc800815 	stw	r18,32(sp)
 50919a8:	dc400715 	stw	r17,28(sp)
 50919ac:	dc000615 	stw	r16,24(sp)
 50919b0:	10a17804 	addi	r2,r2,-31264
 50919b4:	dfc00915 	stw	ra,36(sp)
 50919b8:	2021883a 	mov	r16,r4
 50919bc:	3823883a 	mov	r17,r7
 50919c0:	14800017 	ldw	r18,0(r2)
 50919c4:	28001426 	beq	r5,zero,5091a18 <_wcrtomb_r+0x7c>
 50919c8:	d9400415 	stw	r5,16(sp)
 50919cc:	d9800515 	stw	r6,20(sp)
 50919d0:	508c3880 	call	508c388 <__locale_charset>
 50919d4:	d9800517 	ldw	r6,20(sp)
 50919d8:	d9400417 	ldw	r5,16(sp)
 50919dc:	100f883a 	mov	r7,r2
 50919e0:	dc400015 	stw	r17,0(sp)
 50919e4:	8009883a 	mov	r4,r16
 50919e8:	903ee83a 	callr	r18
 50919ec:	00ffffc4 	movi	r3,-1
 50919f0:	10c0031e 	bne	r2,r3,5091a00 <_wcrtomb_r+0x64>
 50919f4:	88000015 	stw	zero,0(r17)
 50919f8:	00c02284 	movi	r3,138
 50919fc:	80c00015 	stw	r3,0(r16)
 5091a00:	dfc00917 	ldw	ra,36(sp)
 5091a04:	dc800817 	ldw	r18,32(sp)
 5091a08:	dc400717 	ldw	r17,28(sp)
 5091a0c:	dc000617 	ldw	r16,24(sp)
 5091a10:	dec00a04 	addi	sp,sp,40
 5091a14:	f800283a 	ret
 5091a18:	508c3880 	call	508c388 <__locale_charset>
 5091a1c:	100f883a 	mov	r7,r2
 5091a20:	dc400015 	stw	r17,0(sp)
 5091a24:	000d883a 	mov	r6,zero
 5091a28:	d9400104 	addi	r5,sp,4
 5091a2c:	8009883a 	mov	r4,r16
 5091a30:	903ee83a 	callr	r18
 5091a34:	003fed06 	br	50919ec <_wcrtomb_r+0x50>

05091a38 <wcrtomb>:
 5091a38:	defff604 	addi	sp,sp,-40
 5091a3c:	008142b4 	movhi	r2,1290
 5091a40:	dc800615 	stw	r18,24(sp)
 5091a44:	dc400515 	stw	r17,20(sp)
 5091a48:	10a17404 	addi	r2,r2,-31280
 5091a4c:	dfc00915 	stw	ra,36(sp)
 5091a50:	dd000815 	stw	r20,32(sp)
 5091a54:	dcc00715 	stw	r19,28(sp)
 5091a58:	dc000415 	stw	r16,16(sp)
 5091a5c:	3025883a 	mov	r18,r6
 5091a60:	14400017 	ldw	r17,0(r2)
 5091a64:	20001926 	beq	r4,zero,5091acc <wcrtomb+0x94>
 5091a68:	008142b4 	movhi	r2,1290
 5091a6c:	10a17804 	addi	r2,r2,-31264
 5091a70:	15000017 	ldw	r20,0(r2)
 5091a74:	2021883a 	mov	r16,r4
 5091a78:	2827883a 	mov	r19,r5
 5091a7c:	508c3880 	call	508c388 <__locale_charset>
 5091a80:	100f883a 	mov	r7,r2
 5091a84:	dc800015 	stw	r18,0(sp)
 5091a88:	980d883a 	mov	r6,r19
 5091a8c:	800b883a 	mov	r5,r16
 5091a90:	8809883a 	mov	r4,r17
 5091a94:	a03ee83a 	callr	r20
 5091a98:	00ffffc4 	movi	r3,-1
 5091a9c:	10c0031e 	bne	r2,r3,5091aac <wcrtomb+0x74>
 5091aa0:	90000015 	stw	zero,0(r18)
 5091aa4:	00c02284 	movi	r3,138
 5091aa8:	88c00015 	stw	r3,0(r17)
 5091aac:	dfc00917 	ldw	ra,36(sp)
 5091ab0:	dd000817 	ldw	r20,32(sp)
 5091ab4:	dcc00717 	ldw	r19,28(sp)
 5091ab8:	dc800617 	ldw	r18,24(sp)
 5091abc:	dc400517 	ldw	r17,20(sp)
 5091ac0:	dc000417 	ldw	r16,16(sp)
 5091ac4:	dec00a04 	addi	sp,sp,40
 5091ac8:	f800283a 	ret
 5091acc:	008142b4 	movhi	r2,1290
 5091ad0:	10a17804 	addi	r2,r2,-31264
 5091ad4:	14000017 	ldw	r16,0(r2)
 5091ad8:	508c3880 	call	508c388 <__locale_charset>
 5091adc:	100f883a 	mov	r7,r2
 5091ae0:	dc800015 	stw	r18,0(sp)
 5091ae4:	000d883a 	mov	r6,zero
 5091ae8:	d9400104 	addi	r5,sp,4
 5091aec:	8809883a 	mov	r4,r17
 5091af0:	803ee83a 	callr	r16
 5091af4:	003fe806 	br	5091a98 <wcrtomb+0x60>

05091af8 <__ascii_wctomb>:
 5091af8:	28000526 	beq	r5,zero,5091b10 <__ascii_wctomb+0x18>
 5091afc:	00803fc4 	movi	r2,255
 5091b00:	11800536 	bltu	r2,r6,5091b18 <__ascii_wctomb+0x20>
 5091b04:	29800005 	stb	r6,0(r5)
 5091b08:	00800044 	movi	r2,1
 5091b0c:	f800283a 	ret
 5091b10:	0005883a 	mov	r2,zero
 5091b14:	f800283a 	ret
 5091b18:	00802284 	movi	r2,138
 5091b1c:	20800015 	stw	r2,0(r4)
 5091b20:	00bfffc4 	movi	r2,-1
 5091b24:	f800283a 	ret

05091b28 <_wctomb_r>:
 5091b28:	008142b4 	movhi	r2,1290
 5091b2c:	defff904 	addi	sp,sp,-28
 5091b30:	10a17804 	addi	r2,r2,-31264
 5091b34:	dfc00615 	stw	ra,24(sp)
 5091b38:	dc400515 	stw	r17,20(sp)
 5091b3c:	dc000415 	stw	r16,16(sp)
 5091b40:	3823883a 	mov	r17,r7
 5091b44:	14000017 	ldw	r16,0(r2)
 5091b48:	d9000115 	stw	r4,4(sp)
 5091b4c:	d9400215 	stw	r5,8(sp)
 5091b50:	d9800315 	stw	r6,12(sp)
 5091b54:	508c3880 	call	508c388 <__locale_charset>
 5091b58:	d9800317 	ldw	r6,12(sp)
 5091b5c:	d9400217 	ldw	r5,8(sp)
 5091b60:	d9000117 	ldw	r4,4(sp)
 5091b64:	100f883a 	mov	r7,r2
 5091b68:	dc400015 	stw	r17,0(sp)
 5091b6c:	803ee83a 	callr	r16
 5091b70:	dfc00617 	ldw	ra,24(sp)
 5091b74:	dc400517 	ldw	r17,20(sp)
 5091b78:	dc000417 	ldw	r16,16(sp)
 5091b7c:	dec00704 	addi	sp,sp,28
 5091b80:	f800283a 	ret

05091b84 <__udivdi3>:
 5091b84:	defff504 	addi	sp,sp,-44
 5091b88:	dcc00415 	stw	r19,16(sp)
 5091b8c:	dc000115 	stw	r16,4(sp)
 5091b90:	dfc00a15 	stw	ra,40(sp)
 5091b94:	df000915 	stw	fp,36(sp)
 5091b98:	ddc00815 	stw	r23,32(sp)
 5091b9c:	dd800715 	stw	r22,28(sp)
 5091ba0:	dd400615 	stw	r21,24(sp)
 5091ba4:	dd000515 	stw	r20,20(sp)
 5091ba8:	dc800315 	stw	r18,12(sp)
 5091bac:	dc400215 	stw	r17,8(sp)
 5091bb0:	2027883a 	mov	r19,r4
 5091bb4:	2821883a 	mov	r16,r5
 5091bb8:	3800411e 	bne	r7,zero,5091cc0 <__udivdi3+0x13c>
 5091bbc:	3023883a 	mov	r17,r6
 5091bc0:	2025883a 	mov	r18,r4
 5091bc4:	2980522e 	bgeu	r5,r6,5091d10 <__udivdi3+0x18c>
 5091bc8:	00bfffd4 	movui	r2,65535
 5091bcc:	282d883a 	mov	r22,r5
 5091bd0:	1180a836 	bltu	r2,r6,5091e74 <__udivdi3+0x2f0>
 5091bd4:	00803fc4 	movi	r2,255
 5091bd8:	1185803a 	cmpltu	r2,r2,r6
 5091bdc:	100490fa 	slli	r2,r2,3
 5091be0:	3086d83a 	srl	r3,r6,r2
 5091be4:	01014274 	movhi	r4,1289
 5091be8:	2119f604 	addi	r4,r4,26584
 5091bec:	20c7883a 	add	r3,r4,r3
 5091bf0:	18c00003 	ldbu	r3,0(r3)
 5091bf4:	1885883a 	add	r2,r3,r2
 5091bf8:	00c00804 	movi	r3,32
 5091bfc:	1887c83a 	sub	r3,r3,r2
 5091c00:	18000526 	beq	r3,zero,5091c18 <__udivdi3+0x94>
 5091c04:	80e0983a 	sll	r16,r16,r3
 5091c08:	9884d83a 	srl	r2,r19,r2
 5091c0c:	30e2983a 	sll	r17,r6,r3
 5091c10:	98e4983a 	sll	r18,r19,r3
 5091c14:	142cb03a 	or	r22,r2,r16
 5091c18:	882ad43a 	srli	r21,r17,16
 5091c1c:	b009883a 	mov	r4,r22
 5091c20:	8d3fffcc 	andi	r20,r17,65535
 5091c24:	a80b883a 	mov	r5,r21
 5091c28:	50832180 	call	5083218 <__umodsi3>
 5091c2c:	b009883a 	mov	r4,r22
 5091c30:	a80b883a 	mov	r5,r21
 5091c34:	1027883a 	mov	r19,r2
 5091c38:	50831b40 	call	50831b4 <__udivsi3>
 5091c3c:	102d883a 	mov	r22,r2
 5091c40:	9826943a 	slli	r19,r19,16
 5091c44:	9004d43a 	srli	r2,r18,16
 5091c48:	a5a1383a 	mul	r16,r20,r22
 5091c4c:	14c4b03a 	or	r2,r2,r19
 5091c50:	1400052e 	bgeu	r2,r16,5091c68 <__udivdi3+0xe4>
 5091c54:	1445883a 	add	r2,r2,r17
 5091c58:	b0ffffc4 	addi	r3,r22,-1
 5091c5c:	14400136 	bltu	r2,r17,5091c64 <__udivdi3+0xe0>
 5091c60:	14012336 	bltu	r2,r16,50920f0 <__udivdi3+0x56c>
 5091c64:	182d883a 	mov	r22,r3
 5091c68:	1421c83a 	sub	r16,r2,r16
 5091c6c:	a80b883a 	mov	r5,r21
 5091c70:	8009883a 	mov	r4,r16
 5091c74:	50832180 	call	5083218 <__umodsi3>
 5091c78:	1027883a 	mov	r19,r2
 5091c7c:	a80b883a 	mov	r5,r21
 5091c80:	8009883a 	mov	r4,r16
 5091c84:	50831b40 	call	50831b4 <__udivsi3>
 5091c88:	9826943a 	slli	r19,r19,16
 5091c8c:	a0a9383a 	mul	r20,r20,r2
 5091c90:	94bfffcc 	andi	r18,r18,65535
 5091c94:	94e4b03a 	or	r18,r18,r19
 5091c98:	9500052e 	bgeu	r18,r20,5091cb0 <__udivdi3+0x12c>
 5091c9c:	8ca5883a 	add	r18,r17,r18
 5091ca0:	10ffffc4 	addi	r3,r2,-1
 5091ca4:	9440f136 	bltu	r18,r17,509206c <__udivdi3+0x4e8>
 5091ca8:	9500f02e 	bgeu	r18,r20,509206c <__udivdi3+0x4e8>
 5091cac:	10bfff84 	addi	r2,r2,-2
 5091cb0:	b00c943a 	slli	r6,r22,16
 5091cb4:	0007883a 	mov	r3,zero
 5091cb8:	3084b03a 	or	r2,r6,r2
 5091cbc:	00005906 	br	5091e24 <__udivdi3+0x2a0>
 5091cc0:	29c05636 	bltu	r5,r7,5091e1c <__udivdi3+0x298>
 5091cc4:	00bfffd4 	movui	r2,65535
 5091cc8:	11c0622e 	bgeu	r2,r7,5091e54 <__udivdi3+0x2d0>
 5091ccc:	00804034 	movhi	r2,256
 5091cd0:	10bfffc4 	addi	r2,r2,-1
 5091cd4:	11c0ee36 	bltu	r2,r7,5092090 <__udivdi3+0x50c>
 5091cd8:	00800404 	movi	r2,16
 5091cdc:	3886d83a 	srl	r3,r7,r2
 5091ce0:	01014274 	movhi	r4,1289
 5091ce4:	2119f604 	addi	r4,r4,26584
 5091ce8:	20c7883a 	add	r3,r4,r3
 5091cec:	18c00003 	ldbu	r3,0(r3)
 5091cf0:	05400804 	movi	r21,32
 5091cf4:	1885883a 	add	r2,r3,r2
 5091cf8:	a8abc83a 	sub	r21,r21,r2
 5091cfc:	a800621e 	bne	r21,zero,5091e88 <__udivdi3+0x304>
 5091d00:	3c00e936 	bltu	r7,r16,50920a8 <__udivdi3+0x524>
 5091d04:	9985403a 	cmpgeu	r2,r19,r6
 5091d08:	0007883a 	mov	r3,zero
 5091d0c:	00004506 	br	5091e24 <__udivdi3+0x2a0>
 5091d10:	3000041e 	bne	r6,zero,5091d24 <__udivdi3+0x1a0>
 5091d14:	000b883a 	mov	r5,zero
 5091d18:	01000044 	movi	r4,1
 5091d1c:	50831b40 	call	50831b4 <__udivsi3>
 5091d20:	1023883a 	mov	r17,r2
 5091d24:	00bfffd4 	movui	r2,65535
 5091d28:	14404e2e 	bgeu	r2,r17,5091e64 <__udivdi3+0x2e0>
 5091d2c:	00804034 	movhi	r2,256
 5091d30:	10bfffc4 	addi	r2,r2,-1
 5091d34:	1440d836 	bltu	r2,r17,5092098 <__udivdi3+0x514>
 5091d38:	00800404 	movi	r2,16
 5091d3c:	8886d83a 	srl	r3,r17,r2
 5091d40:	01014274 	movhi	r4,1289
 5091d44:	2119f604 	addi	r4,r4,26584
 5091d48:	20c7883a 	add	r3,r4,r3
 5091d4c:	18c00003 	ldbu	r3,0(r3)
 5091d50:	1885883a 	add	r2,r3,r2
 5091d54:	00c00804 	movi	r3,32
 5091d58:	1887c83a 	sub	r3,r3,r2
 5091d5c:	18008f1e 	bne	r3,zero,5091f9c <__udivdi3+0x418>
 5091d60:	882ad43a 	srli	r21,r17,16
 5091d64:	8461c83a 	sub	r16,r16,r17
 5091d68:	8d3fffcc 	andi	r20,r17,65535
 5091d6c:	00c00044 	movi	r3,1
 5091d70:	8009883a 	mov	r4,r16
 5091d74:	a80b883a 	mov	r5,r21
 5091d78:	d8c00015 	stw	r3,0(sp)
 5091d7c:	50832180 	call	5083218 <__umodsi3>
 5091d80:	8009883a 	mov	r4,r16
 5091d84:	a80b883a 	mov	r5,r21
 5091d88:	1027883a 	mov	r19,r2
 5091d8c:	50831b40 	call	50831b4 <__udivsi3>
 5091d90:	9826943a 	slli	r19,r19,16
 5091d94:	9008d43a 	srli	r4,r18,16
 5091d98:	1521383a 	mul	r16,r2,r20
 5091d9c:	102d883a 	mov	r22,r2
 5091da0:	24c8b03a 	or	r4,r4,r19
 5091da4:	d8c00017 	ldw	r3,0(sp)
 5091da8:	2400052e 	bgeu	r4,r16,5091dc0 <__udivdi3+0x23c>
 5091dac:	2449883a 	add	r4,r4,r17
 5091db0:	b0bfffc4 	addi	r2,r22,-1
 5091db4:	24400136 	bltu	r4,r17,5091dbc <__udivdi3+0x238>
 5091db8:	2400ca36 	bltu	r4,r16,50920e4 <__udivdi3+0x560>
 5091dbc:	102d883a 	mov	r22,r2
 5091dc0:	2421c83a 	sub	r16,r4,r16
 5091dc4:	a80b883a 	mov	r5,r21
 5091dc8:	8009883a 	mov	r4,r16
 5091dcc:	d8c00015 	stw	r3,0(sp)
 5091dd0:	50832180 	call	5083218 <__umodsi3>
 5091dd4:	1027883a 	mov	r19,r2
 5091dd8:	a80b883a 	mov	r5,r21
 5091ddc:	8009883a 	mov	r4,r16
 5091de0:	50831b40 	call	50831b4 <__udivsi3>
 5091de4:	9826943a 	slli	r19,r19,16
 5091de8:	1529383a 	mul	r20,r2,r20
 5091dec:	94bfffcc 	andi	r18,r18,65535
 5091df0:	94e4b03a 	or	r18,r18,r19
 5091df4:	d8c00017 	ldw	r3,0(sp)
 5091df8:	9500052e 	bgeu	r18,r20,5091e10 <__udivdi3+0x28c>
 5091dfc:	8ca5883a 	add	r18,r17,r18
 5091e00:	113fffc4 	addi	r4,r2,-1
 5091e04:	94409736 	bltu	r18,r17,5092064 <__udivdi3+0x4e0>
 5091e08:	9500962e 	bgeu	r18,r20,5092064 <__udivdi3+0x4e0>
 5091e0c:	10bfff84 	addi	r2,r2,-2
 5091e10:	b00c943a 	slli	r6,r22,16
 5091e14:	3084b03a 	or	r2,r6,r2
 5091e18:	00000206 	br	5091e24 <__udivdi3+0x2a0>
 5091e1c:	0007883a 	mov	r3,zero
 5091e20:	0005883a 	mov	r2,zero
 5091e24:	dfc00a17 	ldw	ra,40(sp)
 5091e28:	df000917 	ldw	fp,36(sp)
 5091e2c:	ddc00817 	ldw	r23,32(sp)
 5091e30:	dd800717 	ldw	r22,28(sp)
 5091e34:	dd400617 	ldw	r21,24(sp)
 5091e38:	dd000517 	ldw	r20,20(sp)
 5091e3c:	dcc00417 	ldw	r19,16(sp)
 5091e40:	dc800317 	ldw	r18,12(sp)
 5091e44:	dc400217 	ldw	r17,8(sp)
 5091e48:	dc000117 	ldw	r16,4(sp)
 5091e4c:	dec00b04 	addi	sp,sp,44
 5091e50:	f800283a 	ret
 5091e54:	00803fc4 	movi	r2,255
 5091e58:	11c5803a 	cmpltu	r2,r2,r7
 5091e5c:	100490fa 	slli	r2,r2,3
 5091e60:	003f9e06 	br	5091cdc <__udivdi3+0x158>
 5091e64:	00803fc4 	movi	r2,255
 5091e68:	1445803a 	cmpltu	r2,r2,r17
 5091e6c:	100490fa 	slli	r2,r2,3
 5091e70:	003fb206 	br	5091d3c <__udivdi3+0x1b8>
 5091e74:	00804034 	movhi	r2,256
 5091e78:	10bfffc4 	addi	r2,r2,-1
 5091e7c:	11808836 	bltu	r2,r6,50920a0 <__udivdi3+0x51c>
 5091e80:	00800404 	movi	r2,16
 5091e84:	003f5606 	br	5091be0 <__udivdi3+0x5c>
 5091e88:	30aed83a 	srl	r23,r6,r2
 5091e8c:	3d4e983a 	sll	r7,r7,r21
 5091e90:	80acd83a 	srl	r22,r16,r2
 5091e94:	9884d83a 	srl	r2,r19,r2
 5091e98:	3deeb03a 	or	r23,r7,r23
 5091e9c:	b824d43a 	srli	r18,r23,16
 5091ea0:	8560983a 	sll	r16,r16,r21
 5091ea4:	b009883a 	mov	r4,r22
 5091ea8:	900b883a 	mov	r5,r18
 5091eac:	3568983a 	sll	r20,r6,r21
 5091eb0:	1420b03a 	or	r16,r2,r16
 5091eb4:	50832180 	call	5083218 <__umodsi3>
 5091eb8:	b009883a 	mov	r4,r22
 5091ebc:	900b883a 	mov	r5,r18
 5091ec0:	1023883a 	mov	r17,r2
 5091ec4:	50831b40 	call	50831b4 <__udivsi3>
 5091ec8:	8808943a 	slli	r4,r17,16
 5091ecc:	bf3fffcc 	andi	fp,r23,65535
 5091ed0:	8006d43a 	srli	r3,r16,16
 5091ed4:	e0a3383a 	mul	r17,fp,r2
 5091ed8:	100d883a 	mov	r6,r2
 5091edc:	1906b03a 	or	r3,r3,r4
 5091ee0:	1c40042e 	bgeu	r3,r17,5091ef4 <__udivdi3+0x370>
 5091ee4:	1dc7883a 	add	r3,r3,r23
 5091ee8:	10bfffc4 	addi	r2,r2,-1
 5091eec:	1dc0752e 	bgeu	r3,r23,50920c4 <__udivdi3+0x540>
 5091ef0:	100d883a 	mov	r6,r2
 5091ef4:	1c63c83a 	sub	r17,r3,r17
 5091ef8:	900b883a 	mov	r5,r18
 5091efc:	8809883a 	mov	r4,r17
 5091f00:	d9800015 	stw	r6,0(sp)
 5091f04:	50832180 	call	5083218 <__umodsi3>
 5091f08:	102d883a 	mov	r22,r2
 5091f0c:	8809883a 	mov	r4,r17
 5091f10:	900b883a 	mov	r5,r18
 5091f14:	50831b40 	call	50831b4 <__udivsi3>
 5091f18:	b02c943a 	slli	r22,r22,16
 5091f1c:	e089383a 	mul	r4,fp,r2
 5091f20:	843fffcc 	andi	r16,r16,65535
 5091f24:	85a0b03a 	or	r16,r16,r22
 5091f28:	d9800017 	ldw	r6,0(sp)
 5091f2c:	8100042e 	bgeu	r16,r4,5091f40 <__udivdi3+0x3bc>
 5091f30:	85e1883a 	add	r16,r16,r23
 5091f34:	10ffffc4 	addi	r3,r2,-1
 5091f38:	85c05e2e 	bgeu	r16,r23,50920b4 <__udivdi3+0x530>
 5091f3c:	1805883a 	mov	r2,r3
 5091f40:	300c943a 	slli	r6,r6,16
 5091f44:	a17fffcc 	andi	r5,r20,65535
 5091f48:	a028d43a 	srli	r20,r20,16
 5091f4c:	3084b03a 	or	r2,r6,r2
 5091f50:	10ffffcc 	andi	r3,r2,65535
 5091f54:	100cd43a 	srli	r6,r2,16
 5091f58:	194f383a 	mul	r7,r3,r5
 5091f5c:	1d07383a 	mul	r3,r3,r20
 5091f60:	314b383a 	mul	r5,r6,r5
 5091f64:	3810d43a 	srli	r8,r7,16
 5091f68:	8121c83a 	sub	r16,r16,r4
 5091f6c:	1947883a 	add	r3,r3,r5
 5091f70:	40c7883a 	add	r3,r8,r3
 5091f74:	350d383a 	mul	r6,r6,r20
 5091f78:	1940022e 	bgeu	r3,r5,5091f84 <__udivdi3+0x400>
 5091f7c:	01000074 	movhi	r4,1
 5091f80:	310d883a 	add	r6,r6,r4
 5091f84:	1828d43a 	srli	r20,r3,16
 5091f88:	a18d883a 	add	r6,r20,r6
 5091f8c:	81803e36 	bltu	r16,r6,5092088 <__udivdi3+0x504>
 5091f90:	81803826 	beq	r16,r6,5092074 <__udivdi3+0x4f0>
 5091f94:	0007883a 	mov	r3,zero
 5091f98:	003fa206 	br	5091e24 <__udivdi3+0x2a0>
 5091f9c:	88e2983a 	sll	r17,r17,r3
 5091fa0:	80a8d83a 	srl	r20,r16,r2
 5091fa4:	80e0983a 	sll	r16,r16,r3
 5091fa8:	882ad43a 	srli	r21,r17,16
 5091fac:	9884d83a 	srl	r2,r19,r2
 5091fb0:	a009883a 	mov	r4,r20
 5091fb4:	a80b883a 	mov	r5,r21
 5091fb8:	142eb03a 	or	r23,r2,r16
 5091fbc:	98e4983a 	sll	r18,r19,r3
 5091fc0:	50832180 	call	5083218 <__umodsi3>
 5091fc4:	a009883a 	mov	r4,r20
 5091fc8:	a80b883a 	mov	r5,r21
 5091fcc:	1021883a 	mov	r16,r2
 5091fd0:	50831b40 	call	50831b4 <__udivsi3>
 5091fd4:	1039883a 	mov	fp,r2
 5091fd8:	8d3fffcc 	andi	r20,r17,65535
 5091fdc:	8020943a 	slli	r16,r16,16
 5091fe0:	b804d43a 	srli	r2,r23,16
 5091fe4:	a72d383a 	mul	r22,r20,fp
 5091fe8:	1404b03a 	or	r2,r2,r16
 5091fec:	1580062e 	bgeu	r2,r22,5092008 <__udivdi3+0x484>
 5091ff0:	1445883a 	add	r2,r2,r17
 5091ff4:	e0ffffc4 	addi	r3,fp,-1
 5091ff8:	14403836 	bltu	r2,r17,50920dc <__udivdi3+0x558>
 5091ffc:	1580372e 	bgeu	r2,r22,50920dc <__udivdi3+0x558>
 5092000:	e73fff84 	addi	fp,fp,-2
 5092004:	1445883a 	add	r2,r2,r17
 5092008:	15adc83a 	sub	r22,r2,r22
 509200c:	a80b883a 	mov	r5,r21
 5092010:	b009883a 	mov	r4,r22
 5092014:	50832180 	call	5083218 <__umodsi3>
 5092018:	1027883a 	mov	r19,r2
 509201c:	b009883a 	mov	r4,r22
 5092020:	a80b883a 	mov	r5,r21
 5092024:	50831b40 	call	50831b4 <__udivsi3>
 5092028:	9826943a 	slli	r19,r19,16
 509202c:	a0a1383a 	mul	r16,r20,r2
 5092030:	b93fffcc 	andi	r4,r23,65535
 5092034:	24c8b03a 	or	r4,r4,r19
 5092038:	2400062e 	bgeu	r4,r16,5092054 <__udivdi3+0x4d0>
 509203c:	2449883a 	add	r4,r4,r17
 5092040:	10ffffc4 	addi	r3,r2,-1
 5092044:	24402336 	bltu	r4,r17,50920d4 <__udivdi3+0x550>
 5092048:	2400222e 	bgeu	r4,r16,50920d4 <__udivdi3+0x550>
 509204c:	10bfff84 	addi	r2,r2,-2
 5092050:	2449883a 	add	r4,r4,r17
 5092054:	e038943a 	slli	fp,fp,16
 5092058:	2421c83a 	sub	r16,r4,r16
 509205c:	e086b03a 	or	r3,fp,r2
 5092060:	003f4306 	br	5091d70 <__udivdi3+0x1ec>
 5092064:	2005883a 	mov	r2,r4
 5092068:	003f6906 	br	5091e10 <__udivdi3+0x28c>
 509206c:	1805883a 	mov	r2,r3
 5092070:	003f0f06 	br	5091cb0 <__udivdi3+0x12c>
 5092074:	1806943a 	slli	r3,r3,16
 5092078:	9d66983a 	sll	r19,r19,r21
 509207c:	39ffffcc 	andi	r7,r7,65535
 5092080:	19c7883a 	add	r3,r3,r7
 5092084:	98ffc32e 	bgeu	r19,r3,5091f94 <__udivdi3+0x410>
 5092088:	10bfffc4 	addi	r2,r2,-1
 509208c:	003fc106 	br	5091f94 <__udivdi3+0x410>
 5092090:	00800604 	movi	r2,24
 5092094:	003f1106 	br	5091cdc <__udivdi3+0x158>
 5092098:	00800604 	movi	r2,24
 509209c:	003f2706 	br	5091d3c <__udivdi3+0x1b8>
 50920a0:	00800604 	movi	r2,24
 50920a4:	003ece06 	br	5091be0 <__udivdi3+0x5c>
 50920a8:	0007883a 	mov	r3,zero
 50920ac:	00800044 	movi	r2,1
 50920b0:	003f5c06 	br	5091e24 <__udivdi3+0x2a0>
 50920b4:	813fa12e 	bgeu	r16,r4,5091f3c <__udivdi3+0x3b8>
 50920b8:	10bfff84 	addi	r2,r2,-2
 50920bc:	85e1883a 	add	r16,r16,r23
 50920c0:	003f9f06 	br	5091f40 <__udivdi3+0x3bc>
 50920c4:	1c7f8a2e 	bgeu	r3,r17,5091ef0 <__udivdi3+0x36c>
 50920c8:	31bfff84 	addi	r6,r6,-2
 50920cc:	1dc7883a 	add	r3,r3,r23
 50920d0:	003f8806 	br	5091ef4 <__udivdi3+0x370>
 50920d4:	1805883a 	mov	r2,r3
 50920d8:	003fde06 	br	5092054 <__udivdi3+0x4d0>
 50920dc:	1839883a 	mov	fp,r3
 50920e0:	003fc906 	br	5092008 <__udivdi3+0x484>
 50920e4:	b5bfff84 	addi	r22,r22,-2
 50920e8:	2449883a 	add	r4,r4,r17
 50920ec:	003f3406 	br	5091dc0 <__udivdi3+0x23c>
 50920f0:	b5bfff84 	addi	r22,r22,-2
 50920f4:	1445883a 	add	r2,r2,r17
 50920f8:	003edb06 	br	5091c68 <__udivdi3+0xe4>

050920fc <__umoddi3>:
 50920fc:	defff404 	addi	sp,sp,-48
 5092100:	df000a15 	stw	fp,40(sp)
 5092104:	dc400315 	stw	r17,12(sp)
 5092108:	dc000215 	stw	r16,8(sp)
 509210c:	dfc00b15 	stw	ra,44(sp)
 5092110:	ddc00915 	stw	r23,36(sp)
 5092114:	dd800815 	stw	r22,32(sp)
 5092118:	dd400715 	stw	r21,28(sp)
 509211c:	dd000615 	stw	r20,24(sp)
 5092120:	dcc00515 	stw	r19,20(sp)
 5092124:	dc800415 	stw	r18,16(sp)
 5092128:	2021883a 	mov	r16,r4
 509212c:	2823883a 	mov	r17,r5
 5092130:	2839883a 	mov	fp,r5
 5092134:	38003c1e 	bne	r7,zero,5092228 <__umoddi3+0x12c>
 5092138:	3027883a 	mov	r19,r6
 509213c:	2029883a 	mov	r20,r4
 5092140:	2980512e 	bgeu	r5,r6,5092288 <__umoddi3+0x18c>
 5092144:	00bfffd4 	movui	r2,65535
 5092148:	11809a36 	bltu	r2,r6,50923b4 <__umoddi3+0x2b8>
 509214c:	01003fc4 	movi	r4,255
 5092150:	2189803a 	cmpltu	r4,r4,r6
 5092154:	200890fa 	slli	r4,r4,3
 5092158:	3104d83a 	srl	r2,r6,r4
 509215c:	00c14274 	movhi	r3,1289
 5092160:	18d9f604 	addi	r3,r3,26584
 5092164:	1885883a 	add	r2,r3,r2
 5092168:	10c00003 	ldbu	r3,0(r2)
 509216c:	00800804 	movi	r2,32
 5092170:	1909883a 	add	r4,r3,r4
 5092174:	1125c83a 	sub	r18,r2,r4
 5092178:	90000526 	beq	r18,zero,5092190 <__umoddi3+0x94>
 509217c:	8ca2983a 	sll	r17,r17,r18
 5092180:	8108d83a 	srl	r4,r16,r4
 5092184:	34a6983a 	sll	r19,r6,r18
 5092188:	84a8983a 	sll	r20,r16,r18
 509218c:	2478b03a 	or	fp,r4,r17
 5092190:	982ed43a 	srli	r23,r19,16
 5092194:	e009883a 	mov	r4,fp
 5092198:	9dbfffcc 	andi	r22,r19,65535
 509219c:	b80b883a 	mov	r5,r23
 50921a0:	50832180 	call	5083218 <__umodsi3>
 50921a4:	e009883a 	mov	r4,fp
 50921a8:	b80b883a 	mov	r5,r23
 50921ac:	102b883a 	mov	r21,r2
 50921b0:	50831b40 	call	50831b4 <__udivsi3>
 50921b4:	a806943a 	slli	r3,r21,16
 50921b8:	a008d43a 	srli	r4,r20,16
 50921bc:	b085383a 	mul	r2,r22,r2
 50921c0:	20c8b03a 	or	r4,r4,r3
 50921c4:	2080032e 	bgeu	r4,r2,50921d4 <__umoddi3+0xd8>
 50921c8:	24c9883a 	add	r4,r4,r19
 50921cc:	24c00136 	bltu	r4,r19,50921d4 <__umoddi3+0xd8>
 50921d0:	20811036 	bltu	r4,r2,5092614 <__umoddi3+0x518>
 50921d4:	20abc83a 	sub	r21,r4,r2
 50921d8:	b80b883a 	mov	r5,r23
 50921dc:	a809883a 	mov	r4,r21
 50921e0:	50832180 	call	5083218 <__umodsi3>
 50921e4:	1023883a 	mov	r17,r2
 50921e8:	b80b883a 	mov	r5,r23
 50921ec:	a809883a 	mov	r4,r21
 50921f0:	50831b40 	call	50831b4 <__udivsi3>
 50921f4:	8822943a 	slli	r17,r17,16
 50921f8:	b085383a 	mul	r2,r22,r2
 50921fc:	a0ffffcc 	andi	r3,r20,65535
 5092200:	1c46b03a 	or	r3,r3,r17
 5092204:	1880042e 	bgeu	r3,r2,5092218 <__umoddi3+0x11c>
 5092208:	1cc7883a 	add	r3,r3,r19
 509220c:	1cc00236 	bltu	r3,r19,5092218 <__umoddi3+0x11c>
 5092210:	1880012e 	bgeu	r3,r2,5092218 <__umoddi3+0x11c>
 5092214:	1cc7883a 	add	r3,r3,r19
 5092218:	1885c83a 	sub	r2,r3,r2
 509221c:	1484d83a 	srl	r2,r2,r18
 5092220:	0007883a 	mov	r3,zero
 5092224:	00004f06 	br	5092364 <__umoddi3+0x268>
 5092228:	29c04c36 	bltu	r5,r7,509235c <__umoddi3+0x260>
 509222c:	00bfffd4 	movui	r2,65535
 5092230:	11c0582e 	bgeu	r2,r7,5092394 <__umoddi3+0x298>
 5092234:	00804034 	movhi	r2,256
 5092238:	10bfffc4 	addi	r2,r2,-1
 509223c:	11c0e736 	bltu	r2,r7,50925dc <__umoddi3+0x4e0>
 5092240:	01000404 	movi	r4,16
 5092244:	3904d83a 	srl	r2,r7,r4
 5092248:	00c14274 	movhi	r3,1289
 509224c:	18d9f604 	addi	r3,r3,26584
 5092250:	1885883a 	add	r2,r3,r2
 5092254:	14c00003 	ldbu	r19,0(r2)
 5092258:	00c00804 	movi	r3,32
 509225c:	9927883a 	add	r19,r19,r4
 5092260:	1ce9c83a 	sub	r20,r3,r19
 5092264:	a000581e 	bne	r20,zero,50923c8 <__umoddi3+0x2cc>
 5092268:	3c400136 	bltu	r7,r17,5092270 <__umoddi3+0x174>
 509226c:	8180eb36 	bltu	r16,r6,509261c <__umoddi3+0x520>
 5092270:	8185c83a 	sub	r2,r16,r6
 5092274:	89e3c83a 	sub	r17,r17,r7
 5092278:	8089803a 	cmpltu	r4,r16,r2
 509227c:	8939c83a 	sub	fp,r17,r4
 5092280:	e007883a 	mov	r3,fp
 5092284:	00003706 	br	5092364 <__umoddi3+0x268>
 5092288:	3000041e 	bne	r6,zero,509229c <__umoddi3+0x1a0>
 509228c:	000b883a 	mov	r5,zero
 5092290:	01000044 	movi	r4,1
 5092294:	50831b40 	call	50831b4 <__udivsi3>
 5092298:	1027883a 	mov	r19,r2
 509229c:	00bfffd4 	movui	r2,65535
 50922a0:	14c0402e 	bgeu	r2,r19,50923a4 <__umoddi3+0x2a8>
 50922a4:	00804034 	movhi	r2,256
 50922a8:	10bfffc4 	addi	r2,r2,-1
 50922ac:	14c0cd36 	bltu	r2,r19,50925e4 <__umoddi3+0x4e8>
 50922b0:	00800404 	movi	r2,16
 50922b4:	9886d83a 	srl	r3,r19,r2
 50922b8:	01014274 	movhi	r4,1289
 50922bc:	2119f604 	addi	r4,r4,26584
 50922c0:	20c7883a 	add	r3,r4,r3
 50922c4:	18c00003 	ldbu	r3,0(r3)
 50922c8:	1887883a 	add	r3,r3,r2
 50922cc:	00800804 	movi	r2,32
 50922d0:	10e5c83a 	sub	r18,r2,r3
 50922d4:	9000901e 	bne	r18,zero,5092518 <__umoddi3+0x41c>
 50922d8:	982cd43a 	srli	r22,r19,16
 50922dc:	8ce3c83a 	sub	r17,r17,r19
 50922e0:	9d7fffcc 	andi	r21,r19,65535
 50922e4:	b00b883a 	mov	r5,r22
 50922e8:	8809883a 	mov	r4,r17
 50922ec:	50832180 	call	5083218 <__umodsi3>
 50922f0:	8809883a 	mov	r4,r17
 50922f4:	b00b883a 	mov	r5,r22
 50922f8:	1021883a 	mov	r16,r2
 50922fc:	50831b40 	call	50831b4 <__udivsi3>
 5092300:	8006943a 	slli	r3,r16,16
 5092304:	a008d43a 	srli	r4,r20,16
 5092308:	1545383a 	mul	r2,r2,r21
 509230c:	20c8b03a 	or	r4,r4,r3
 5092310:	2080042e 	bgeu	r4,r2,5092324 <__umoddi3+0x228>
 5092314:	24c9883a 	add	r4,r4,r19
 5092318:	24c00236 	bltu	r4,r19,5092324 <__umoddi3+0x228>
 509231c:	2080012e 	bgeu	r4,r2,5092324 <__umoddi3+0x228>
 5092320:	24c9883a 	add	r4,r4,r19
 5092324:	20a1c83a 	sub	r16,r4,r2
 5092328:	b00b883a 	mov	r5,r22
 509232c:	8009883a 	mov	r4,r16
 5092330:	50832180 	call	5083218 <__umodsi3>
 5092334:	1023883a 	mov	r17,r2
 5092338:	b00b883a 	mov	r5,r22
 509233c:	8009883a 	mov	r4,r16
 5092340:	50831b40 	call	50831b4 <__udivsi3>
 5092344:	8822943a 	slli	r17,r17,16
 5092348:	1545383a 	mul	r2,r2,r21
 509234c:	a53fffcc 	andi	r20,r20,65535
 5092350:	a446b03a 	or	r3,r20,r17
 5092354:	18bfb02e 	bgeu	r3,r2,5092218 <__umoddi3+0x11c>
 5092358:	003fab06 	br	5092208 <__umoddi3+0x10c>
 509235c:	2005883a 	mov	r2,r4
 5092360:	2807883a 	mov	r3,r5
 5092364:	dfc00b17 	ldw	ra,44(sp)
 5092368:	df000a17 	ldw	fp,40(sp)
 509236c:	ddc00917 	ldw	r23,36(sp)
 5092370:	dd800817 	ldw	r22,32(sp)
 5092374:	dd400717 	ldw	r21,28(sp)
 5092378:	dd000617 	ldw	r20,24(sp)
 509237c:	dcc00517 	ldw	r19,20(sp)
 5092380:	dc800417 	ldw	r18,16(sp)
 5092384:	dc400317 	ldw	r17,12(sp)
 5092388:	dc000217 	ldw	r16,8(sp)
 509238c:	dec00c04 	addi	sp,sp,48
 5092390:	f800283a 	ret
 5092394:	04c03fc4 	movi	r19,255
 5092398:	99c9803a 	cmpltu	r4,r19,r7
 509239c:	200890fa 	slli	r4,r4,3
 50923a0:	003fa806 	br	5092244 <__umoddi3+0x148>
 50923a4:	00803fc4 	movi	r2,255
 50923a8:	14c5803a 	cmpltu	r2,r2,r19
 50923ac:	100490fa 	slli	r2,r2,3
 50923b0:	003fc006 	br	50922b4 <__umoddi3+0x1b8>
 50923b4:	00804034 	movhi	r2,256
 50923b8:	10bfffc4 	addi	r2,r2,-1
 50923bc:	11808b36 	bltu	r2,r6,50925ec <__umoddi3+0x4f0>
 50923c0:	01000404 	movi	r4,16
 50923c4:	003f6406 	br	5092158 <__umoddi3+0x5c>
 50923c8:	34c4d83a 	srl	r2,r6,r19
 50923cc:	3d0e983a 	sll	r7,r7,r20
 50923d0:	8cf8d83a 	srl	fp,r17,r19
 50923d4:	8d10983a 	sll	r8,r17,r20
 50923d8:	38aab03a 	or	r21,r7,r2
 50923dc:	a82cd43a 	srli	r22,r21,16
 50923e0:	84e2d83a 	srl	r17,r16,r19
 50923e4:	e009883a 	mov	r4,fp
 50923e8:	b00b883a 	mov	r5,r22
 50923ec:	8a22b03a 	or	r17,r17,r8
 50923f0:	3524983a 	sll	r18,r6,r20
 50923f4:	50832180 	call	5083218 <__umodsi3>
 50923f8:	e009883a 	mov	r4,fp
 50923fc:	b00b883a 	mov	r5,r22
 5092400:	102f883a 	mov	r23,r2
 5092404:	50831b40 	call	50831b4 <__udivsi3>
 5092408:	100d883a 	mov	r6,r2
 509240c:	b808943a 	slli	r4,r23,16
 5092410:	aa3fffcc 	andi	r8,r21,65535
 5092414:	8804d43a 	srli	r2,r17,16
 5092418:	41af383a 	mul	r23,r8,r6
 509241c:	8520983a 	sll	r16,r16,r20
 5092420:	1104b03a 	or	r2,r2,r4
 5092424:	15c0042e 	bgeu	r2,r23,5092438 <__umoddi3+0x33c>
 5092428:	1545883a 	add	r2,r2,r21
 509242c:	30ffffc4 	addi	r3,r6,-1
 5092430:	1540742e 	bgeu	r2,r21,5092604 <__umoddi3+0x508>
 5092434:	180d883a 	mov	r6,r3
 5092438:	15efc83a 	sub	r23,r2,r23
 509243c:	b00b883a 	mov	r5,r22
 5092440:	b809883a 	mov	r4,r23
 5092444:	d9800115 	stw	r6,4(sp)
 5092448:	da000015 	stw	r8,0(sp)
 509244c:	50832180 	call	5083218 <__umodsi3>
 5092450:	b00b883a 	mov	r5,r22
 5092454:	b809883a 	mov	r4,r23
 5092458:	1039883a 	mov	fp,r2
 509245c:	50831b40 	call	50831b4 <__udivsi3>
 5092460:	da000017 	ldw	r8,0(sp)
 5092464:	e038943a 	slli	fp,fp,16
 5092468:	100b883a 	mov	r5,r2
 509246c:	4089383a 	mul	r4,r8,r2
 5092470:	8a3fffcc 	andi	r8,r17,65535
 5092474:	4710b03a 	or	r8,r8,fp
 5092478:	d9800117 	ldw	r6,4(sp)
 509247c:	4100042e 	bgeu	r8,r4,5092490 <__umoddi3+0x394>
 5092480:	4551883a 	add	r8,r8,r21
 5092484:	10bfffc4 	addi	r2,r2,-1
 5092488:	45405a2e 	bgeu	r8,r21,50925f4 <__umoddi3+0x4f8>
 509248c:	100b883a 	mov	r5,r2
 5092490:	300c943a 	slli	r6,r6,16
 5092494:	91ffffcc 	andi	r7,r18,65535
 5092498:	9004d43a 	srli	r2,r18,16
 509249c:	314cb03a 	or	r6,r6,r5
 50924a0:	317fffcc 	andi	r5,r6,65535
 50924a4:	300cd43a 	srli	r6,r6,16
 50924a8:	29d3383a 	mul	r9,r5,r7
 50924ac:	288b383a 	mul	r5,r5,r2
 50924b0:	31cf383a 	mul	r7,r6,r7
 50924b4:	4806d43a 	srli	r3,r9,16
 50924b8:	4111c83a 	sub	r8,r8,r4
 50924bc:	29cb883a 	add	r5,r5,r7
 50924c0:	194b883a 	add	r5,r3,r5
 50924c4:	3085383a 	mul	r2,r6,r2
 50924c8:	29c0022e 	bgeu	r5,r7,50924d4 <__umoddi3+0x3d8>
 50924cc:	00c00074 	movhi	r3,1
 50924d0:	10c5883a 	add	r2,r2,r3
 50924d4:	2808d43a 	srli	r4,r5,16
 50924d8:	280a943a 	slli	r5,r5,16
 50924dc:	4a7fffcc 	andi	r9,r9,65535
 50924e0:	2085883a 	add	r2,r4,r2
 50924e4:	2a4b883a 	add	r5,r5,r9
 50924e8:	40803636 	bltu	r8,r2,50925c4 <__umoddi3+0x4c8>
 50924ec:	40804d26 	beq	r8,r2,5092624 <__umoddi3+0x528>
 50924f0:	4089c83a 	sub	r4,r8,r2
 50924f4:	280f883a 	mov	r7,r5
 50924f8:	81cfc83a 	sub	r7,r16,r7
 50924fc:	81c7803a 	cmpltu	r3,r16,r7
 5092500:	20c7c83a 	sub	r3,r4,r3
 5092504:	1cc4983a 	sll	r2,r3,r19
 5092508:	3d0ed83a 	srl	r7,r7,r20
 509250c:	1d06d83a 	srl	r3,r3,r20
 5092510:	11c4b03a 	or	r2,r2,r7
 5092514:	003f9306 	br	5092364 <__umoddi3+0x268>
 5092518:	9ca6983a 	sll	r19,r19,r18
 509251c:	88e8d83a 	srl	r20,r17,r3
 5092520:	80c4d83a 	srl	r2,r16,r3
 5092524:	982cd43a 	srli	r22,r19,16
 5092528:	8ca2983a 	sll	r17,r17,r18
 509252c:	a009883a 	mov	r4,r20
 5092530:	b00b883a 	mov	r5,r22
 5092534:	1478b03a 	or	fp,r2,r17
 5092538:	50832180 	call	5083218 <__umodsi3>
 509253c:	a009883a 	mov	r4,r20
 5092540:	b00b883a 	mov	r5,r22
 5092544:	1023883a 	mov	r17,r2
 5092548:	50831b40 	call	50831b4 <__udivsi3>
 509254c:	9d7fffcc 	andi	r21,r19,65535
 5092550:	880a943a 	slli	r5,r17,16
 5092554:	e008d43a 	srli	r4,fp,16
 5092558:	a885383a 	mul	r2,r21,r2
 509255c:	84a8983a 	sll	r20,r16,r18
 5092560:	2148b03a 	or	r4,r4,r5
 5092564:	2080042e 	bgeu	r4,r2,5092578 <__umoddi3+0x47c>
 5092568:	24c9883a 	add	r4,r4,r19
 509256c:	24c00236 	bltu	r4,r19,5092578 <__umoddi3+0x47c>
 5092570:	2080012e 	bgeu	r4,r2,5092578 <__umoddi3+0x47c>
 5092574:	24c9883a 	add	r4,r4,r19
 5092578:	20a3c83a 	sub	r17,r4,r2
 509257c:	b00b883a 	mov	r5,r22
 5092580:	8809883a 	mov	r4,r17
 5092584:	50832180 	call	5083218 <__umodsi3>
 5092588:	102f883a 	mov	r23,r2
 509258c:	8809883a 	mov	r4,r17
 5092590:	b00b883a 	mov	r5,r22
 5092594:	50831b40 	call	50831b4 <__udivsi3>
 5092598:	b82e943a 	slli	r23,r23,16
 509259c:	a885383a 	mul	r2,r21,r2
 50925a0:	e13fffcc 	andi	r4,fp,65535
 50925a4:	25c8b03a 	or	r4,r4,r23
 50925a8:	2080042e 	bgeu	r4,r2,50925bc <__umoddi3+0x4c0>
 50925ac:	24c9883a 	add	r4,r4,r19
 50925b0:	24c00236 	bltu	r4,r19,50925bc <__umoddi3+0x4c0>
 50925b4:	2080012e 	bgeu	r4,r2,50925bc <__umoddi3+0x4c0>
 50925b8:	24c9883a 	add	r4,r4,r19
 50925bc:	20a3c83a 	sub	r17,r4,r2
 50925c0:	003f4806 	br	50922e4 <__umoddi3+0x1e8>
 50925c4:	2c8fc83a 	sub	r7,r5,r18
 50925c8:	1545c83a 	sub	r2,r2,r21
 50925cc:	29cb803a 	cmpltu	r5,r5,r7
 50925d0:	1145c83a 	sub	r2,r2,r5
 50925d4:	4089c83a 	sub	r4,r8,r2
 50925d8:	003fc706 	br	50924f8 <__umoddi3+0x3fc>
 50925dc:	01000604 	movi	r4,24
 50925e0:	003f1806 	br	5092244 <__umoddi3+0x148>
 50925e4:	00800604 	movi	r2,24
 50925e8:	003f3206 	br	50922b4 <__umoddi3+0x1b8>
 50925ec:	01000604 	movi	r4,24
 50925f0:	003ed906 	br	5092158 <__umoddi3+0x5c>
 50925f4:	413fa52e 	bgeu	r8,r4,509248c <__umoddi3+0x390>
 50925f8:	297fff84 	addi	r5,r5,-2
 50925fc:	4551883a 	add	r8,r8,r21
 5092600:	003fa306 	br	5092490 <__umoddi3+0x394>
 5092604:	15ff8b2e 	bgeu	r2,r23,5092434 <__umoddi3+0x338>
 5092608:	31bfff84 	addi	r6,r6,-2
 509260c:	1545883a 	add	r2,r2,r21
 5092610:	003f8906 	br	5092438 <__umoddi3+0x33c>
 5092614:	24c9883a 	add	r4,r4,r19
 5092618:	003eee06 	br	50921d4 <__umoddi3+0xd8>
 509261c:	8005883a 	mov	r2,r16
 5092620:	003f1706 	br	5092280 <__umoddi3+0x184>
 5092624:	817fe736 	bltu	r16,r5,50925c4 <__umoddi3+0x4c8>
 5092628:	280f883a 	mov	r7,r5
 509262c:	0009883a 	mov	r4,zero
 5092630:	003fb106 	br	50924f8 <__umoddi3+0x3fc>

05092634 <__divdf3>:
 5092634:	defff204 	addi	sp,sp,-56
 5092638:	dd400915 	stw	r21,36(sp)
 509263c:	282ad53a 	srli	r21,r5,20
 5092640:	dd000815 	stw	r20,32(sp)
 5092644:	2828d7fa 	srli	r20,r5,31
 5092648:	dc000415 	stw	r16,16(sp)
 509264c:	04000434 	movhi	r16,16
 5092650:	df000c15 	stw	fp,48(sp)
 5092654:	843fffc4 	addi	r16,r16,-1
 5092658:	dfc00d15 	stw	ra,52(sp)
 509265c:	ddc00b15 	stw	r23,44(sp)
 5092660:	dd800a15 	stw	r22,40(sp)
 5092664:	dcc00715 	stw	r19,28(sp)
 5092668:	dc800615 	stw	r18,24(sp)
 509266c:	dc400515 	stw	r17,20(sp)
 5092670:	ad41ffcc 	andi	r21,r21,2047
 5092674:	2c20703a 	and	r16,r5,r16
 5092678:	a7003fcc 	andi	fp,r20,255
 509267c:	a8006126 	beq	r21,zero,5092804 <__divdf3+0x1d0>
 5092680:	0081ffc4 	movi	r2,2047
 5092684:	2025883a 	mov	r18,r4
 5092688:	a8803726 	beq	r21,r2,5092768 <__divdf3+0x134>
 509268c:	80800434 	orhi	r2,r16,16
 5092690:	100490fa 	slli	r2,r2,3
 5092694:	2020d77a 	srli	r16,r4,29
 5092698:	202490fa 	slli	r18,r4,3
 509269c:	ad7f0044 	addi	r21,r21,-1023
 50926a0:	80a0b03a 	or	r16,r16,r2
 50926a4:	0027883a 	mov	r19,zero
 50926a8:	0013883a 	mov	r9,zero
 50926ac:	3804d53a 	srli	r2,r7,20
 50926b0:	382cd7fa 	srli	r22,r7,31
 50926b4:	04400434 	movhi	r17,16
 50926b8:	8c7fffc4 	addi	r17,r17,-1
 50926bc:	1081ffcc 	andi	r2,r2,2047
 50926c0:	3011883a 	mov	r8,r6
 50926c4:	3c62703a 	and	r17,r7,r17
 50926c8:	b5c03fcc 	andi	r23,r22,255
 50926cc:	10006c26 	beq	r2,zero,5092880 <__divdf3+0x24c>
 50926d0:	00c1ffc4 	movi	r3,2047
 50926d4:	10c06426 	beq	r2,r3,5092868 <__divdf3+0x234>
 50926d8:	88c00434 	orhi	r3,r17,16
 50926dc:	180690fa 	slli	r3,r3,3
 50926e0:	3022d77a 	srli	r17,r6,29
 50926e4:	301090fa 	slli	r8,r6,3
 50926e8:	10bf0044 	addi	r2,r2,-1023
 50926ec:	88e2b03a 	or	r17,r17,r3
 50926f0:	000f883a 	mov	r7,zero
 50926f4:	a58cf03a 	xor	r6,r20,r22
 50926f8:	3cc8b03a 	or	r4,r7,r19
 50926fc:	a8abc83a 	sub	r21,r21,r2
 5092700:	008003c4 	movi	r2,15
 5092704:	3007883a 	mov	r3,r6
 5092708:	34c03fcc 	andi	r19,r6,255
 509270c:	11009036 	bltu	r2,r4,5092950 <__divdf3+0x31c>
 5092710:	200890ba 	slli	r4,r4,2
 5092714:	00814274 	movhi	r2,1289
 5092718:	1089ca04 	addi	r2,r2,10024
 509271c:	2089883a 	add	r4,r4,r2
 5092720:	20800017 	ldw	r2,0(r4)
 5092724:	1000683a 	jmp	r2
 5092728:	05092950 	cmplti	r20,zero,9381
 509272c:	050927a0 	cmpeqi	r20,zero,9374
 5092730:	05092940 	call	509294 <__alt_mem_sdram+0x509294>
 5092734:	05092794 	movui	r20,9374
 5092738:	05092940 	call	509294 <__alt_mem_sdram+0x509294>
 509273c:	05092914 	movui	r20,9380
 5092740:	05092940 	call	509294 <__alt_mem_sdram+0x509294>
 5092744:	05092794 	movui	r20,9374
 5092748:	050927a0 	cmpeqi	r20,zero,9374
 509274c:	050927a0 	cmpeqi	r20,zero,9374
 5092750:	05092914 	movui	r20,9380
 5092754:	05092794 	movui	r20,9374
 5092758:	05092784 	movi	r20,9374
 509275c:	05092784 	movi	r20,9374
 5092760:	05092784 	movi	r20,9374
 5092764:	05092c34 	movhi	r20,9392
 5092768:	2404b03a 	or	r2,r4,r16
 509276c:	1000661e 	bne	r2,zero,5092908 <__divdf3+0x2d4>
 5092770:	04c00204 	movi	r19,8
 5092774:	0021883a 	mov	r16,zero
 5092778:	0025883a 	mov	r18,zero
 509277c:	02400084 	movi	r9,2
 5092780:	003fca06 	br	50926ac <__divdf3+0x78>
 5092784:	8023883a 	mov	r17,r16
 5092788:	9011883a 	mov	r8,r18
 509278c:	e02f883a 	mov	r23,fp
 5092790:	480f883a 	mov	r7,r9
 5092794:	00800084 	movi	r2,2
 5092798:	3881311e 	bne	r7,r2,5092c60 <__divdf3+0x62c>
 509279c:	b827883a 	mov	r19,r23
 50927a0:	98c0004c 	andi	r3,r19,1
 50927a4:	0081ffc4 	movi	r2,2047
 50927a8:	000b883a 	mov	r5,zero
 50927ac:	0025883a 	mov	r18,zero
 50927b0:	1004953a 	slli	r2,r2,20
 50927b4:	18c03fcc 	andi	r3,r3,255
 50927b8:	04400434 	movhi	r17,16
 50927bc:	8c7fffc4 	addi	r17,r17,-1
 50927c0:	180697fa 	slli	r3,r3,31
 50927c4:	2c4a703a 	and	r5,r5,r17
 50927c8:	288ab03a 	or	r5,r5,r2
 50927cc:	28c6b03a 	or	r3,r5,r3
 50927d0:	9005883a 	mov	r2,r18
 50927d4:	dfc00d17 	ldw	ra,52(sp)
 50927d8:	df000c17 	ldw	fp,48(sp)
 50927dc:	ddc00b17 	ldw	r23,44(sp)
 50927e0:	dd800a17 	ldw	r22,40(sp)
 50927e4:	dd400917 	ldw	r21,36(sp)
 50927e8:	dd000817 	ldw	r20,32(sp)
 50927ec:	dcc00717 	ldw	r19,28(sp)
 50927f0:	dc800617 	ldw	r18,24(sp)
 50927f4:	dc400517 	ldw	r17,20(sp)
 50927f8:	dc000417 	ldw	r16,16(sp)
 50927fc:	dec00e04 	addi	sp,sp,56
 5092800:	f800283a 	ret
 5092804:	2404b03a 	or	r2,r4,r16
 5092808:	2027883a 	mov	r19,r4
 509280c:	10003926 	beq	r2,zero,50928f4 <__divdf3+0x2c0>
 5092810:	80012e26 	beq	r16,zero,5092ccc <__divdf3+0x698>
 5092814:	8009883a 	mov	r4,r16
 5092818:	d9800315 	stw	r6,12(sp)
 509281c:	d9c00215 	stw	r7,8(sp)
 5092820:	5084d000 	call	5084d00 <__clzsi2>
 5092824:	d9800317 	ldw	r6,12(sp)
 5092828:	d9c00217 	ldw	r7,8(sp)
 509282c:	113ffd44 	addi	r4,r2,-11
 5092830:	00c00704 	movi	r3,28
 5092834:	19012116 	blt	r3,r4,5092cbc <__divdf3+0x688>
 5092838:	00c00744 	movi	r3,29
 509283c:	147ffe04 	addi	r17,r2,-8
 5092840:	1907c83a 	sub	r3,r3,r4
 5092844:	8460983a 	sll	r16,r16,r17
 5092848:	98c6d83a 	srl	r3,r19,r3
 509284c:	9c64983a 	sll	r18,r19,r17
 5092850:	1c20b03a 	or	r16,r3,r16
 5092854:	1080fcc4 	addi	r2,r2,1011
 5092858:	00abc83a 	sub	r21,zero,r2
 509285c:	0027883a 	mov	r19,zero
 5092860:	0013883a 	mov	r9,zero
 5092864:	003f9106 	br	50926ac <__divdf3+0x78>
 5092868:	3446b03a 	or	r3,r6,r17
 509286c:	18001f1e 	bne	r3,zero,50928ec <__divdf3+0x2b8>
 5092870:	0023883a 	mov	r17,zero
 5092874:	0011883a 	mov	r8,zero
 5092878:	01c00084 	movi	r7,2
 509287c:	003f9d06 	br	50926f4 <__divdf3+0xc0>
 5092880:	3446b03a 	or	r3,r6,r17
 5092884:	18001526 	beq	r3,zero,50928dc <__divdf3+0x2a8>
 5092888:	88011b26 	beq	r17,zero,5092cf8 <__divdf3+0x6c4>
 509288c:	8809883a 	mov	r4,r17
 5092890:	d9800315 	stw	r6,12(sp)
 5092894:	da400115 	stw	r9,4(sp)
 5092898:	5084d000 	call	5084d00 <__clzsi2>
 509289c:	d9800317 	ldw	r6,12(sp)
 50928a0:	da400117 	ldw	r9,4(sp)
 50928a4:	113ffd44 	addi	r4,r2,-11
 50928a8:	00c00704 	movi	r3,28
 50928ac:	19010e16 	blt	r3,r4,5092ce8 <__divdf3+0x6b4>
 50928b0:	00c00744 	movi	r3,29
 50928b4:	123ffe04 	addi	r8,r2,-8
 50928b8:	1907c83a 	sub	r3,r3,r4
 50928bc:	8a22983a 	sll	r17,r17,r8
 50928c0:	30c6d83a 	srl	r3,r6,r3
 50928c4:	3210983a 	sll	r8,r6,r8
 50928c8:	1c62b03a 	or	r17,r3,r17
 50928cc:	1080fcc4 	addi	r2,r2,1011
 50928d0:	0085c83a 	sub	r2,zero,r2
 50928d4:	000f883a 	mov	r7,zero
 50928d8:	003f8606 	br	50926f4 <__divdf3+0xc0>
 50928dc:	0023883a 	mov	r17,zero
 50928e0:	0011883a 	mov	r8,zero
 50928e4:	01c00044 	movi	r7,1
 50928e8:	003f8206 	br	50926f4 <__divdf3+0xc0>
 50928ec:	01c000c4 	movi	r7,3
 50928f0:	003f8006 	br	50926f4 <__divdf3+0xc0>
 50928f4:	04c00104 	movi	r19,4
 50928f8:	0021883a 	mov	r16,zero
 50928fc:	0025883a 	mov	r18,zero
 5092900:	02400044 	movi	r9,1
 5092904:	003f6906 	br	50926ac <__divdf3+0x78>
 5092908:	04c00304 	movi	r19,12
 509290c:	024000c4 	movi	r9,3
 5092910:	003f6606 	br	50926ac <__divdf3+0x78>
 5092914:	01400434 	movhi	r5,16
 5092918:	0007883a 	mov	r3,zero
 509291c:	297fffc4 	addi	r5,r5,-1
 5092920:	04bfffc4 	movi	r18,-1
 5092924:	0081ffc4 	movi	r2,2047
 5092928:	003fa106 	br	50927b0 <__divdf3+0x17c>
 509292c:	00c00044 	movi	r3,1
 5092930:	1887c83a 	sub	r3,r3,r2
 5092934:	01000e04 	movi	r4,56
 5092938:	20c1210e 	bge	r4,r3,5092dc0 <__divdf3+0x78c>
 509293c:	98c0004c 	andi	r3,r19,1
 5092940:	0005883a 	mov	r2,zero
 5092944:	000b883a 	mov	r5,zero
 5092948:	0025883a 	mov	r18,zero
 509294c:	003f9806 	br	50927b0 <__divdf3+0x17c>
 5092950:	8c00fd36 	bltu	r17,r16,5092d48 <__divdf3+0x714>
 5092954:	8440fb26 	beq	r16,r17,5092d44 <__divdf3+0x710>
 5092958:	8007883a 	mov	r3,r16
 509295c:	ad7fffc4 	addi	r21,r21,-1
 5092960:	0021883a 	mov	r16,zero
 5092964:	4004d63a 	srli	r2,r8,24
 5092968:	8822923a 	slli	r17,r17,8
 509296c:	1809883a 	mov	r4,r3
 5092970:	402c923a 	slli	r22,r8,8
 5092974:	88b8b03a 	or	fp,r17,r2
 5092978:	e028d43a 	srli	r20,fp,16
 509297c:	d8c00015 	stw	r3,0(sp)
 5092980:	e5ffffcc 	andi	r23,fp,65535
 5092984:	a00b883a 	mov	r5,r20
 5092988:	50831b40 	call	50831b4 <__udivsi3>
 509298c:	d8c00017 	ldw	r3,0(sp)
 5092990:	a00b883a 	mov	r5,r20
 5092994:	d8800315 	stw	r2,12(sp)
 5092998:	1809883a 	mov	r4,r3
 509299c:	50832180 	call	5083218 <__umodsi3>
 50929a0:	d9800317 	ldw	r6,12(sp)
 50929a4:	1006943a 	slli	r3,r2,16
 50929a8:	9004d43a 	srli	r2,r18,16
 50929ac:	b9a3383a 	mul	r17,r23,r6
 50929b0:	10c4b03a 	or	r2,r2,r3
 50929b4:	1440062e 	bgeu	r2,r17,50929d0 <__divdf3+0x39c>
 50929b8:	1705883a 	add	r2,r2,fp
 50929bc:	30ffffc4 	addi	r3,r6,-1
 50929c0:	1700ee36 	bltu	r2,fp,5092d7c <__divdf3+0x748>
 50929c4:	1440ed2e 	bgeu	r2,r17,5092d7c <__divdf3+0x748>
 50929c8:	31bfff84 	addi	r6,r6,-2
 50929cc:	1705883a 	add	r2,r2,fp
 50929d0:	1463c83a 	sub	r17,r2,r17
 50929d4:	a00b883a 	mov	r5,r20
 50929d8:	8809883a 	mov	r4,r17
 50929dc:	d9800315 	stw	r6,12(sp)
 50929e0:	50831b40 	call	50831b4 <__udivsi3>
 50929e4:	a00b883a 	mov	r5,r20
 50929e8:	8809883a 	mov	r4,r17
 50929ec:	d8800215 	stw	r2,8(sp)
 50929f0:	50832180 	call	5083218 <__umodsi3>
 50929f4:	d9c00217 	ldw	r7,8(sp)
 50929f8:	1004943a 	slli	r2,r2,16
 50929fc:	94bfffcc 	andi	r18,r18,65535
 5092a00:	b9d1383a 	mul	r8,r23,r7
 5092a04:	90a4b03a 	or	r18,r18,r2
 5092a08:	d9800317 	ldw	r6,12(sp)
 5092a0c:	9200062e 	bgeu	r18,r8,5092a28 <__divdf3+0x3f4>
 5092a10:	9725883a 	add	r18,r18,fp
 5092a14:	38bfffc4 	addi	r2,r7,-1
 5092a18:	9700d636 	bltu	r18,fp,5092d74 <__divdf3+0x740>
 5092a1c:	9200d52e 	bgeu	r18,r8,5092d74 <__divdf3+0x740>
 5092a20:	39ffff84 	addi	r7,r7,-2
 5092a24:	9725883a 	add	r18,r18,fp
 5092a28:	3004943a 	slli	r2,r6,16
 5092a2c:	b012d43a 	srli	r9,r22,16
 5092a30:	b1bfffcc 	andi	r6,r22,65535
 5092a34:	11e2b03a 	or	r17,r2,r7
 5092a38:	8806d43a 	srli	r3,r17,16
 5092a3c:	893fffcc 	andi	r4,r17,65535
 5092a40:	218b383a 	mul	r5,r4,r6
 5092a44:	30c5383a 	mul	r2,r6,r3
 5092a48:	2249383a 	mul	r4,r4,r9
 5092a4c:	280ed43a 	srli	r7,r5,16
 5092a50:	9225c83a 	sub	r18,r18,r8
 5092a54:	2089883a 	add	r4,r4,r2
 5092a58:	3909883a 	add	r4,r7,r4
 5092a5c:	1a47383a 	mul	r3,r3,r9
 5092a60:	2080022e 	bgeu	r4,r2,5092a6c <__divdf3+0x438>
 5092a64:	00800074 	movhi	r2,1
 5092a68:	1887883a 	add	r3,r3,r2
 5092a6c:	2004d43a 	srli	r2,r4,16
 5092a70:	2008943a 	slli	r4,r4,16
 5092a74:	297fffcc 	andi	r5,r5,65535
 5092a78:	10c7883a 	add	r3,r2,r3
 5092a7c:	2149883a 	add	r4,r4,r5
 5092a80:	90c0a536 	bltu	r18,r3,5092d18 <__divdf3+0x6e4>
 5092a84:	90c0bf26 	beq	r18,r3,5092d84 <__divdf3+0x750>
 5092a88:	90c7c83a 	sub	r3,r18,r3
 5092a8c:	810fc83a 	sub	r7,r16,r4
 5092a90:	81e5803a 	cmpltu	r18,r16,r7
 5092a94:	1ca5c83a 	sub	r18,r3,r18
 5092a98:	e480c126 	beq	fp,r18,5092da0 <__divdf3+0x76c>
 5092a9c:	a00b883a 	mov	r5,r20
 5092aa0:	9009883a 	mov	r4,r18
 5092aa4:	d9800315 	stw	r6,12(sp)
 5092aa8:	d9c00215 	stw	r7,8(sp)
 5092aac:	da400115 	stw	r9,4(sp)
 5092ab0:	50831b40 	call	50831b4 <__udivsi3>
 5092ab4:	a00b883a 	mov	r5,r20
 5092ab8:	9009883a 	mov	r4,r18
 5092abc:	d8800015 	stw	r2,0(sp)
 5092ac0:	50832180 	call	5083218 <__umodsi3>
 5092ac4:	d9c00217 	ldw	r7,8(sp)
 5092ac8:	da000017 	ldw	r8,0(sp)
 5092acc:	1006943a 	slli	r3,r2,16
 5092ad0:	3804d43a 	srli	r2,r7,16
 5092ad4:	ba21383a 	mul	r16,r23,r8
 5092ad8:	d9800317 	ldw	r6,12(sp)
 5092adc:	10c4b03a 	or	r2,r2,r3
 5092ae0:	da400117 	ldw	r9,4(sp)
 5092ae4:	1400062e 	bgeu	r2,r16,5092b00 <__divdf3+0x4cc>
 5092ae8:	1705883a 	add	r2,r2,fp
 5092aec:	40ffffc4 	addi	r3,r8,-1
 5092af0:	1700ad36 	bltu	r2,fp,5092da8 <__divdf3+0x774>
 5092af4:	1400ac2e 	bgeu	r2,r16,5092da8 <__divdf3+0x774>
 5092af8:	423fff84 	addi	r8,r8,-2
 5092afc:	1705883a 	add	r2,r2,fp
 5092b00:	1421c83a 	sub	r16,r2,r16
 5092b04:	a00b883a 	mov	r5,r20
 5092b08:	8009883a 	mov	r4,r16
 5092b0c:	d9800315 	stw	r6,12(sp)
 5092b10:	d9c00215 	stw	r7,8(sp)
 5092b14:	da000015 	stw	r8,0(sp)
 5092b18:	da400115 	stw	r9,4(sp)
 5092b1c:	50831b40 	call	50831b4 <__udivsi3>
 5092b20:	8009883a 	mov	r4,r16
 5092b24:	a00b883a 	mov	r5,r20
 5092b28:	1025883a 	mov	r18,r2
 5092b2c:	50832180 	call	5083218 <__umodsi3>
 5092b30:	d9c00217 	ldw	r7,8(sp)
 5092b34:	1004943a 	slli	r2,r2,16
 5092b38:	bcaf383a 	mul	r23,r23,r18
 5092b3c:	393fffcc 	andi	r4,r7,65535
 5092b40:	2088b03a 	or	r4,r4,r2
 5092b44:	d9800317 	ldw	r6,12(sp)
 5092b48:	da000017 	ldw	r8,0(sp)
 5092b4c:	da400117 	ldw	r9,4(sp)
 5092b50:	25c0062e 	bgeu	r4,r23,5092b6c <__divdf3+0x538>
 5092b54:	2709883a 	add	r4,r4,fp
 5092b58:	90bfffc4 	addi	r2,r18,-1
 5092b5c:	27009436 	bltu	r4,fp,5092db0 <__divdf3+0x77c>
 5092b60:	25c0932e 	bgeu	r4,r23,5092db0 <__divdf3+0x77c>
 5092b64:	94bfff84 	addi	r18,r18,-2
 5092b68:	2709883a 	add	r4,r4,fp
 5092b6c:	4004943a 	slli	r2,r8,16
 5092b70:	25efc83a 	sub	r23,r4,r23
 5092b74:	1490b03a 	or	r8,r2,r18
 5092b78:	4008d43a 	srli	r4,r8,16
 5092b7c:	40ffffcc 	andi	r3,r8,65535
 5092b80:	30c5383a 	mul	r2,r6,r3
 5092b84:	1a47383a 	mul	r3,r3,r9
 5092b88:	310d383a 	mul	r6,r6,r4
 5092b8c:	100ad43a 	srli	r5,r2,16
 5092b90:	4913383a 	mul	r9,r9,r4
 5092b94:	1987883a 	add	r3,r3,r6
 5092b98:	28c7883a 	add	r3,r5,r3
 5092b9c:	1980022e 	bgeu	r3,r6,5092ba8 <__divdf3+0x574>
 5092ba0:	01000074 	movhi	r4,1
 5092ba4:	4913883a 	add	r9,r9,r4
 5092ba8:	1808d43a 	srli	r4,r3,16
 5092bac:	1806943a 	slli	r3,r3,16
 5092bb0:	10bfffcc 	andi	r2,r2,65535
 5092bb4:	2253883a 	add	r9,r4,r9
 5092bb8:	1887883a 	add	r3,r3,r2
 5092bbc:	ba403836 	bltu	r23,r9,5092ca0 <__divdf3+0x66c>
 5092bc0:	ba403626 	beq	r23,r9,5092c9c <__divdf3+0x668>
 5092bc4:	42000054 	ori	r8,r8,1
 5092bc8:	a880ffc4 	addi	r2,r21,1023
 5092bcc:	00bf570e 	bge	zero,r2,509292c <__divdf3+0x2f8>
 5092bd0:	40c001cc 	andi	r3,r8,7
 5092bd4:	18000726 	beq	r3,zero,5092bf4 <__divdf3+0x5c0>
 5092bd8:	40c003cc 	andi	r3,r8,15
 5092bdc:	01000104 	movi	r4,4
 5092be0:	19000426 	beq	r3,r4,5092bf4 <__divdf3+0x5c0>
 5092be4:	4107883a 	add	r3,r8,r4
 5092be8:	1a11803a 	cmpltu	r8,r3,r8
 5092bec:	8a23883a 	add	r17,r17,r8
 5092bf0:	1811883a 	mov	r8,r3
 5092bf4:	88c0402c 	andhi	r3,r17,256
 5092bf8:	18000426 	beq	r3,zero,5092c0c <__divdf3+0x5d8>
 5092bfc:	00ffc034 	movhi	r3,65280
 5092c00:	18ffffc4 	addi	r3,r3,-1
 5092c04:	a8810004 	addi	r2,r21,1024
 5092c08:	88e2703a 	and	r17,r17,r3
 5092c0c:	00c1ff84 	movi	r3,2046
 5092c10:	18bee316 	blt	r3,r2,50927a0 <__divdf3+0x16c>
 5092c14:	8824977a 	slli	r18,r17,29
 5092c18:	4010d0fa 	srli	r8,r8,3
 5092c1c:	8822927a 	slli	r17,r17,9
 5092c20:	1081ffcc 	andi	r2,r2,2047
 5092c24:	9224b03a 	or	r18,r18,r8
 5092c28:	880ad33a 	srli	r5,r17,12
 5092c2c:	98c0004c 	andi	r3,r19,1
 5092c30:	003edf06 	br	50927b0 <__divdf3+0x17c>
 5092c34:	8080022c 	andhi	r2,r16,8
 5092c38:	10001226 	beq	r2,zero,5092c84 <__divdf3+0x650>
 5092c3c:	8880022c 	andhi	r2,r17,8
 5092c40:	1000101e 	bne	r2,zero,5092c84 <__divdf3+0x650>
 5092c44:	00800434 	movhi	r2,16
 5092c48:	89400234 	orhi	r5,r17,8
 5092c4c:	10bfffc4 	addi	r2,r2,-1
 5092c50:	b007883a 	mov	r3,r22
 5092c54:	288a703a 	and	r5,r5,r2
 5092c58:	4025883a 	mov	r18,r8
 5092c5c:	003f3106 	br	5092924 <__divdf3+0x2f0>
 5092c60:	008000c4 	movi	r2,3
 5092c64:	3880a626 	beq	r7,r2,5092f00 <__divdf3+0x8cc>
 5092c68:	00800044 	movi	r2,1
 5092c6c:	3880521e 	bne	r7,r2,5092db8 <__divdf3+0x784>
 5092c70:	b807883a 	mov	r3,r23
 5092c74:	0005883a 	mov	r2,zero
 5092c78:	000b883a 	mov	r5,zero
 5092c7c:	0025883a 	mov	r18,zero
 5092c80:	003ecb06 	br	50927b0 <__divdf3+0x17c>
 5092c84:	00800434 	movhi	r2,16
 5092c88:	81400234 	orhi	r5,r16,8
 5092c8c:	10bfffc4 	addi	r2,r2,-1
 5092c90:	a007883a 	mov	r3,r20
 5092c94:	288a703a 	and	r5,r5,r2
 5092c98:	003f2206 	br	5092924 <__divdf3+0x2f0>
 5092c9c:	183fca26 	beq	r3,zero,5092bc8 <__divdf3+0x594>
 5092ca0:	e5ef883a 	add	r23,fp,r23
 5092ca4:	40bfffc4 	addi	r2,r8,-1
 5092ca8:	bf00392e 	bgeu	r23,fp,5092d90 <__divdf3+0x75c>
 5092cac:	1011883a 	mov	r8,r2
 5092cb0:	ba7fc41e 	bne	r23,r9,5092bc4 <__divdf3+0x590>
 5092cb4:	b0ffc31e 	bne	r22,r3,5092bc4 <__divdf3+0x590>
 5092cb8:	003fc306 	br	5092bc8 <__divdf3+0x594>
 5092cbc:	143ff604 	addi	r16,r2,-40
 5092cc0:	9c20983a 	sll	r16,r19,r16
 5092cc4:	0025883a 	mov	r18,zero
 5092cc8:	003ee206 	br	5092854 <__divdf3+0x220>
 5092ccc:	d9800315 	stw	r6,12(sp)
 5092cd0:	d9c00215 	stw	r7,8(sp)
 5092cd4:	5084d000 	call	5084d00 <__clzsi2>
 5092cd8:	10800804 	addi	r2,r2,32
 5092cdc:	d9c00217 	ldw	r7,8(sp)
 5092ce0:	d9800317 	ldw	r6,12(sp)
 5092ce4:	003ed106 	br	509282c <__divdf3+0x1f8>
 5092ce8:	147ff604 	addi	r17,r2,-40
 5092cec:	3462983a 	sll	r17,r6,r17
 5092cf0:	0011883a 	mov	r8,zero
 5092cf4:	003ef506 	br	50928cc <__divdf3+0x298>
 5092cf8:	3009883a 	mov	r4,r6
 5092cfc:	d9800315 	stw	r6,12(sp)
 5092d00:	da400115 	stw	r9,4(sp)
 5092d04:	5084d000 	call	5084d00 <__clzsi2>
 5092d08:	10800804 	addi	r2,r2,32
 5092d0c:	da400117 	ldw	r9,4(sp)
 5092d10:	d9800317 	ldw	r6,12(sp)
 5092d14:	003ee306 	br	50928a4 <__divdf3+0x270>
 5092d18:	85a1883a 	add	r16,r16,r22
 5092d1c:	8585803a 	cmpltu	r2,r16,r22
 5092d20:	1705883a 	add	r2,r2,fp
 5092d24:	14a5883a 	add	r18,r2,r18
 5092d28:	88bfffc4 	addi	r2,r17,-1
 5092d2c:	e4800c2e 	bgeu	fp,r18,5092d60 <__divdf3+0x72c>
 5092d30:	90c03e36 	bltu	r18,r3,5092e2c <__divdf3+0x7f8>
 5092d34:	1c806926 	beq	r3,r18,5092edc <__divdf3+0x8a8>
 5092d38:	90c7c83a 	sub	r3,r18,r3
 5092d3c:	1023883a 	mov	r17,r2
 5092d40:	003f5206 	br	5092a8c <__divdf3+0x458>
 5092d44:	923f0436 	bltu	r18,r8,5092958 <__divdf3+0x324>
 5092d48:	800897fa 	slli	r4,r16,31
 5092d4c:	9004d07a 	srli	r2,r18,1
 5092d50:	8006d07a 	srli	r3,r16,1
 5092d54:	902097fa 	slli	r16,r18,31
 5092d58:	20a4b03a 	or	r18,r4,r2
 5092d5c:	003f0106 	br	5092964 <__divdf3+0x330>
 5092d60:	e4bff51e 	bne	fp,r18,5092d38 <__divdf3+0x704>
 5092d64:	85bff22e 	bgeu	r16,r22,5092d30 <__divdf3+0x6fc>
 5092d68:	e0c7c83a 	sub	r3,fp,r3
 5092d6c:	1023883a 	mov	r17,r2
 5092d70:	003f4606 	br	5092a8c <__divdf3+0x458>
 5092d74:	100f883a 	mov	r7,r2
 5092d78:	003f2b06 	br	5092a28 <__divdf3+0x3f4>
 5092d7c:	180d883a 	mov	r6,r3
 5092d80:	003f1306 	br	50929d0 <__divdf3+0x39c>
 5092d84:	813fe436 	bltu	r16,r4,5092d18 <__divdf3+0x6e4>
 5092d88:	0007883a 	mov	r3,zero
 5092d8c:	003f3f06 	br	5092a8c <__divdf3+0x458>
 5092d90:	ba402c36 	bltu	r23,r9,5092e44 <__divdf3+0x810>
 5092d94:	4dc05426 	beq	r9,r23,5092ee8 <__divdf3+0x8b4>
 5092d98:	1011883a 	mov	r8,r2
 5092d9c:	003f8906 	br	5092bc4 <__divdf3+0x590>
 5092da0:	023fffc4 	movi	r8,-1
 5092da4:	003f8806 	br	5092bc8 <__divdf3+0x594>
 5092da8:	1811883a 	mov	r8,r3
 5092dac:	003f5406 	br	5092b00 <__divdf3+0x4cc>
 5092db0:	1025883a 	mov	r18,r2
 5092db4:	003f6d06 	br	5092b6c <__divdf3+0x538>
 5092db8:	b827883a 	mov	r19,r23
 5092dbc:	003f8206 	br	5092bc8 <__divdf3+0x594>
 5092dc0:	010007c4 	movi	r4,31
 5092dc4:	20c02616 	blt	r4,r3,5092e60 <__divdf3+0x82c>
 5092dc8:	00800804 	movi	r2,32
 5092dcc:	10c5c83a 	sub	r2,r2,r3
 5092dd0:	888a983a 	sll	r5,r17,r2
 5092dd4:	40c8d83a 	srl	r4,r8,r3
 5092dd8:	4084983a 	sll	r2,r8,r2
 5092ddc:	88e2d83a 	srl	r17,r17,r3
 5092de0:	2906b03a 	or	r3,r5,r4
 5092de4:	1004c03a 	cmpne	r2,r2,zero
 5092de8:	1886b03a 	or	r3,r3,r2
 5092dec:	188001cc 	andi	r2,r3,7
 5092df0:	10000726 	beq	r2,zero,5092e10 <__divdf3+0x7dc>
 5092df4:	188003cc 	andi	r2,r3,15
 5092df8:	01000104 	movi	r4,4
 5092dfc:	11000426 	beq	r2,r4,5092e10 <__divdf3+0x7dc>
 5092e00:	1805883a 	mov	r2,r3
 5092e04:	10c00104 	addi	r3,r2,4
 5092e08:	1885803a 	cmpltu	r2,r3,r2
 5092e0c:	88a3883a 	add	r17,r17,r2
 5092e10:	8880202c 	andhi	r2,r17,128
 5092e14:	10002726 	beq	r2,zero,5092eb4 <__divdf3+0x880>
 5092e18:	98c0004c 	andi	r3,r19,1
 5092e1c:	00800044 	movi	r2,1
 5092e20:	000b883a 	mov	r5,zero
 5092e24:	0025883a 	mov	r18,zero
 5092e28:	003e6106 	br	50927b0 <__divdf3+0x17c>
 5092e2c:	85a1883a 	add	r16,r16,r22
 5092e30:	8585803a 	cmpltu	r2,r16,r22
 5092e34:	1705883a 	add	r2,r2,fp
 5092e38:	14a5883a 	add	r18,r2,r18
 5092e3c:	8c7fff84 	addi	r17,r17,-2
 5092e40:	003f1106 	br	5092a88 <__divdf3+0x454>
 5092e44:	b589883a 	add	r4,r22,r22
 5092e48:	25ad803a 	cmpltu	r22,r4,r22
 5092e4c:	b739883a 	add	fp,r22,fp
 5092e50:	40bfff84 	addi	r2,r8,-2
 5092e54:	bf2f883a 	add	r23,r23,fp
 5092e58:	202d883a 	mov	r22,r4
 5092e5c:	003f9306 	br	5092cac <__divdf3+0x678>
 5092e60:	013ff844 	movi	r4,-31
 5092e64:	2085c83a 	sub	r2,r4,r2
 5092e68:	8888d83a 	srl	r4,r17,r2
 5092e6c:	00800804 	movi	r2,32
 5092e70:	18802126 	beq	r3,r2,5092ef8 <__divdf3+0x8c4>
 5092e74:	00801004 	movi	r2,64
 5092e78:	10c5c83a 	sub	r2,r2,r3
 5092e7c:	8884983a 	sll	r2,r17,r2
 5092e80:	1204b03a 	or	r2,r2,r8
 5092e84:	1004c03a 	cmpne	r2,r2,zero
 5092e88:	2084b03a 	or	r2,r4,r2
 5092e8c:	144001cc 	andi	r17,r2,7
 5092e90:	88000d1e 	bne	r17,zero,5092ec8 <__divdf3+0x894>
 5092e94:	000b883a 	mov	r5,zero
 5092e98:	1024d0fa 	srli	r18,r2,3
 5092e9c:	98c0004c 	andi	r3,r19,1
 5092ea0:	0005883a 	mov	r2,zero
 5092ea4:	9464b03a 	or	r18,r18,r17
 5092ea8:	003e4106 	br	50927b0 <__divdf3+0x17c>
 5092eac:	1007883a 	mov	r3,r2
 5092eb0:	0023883a 	mov	r17,zero
 5092eb4:	880a927a 	slli	r5,r17,9
 5092eb8:	1805883a 	mov	r2,r3
 5092ebc:	8822977a 	slli	r17,r17,29
 5092ec0:	280ad33a 	srli	r5,r5,12
 5092ec4:	003ff406 	br	5092e98 <__divdf3+0x864>
 5092ec8:	10c003cc 	andi	r3,r2,15
 5092ecc:	01000104 	movi	r4,4
 5092ed0:	193ff626 	beq	r3,r4,5092eac <__divdf3+0x878>
 5092ed4:	0023883a 	mov	r17,zero
 5092ed8:	003fca06 	br	5092e04 <__divdf3+0x7d0>
 5092edc:	813fd336 	bltu	r16,r4,5092e2c <__divdf3+0x7f8>
 5092ee0:	1023883a 	mov	r17,r2
 5092ee4:	003fa806 	br	5092d88 <__divdf3+0x754>
 5092ee8:	b0ffd636 	bltu	r22,r3,5092e44 <__divdf3+0x810>
 5092eec:	1011883a 	mov	r8,r2
 5092ef0:	b0ff341e 	bne	r22,r3,5092bc4 <__divdf3+0x590>
 5092ef4:	003f3406 	br	5092bc8 <__divdf3+0x594>
 5092ef8:	0005883a 	mov	r2,zero
 5092efc:	003fe006 	br	5092e80 <__divdf3+0x84c>
 5092f00:	00800434 	movhi	r2,16
 5092f04:	89400234 	orhi	r5,r17,8
 5092f08:	10bfffc4 	addi	r2,r2,-1
 5092f0c:	b807883a 	mov	r3,r23
 5092f10:	288a703a 	and	r5,r5,r2
 5092f14:	4025883a 	mov	r18,r8
 5092f18:	003e8206 	br	5092924 <__divdf3+0x2f0>

05092f1c <__eqdf2>:
 5092f1c:	2804d53a 	srli	r2,r5,20
 5092f20:	3806d53a 	srli	r3,r7,20
 5092f24:	02000434 	movhi	r8,16
 5092f28:	423fffc4 	addi	r8,r8,-1
 5092f2c:	1081ffcc 	andi	r2,r2,2047
 5092f30:	0281ffc4 	movi	r10,2047
 5092f34:	2a12703a 	and	r9,r5,r8
 5092f38:	18c1ffcc 	andi	r3,r3,2047
 5092f3c:	3a10703a 	and	r8,r7,r8
 5092f40:	280ad7fa 	srli	r5,r5,31
 5092f44:	380ed7fa 	srli	r7,r7,31
 5092f48:	12801026 	beq	r2,r10,5092f8c <__eqdf2+0x70>
 5092f4c:	0281ffc4 	movi	r10,2047
 5092f50:	1a800a26 	beq	r3,r10,5092f7c <__eqdf2+0x60>
 5092f54:	10c00226 	beq	r2,r3,5092f60 <__eqdf2+0x44>
 5092f58:	00800044 	movi	r2,1
 5092f5c:	f800283a 	ret
 5092f60:	4a3ffd1e 	bne	r9,r8,5092f58 <__eqdf2+0x3c>
 5092f64:	21bffc1e 	bne	r4,r6,5092f58 <__eqdf2+0x3c>
 5092f68:	29c00c26 	beq	r5,r7,5092f9c <__eqdf2+0x80>
 5092f6c:	103ffa1e 	bne	r2,zero,5092f58 <__eqdf2+0x3c>
 5092f70:	2244b03a 	or	r2,r4,r9
 5092f74:	1004c03a 	cmpne	r2,r2,zero
 5092f78:	f800283a 	ret
 5092f7c:	3214b03a 	or	r10,r6,r8
 5092f80:	503ff426 	beq	r10,zero,5092f54 <__eqdf2+0x38>
 5092f84:	00800044 	movi	r2,1
 5092f88:	f800283a 	ret
 5092f8c:	2254b03a 	or	r10,r4,r9
 5092f90:	503fee26 	beq	r10,zero,5092f4c <__eqdf2+0x30>
 5092f94:	00800044 	movi	r2,1
 5092f98:	f800283a 	ret
 5092f9c:	0005883a 	mov	r2,zero
 5092fa0:	f800283a 	ret

05092fa4 <__gedf2>:
 5092fa4:	2804d53a 	srli	r2,r5,20
 5092fa8:	3806d53a 	srli	r3,r7,20
 5092fac:	02000434 	movhi	r8,16
 5092fb0:	423fffc4 	addi	r8,r8,-1
 5092fb4:	1081ffcc 	andi	r2,r2,2047
 5092fb8:	0241ffc4 	movi	r9,2047
 5092fbc:	2a14703a 	and	r10,r5,r8
 5092fc0:	18c1ffcc 	andi	r3,r3,2047
 5092fc4:	3a10703a 	and	r8,r7,r8
 5092fc8:	280ad7fa 	srli	r5,r5,31
 5092fcc:	380ed7fa 	srli	r7,r7,31
 5092fd0:	12401d26 	beq	r2,r9,5093048 <__gedf2+0xa4>
 5092fd4:	0241ffc4 	movi	r9,2047
 5092fd8:	1a401226 	beq	r3,r9,5093024 <__gedf2+0x80>
 5092fdc:	1000081e 	bne	r2,zero,5093000 <__gedf2+0x5c>
 5092fe0:	2296b03a 	or	r11,r4,r10
 5092fe4:	5813003a 	cmpeq	r9,r11,zero
 5092fe8:	1800091e 	bne	r3,zero,5093010 <__gedf2+0x6c>
 5092fec:	3218b03a 	or	r12,r6,r8
 5092ff0:	6000071e 	bne	r12,zero,5093010 <__gedf2+0x6c>
 5092ff4:	0005883a 	mov	r2,zero
 5092ff8:	5800101e 	bne	r11,zero,509303c <__gedf2+0x98>
 5092ffc:	f800283a 	ret
 5093000:	18000c1e 	bne	r3,zero,5093034 <__gedf2+0x90>
 5093004:	3212b03a 	or	r9,r6,r8
 5093008:	48000c26 	beq	r9,zero,509303c <__gedf2+0x98>
 509300c:	0013883a 	mov	r9,zero
 5093010:	39c03fcc 	andi	r7,r7,255
 5093014:	48000826 	beq	r9,zero,5093038 <__gedf2+0x94>
 5093018:	38000926 	beq	r7,zero,5093040 <__gedf2+0x9c>
 509301c:	00800044 	movi	r2,1
 5093020:	f800283a 	ret
 5093024:	3212b03a 	or	r9,r6,r8
 5093028:	483fec26 	beq	r9,zero,5092fdc <__gedf2+0x38>
 509302c:	00bfff84 	movi	r2,-2
 5093030:	f800283a 	ret
 5093034:	39c03fcc 	andi	r7,r7,255
 5093038:	29c00626 	beq	r5,r7,5093054 <__gedf2+0xb0>
 509303c:	283ff726 	beq	r5,zero,509301c <__gedf2+0x78>
 5093040:	00bfffc4 	movi	r2,-1
 5093044:	f800283a 	ret
 5093048:	2292b03a 	or	r9,r4,r10
 509304c:	483fe126 	beq	r9,zero,5092fd4 <__gedf2+0x30>
 5093050:	003ff606 	br	509302c <__gedf2+0x88>
 5093054:	18bff916 	blt	r3,r2,509303c <__gedf2+0x98>
 5093058:	10c00316 	blt	r2,r3,5093068 <__gedf2+0xc4>
 509305c:	42bff736 	bltu	r8,r10,509303c <__gedf2+0x98>
 5093060:	52000326 	beq	r10,r8,5093070 <__gedf2+0xcc>
 5093064:	5200042e 	bgeu	r10,r8,5093078 <__gedf2+0xd4>
 5093068:	283fec1e 	bne	r5,zero,509301c <__gedf2+0x78>
 509306c:	003ff406 	br	5093040 <__gedf2+0x9c>
 5093070:	313ff236 	bltu	r6,r4,509303c <__gedf2+0x98>
 5093074:	21bffc36 	bltu	r4,r6,5093068 <__gedf2+0xc4>
 5093078:	0005883a 	mov	r2,zero
 509307c:	f800283a 	ret

05093080 <__fixdfsi>:
 5093080:	280cd53a 	srli	r6,r5,20
 5093084:	00c00434 	movhi	r3,16
 5093088:	18ffffc4 	addi	r3,r3,-1
 509308c:	3181ffcc 	andi	r6,r6,2047
 5093090:	01c0ff84 	movi	r7,1022
 5093094:	28c6703a 	and	r3,r5,r3
 5093098:	280ad7fa 	srli	r5,r5,31
 509309c:	3980120e 	bge	r7,r6,50930e8 <__fixdfsi+0x68>
 50930a0:	00810744 	movi	r2,1053
 50930a4:	11800c16 	blt	r2,r6,50930d8 <__fixdfsi+0x58>
 50930a8:	00810cc4 	movi	r2,1075
 50930ac:	1185c83a 	sub	r2,r2,r6
 50930b0:	01c007c4 	movi	r7,31
 50930b4:	18c00434 	orhi	r3,r3,16
 50930b8:	38800d16 	blt	r7,r2,50930f0 <__fixdfsi+0x70>
 50930bc:	31befb44 	addi	r6,r6,-1043
 50930c0:	2084d83a 	srl	r2,r4,r2
 50930c4:	1986983a 	sll	r3,r3,r6
 50930c8:	1884b03a 	or	r2,r3,r2
 50930cc:	28000726 	beq	r5,zero,50930ec <__fixdfsi+0x6c>
 50930d0:	0085c83a 	sub	r2,zero,r2
 50930d4:	f800283a 	ret
 50930d8:	00a00034 	movhi	r2,32768
 50930dc:	10bfffc4 	addi	r2,r2,-1
 50930e0:	2885883a 	add	r2,r5,r2
 50930e4:	f800283a 	ret
 50930e8:	0005883a 	mov	r2,zero
 50930ec:	f800283a 	ret
 50930f0:	008104c4 	movi	r2,1043
 50930f4:	1185c83a 	sub	r2,r2,r6
 50930f8:	1884d83a 	srl	r2,r3,r2
 50930fc:	003ff306 	br	50930cc <__fixdfsi+0x4c>

05093100 <__floatunsidf>:
 5093100:	defffe04 	addi	sp,sp,-8
 5093104:	dc000015 	stw	r16,0(sp)
 5093108:	dfc00115 	stw	ra,4(sp)
 509310c:	2021883a 	mov	r16,r4
 5093110:	20002226 	beq	r4,zero,509319c <__floatunsidf+0x9c>
 5093114:	5084d000 	call	5084d00 <__clzsi2>
 5093118:	01010784 	movi	r4,1054
 509311c:	2089c83a 	sub	r4,r4,r2
 5093120:	01810cc4 	movi	r6,1075
 5093124:	310dc83a 	sub	r6,r6,r4
 5093128:	00c007c4 	movi	r3,31
 509312c:	1980120e 	bge	r3,r6,5093178 <__floatunsidf+0x78>
 5093130:	00c104c4 	movi	r3,1043
 5093134:	1907c83a 	sub	r3,r3,r4
 5093138:	80ca983a 	sll	r5,r16,r3
 509313c:	00800434 	movhi	r2,16
 5093140:	10bfffc4 	addi	r2,r2,-1
 5093144:	2101ffcc 	andi	r4,r4,2047
 5093148:	0021883a 	mov	r16,zero
 509314c:	288a703a 	and	r5,r5,r2
 5093150:	2008953a 	slli	r4,r4,20
 5093154:	00c00434 	movhi	r3,16
 5093158:	18ffffc4 	addi	r3,r3,-1
 509315c:	28c6703a 	and	r3,r5,r3
 5093160:	8005883a 	mov	r2,r16
 5093164:	1906b03a 	or	r3,r3,r4
 5093168:	dfc00117 	ldw	ra,4(sp)
 509316c:	dc000017 	ldw	r16,0(sp)
 5093170:	dec00204 	addi	sp,sp,8
 5093174:	f800283a 	ret
 5093178:	00c002c4 	movi	r3,11
 509317c:	188bc83a 	sub	r5,r3,r2
 5093180:	814ad83a 	srl	r5,r16,r5
 5093184:	00c00434 	movhi	r3,16
 5093188:	18ffffc4 	addi	r3,r3,-1
 509318c:	81a0983a 	sll	r16,r16,r6
 5093190:	2101ffcc 	andi	r4,r4,2047
 5093194:	28ca703a 	and	r5,r5,r3
 5093198:	003fed06 	br	5093150 <__floatunsidf+0x50>
 509319c:	0009883a 	mov	r4,zero
 50931a0:	000b883a 	mov	r5,zero
 50931a4:	003fea06 	br	5093150 <__floatunsidf+0x50>

050931a8 <alt_get_errno>:
 50931a8:	defffe04 	addi	sp,sp,-8
 50931ac:	dfc00115 	stw	ra,4(sp)
 50931b0:	df000015 	stw	fp,0(sp)
 50931b4:	d839883a 	mov	fp,sp
 50931b8:	d0a00b17 	ldw	r2,-32724(gp)
 50931bc:	10000326 	beq	r2,zero,50931cc <alt_get_errno+0x24>
 50931c0:	d0a00b17 	ldw	r2,-32724(gp)
 50931c4:	103ee83a 	callr	r2
 50931c8:	00000106 	br	50931d0 <alt_get_errno+0x28>
 50931cc:	d0a6d804 	addi	r2,gp,-25760
 50931d0:	e037883a 	mov	sp,fp
 50931d4:	dfc00117 	ldw	ra,4(sp)
 50931d8:	df000017 	ldw	fp,0(sp)
 50931dc:	dec00204 	addi	sp,sp,8
 50931e0:	f800283a 	ret

050931e4 <close>:
 50931e4:	defffb04 	addi	sp,sp,-20
 50931e8:	dfc00415 	stw	ra,16(sp)
 50931ec:	df000315 	stw	fp,12(sp)
 50931f0:	df000304 	addi	fp,sp,12
 50931f4:	e13fff15 	stw	r4,-4(fp)
 50931f8:	e0bfff17 	ldw	r2,-4(fp)
 50931fc:	10000616 	blt	r2,zero,5093218 <close+0x34>
 5093200:	e0bfff17 	ldw	r2,-4(fp)
 5093204:	10c00324 	muli	r3,r2,12
 5093208:	00814274 	movhi	r2,1289
 509320c:	109cfb04 	addi	r2,r2,29676
 5093210:	1885883a 	add	r2,r3,r2
 5093214:	00000106 	br	509321c <close+0x38>
 5093218:	0005883a 	mov	r2,zero
 509321c:	e0bffd15 	stw	r2,-12(fp)
 5093220:	e0bffd17 	ldw	r2,-12(fp)
 5093224:	10001926 	beq	r2,zero,509328c <close+0xa8>
 5093228:	e0bffd17 	ldw	r2,-12(fp)
 509322c:	10800017 	ldw	r2,0(r2)
 5093230:	10800417 	ldw	r2,16(r2)
 5093234:	10000626 	beq	r2,zero,5093250 <close+0x6c>
 5093238:	e0bffd17 	ldw	r2,-12(fp)
 509323c:	10800017 	ldw	r2,0(r2)
 5093240:	10800417 	ldw	r2,16(r2)
 5093244:	e13ffd17 	ldw	r4,-12(fp)
 5093248:	103ee83a 	callr	r2
 509324c:	00000106 	br	5093254 <close+0x70>
 5093250:	0005883a 	mov	r2,zero
 5093254:	e0bffe15 	stw	r2,-8(fp)
 5093258:	e13fff17 	ldw	r4,-4(fp)
 509325c:	5093a240 	call	5093a24 <alt_release_fd>
 5093260:	e0bffe17 	ldw	r2,-8(fp)
 5093264:	1000070e 	bge	r2,zero,5093284 <close+0xa0>
 5093268:	50931a80 	call	50931a8 <alt_get_errno>
 509326c:	1007883a 	mov	r3,r2
 5093270:	e0bffe17 	ldw	r2,-8(fp)
 5093274:	0085c83a 	sub	r2,zero,r2
 5093278:	18800015 	stw	r2,0(r3)
 509327c:	00bfffc4 	movi	r2,-1
 5093280:	00000706 	br	50932a0 <close+0xbc>
 5093284:	0005883a 	mov	r2,zero
 5093288:	00000506 	br	50932a0 <close+0xbc>
 509328c:	50931a80 	call	50931a8 <alt_get_errno>
 5093290:	1007883a 	mov	r3,r2
 5093294:	00801444 	movi	r2,81
 5093298:	18800015 	stw	r2,0(r3)
 509329c:	00bfffc4 	movi	r2,-1
 50932a0:	e037883a 	mov	sp,fp
 50932a4:	dfc00117 	ldw	ra,4(sp)
 50932a8:	df000017 	ldw	fp,0(sp)
 50932ac:	dec00204 	addi	sp,sp,8
 50932b0:	f800283a 	ret

050932b4 <alt_dev_null_write>:
 50932b4:	defffc04 	addi	sp,sp,-16
 50932b8:	df000315 	stw	fp,12(sp)
 50932bc:	df000304 	addi	fp,sp,12
 50932c0:	e13ffd15 	stw	r4,-12(fp)
 50932c4:	e17ffe15 	stw	r5,-8(fp)
 50932c8:	e1bfff15 	stw	r6,-4(fp)
 50932cc:	e0bfff17 	ldw	r2,-4(fp)
 50932d0:	e037883a 	mov	sp,fp
 50932d4:	df000017 	ldw	fp,0(sp)
 50932d8:	dec00104 	addi	sp,sp,4
 50932dc:	f800283a 	ret

050932e0 <alt_get_errno>:
 50932e0:	defffe04 	addi	sp,sp,-8
 50932e4:	dfc00115 	stw	ra,4(sp)
 50932e8:	df000015 	stw	fp,0(sp)
 50932ec:	d839883a 	mov	fp,sp
 50932f0:	d0a00b17 	ldw	r2,-32724(gp)
 50932f4:	10000326 	beq	r2,zero,5093304 <alt_get_errno+0x24>
 50932f8:	d0a00b17 	ldw	r2,-32724(gp)
 50932fc:	103ee83a 	callr	r2
 5093300:	00000106 	br	5093308 <alt_get_errno+0x28>
 5093304:	d0a6d804 	addi	r2,gp,-25760
 5093308:	e037883a 	mov	sp,fp
 509330c:	dfc00117 	ldw	ra,4(sp)
 5093310:	df000017 	ldw	fp,0(sp)
 5093314:	dec00204 	addi	sp,sp,8
 5093318:	f800283a 	ret

0509331c <fstat>:
 509331c:	defffb04 	addi	sp,sp,-20
 5093320:	dfc00415 	stw	ra,16(sp)
 5093324:	df000315 	stw	fp,12(sp)
 5093328:	df000304 	addi	fp,sp,12
 509332c:	e13ffe15 	stw	r4,-8(fp)
 5093330:	e17fff15 	stw	r5,-4(fp)
 5093334:	e0bffe17 	ldw	r2,-8(fp)
 5093338:	10000616 	blt	r2,zero,5093354 <fstat+0x38>
 509333c:	e0bffe17 	ldw	r2,-8(fp)
 5093340:	10c00324 	muli	r3,r2,12
 5093344:	00814274 	movhi	r2,1289
 5093348:	109cfb04 	addi	r2,r2,29676
 509334c:	1885883a 	add	r2,r3,r2
 5093350:	00000106 	br	5093358 <fstat+0x3c>
 5093354:	0005883a 	mov	r2,zero
 5093358:	e0bffd15 	stw	r2,-12(fp)
 509335c:	e0bffd17 	ldw	r2,-12(fp)
 5093360:	10001026 	beq	r2,zero,50933a4 <fstat+0x88>
 5093364:	e0bffd17 	ldw	r2,-12(fp)
 5093368:	10800017 	ldw	r2,0(r2)
 509336c:	10800817 	ldw	r2,32(r2)
 5093370:	10000726 	beq	r2,zero,5093390 <fstat+0x74>
 5093374:	e0bffd17 	ldw	r2,-12(fp)
 5093378:	10800017 	ldw	r2,0(r2)
 509337c:	10800817 	ldw	r2,32(r2)
 5093380:	e17fff17 	ldw	r5,-4(fp)
 5093384:	e13ffd17 	ldw	r4,-12(fp)
 5093388:	103ee83a 	callr	r2
 509338c:	00000a06 	br	50933b8 <fstat+0x9c>
 5093390:	e0bfff17 	ldw	r2,-4(fp)
 5093394:	00c80004 	movi	r3,8192
 5093398:	10c00115 	stw	r3,4(r2)
 509339c:	0005883a 	mov	r2,zero
 50933a0:	00000506 	br	50933b8 <fstat+0x9c>
 50933a4:	50932e00 	call	50932e0 <alt_get_errno>
 50933a8:	1007883a 	mov	r3,r2
 50933ac:	00801444 	movi	r2,81
 50933b0:	18800015 	stw	r2,0(r3)
 50933b4:	00bfffc4 	movi	r2,-1
 50933b8:	e037883a 	mov	sp,fp
 50933bc:	dfc00117 	ldw	ra,4(sp)
 50933c0:	df000017 	ldw	fp,0(sp)
 50933c4:	dec00204 	addi	sp,sp,8
 50933c8:	f800283a 	ret

050933cc <alt_irq_register>:
 50933cc:	defff004 	addi	sp,sp,-64
 50933d0:	df000f15 	stw	fp,60(sp)
 50933d4:	df000f04 	addi	fp,sp,60
 50933d8:	e13ffd15 	stw	r4,-12(fp)
 50933dc:	e17ffe15 	stw	r5,-8(fp)
 50933e0:	e1bfff15 	stw	r6,-4(fp)
 50933e4:	00bffa84 	movi	r2,-22
 50933e8:	e0bff115 	stw	r2,-60(fp)
 50933ec:	e0bffd17 	ldw	r2,-12(fp)
 50933f0:	10800828 	cmpgeui	r2,r2,32
 50933f4:	1000501e 	bne	r2,zero,5093538 <alt_irq_register+0x16c>
 50933f8:	0005303a 	rdctl	r2,status
 50933fc:	e0bff615 	stw	r2,-40(fp)
 5093400:	e0fff617 	ldw	r3,-40(fp)
 5093404:	00bfff84 	movi	r2,-2
 5093408:	1884703a 	and	r2,r3,r2
 509340c:	1001703a 	wrctl	status,r2
 5093410:	e0bff617 	ldw	r2,-40(fp)
 5093414:	e0bff315 	stw	r2,-52(fp)
 5093418:	008142b4 	movhi	r2,1290
 509341c:	10a86704 	addi	r2,r2,-24164
 5093420:	e0fffd17 	ldw	r3,-12(fp)
 5093424:	180690fa 	slli	r3,r3,3
 5093428:	10c5883a 	add	r2,r2,r3
 509342c:	e0ffff17 	ldw	r3,-4(fp)
 5093430:	10c00015 	stw	r3,0(r2)
 5093434:	008142b4 	movhi	r2,1290
 5093438:	10a86704 	addi	r2,r2,-24164
 509343c:	e0fffd17 	ldw	r3,-12(fp)
 5093440:	180690fa 	slli	r3,r3,3
 5093444:	10c5883a 	add	r2,r2,r3
 5093448:	10800104 	addi	r2,r2,4
 509344c:	e0fffe17 	ldw	r3,-8(fp)
 5093450:	10c00015 	stw	r3,0(r2)
 5093454:	e0bfff17 	ldw	r2,-4(fp)
 5093458:	10001926 	beq	r2,zero,50934c0 <alt_irq_register+0xf4>
 509345c:	e0bffd17 	ldw	r2,-12(fp)
 5093460:	e0bff215 	stw	r2,-56(fp)
 5093464:	0005303a 	rdctl	r2,status
 5093468:	e0bff715 	stw	r2,-36(fp)
 509346c:	e0fff717 	ldw	r3,-36(fp)
 5093470:	00bfff84 	movi	r2,-2
 5093474:	1884703a 	and	r2,r3,r2
 5093478:	1001703a 	wrctl	status,r2
 509347c:	e0bff717 	ldw	r2,-36(fp)
 5093480:	e0bff815 	stw	r2,-32(fp)
 5093484:	00c00044 	movi	r3,1
 5093488:	e0bff217 	ldw	r2,-56(fp)
 509348c:	1884983a 	sll	r2,r3,r2
 5093490:	1007883a 	mov	r3,r2
 5093494:	d0a6d917 	ldw	r2,-25756(gp)
 5093498:	1884b03a 	or	r2,r3,r2
 509349c:	d0a6d915 	stw	r2,-25756(gp)
 50934a0:	d0a6d917 	ldw	r2,-25756(gp)
 50934a4:	100170fa 	wrctl	ienable,r2
 50934a8:	e0bff817 	ldw	r2,-32(fp)
 50934ac:	e0bff915 	stw	r2,-28(fp)
 50934b0:	e0bff917 	ldw	r2,-28(fp)
 50934b4:	1001703a 	wrctl	status,r2
 50934b8:	0005883a 	mov	r2,zero
 50934bc:	00001906 	br	5093524 <alt_irq_register+0x158>
 50934c0:	e0bffd17 	ldw	r2,-12(fp)
 50934c4:	e0bff415 	stw	r2,-48(fp)
 50934c8:	0005303a 	rdctl	r2,status
 50934cc:	e0bffa15 	stw	r2,-24(fp)
 50934d0:	e0fffa17 	ldw	r3,-24(fp)
 50934d4:	00bfff84 	movi	r2,-2
 50934d8:	1884703a 	and	r2,r3,r2
 50934dc:	1001703a 	wrctl	status,r2
 50934e0:	e0bffa17 	ldw	r2,-24(fp)
 50934e4:	e0bffb15 	stw	r2,-20(fp)
 50934e8:	00c00044 	movi	r3,1
 50934ec:	e0bff417 	ldw	r2,-48(fp)
 50934f0:	1884983a 	sll	r2,r3,r2
 50934f4:	0084303a 	nor	r2,zero,r2
 50934f8:	1007883a 	mov	r3,r2
 50934fc:	d0a6d917 	ldw	r2,-25756(gp)
 5093500:	1884703a 	and	r2,r3,r2
 5093504:	d0a6d915 	stw	r2,-25756(gp)
 5093508:	d0a6d917 	ldw	r2,-25756(gp)
 509350c:	100170fa 	wrctl	ienable,r2
 5093510:	e0bffb17 	ldw	r2,-20(fp)
 5093514:	e0bffc15 	stw	r2,-16(fp)
 5093518:	e0bffc17 	ldw	r2,-16(fp)
 509351c:	1001703a 	wrctl	status,r2
 5093520:	0005883a 	mov	r2,zero
 5093524:	e0bff115 	stw	r2,-60(fp)
 5093528:	e0bff317 	ldw	r2,-52(fp)
 509352c:	e0bff515 	stw	r2,-44(fp)
 5093530:	e0bff517 	ldw	r2,-44(fp)
 5093534:	1001703a 	wrctl	status,r2
 5093538:	e0bff117 	ldw	r2,-60(fp)
 509353c:	e037883a 	mov	sp,fp
 5093540:	df000017 	ldw	fp,0(sp)
 5093544:	dec00104 	addi	sp,sp,4
 5093548:	f800283a 	ret

0509354c <alt_get_errno>:
 509354c:	defffe04 	addi	sp,sp,-8
 5093550:	dfc00115 	stw	ra,4(sp)
 5093554:	df000015 	stw	fp,0(sp)
 5093558:	d839883a 	mov	fp,sp
 509355c:	d0a00b17 	ldw	r2,-32724(gp)
 5093560:	10000326 	beq	r2,zero,5093570 <alt_get_errno+0x24>
 5093564:	d0a00b17 	ldw	r2,-32724(gp)
 5093568:	103ee83a 	callr	r2
 509356c:	00000106 	br	5093574 <alt_get_errno+0x28>
 5093570:	d0a6d804 	addi	r2,gp,-25760
 5093574:	e037883a 	mov	sp,fp
 5093578:	dfc00117 	ldw	ra,4(sp)
 509357c:	df000017 	ldw	fp,0(sp)
 5093580:	dec00204 	addi	sp,sp,8
 5093584:	f800283a 	ret

05093588 <isatty>:
 5093588:	deffed04 	addi	sp,sp,-76
 509358c:	dfc01215 	stw	ra,72(sp)
 5093590:	df001115 	stw	fp,68(sp)
 5093594:	df001104 	addi	fp,sp,68
 5093598:	e13fff15 	stw	r4,-4(fp)
 509359c:	e0bfff17 	ldw	r2,-4(fp)
 50935a0:	10000616 	blt	r2,zero,50935bc <isatty+0x34>
 50935a4:	e0bfff17 	ldw	r2,-4(fp)
 50935a8:	10c00324 	muli	r3,r2,12
 50935ac:	00814274 	movhi	r2,1289
 50935b0:	109cfb04 	addi	r2,r2,29676
 50935b4:	1885883a 	add	r2,r3,r2
 50935b8:	00000106 	br	50935c0 <isatty+0x38>
 50935bc:	0005883a 	mov	r2,zero
 50935c0:	e0bfef15 	stw	r2,-68(fp)
 50935c4:	e0bfef17 	ldw	r2,-68(fp)
 50935c8:	10000e26 	beq	r2,zero,5093604 <isatty+0x7c>
 50935cc:	e0bfef17 	ldw	r2,-68(fp)
 50935d0:	10800017 	ldw	r2,0(r2)
 50935d4:	10800817 	ldw	r2,32(r2)
 50935d8:	1000021e 	bne	r2,zero,50935e4 <isatty+0x5c>
 50935dc:	00800044 	movi	r2,1
 50935e0:	00000d06 	br	5093618 <isatty+0x90>
 50935e4:	e0bff004 	addi	r2,fp,-64
 50935e8:	100b883a 	mov	r5,r2
 50935ec:	e13fff17 	ldw	r4,-4(fp)
 50935f0:	509331c0 	call	509331c <fstat>
 50935f4:	e0bff117 	ldw	r2,-60(fp)
 50935f8:	10880020 	cmpeqi	r2,r2,8192
 50935fc:	10803fcc 	andi	r2,r2,255
 5093600:	00000506 	br	5093618 <isatty+0x90>
 5093604:	509354c0 	call	509354c <alt_get_errno>
 5093608:	1007883a 	mov	r3,r2
 509360c:	00801444 	movi	r2,81
 5093610:	18800015 	stw	r2,0(r3)
 5093614:	0005883a 	mov	r2,zero
 5093618:	e037883a 	mov	sp,fp
 509361c:	dfc00117 	ldw	ra,4(sp)
 5093620:	df000017 	ldw	fp,0(sp)
 5093624:	dec00204 	addi	sp,sp,8
 5093628:	f800283a 	ret

0509362c <alt_load_section>:
 509362c:	defffc04 	addi	sp,sp,-16
 5093630:	df000315 	stw	fp,12(sp)
 5093634:	df000304 	addi	fp,sp,12
 5093638:	e13ffd15 	stw	r4,-12(fp)
 509363c:	e17ffe15 	stw	r5,-8(fp)
 5093640:	e1bfff15 	stw	r6,-4(fp)
 5093644:	e0fffe17 	ldw	r3,-8(fp)
 5093648:	e0bffd17 	ldw	r2,-12(fp)
 509364c:	18800c26 	beq	r3,r2,5093680 <alt_load_section+0x54>
 5093650:	00000806 	br	5093674 <alt_load_section+0x48>
 5093654:	e0bffe17 	ldw	r2,-8(fp)
 5093658:	10c00104 	addi	r3,r2,4
 509365c:	e0fffe15 	stw	r3,-8(fp)
 5093660:	e0fffd17 	ldw	r3,-12(fp)
 5093664:	19000104 	addi	r4,r3,4
 5093668:	e13ffd15 	stw	r4,-12(fp)
 509366c:	18c00017 	ldw	r3,0(r3)
 5093670:	10c00015 	stw	r3,0(r2)
 5093674:	e0fffe17 	ldw	r3,-8(fp)
 5093678:	e0bfff17 	ldw	r2,-4(fp)
 509367c:	18bff51e 	bne	r3,r2,5093654 <alt_load_section+0x28>
 5093680:	0001883a 	nop
 5093684:	e037883a 	mov	sp,fp
 5093688:	df000017 	ldw	fp,0(sp)
 509368c:	dec00104 	addi	sp,sp,4
 5093690:	f800283a 	ret

05093694 <alt_load>:
 5093694:	defffe04 	addi	sp,sp,-8
 5093698:	dfc00115 	stw	ra,4(sp)
 509369c:	df000015 	stw	fp,0(sp)
 50936a0:	d839883a 	mov	fp,sp
 50936a4:	018142b4 	movhi	r6,1290
 50936a8:	31a18304 	addi	r6,r6,-31220
 50936ac:	01414274 	movhi	r5,1289
 50936b0:	295ac404 	addi	r5,r5,27408
 50936b4:	010142b4 	movhi	r4,1290
 50936b8:	21218304 	addi	r4,r4,-31220
 50936bc:	509362c0 	call	509362c <alt_load_section>
 50936c0:	01814234 	movhi	r6,1288
 50936c4:	31809104 	addi	r6,r6,580
 50936c8:	01414234 	movhi	r5,1288
 50936cc:	29400804 	addi	r5,r5,32
 50936d0:	01014234 	movhi	r4,1288
 50936d4:	21000804 	addi	r4,r4,32
 50936d8:	509362c0 	call	509362c <alt_load_section>
 50936dc:	01814274 	movhi	r6,1289
 50936e0:	319ac404 	addi	r6,r6,27408
 50936e4:	01414274 	movhi	r5,1289
 50936e8:	29571804 	addi	r5,r5,23648
 50936ec:	01014274 	movhi	r4,1289
 50936f0:	21171804 	addi	r4,r4,23648
 50936f4:	509362c0 	call	509362c <alt_load_section>
 50936f8:	5094b4c0 	call	5094b4c <alt_dcache_flush_all>
 50936fc:	5094d340 	call	5094d34 <alt_icache_flush_all>
 5093700:	0001883a 	nop
 5093704:	e037883a 	mov	sp,fp
 5093708:	dfc00117 	ldw	ra,4(sp)
 509370c:	df000017 	ldw	fp,0(sp)
 5093710:	dec00204 	addi	sp,sp,8
 5093714:	f800283a 	ret

05093718 <alt_get_errno>:
 5093718:	defffe04 	addi	sp,sp,-8
 509371c:	dfc00115 	stw	ra,4(sp)
 5093720:	df000015 	stw	fp,0(sp)
 5093724:	d839883a 	mov	fp,sp
 5093728:	d0a00b17 	ldw	r2,-32724(gp)
 509372c:	10000326 	beq	r2,zero,509373c <alt_get_errno+0x24>
 5093730:	d0a00b17 	ldw	r2,-32724(gp)
 5093734:	103ee83a 	callr	r2
 5093738:	00000106 	br	5093740 <alt_get_errno+0x28>
 509373c:	d0a6d804 	addi	r2,gp,-25760
 5093740:	e037883a 	mov	sp,fp
 5093744:	dfc00117 	ldw	ra,4(sp)
 5093748:	df000017 	ldw	fp,0(sp)
 509374c:	dec00204 	addi	sp,sp,8
 5093750:	f800283a 	ret

05093754 <lseek>:
 5093754:	defff904 	addi	sp,sp,-28
 5093758:	dfc00615 	stw	ra,24(sp)
 509375c:	df000515 	stw	fp,20(sp)
 5093760:	df000504 	addi	fp,sp,20
 5093764:	e13ffd15 	stw	r4,-12(fp)
 5093768:	e17ffe15 	stw	r5,-8(fp)
 509376c:	e1bfff15 	stw	r6,-4(fp)
 5093770:	e03ffb15 	stw	zero,-20(fp)
 5093774:	e0bffd17 	ldw	r2,-12(fp)
 5093778:	10000616 	blt	r2,zero,5093794 <lseek+0x40>
 509377c:	e0bffd17 	ldw	r2,-12(fp)
 5093780:	10c00324 	muli	r3,r2,12
 5093784:	00814274 	movhi	r2,1289
 5093788:	109cfb04 	addi	r2,r2,29676
 509378c:	1885883a 	add	r2,r3,r2
 5093790:	00000106 	br	5093798 <lseek+0x44>
 5093794:	0005883a 	mov	r2,zero
 5093798:	e0bffc15 	stw	r2,-16(fp)
 509379c:	e0bffc17 	ldw	r2,-16(fp)
 50937a0:	10001026 	beq	r2,zero,50937e4 <lseek+0x90>
 50937a4:	e0bffc17 	ldw	r2,-16(fp)
 50937a8:	10800017 	ldw	r2,0(r2)
 50937ac:	10800717 	ldw	r2,28(r2)
 50937b0:	10000926 	beq	r2,zero,50937d8 <lseek+0x84>
 50937b4:	e0bffc17 	ldw	r2,-16(fp)
 50937b8:	10800017 	ldw	r2,0(r2)
 50937bc:	10800717 	ldw	r2,28(r2)
 50937c0:	e1bfff17 	ldw	r6,-4(fp)
 50937c4:	e17ffe17 	ldw	r5,-8(fp)
 50937c8:	e13ffc17 	ldw	r4,-16(fp)
 50937cc:	103ee83a 	callr	r2
 50937d0:	e0bffb15 	stw	r2,-20(fp)
 50937d4:	00000506 	br	50937ec <lseek+0x98>
 50937d8:	00bfde84 	movi	r2,-134
 50937dc:	e0bffb15 	stw	r2,-20(fp)
 50937e0:	00000206 	br	50937ec <lseek+0x98>
 50937e4:	00bfebc4 	movi	r2,-81
 50937e8:	e0bffb15 	stw	r2,-20(fp)
 50937ec:	e0bffb17 	ldw	r2,-20(fp)
 50937f0:	1000070e 	bge	r2,zero,5093810 <lseek+0xbc>
 50937f4:	50937180 	call	5093718 <alt_get_errno>
 50937f8:	1007883a 	mov	r3,r2
 50937fc:	e0bffb17 	ldw	r2,-20(fp)
 5093800:	0085c83a 	sub	r2,zero,r2
 5093804:	18800015 	stw	r2,0(r3)
 5093808:	00bfffc4 	movi	r2,-1
 509380c:	e0bffb15 	stw	r2,-20(fp)
 5093810:	e0bffb17 	ldw	r2,-20(fp)
 5093814:	e037883a 	mov	sp,fp
 5093818:	dfc00117 	ldw	ra,4(sp)
 509381c:	df000017 	ldw	fp,0(sp)
 5093820:	dec00204 	addi	sp,sp,8
 5093824:	f800283a 	ret

05093828 <alt_main>:
 5093828:	defffd04 	addi	sp,sp,-12
 509382c:	dfc00215 	stw	ra,8(sp)
 5093830:	df000115 	stw	fp,4(sp)
 5093834:	df000104 	addi	fp,sp,4
 5093838:	0009883a 	mov	r4,zero
 509383c:	5093cd00 	call	5093cd0 <alt_irq_init>
 5093840:	0001883a 	nop
 5093844:	5093d080 	call	5093d08 <alt_sys_init>
 5093848:	01814274 	movhi	r6,1289
 509384c:	319abc04 	addi	r6,r6,27376
 5093850:	01414274 	movhi	r5,1289
 5093854:	295abc04 	addi	r5,r5,27376
 5093858:	01014274 	movhi	r4,1289
 509385c:	211abc04 	addi	r4,r4,27376
 5093860:	50950cc0 	call	50950cc <alt_io_redirect>
 5093864:	5094c740 	call	5094c74 <_do_ctors>
 5093868:	01014274 	movhi	r4,1289
 509386c:	21133504 	addi	r4,r4,19668
 5093870:	50958cc0 	call	50958cc <atexit>
 5093874:	d0a6da17 	ldw	r2,-25752(gp)
 5093878:	d0e6db17 	ldw	r3,-25748(gp)
 509387c:	d126dc17 	ldw	r4,-25744(gp)
 5093880:	200d883a 	mov	r6,r4
 5093884:	180b883a 	mov	r5,r3
 5093888:	1009883a 	mov	r4,r2
 509388c:	50823340 	call	5082334 <main>
 5093890:	e0bfff15 	stw	r2,-4(fp)
 5093894:	01000044 	movi	r4,1
 5093898:	50931e40 	call	50931e4 <close>
 509389c:	e13fff17 	ldw	r4,-4(fp)
 50938a0:	50958e00 	call	50958e0 <exit>

050938a4 <__malloc_lock>:
 50938a4:	defffe04 	addi	sp,sp,-8
 50938a8:	df000115 	stw	fp,4(sp)
 50938ac:	df000104 	addi	fp,sp,4
 50938b0:	e13fff15 	stw	r4,-4(fp)
 50938b4:	0001883a 	nop
 50938b8:	e037883a 	mov	sp,fp
 50938bc:	df000017 	ldw	fp,0(sp)
 50938c0:	dec00104 	addi	sp,sp,4
 50938c4:	f800283a 	ret

050938c8 <__malloc_unlock>:
 50938c8:	defffe04 	addi	sp,sp,-8
 50938cc:	df000115 	stw	fp,4(sp)
 50938d0:	df000104 	addi	fp,sp,4
 50938d4:	e13fff15 	stw	r4,-4(fp)
 50938d8:	0001883a 	nop
 50938dc:	e037883a 	mov	sp,fp
 50938e0:	df000017 	ldw	fp,0(sp)
 50938e4:	dec00104 	addi	sp,sp,4
 50938e8:	f800283a 	ret

050938ec <alt_get_errno>:
 50938ec:	defffe04 	addi	sp,sp,-8
 50938f0:	dfc00115 	stw	ra,4(sp)
 50938f4:	df000015 	stw	fp,0(sp)
 50938f8:	d839883a 	mov	fp,sp
 50938fc:	d0a00b17 	ldw	r2,-32724(gp)
 5093900:	10000326 	beq	r2,zero,5093910 <alt_get_errno+0x24>
 5093904:	d0a00b17 	ldw	r2,-32724(gp)
 5093908:	103ee83a 	callr	r2
 509390c:	00000106 	br	5093914 <alt_get_errno+0x28>
 5093910:	d0a6d804 	addi	r2,gp,-25760
 5093914:	e037883a 	mov	sp,fp
 5093918:	dfc00117 	ldw	ra,4(sp)
 509391c:	df000017 	ldw	fp,0(sp)
 5093920:	dec00204 	addi	sp,sp,8
 5093924:	f800283a 	ret

05093928 <read>:
 5093928:	defff904 	addi	sp,sp,-28
 509392c:	dfc00615 	stw	ra,24(sp)
 5093930:	df000515 	stw	fp,20(sp)
 5093934:	df000504 	addi	fp,sp,20
 5093938:	e13ffd15 	stw	r4,-12(fp)
 509393c:	e17ffe15 	stw	r5,-8(fp)
 5093940:	e1bfff15 	stw	r6,-4(fp)
 5093944:	e0bffd17 	ldw	r2,-12(fp)
 5093948:	10000616 	blt	r2,zero,5093964 <read+0x3c>
 509394c:	e0bffd17 	ldw	r2,-12(fp)
 5093950:	10c00324 	muli	r3,r2,12
 5093954:	00814274 	movhi	r2,1289
 5093958:	109cfb04 	addi	r2,r2,29676
 509395c:	1885883a 	add	r2,r3,r2
 5093960:	00000106 	br	5093968 <read+0x40>
 5093964:	0005883a 	mov	r2,zero
 5093968:	e0bffb15 	stw	r2,-20(fp)
 509396c:	e0bffb17 	ldw	r2,-20(fp)
 5093970:	10002226 	beq	r2,zero,50939fc <read+0xd4>
 5093974:	e0bffb17 	ldw	r2,-20(fp)
 5093978:	10800217 	ldw	r2,8(r2)
 509397c:	108000cc 	andi	r2,r2,3
 5093980:	10800060 	cmpeqi	r2,r2,1
 5093984:	1000181e 	bne	r2,zero,50939e8 <read+0xc0>
 5093988:	e0bffb17 	ldw	r2,-20(fp)
 509398c:	10800017 	ldw	r2,0(r2)
 5093990:	10800517 	ldw	r2,20(r2)
 5093994:	10001426 	beq	r2,zero,50939e8 <read+0xc0>
 5093998:	e0bffb17 	ldw	r2,-20(fp)
 509399c:	10800017 	ldw	r2,0(r2)
 50939a0:	10800517 	ldw	r2,20(r2)
 50939a4:	e0ffff17 	ldw	r3,-4(fp)
 50939a8:	180d883a 	mov	r6,r3
 50939ac:	e17ffe17 	ldw	r5,-8(fp)
 50939b0:	e13ffb17 	ldw	r4,-20(fp)
 50939b4:	103ee83a 	callr	r2
 50939b8:	e0bffc15 	stw	r2,-16(fp)
 50939bc:	e0bffc17 	ldw	r2,-16(fp)
 50939c0:	1000070e 	bge	r2,zero,50939e0 <read+0xb8>
 50939c4:	50938ec0 	call	50938ec <alt_get_errno>
 50939c8:	1007883a 	mov	r3,r2
 50939cc:	e0bffc17 	ldw	r2,-16(fp)
 50939d0:	0085c83a 	sub	r2,zero,r2
 50939d4:	18800015 	stw	r2,0(r3)
 50939d8:	00bfffc4 	movi	r2,-1
 50939dc:	00000c06 	br	5093a10 <read+0xe8>
 50939e0:	e0bffc17 	ldw	r2,-16(fp)
 50939e4:	00000a06 	br	5093a10 <read+0xe8>
 50939e8:	50938ec0 	call	50938ec <alt_get_errno>
 50939ec:	1007883a 	mov	r3,r2
 50939f0:	00800344 	movi	r2,13
 50939f4:	18800015 	stw	r2,0(r3)
 50939f8:	00000406 	br	5093a0c <read+0xe4>
 50939fc:	50938ec0 	call	50938ec <alt_get_errno>
 5093a00:	1007883a 	mov	r3,r2
 5093a04:	00801444 	movi	r2,81
 5093a08:	18800015 	stw	r2,0(r3)
 5093a0c:	00bfffc4 	movi	r2,-1
 5093a10:	e037883a 	mov	sp,fp
 5093a14:	dfc00117 	ldw	ra,4(sp)
 5093a18:	df000017 	ldw	fp,0(sp)
 5093a1c:	dec00204 	addi	sp,sp,8
 5093a20:	f800283a 	ret

05093a24 <alt_release_fd>:
 5093a24:	defffe04 	addi	sp,sp,-8
 5093a28:	df000115 	stw	fp,4(sp)
 5093a2c:	df000104 	addi	fp,sp,4
 5093a30:	e13fff15 	stw	r4,-4(fp)
 5093a34:	e0bfff17 	ldw	r2,-4(fp)
 5093a38:	108000d0 	cmplti	r2,r2,3
 5093a3c:	10000d1e 	bne	r2,zero,5093a74 <alt_release_fd+0x50>
 5093a40:	00814274 	movhi	r2,1289
 5093a44:	109cfb04 	addi	r2,r2,29676
 5093a48:	e0ffff17 	ldw	r3,-4(fp)
 5093a4c:	18c00324 	muli	r3,r3,12
 5093a50:	10c5883a 	add	r2,r2,r3
 5093a54:	10800204 	addi	r2,r2,8
 5093a58:	10000015 	stw	zero,0(r2)
 5093a5c:	00814274 	movhi	r2,1289
 5093a60:	109cfb04 	addi	r2,r2,29676
 5093a64:	e0ffff17 	ldw	r3,-4(fp)
 5093a68:	18c00324 	muli	r3,r3,12
 5093a6c:	10c5883a 	add	r2,r2,r3
 5093a70:	10000015 	stw	zero,0(r2)
 5093a74:	0001883a 	nop
 5093a78:	e037883a 	mov	sp,fp
 5093a7c:	df000017 	ldw	fp,0(sp)
 5093a80:	dec00104 	addi	sp,sp,4
 5093a84:	f800283a 	ret

05093a88 <sbrk>:
 5093a88:	defff904 	addi	sp,sp,-28
 5093a8c:	df000615 	stw	fp,24(sp)
 5093a90:	df000604 	addi	fp,sp,24
 5093a94:	e13fff15 	stw	r4,-4(fp)
 5093a98:	0005303a 	rdctl	r2,status
 5093a9c:	e0bffe15 	stw	r2,-8(fp)
 5093aa0:	e0fffe17 	ldw	r3,-8(fp)
 5093aa4:	00bfff84 	movi	r2,-2
 5093aa8:	1884703a 	and	r2,r3,r2
 5093aac:	1001703a 	wrctl	status,r2
 5093ab0:	e0bffe17 	ldw	r2,-8(fp)
 5093ab4:	e0bffb15 	stw	r2,-20(fp)
 5093ab8:	d0a00d17 	ldw	r2,-32716(gp)
 5093abc:	10c000c4 	addi	r3,r2,3
 5093ac0:	00bfff04 	movi	r2,-4
 5093ac4:	1884703a 	and	r2,r3,r2
 5093ac8:	d0a00d15 	stw	r2,-32716(gp)
 5093acc:	d0e00d17 	ldw	r3,-32716(gp)
 5093ad0:	e0bfff17 	ldw	r2,-4(fp)
 5093ad4:	1887883a 	add	r3,r3,r2
 5093ad8:	00814374 	movhi	r2,1293
 5093adc:	10b88004 	addi	r2,r2,-7680
 5093ae0:	10c0062e 	bgeu	r2,r3,5093afc <sbrk+0x74>
 5093ae4:	e0bffb17 	ldw	r2,-20(fp)
 5093ae8:	e0bffa15 	stw	r2,-24(fp)
 5093aec:	e0bffa17 	ldw	r2,-24(fp)
 5093af0:	1001703a 	wrctl	status,r2
 5093af4:	00bfffc4 	movi	r2,-1
 5093af8:	00000b06 	br	5093b28 <sbrk+0xa0>
 5093afc:	d0a00d17 	ldw	r2,-32716(gp)
 5093b00:	e0bffd15 	stw	r2,-12(fp)
 5093b04:	d0e00d17 	ldw	r3,-32716(gp)
 5093b08:	e0bfff17 	ldw	r2,-4(fp)
 5093b0c:	1885883a 	add	r2,r3,r2
 5093b10:	d0a00d15 	stw	r2,-32716(gp)
 5093b14:	e0bffb17 	ldw	r2,-20(fp)
 5093b18:	e0bffc15 	stw	r2,-16(fp)
 5093b1c:	e0bffc17 	ldw	r2,-16(fp)
 5093b20:	1001703a 	wrctl	status,r2
 5093b24:	e0bffd17 	ldw	r2,-12(fp)
 5093b28:	e037883a 	mov	sp,fp
 5093b2c:	df000017 	ldw	fp,0(sp)
 5093b30:	dec00104 	addi	sp,sp,4
 5093b34:	f800283a 	ret

05093b38 <usleep>:
 5093b38:	defffd04 	addi	sp,sp,-12
 5093b3c:	dfc00215 	stw	ra,8(sp)
 5093b40:	df000115 	stw	fp,4(sp)
 5093b44:	df000104 	addi	fp,sp,4
 5093b48:	e13fff15 	stw	r4,-4(fp)
 5093b4c:	e13fff17 	ldw	r4,-4(fp)
 5093b50:	50949f40 	call	50949f4 <alt_busy_sleep>
 5093b54:	e037883a 	mov	sp,fp
 5093b58:	dfc00117 	ldw	ra,4(sp)
 5093b5c:	df000017 	ldw	fp,0(sp)
 5093b60:	dec00204 	addi	sp,sp,8
 5093b64:	f800283a 	ret

05093b68 <alt_get_errno>:
 5093b68:	defffe04 	addi	sp,sp,-8
 5093b6c:	dfc00115 	stw	ra,4(sp)
 5093b70:	df000015 	stw	fp,0(sp)
 5093b74:	d839883a 	mov	fp,sp
 5093b78:	d0a00b17 	ldw	r2,-32724(gp)
 5093b7c:	10000326 	beq	r2,zero,5093b8c <alt_get_errno+0x24>
 5093b80:	d0a00b17 	ldw	r2,-32724(gp)
 5093b84:	103ee83a 	callr	r2
 5093b88:	00000106 	br	5093b90 <alt_get_errno+0x28>
 5093b8c:	d0a6d804 	addi	r2,gp,-25760
 5093b90:	e037883a 	mov	sp,fp
 5093b94:	dfc00117 	ldw	ra,4(sp)
 5093b98:	df000017 	ldw	fp,0(sp)
 5093b9c:	dec00204 	addi	sp,sp,8
 5093ba0:	f800283a 	ret

05093ba4 <write>:
 5093ba4:	defff904 	addi	sp,sp,-28
 5093ba8:	dfc00615 	stw	ra,24(sp)
 5093bac:	df000515 	stw	fp,20(sp)
 5093bb0:	df000504 	addi	fp,sp,20
 5093bb4:	e13ffd15 	stw	r4,-12(fp)
 5093bb8:	e17ffe15 	stw	r5,-8(fp)
 5093bbc:	e1bfff15 	stw	r6,-4(fp)
 5093bc0:	e0bffd17 	ldw	r2,-12(fp)
 5093bc4:	10000616 	blt	r2,zero,5093be0 <write+0x3c>
 5093bc8:	e0bffd17 	ldw	r2,-12(fp)
 5093bcc:	10c00324 	muli	r3,r2,12
 5093bd0:	00814274 	movhi	r2,1289
 5093bd4:	109cfb04 	addi	r2,r2,29676
 5093bd8:	1885883a 	add	r2,r3,r2
 5093bdc:	00000106 	br	5093be4 <write+0x40>
 5093be0:	0005883a 	mov	r2,zero
 5093be4:	e0bffb15 	stw	r2,-20(fp)
 5093be8:	e0bffb17 	ldw	r2,-20(fp)
 5093bec:	10002126 	beq	r2,zero,5093c74 <write+0xd0>
 5093bf0:	e0bffb17 	ldw	r2,-20(fp)
 5093bf4:	10800217 	ldw	r2,8(r2)
 5093bf8:	108000cc 	andi	r2,r2,3
 5093bfc:	10001826 	beq	r2,zero,5093c60 <write+0xbc>
 5093c00:	e0bffb17 	ldw	r2,-20(fp)
 5093c04:	10800017 	ldw	r2,0(r2)
 5093c08:	10800617 	ldw	r2,24(r2)
 5093c0c:	10001426 	beq	r2,zero,5093c60 <write+0xbc>
 5093c10:	e0bffb17 	ldw	r2,-20(fp)
 5093c14:	10800017 	ldw	r2,0(r2)
 5093c18:	10800617 	ldw	r2,24(r2)
 5093c1c:	e0ffff17 	ldw	r3,-4(fp)
 5093c20:	180d883a 	mov	r6,r3
 5093c24:	e17ffe17 	ldw	r5,-8(fp)
 5093c28:	e13ffb17 	ldw	r4,-20(fp)
 5093c2c:	103ee83a 	callr	r2
 5093c30:	e0bffc15 	stw	r2,-16(fp)
 5093c34:	e0bffc17 	ldw	r2,-16(fp)
 5093c38:	1000070e 	bge	r2,zero,5093c58 <write+0xb4>
 5093c3c:	5093b680 	call	5093b68 <alt_get_errno>
 5093c40:	1007883a 	mov	r3,r2
 5093c44:	e0bffc17 	ldw	r2,-16(fp)
 5093c48:	0085c83a 	sub	r2,zero,r2
 5093c4c:	18800015 	stw	r2,0(r3)
 5093c50:	00bfffc4 	movi	r2,-1
 5093c54:	00000c06 	br	5093c88 <write+0xe4>
 5093c58:	e0bffc17 	ldw	r2,-16(fp)
 5093c5c:	00000a06 	br	5093c88 <write+0xe4>
 5093c60:	5093b680 	call	5093b68 <alt_get_errno>
 5093c64:	1007883a 	mov	r3,r2
 5093c68:	00800344 	movi	r2,13
 5093c6c:	18800015 	stw	r2,0(r3)
 5093c70:	00000406 	br	5093c84 <write+0xe0>
 5093c74:	5093b680 	call	5093b68 <alt_get_errno>
 5093c78:	1007883a 	mov	r3,r2
 5093c7c:	00801444 	movi	r2,81
 5093c80:	18800015 	stw	r2,0(r3)
 5093c84:	00bfffc4 	movi	r2,-1
 5093c88:	e037883a 	mov	sp,fp
 5093c8c:	dfc00117 	ldw	ra,4(sp)
 5093c90:	df000017 	ldw	fp,0(sp)
 5093c94:	dec00204 	addi	sp,sp,8
 5093c98:	f800283a 	ret

05093c9c <alt_dev_reg>:
 5093c9c:	defffd04 	addi	sp,sp,-12
 5093ca0:	dfc00215 	stw	ra,8(sp)
 5093ca4:	df000115 	stw	fp,4(sp)
 5093ca8:	df000104 	addi	fp,sp,4
 5093cac:	e13fff15 	stw	r4,-4(fp)
 5093cb0:	d1600804 	addi	r5,gp,-32736
 5093cb4:	e13fff17 	ldw	r4,-4(fp)
 5093cb8:	5094bd00 	call	5094bd0 <alt_dev_llist_insert>
 5093cbc:	e037883a 	mov	sp,fp
 5093cc0:	dfc00117 	ldw	ra,4(sp)
 5093cc4:	df000017 	ldw	fp,0(sp)
 5093cc8:	dec00204 	addi	sp,sp,8
 5093ccc:	f800283a 	ret

05093cd0 <alt_irq_init>:
 5093cd0:	defffd04 	addi	sp,sp,-12
 5093cd4:	dfc00215 	stw	ra,8(sp)
 5093cd8:	df000115 	stw	fp,4(sp)
 5093cdc:	df000104 	addi	fp,sp,4
 5093ce0:	e13fff15 	stw	r4,-4(fp)
 5093ce4:	50955400 	call	5095540 <altera_nios2_gen2_irq_init>
 5093ce8:	00800044 	movi	r2,1
 5093cec:	1001703a 	wrctl	status,r2
 5093cf0:	0001883a 	nop
 5093cf4:	e037883a 	mov	sp,fp
 5093cf8:	dfc00117 	ldw	ra,4(sp)
 5093cfc:	df000017 	ldw	fp,0(sp)
 5093d00:	dec00204 	addi	sp,sp,8
 5093d04:	f800283a 	ret

05093d08 <alt_sys_init>:
 5093d08:	defffe04 	addi	sp,sp,-8
 5093d0c:	dfc00115 	stw	ra,4(sp)
 5093d10:	df000015 	stw	fp,0(sp)
 5093d14:	d839883a 	mov	fp,sp
 5093d18:	01c0fa04 	movi	r7,1000
 5093d1c:	000d883a 	mov	r6,zero
 5093d20:	000b883a 	mov	r5,zero
 5093d24:	01014434 	movhi	r4,1296
 5093d28:	21040804 	addi	r4,r4,4128
 5093d2c:	509484c0 	call	509484c <alt_avalon_timer_sc_init>
 5093d30:	01800044 	movi	r6,1
 5093d34:	000b883a 	mov	r5,zero
 5093d38:	01014274 	movhi	r4,1289
 5093d3c:	211d6504 	addi	r4,r4,30100
 5093d40:	5093ed00 	call	5093ed0 <altera_avalon_jtag_uart_init>
 5093d44:	01014274 	movhi	r4,1289
 5093d48:	211d5b04 	addi	r4,r4,30060
 5093d4c:	5093c9c0 	call	5093c9c <alt_dev_reg>
 5093d50:	0001883a 	nop
 5093d54:	0001883a 	nop
 5093d58:	e037883a 	mov	sp,fp
 5093d5c:	dfc00117 	ldw	ra,4(sp)
 5093d60:	df000017 	ldw	fp,0(sp)
 5093d64:	dec00204 	addi	sp,sp,8
 5093d68:	f800283a 	ret

05093d6c <altera_avalon_jtag_uart_read_fd>:
 5093d6c:	defffa04 	addi	sp,sp,-24
 5093d70:	dfc00515 	stw	ra,20(sp)
 5093d74:	df000415 	stw	fp,16(sp)
 5093d78:	df000404 	addi	fp,sp,16
 5093d7c:	e13ffd15 	stw	r4,-12(fp)
 5093d80:	e17ffe15 	stw	r5,-8(fp)
 5093d84:	e1bfff15 	stw	r6,-4(fp)
 5093d88:	e0bffd17 	ldw	r2,-12(fp)
 5093d8c:	10800017 	ldw	r2,0(r2)
 5093d90:	e0bffc15 	stw	r2,-16(fp)
 5093d94:	e0bffc17 	ldw	r2,-16(fp)
 5093d98:	10c00a04 	addi	r3,r2,40
 5093d9c:	e0bffd17 	ldw	r2,-12(fp)
 5093da0:	10800217 	ldw	r2,8(r2)
 5093da4:	100f883a 	mov	r7,r2
 5093da8:	e1bfff17 	ldw	r6,-4(fp)
 5093dac:	e17ffe17 	ldw	r5,-8(fp)
 5093db0:	1809883a 	mov	r4,r3
 5093db4:	50943940 	call	5094394 <altera_avalon_jtag_uart_read>
 5093db8:	e037883a 	mov	sp,fp
 5093dbc:	dfc00117 	ldw	ra,4(sp)
 5093dc0:	df000017 	ldw	fp,0(sp)
 5093dc4:	dec00204 	addi	sp,sp,8
 5093dc8:	f800283a 	ret

05093dcc <altera_avalon_jtag_uart_write_fd>:
 5093dcc:	defffa04 	addi	sp,sp,-24
 5093dd0:	dfc00515 	stw	ra,20(sp)
 5093dd4:	df000415 	stw	fp,16(sp)
 5093dd8:	df000404 	addi	fp,sp,16
 5093ddc:	e13ffd15 	stw	r4,-12(fp)
 5093de0:	e17ffe15 	stw	r5,-8(fp)
 5093de4:	e1bfff15 	stw	r6,-4(fp)
 5093de8:	e0bffd17 	ldw	r2,-12(fp)
 5093dec:	10800017 	ldw	r2,0(r2)
 5093df0:	e0bffc15 	stw	r2,-16(fp)
 5093df4:	e0bffc17 	ldw	r2,-16(fp)
 5093df8:	10c00a04 	addi	r3,r2,40
 5093dfc:	e0bffd17 	ldw	r2,-12(fp)
 5093e00:	10800217 	ldw	r2,8(r2)
 5093e04:	100f883a 	mov	r7,r2
 5093e08:	e1bfff17 	ldw	r6,-4(fp)
 5093e0c:	e17ffe17 	ldw	r5,-8(fp)
 5093e10:	1809883a 	mov	r4,r3
 5093e14:	50945b00 	call	50945b0 <altera_avalon_jtag_uart_write>
 5093e18:	e037883a 	mov	sp,fp
 5093e1c:	dfc00117 	ldw	ra,4(sp)
 5093e20:	df000017 	ldw	fp,0(sp)
 5093e24:	dec00204 	addi	sp,sp,8
 5093e28:	f800283a 	ret

05093e2c <altera_avalon_jtag_uart_close_fd>:
 5093e2c:	defffc04 	addi	sp,sp,-16
 5093e30:	dfc00315 	stw	ra,12(sp)
 5093e34:	df000215 	stw	fp,8(sp)
 5093e38:	df000204 	addi	fp,sp,8
 5093e3c:	e13fff15 	stw	r4,-4(fp)
 5093e40:	e0bfff17 	ldw	r2,-4(fp)
 5093e44:	10800017 	ldw	r2,0(r2)
 5093e48:	e0bffe15 	stw	r2,-8(fp)
 5093e4c:	e0bffe17 	ldw	r2,-8(fp)
 5093e50:	10c00a04 	addi	r3,r2,40
 5093e54:	e0bfff17 	ldw	r2,-4(fp)
 5093e58:	10800217 	ldw	r2,8(r2)
 5093e5c:	100b883a 	mov	r5,r2
 5093e60:	1809883a 	mov	r4,r3
 5093e64:	509423c0 	call	509423c <altera_avalon_jtag_uart_close>
 5093e68:	e037883a 	mov	sp,fp
 5093e6c:	dfc00117 	ldw	ra,4(sp)
 5093e70:	df000017 	ldw	fp,0(sp)
 5093e74:	dec00204 	addi	sp,sp,8
 5093e78:	f800283a 	ret

05093e7c <altera_avalon_jtag_uart_ioctl_fd>:
 5093e7c:	defffa04 	addi	sp,sp,-24
 5093e80:	dfc00515 	stw	ra,20(sp)
 5093e84:	df000415 	stw	fp,16(sp)
 5093e88:	df000404 	addi	fp,sp,16
 5093e8c:	e13ffd15 	stw	r4,-12(fp)
 5093e90:	e17ffe15 	stw	r5,-8(fp)
 5093e94:	e1bfff15 	stw	r6,-4(fp)
 5093e98:	e0bffd17 	ldw	r2,-12(fp)
 5093e9c:	10800017 	ldw	r2,0(r2)
 5093ea0:	e0bffc15 	stw	r2,-16(fp)
 5093ea4:	e0bffc17 	ldw	r2,-16(fp)
 5093ea8:	10800a04 	addi	r2,r2,40
 5093eac:	e1bfff17 	ldw	r6,-4(fp)
 5093eb0:	e17ffe17 	ldw	r5,-8(fp)
 5093eb4:	1009883a 	mov	r4,r2
 5093eb8:	50942a40 	call	50942a4 <altera_avalon_jtag_uart_ioctl>
 5093ebc:	e037883a 	mov	sp,fp
 5093ec0:	dfc00117 	ldw	ra,4(sp)
 5093ec4:	df000017 	ldw	fp,0(sp)
 5093ec8:	dec00204 	addi	sp,sp,8
 5093ecc:	f800283a 	ret

05093ed0 <altera_avalon_jtag_uart_init>:
 5093ed0:	defffa04 	addi	sp,sp,-24
 5093ed4:	dfc00515 	stw	ra,20(sp)
 5093ed8:	df000415 	stw	fp,16(sp)
 5093edc:	df000404 	addi	fp,sp,16
 5093ee0:	e13ffd15 	stw	r4,-12(fp)
 5093ee4:	e17ffe15 	stw	r5,-8(fp)
 5093ee8:	e1bfff15 	stw	r6,-4(fp)
 5093eec:	e0bffd17 	ldw	r2,-12(fp)
 5093ef0:	00c00044 	movi	r3,1
 5093ef4:	10c00815 	stw	r3,32(r2)
 5093ef8:	e0bffd17 	ldw	r2,-12(fp)
 5093efc:	10800017 	ldw	r2,0(r2)
 5093f00:	10800104 	addi	r2,r2,4
 5093f04:	1007883a 	mov	r3,r2
 5093f08:	e0bffd17 	ldw	r2,-12(fp)
 5093f0c:	10800817 	ldw	r2,32(r2)
 5093f10:	18800035 	stwio	r2,0(r3)
 5093f14:	e0bffe17 	ldw	r2,-8(fp)
 5093f18:	e0ffff17 	ldw	r3,-4(fp)
 5093f1c:	d8000015 	stw	zero,0(sp)
 5093f20:	e1fffd17 	ldw	r7,-12(fp)
 5093f24:	01814274 	movhi	r6,1289
 5093f28:	318fe404 	addi	r6,r6,16272
 5093f2c:	180b883a 	mov	r5,r3
 5093f30:	1009883a 	mov	r4,r2
 5093f34:	5094d680 	call	5094d68 <alt_ic_isr_register>
 5093f38:	e0bffd17 	ldw	r2,-12(fp)
 5093f3c:	10000915 	stw	zero,36(r2)
 5093f40:	e0bffd17 	ldw	r2,-12(fp)
 5093f44:	10800204 	addi	r2,r2,8
 5093f48:	d0e6dd17 	ldw	r3,-25740(gp)
 5093f4c:	e1fffd17 	ldw	r7,-12(fp)
 5093f50:	01814274 	movhi	r6,1289
 5093f54:	31906704 	addi	r6,r6,16796
 5093f58:	180b883a 	mov	r5,r3
 5093f5c:	1009883a 	mov	r4,r2
 5093f60:	50948c80 	call	50948c8 <alt_alarm_start>
 5093f64:	1000040e 	bge	r2,zero,5093f78 <altera_avalon_jtag_uart_init+0xa8>
 5093f68:	e0fffd17 	ldw	r3,-12(fp)
 5093f6c:	00a00034 	movhi	r2,32768
 5093f70:	10bfffc4 	addi	r2,r2,-1
 5093f74:	18800115 	stw	r2,4(r3)
 5093f78:	0001883a 	nop
 5093f7c:	e037883a 	mov	sp,fp
 5093f80:	dfc00117 	ldw	ra,4(sp)
 5093f84:	df000017 	ldw	fp,0(sp)
 5093f88:	dec00204 	addi	sp,sp,8
 5093f8c:	f800283a 	ret

05093f90 <altera_avalon_jtag_uart_irq>:
 5093f90:	defff804 	addi	sp,sp,-32
 5093f94:	df000715 	stw	fp,28(sp)
 5093f98:	df000704 	addi	fp,sp,28
 5093f9c:	e13fff15 	stw	r4,-4(fp)
 5093fa0:	e0bfff17 	ldw	r2,-4(fp)
 5093fa4:	e0bffb15 	stw	r2,-20(fp)
 5093fa8:	e0bffb17 	ldw	r2,-20(fp)
 5093fac:	10800017 	ldw	r2,0(r2)
 5093fb0:	e0bffc15 	stw	r2,-16(fp)
 5093fb4:	e0bffc17 	ldw	r2,-16(fp)
 5093fb8:	10800104 	addi	r2,r2,4
 5093fbc:	10800037 	ldwio	r2,0(r2)
 5093fc0:	e0bffd15 	stw	r2,-12(fp)
 5093fc4:	e0bffd17 	ldw	r2,-12(fp)
 5093fc8:	1080c00c 	andi	r2,r2,768
 5093fcc:	10006d26 	beq	r2,zero,5094184 <altera_avalon_jtag_uart_irq+0x1f4>
 5093fd0:	e0bffd17 	ldw	r2,-12(fp)
 5093fd4:	1080400c 	andi	r2,r2,256
 5093fd8:	10003526 	beq	r2,zero,50940b0 <altera_avalon_jtag_uart_irq+0x120>
 5093fdc:	00800074 	movhi	r2,1
 5093fe0:	e0bff915 	stw	r2,-28(fp)
 5093fe4:	e0bffb17 	ldw	r2,-20(fp)
 5093fe8:	10800a17 	ldw	r2,40(r2)
 5093fec:	10800044 	addi	r2,r2,1
 5093ff0:	1081ffcc 	andi	r2,r2,2047
 5093ff4:	e0bffe15 	stw	r2,-8(fp)
 5093ff8:	e0bffb17 	ldw	r2,-20(fp)
 5093ffc:	10c00b17 	ldw	r3,44(r2)
 5094000:	e0bffe17 	ldw	r2,-8(fp)
 5094004:	18801526 	beq	r3,r2,509405c <altera_avalon_jtag_uart_irq+0xcc>
 5094008:	e0bffc17 	ldw	r2,-16(fp)
 509400c:	10800037 	ldwio	r2,0(r2)
 5094010:	e0bff915 	stw	r2,-28(fp)
 5094014:	e0bff917 	ldw	r2,-28(fp)
 5094018:	10a0000c 	andi	r2,r2,32768
 509401c:	10001126 	beq	r2,zero,5094064 <altera_avalon_jtag_uart_irq+0xd4>
 5094020:	e0bffb17 	ldw	r2,-20(fp)
 5094024:	10800a17 	ldw	r2,40(r2)
 5094028:	e0fff917 	ldw	r3,-28(fp)
 509402c:	1809883a 	mov	r4,r3
 5094030:	e0fffb17 	ldw	r3,-20(fp)
 5094034:	1885883a 	add	r2,r3,r2
 5094038:	10800e04 	addi	r2,r2,56
 509403c:	11000005 	stb	r4,0(r2)
 5094040:	e0bffb17 	ldw	r2,-20(fp)
 5094044:	10800a17 	ldw	r2,40(r2)
 5094048:	10800044 	addi	r2,r2,1
 509404c:	10c1ffcc 	andi	r3,r2,2047
 5094050:	e0bffb17 	ldw	r2,-20(fp)
 5094054:	10c00a15 	stw	r3,40(r2)
 5094058:	003fe206 	br	5093fe4 <altera_avalon_jtag_uart_irq+0x54>
 509405c:	0001883a 	nop
 5094060:	00000106 	br	5094068 <altera_avalon_jtag_uart_irq+0xd8>
 5094064:	0001883a 	nop
 5094068:	e0bff917 	ldw	r2,-28(fp)
 509406c:	10bfffec 	andhi	r2,r2,65535
 5094070:	10000f26 	beq	r2,zero,50940b0 <altera_avalon_jtag_uart_irq+0x120>
 5094074:	e0bffb17 	ldw	r2,-20(fp)
 5094078:	10c00817 	ldw	r3,32(r2)
 509407c:	00bfff84 	movi	r2,-2
 5094080:	1886703a 	and	r3,r3,r2
 5094084:	e0bffb17 	ldw	r2,-20(fp)
 5094088:	10c00815 	stw	r3,32(r2)
 509408c:	e0bffc17 	ldw	r2,-16(fp)
 5094090:	10800104 	addi	r2,r2,4
 5094094:	1007883a 	mov	r3,r2
 5094098:	e0bffb17 	ldw	r2,-20(fp)
 509409c:	10800817 	ldw	r2,32(r2)
 50940a0:	18800035 	stwio	r2,0(r3)
 50940a4:	e0bffc17 	ldw	r2,-16(fp)
 50940a8:	10800104 	addi	r2,r2,4
 50940ac:	10800037 	ldwio	r2,0(r2)
 50940b0:	e0bffd17 	ldw	r2,-12(fp)
 50940b4:	1080800c 	andi	r2,r2,512
 50940b8:	103fbe26 	beq	r2,zero,5093fb4 <altera_avalon_jtag_uart_irq+0x24>
 50940bc:	e0bffd17 	ldw	r2,-12(fp)
 50940c0:	1004d43a 	srli	r2,r2,16
 50940c4:	e0bffa15 	stw	r2,-24(fp)
 50940c8:	00001406 	br	509411c <altera_avalon_jtag_uart_irq+0x18c>
 50940cc:	e0bffc17 	ldw	r2,-16(fp)
 50940d0:	e0fffb17 	ldw	r3,-20(fp)
 50940d4:	18c00d17 	ldw	r3,52(r3)
 50940d8:	e13ffb17 	ldw	r4,-20(fp)
 50940dc:	20c7883a 	add	r3,r4,r3
 50940e0:	18c20e04 	addi	r3,r3,2104
 50940e4:	18c00003 	ldbu	r3,0(r3)
 50940e8:	18c03fcc 	andi	r3,r3,255
 50940ec:	18c0201c 	xori	r3,r3,128
 50940f0:	18ffe004 	addi	r3,r3,-128
 50940f4:	10c00035 	stwio	r3,0(r2)
 50940f8:	e0bffb17 	ldw	r2,-20(fp)
 50940fc:	10800d17 	ldw	r2,52(r2)
 5094100:	10800044 	addi	r2,r2,1
 5094104:	10c1ffcc 	andi	r3,r2,2047
 5094108:	e0bffb17 	ldw	r2,-20(fp)
 509410c:	10c00d15 	stw	r3,52(r2)
 5094110:	e0bffa17 	ldw	r2,-24(fp)
 5094114:	10bfffc4 	addi	r2,r2,-1
 5094118:	e0bffa15 	stw	r2,-24(fp)
 509411c:	e0bffa17 	ldw	r2,-24(fp)
 5094120:	10000526 	beq	r2,zero,5094138 <altera_avalon_jtag_uart_irq+0x1a8>
 5094124:	e0bffb17 	ldw	r2,-20(fp)
 5094128:	10c00d17 	ldw	r3,52(r2)
 509412c:	e0bffb17 	ldw	r2,-20(fp)
 5094130:	10800c17 	ldw	r2,48(r2)
 5094134:	18bfe51e 	bne	r3,r2,50940cc <altera_avalon_jtag_uart_irq+0x13c>
 5094138:	e0bffa17 	ldw	r2,-24(fp)
 509413c:	103f9d26 	beq	r2,zero,5093fb4 <altera_avalon_jtag_uart_irq+0x24>
 5094140:	e0bffb17 	ldw	r2,-20(fp)
 5094144:	10c00817 	ldw	r3,32(r2)
 5094148:	00bfff44 	movi	r2,-3
 509414c:	1886703a 	and	r3,r3,r2
 5094150:	e0bffb17 	ldw	r2,-20(fp)
 5094154:	10c00815 	stw	r3,32(r2)
 5094158:	e0bffb17 	ldw	r2,-20(fp)
 509415c:	10800017 	ldw	r2,0(r2)
 5094160:	10800104 	addi	r2,r2,4
 5094164:	1007883a 	mov	r3,r2
 5094168:	e0bffb17 	ldw	r2,-20(fp)
 509416c:	10800817 	ldw	r2,32(r2)
 5094170:	18800035 	stwio	r2,0(r3)
 5094174:	e0bffc17 	ldw	r2,-16(fp)
 5094178:	10800104 	addi	r2,r2,4
 509417c:	10800037 	ldwio	r2,0(r2)
 5094180:	003f8c06 	br	5093fb4 <altera_avalon_jtag_uart_irq+0x24>
 5094184:	0001883a 	nop
 5094188:	0001883a 	nop
 509418c:	e037883a 	mov	sp,fp
 5094190:	df000017 	ldw	fp,0(sp)
 5094194:	dec00104 	addi	sp,sp,4
 5094198:	f800283a 	ret

0509419c <altera_avalon_jtag_uart_timeout>:
 509419c:	defff804 	addi	sp,sp,-32
 50941a0:	df000715 	stw	fp,28(sp)
 50941a4:	df000704 	addi	fp,sp,28
 50941a8:	e13ffb15 	stw	r4,-20(fp)
 50941ac:	e0bffb17 	ldw	r2,-20(fp)
 50941b0:	e0bff915 	stw	r2,-28(fp)
 50941b4:	e0bff917 	ldw	r2,-28(fp)
 50941b8:	10800017 	ldw	r2,0(r2)
 50941bc:	10800104 	addi	r2,r2,4
 50941c0:	10800037 	ldwio	r2,0(r2)
 50941c4:	e0bffa15 	stw	r2,-24(fp)
 50941c8:	e0bffa17 	ldw	r2,-24(fp)
 50941cc:	1081000c 	andi	r2,r2,1024
 50941d0:	10000b26 	beq	r2,zero,5094200 <altera_avalon_jtag_uart_timeout+0x64>
 50941d4:	e0bff917 	ldw	r2,-28(fp)
 50941d8:	10800017 	ldw	r2,0(r2)
 50941dc:	10800104 	addi	r2,r2,4
 50941e0:	1007883a 	mov	r3,r2
 50941e4:	e0bff917 	ldw	r2,-28(fp)
 50941e8:	10800817 	ldw	r2,32(r2)
 50941ec:	10810014 	ori	r2,r2,1024
 50941f0:	18800035 	stwio	r2,0(r3)
 50941f4:	e0bff917 	ldw	r2,-28(fp)
 50941f8:	10000915 	stw	zero,36(r2)
 50941fc:	00000a06 	br	5094228 <altera_avalon_jtag_uart_timeout+0x8c>
 5094200:	e0bff917 	ldw	r2,-28(fp)
 5094204:	10c00917 	ldw	r3,36(r2)
 5094208:	00a00034 	movhi	r2,32768
 509420c:	10bfff04 	addi	r2,r2,-4
 5094210:	10c00536 	bltu	r2,r3,5094228 <altera_avalon_jtag_uart_timeout+0x8c>
 5094214:	e0bff917 	ldw	r2,-28(fp)
 5094218:	10800917 	ldw	r2,36(r2)
 509421c:	10c00044 	addi	r3,r2,1
 5094220:	e0bff917 	ldw	r2,-28(fp)
 5094224:	10c00915 	stw	r3,36(r2)
 5094228:	d0a6dd17 	ldw	r2,-25740(gp)
 509422c:	e037883a 	mov	sp,fp
 5094230:	df000017 	ldw	fp,0(sp)
 5094234:	dec00104 	addi	sp,sp,4
 5094238:	f800283a 	ret

0509423c <altera_avalon_jtag_uart_close>:
 509423c:	defffd04 	addi	sp,sp,-12
 5094240:	df000215 	stw	fp,8(sp)
 5094244:	df000204 	addi	fp,sp,8
 5094248:	e13ffe15 	stw	r4,-8(fp)
 509424c:	e17fff15 	stw	r5,-4(fp)
 5094250:	00000506 	br	5094268 <altera_avalon_jtag_uart_close+0x2c>
 5094254:	e0bfff17 	ldw	r2,-4(fp)
 5094258:	1090000c 	andi	r2,r2,16384
 509425c:	10000226 	beq	r2,zero,5094268 <altera_avalon_jtag_uart_close+0x2c>
 5094260:	00bffd44 	movi	r2,-11
 5094264:	00000b06 	br	5094294 <altera_avalon_jtag_uart_close+0x58>
 5094268:	e0bffe17 	ldw	r2,-8(fp)
 509426c:	10c00d17 	ldw	r3,52(r2)
 5094270:	e0bffe17 	ldw	r2,-8(fp)
 5094274:	10800c17 	ldw	r2,48(r2)
 5094278:	18800526 	beq	r3,r2,5094290 <altera_avalon_jtag_uart_close+0x54>
 509427c:	e0bffe17 	ldw	r2,-8(fp)
 5094280:	10c00917 	ldw	r3,36(r2)
 5094284:	e0bffe17 	ldw	r2,-8(fp)
 5094288:	10800117 	ldw	r2,4(r2)
 509428c:	18bff136 	bltu	r3,r2,5094254 <altera_avalon_jtag_uart_close+0x18>
 5094290:	0005883a 	mov	r2,zero
 5094294:	e037883a 	mov	sp,fp
 5094298:	df000017 	ldw	fp,0(sp)
 509429c:	dec00104 	addi	sp,sp,4
 50942a0:	f800283a 	ret

050942a4 <altera_avalon_jtag_uart_ioctl>:
 50942a4:	defffa04 	addi	sp,sp,-24
 50942a8:	df000515 	stw	fp,20(sp)
 50942ac:	df000504 	addi	fp,sp,20
 50942b0:	e13ffd15 	stw	r4,-12(fp)
 50942b4:	e17ffe15 	stw	r5,-8(fp)
 50942b8:	e1bfff15 	stw	r6,-4(fp)
 50942bc:	00bff9c4 	movi	r2,-25
 50942c0:	e0bffb15 	stw	r2,-20(fp)
 50942c4:	e0bffe17 	ldw	r2,-8(fp)
 50942c8:	10da8060 	cmpeqi	r3,r2,27137
 50942cc:	1800031e 	bne	r3,zero,50942dc <altera_avalon_jtag_uart_ioctl+0x38>
 50942d0:	109a80a0 	cmpeqi	r2,r2,27138
 50942d4:	1000181e 	bne	r2,zero,5094338 <altera_avalon_jtag_uart_ioctl+0x94>
 50942d8:	00002906 	br	5094380 <altera_avalon_jtag_uart_ioctl+0xdc>
 50942dc:	e0bffd17 	ldw	r2,-12(fp)
 50942e0:	10c00117 	ldw	r3,4(r2)
 50942e4:	00a00034 	movhi	r2,32768
 50942e8:	10bfffc4 	addi	r2,r2,-1
 50942ec:	18802126 	beq	r3,r2,5094374 <altera_avalon_jtag_uart_ioctl+0xd0>
 50942f0:	e0bfff17 	ldw	r2,-4(fp)
 50942f4:	10800017 	ldw	r2,0(r2)
 50942f8:	e0bffc15 	stw	r2,-16(fp)
 50942fc:	e0bffc17 	ldw	r2,-16(fp)
 5094300:	10800090 	cmplti	r2,r2,2
 5094304:	1000061e 	bne	r2,zero,5094320 <altera_avalon_jtag_uart_ioctl+0x7c>
 5094308:	e0fffc17 	ldw	r3,-16(fp)
 509430c:	00a00034 	movhi	r2,32768
 5094310:	10bfffc4 	addi	r2,r2,-1
 5094314:	18800226 	beq	r3,r2,5094320 <altera_avalon_jtag_uart_ioctl+0x7c>
 5094318:	e0bffc17 	ldw	r2,-16(fp)
 509431c:	00000206 	br	5094328 <altera_avalon_jtag_uart_ioctl+0x84>
 5094320:	00a00034 	movhi	r2,32768
 5094324:	10bfff84 	addi	r2,r2,-2
 5094328:	e0fffd17 	ldw	r3,-12(fp)
 509432c:	18800115 	stw	r2,4(r3)
 5094330:	e03ffb15 	stw	zero,-20(fp)
 5094334:	00000f06 	br	5094374 <altera_avalon_jtag_uart_ioctl+0xd0>
 5094338:	e0bffd17 	ldw	r2,-12(fp)
 509433c:	10c00117 	ldw	r3,4(r2)
 5094340:	00a00034 	movhi	r2,32768
 5094344:	10bfffc4 	addi	r2,r2,-1
 5094348:	18800c26 	beq	r3,r2,509437c <altera_avalon_jtag_uart_ioctl+0xd8>
 509434c:	e0bffd17 	ldw	r2,-12(fp)
 5094350:	10c00917 	ldw	r3,36(r2)
 5094354:	e0bffd17 	ldw	r2,-12(fp)
 5094358:	10800117 	ldw	r2,4(r2)
 509435c:	1885803a 	cmpltu	r2,r3,r2
 5094360:	10c03fcc 	andi	r3,r2,255
 5094364:	e0bfff17 	ldw	r2,-4(fp)
 5094368:	10c00015 	stw	r3,0(r2)
 509436c:	e03ffb15 	stw	zero,-20(fp)
 5094370:	00000206 	br	509437c <altera_avalon_jtag_uart_ioctl+0xd8>
 5094374:	0001883a 	nop
 5094378:	00000106 	br	5094380 <altera_avalon_jtag_uart_ioctl+0xdc>
 509437c:	0001883a 	nop
 5094380:	e0bffb17 	ldw	r2,-20(fp)
 5094384:	e037883a 	mov	sp,fp
 5094388:	df000017 	ldw	fp,0(sp)
 509438c:	dec00104 	addi	sp,sp,4
 5094390:	f800283a 	ret

05094394 <altera_avalon_jtag_uart_read>:
 5094394:	defff304 	addi	sp,sp,-52
 5094398:	dfc00c15 	stw	ra,48(sp)
 509439c:	df000b15 	stw	fp,44(sp)
 50943a0:	df000b04 	addi	fp,sp,44
 50943a4:	e13ffc15 	stw	r4,-16(fp)
 50943a8:	e17ffd15 	stw	r5,-12(fp)
 50943ac:	e1bffe15 	stw	r6,-8(fp)
 50943b0:	e1ffff15 	stw	r7,-4(fp)
 50943b4:	e0bffd17 	ldw	r2,-12(fp)
 50943b8:	e0bff515 	stw	r2,-44(fp)
 50943bc:	00004706 	br	50944dc <altera_avalon_jtag_uart_read+0x148>
 50943c0:	e0bffc17 	ldw	r2,-16(fp)
 50943c4:	10800a17 	ldw	r2,40(r2)
 50943c8:	e0bff715 	stw	r2,-36(fp)
 50943cc:	e0bffc17 	ldw	r2,-16(fp)
 50943d0:	10800b17 	ldw	r2,44(r2)
 50943d4:	e0bff815 	stw	r2,-32(fp)
 50943d8:	e0fff717 	ldw	r3,-36(fp)
 50943dc:	e0bff817 	ldw	r2,-32(fp)
 50943e0:	18800536 	bltu	r3,r2,50943f8 <altera_avalon_jtag_uart_read+0x64>
 50943e4:	e0fff717 	ldw	r3,-36(fp)
 50943e8:	e0bff817 	ldw	r2,-32(fp)
 50943ec:	1885c83a 	sub	r2,r3,r2
 50943f0:	e0bff615 	stw	r2,-40(fp)
 50943f4:	00000406 	br	5094408 <altera_avalon_jtag_uart_read+0x74>
 50943f8:	00c20004 	movi	r3,2048
 50943fc:	e0bff817 	ldw	r2,-32(fp)
 5094400:	1885c83a 	sub	r2,r3,r2
 5094404:	e0bff615 	stw	r2,-40(fp)
 5094408:	e0bff617 	ldw	r2,-40(fp)
 509440c:	10001e26 	beq	r2,zero,5094488 <altera_avalon_jtag_uart_read+0xf4>
 5094410:	e0fffe17 	ldw	r3,-8(fp)
 5094414:	e0bff617 	ldw	r2,-40(fp)
 5094418:	1880022e 	bgeu	r3,r2,5094424 <altera_avalon_jtag_uart_read+0x90>
 509441c:	e0bffe17 	ldw	r2,-8(fp)
 5094420:	e0bff615 	stw	r2,-40(fp)
 5094424:	e0bffc17 	ldw	r2,-16(fp)
 5094428:	10c00e04 	addi	r3,r2,56
 509442c:	e0bff817 	ldw	r2,-32(fp)
 5094430:	1885883a 	add	r2,r3,r2
 5094434:	e1bff617 	ldw	r6,-40(fp)
 5094438:	100b883a 	mov	r5,r2
 509443c:	e13ff517 	ldw	r4,-44(fp)
 5094440:	5084d640 	call	5084d64 <memcpy>
 5094444:	e0fff517 	ldw	r3,-44(fp)
 5094448:	e0bff617 	ldw	r2,-40(fp)
 509444c:	1885883a 	add	r2,r3,r2
 5094450:	e0bff515 	stw	r2,-44(fp)
 5094454:	e0fffe17 	ldw	r3,-8(fp)
 5094458:	e0bff617 	ldw	r2,-40(fp)
 509445c:	1885c83a 	sub	r2,r3,r2
 5094460:	e0bffe15 	stw	r2,-8(fp)
 5094464:	e0fff817 	ldw	r3,-32(fp)
 5094468:	e0bff617 	ldw	r2,-40(fp)
 509446c:	1885883a 	add	r2,r3,r2
 5094470:	10c1ffcc 	andi	r3,r2,2047
 5094474:	e0bffc17 	ldw	r2,-16(fp)
 5094478:	10c00b15 	stw	r3,44(r2)
 509447c:	e0bffe17 	ldw	r2,-8(fp)
 5094480:	00bfcf16 	blt	zero,r2,50943c0 <altera_avalon_jtag_uart_read+0x2c>
 5094484:	00000106 	br	509448c <altera_avalon_jtag_uart_read+0xf8>
 5094488:	0001883a 	nop
 509448c:	e0fff517 	ldw	r3,-44(fp)
 5094490:	e0bffd17 	ldw	r2,-12(fp)
 5094494:	1880141e 	bne	r3,r2,50944e8 <altera_avalon_jtag_uart_read+0x154>
 5094498:	e0bfff17 	ldw	r2,-4(fp)
 509449c:	1090000c 	andi	r2,r2,16384
 50944a0:	1000131e 	bne	r2,zero,50944f0 <altera_avalon_jtag_uart_read+0x15c>
 50944a4:	0001883a 	nop
 50944a8:	e0bffc17 	ldw	r2,-16(fp)
 50944ac:	10c00a17 	ldw	r3,40(r2)
 50944b0:	e0bff717 	ldw	r2,-36(fp)
 50944b4:	1880051e 	bne	r3,r2,50944cc <altera_avalon_jtag_uart_read+0x138>
 50944b8:	e0bffc17 	ldw	r2,-16(fp)
 50944bc:	10c00917 	ldw	r3,36(r2)
 50944c0:	e0bffc17 	ldw	r2,-16(fp)
 50944c4:	10800117 	ldw	r2,4(r2)
 50944c8:	18bff736 	bltu	r3,r2,50944a8 <altera_avalon_jtag_uart_read+0x114>
 50944cc:	e0bffc17 	ldw	r2,-16(fp)
 50944d0:	10c00a17 	ldw	r3,40(r2)
 50944d4:	e0bff717 	ldw	r2,-36(fp)
 50944d8:	18800726 	beq	r3,r2,50944f8 <altera_avalon_jtag_uart_read+0x164>
 50944dc:	e0bffe17 	ldw	r2,-8(fp)
 50944e0:	00bfb716 	blt	zero,r2,50943c0 <altera_avalon_jtag_uart_read+0x2c>
 50944e4:	00000506 	br	50944fc <altera_avalon_jtag_uart_read+0x168>
 50944e8:	0001883a 	nop
 50944ec:	00000306 	br	50944fc <altera_avalon_jtag_uart_read+0x168>
 50944f0:	0001883a 	nop
 50944f4:	00000106 	br	50944fc <altera_avalon_jtag_uart_read+0x168>
 50944f8:	0001883a 	nop
 50944fc:	e0fff517 	ldw	r3,-44(fp)
 5094500:	e0bffd17 	ldw	r2,-12(fp)
 5094504:	18801826 	beq	r3,r2,5094568 <altera_avalon_jtag_uart_read+0x1d4>
 5094508:	0005303a 	rdctl	r2,status
 509450c:	e0bffb15 	stw	r2,-20(fp)
 5094510:	e0fffb17 	ldw	r3,-20(fp)
 5094514:	00bfff84 	movi	r2,-2
 5094518:	1884703a 	and	r2,r3,r2
 509451c:	1001703a 	wrctl	status,r2
 5094520:	e0bffb17 	ldw	r2,-20(fp)
 5094524:	e0bffa15 	stw	r2,-24(fp)
 5094528:	e0bffc17 	ldw	r2,-16(fp)
 509452c:	10800817 	ldw	r2,32(r2)
 5094530:	10c00054 	ori	r3,r2,1
 5094534:	e0bffc17 	ldw	r2,-16(fp)
 5094538:	10c00815 	stw	r3,32(r2)
 509453c:	e0bffc17 	ldw	r2,-16(fp)
 5094540:	10800017 	ldw	r2,0(r2)
 5094544:	10800104 	addi	r2,r2,4
 5094548:	1007883a 	mov	r3,r2
 509454c:	e0bffc17 	ldw	r2,-16(fp)
 5094550:	10800817 	ldw	r2,32(r2)
 5094554:	18800035 	stwio	r2,0(r3)
 5094558:	e0bffa17 	ldw	r2,-24(fp)
 509455c:	e0bff915 	stw	r2,-28(fp)
 5094560:	e0bff917 	ldw	r2,-28(fp)
 5094564:	1001703a 	wrctl	status,r2
 5094568:	e0fff517 	ldw	r3,-44(fp)
 509456c:	e0bffd17 	ldw	r2,-12(fp)
 5094570:	18800426 	beq	r3,r2,5094584 <altera_avalon_jtag_uart_read+0x1f0>
 5094574:	e0fff517 	ldw	r3,-44(fp)
 5094578:	e0bffd17 	ldw	r2,-12(fp)
 509457c:	1885c83a 	sub	r2,r3,r2
 5094580:	00000606 	br	509459c <altera_avalon_jtag_uart_read+0x208>
 5094584:	e0bfff17 	ldw	r2,-4(fp)
 5094588:	1090000c 	andi	r2,r2,16384
 509458c:	10000226 	beq	r2,zero,5094598 <altera_avalon_jtag_uart_read+0x204>
 5094590:	00bffd44 	movi	r2,-11
 5094594:	00000106 	br	509459c <altera_avalon_jtag_uart_read+0x208>
 5094598:	00bffec4 	movi	r2,-5
 509459c:	e037883a 	mov	sp,fp
 50945a0:	dfc00117 	ldw	ra,4(sp)
 50945a4:	df000017 	ldw	fp,0(sp)
 50945a8:	dec00204 	addi	sp,sp,8
 50945ac:	f800283a 	ret

050945b0 <altera_avalon_jtag_uart_write>:
 50945b0:	defff304 	addi	sp,sp,-52
 50945b4:	dfc00c15 	stw	ra,48(sp)
 50945b8:	df000b15 	stw	fp,44(sp)
 50945bc:	df000b04 	addi	fp,sp,44
 50945c0:	e13ffc15 	stw	r4,-16(fp)
 50945c4:	e17ffd15 	stw	r5,-12(fp)
 50945c8:	e1bffe15 	stw	r6,-8(fp)
 50945cc:	e1ffff15 	stw	r7,-4(fp)
 50945d0:	e03ff515 	stw	zero,-44(fp)
 50945d4:	e0bffd17 	ldw	r2,-12(fp)
 50945d8:	e0bff715 	stw	r2,-36(fp)
 50945dc:	00003706 	br	50946bc <altera_avalon_jtag_uart_write+0x10c>
 50945e0:	e0bffc17 	ldw	r2,-16(fp)
 50945e4:	10800c17 	ldw	r2,48(r2)
 50945e8:	e0bff915 	stw	r2,-28(fp)
 50945ec:	e0bffc17 	ldw	r2,-16(fp)
 50945f0:	10800d17 	ldw	r2,52(r2)
 50945f4:	e0bff515 	stw	r2,-44(fp)
 50945f8:	e0fff917 	ldw	r3,-28(fp)
 50945fc:	e0bff517 	ldw	r2,-44(fp)
 5094600:	1880062e 	bgeu	r3,r2,509461c <altera_avalon_jtag_uart_write+0x6c>
 5094604:	e0fff517 	ldw	r3,-44(fp)
 5094608:	e0bff917 	ldw	r2,-28(fp)
 509460c:	1885c83a 	sub	r2,r3,r2
 5094610:	10bfffc4 	addi	r2,r2,-1
 5094614:	e0bff615 	stw	r2,-40(fp)
 5094618:	00000b06 	br	5094648 <altera_avalon_jtag_uart_write+0x98>
 509461c:	e0bff517 	ldw	r2,-44(fp)
 5094620:	10000526 	beq	r2,zero,5094638 <altera_avalon_jtag_uart_write+0x88>
 5094624:	00c20004 	movi	r3,2048
 5094628:	e0bff917 	ldw	r2,-28(fp)
 509462c:	1885c83a 	sub	r2,r3,r2
 5094630:	e0bff615 	stw	r2,-40(fp)
 5094634:	00000406 	br	5094648 <altera_avalon_jtag_uart_write+0x98>
 5094638:	00c1ffc4 	movi	r3,2047
 509463c:	e0bff917 	ldw	r2,-28(fp)
 5094640:	1885c83a 	sub	r2,r3,r2
 5094644:	e0bff615 	stw	r2,-40(fp)
 5094648:	e0bff617 	ldw	r2,-40(fp)
 509464c:	10001e26 	beq	r2,zero,50946c8 <altera_avalon_jtag_uart_write+0x118>
 5094650:	e0fffe17 	ldw	r3,-8(fp)
 5094654:	e0bff617 	ldw	r2,-40(fp)
 5094658:	1880022e 	bgeu	r3,r2,5094664 <altera_avalon_jtag_uart_write+0xb4>
 509465c:	e0bffe17 	ldw	r2,-8(fp)
 5094660:	e0bff615 	stw	r2,-40(fp)
 5094664:	e0bffc17 	ldw	r2,-16(fp)
 5094668:	10c20e04 	addi	r3,r2,2104
 509466c:	e0bff917 	ldw	r2,-28(fp)
 5094670:	1885883a 	add	r2,r3,r2
 5094674:	e1bff617 	ldw	r6,-40(fp)
 5094678:	e17ffd17 	ldw	r5,-12(fp)
 509467c:	1009883a 	mov	r4,r2
 5094680:	5084d640 	call	5084d64 <memcpy>
 5094684:	e0fffd17 	ldw	r3,-12(fp)
 5094688:	e0bff617 	ldw	r2,-40(fp)
 509468c:	1885883a 	add	r2,r3,r2
 5094690:	e0bffd15 	stw	r2,-12(fp)
 5094694:	e0fffe17 	ldw	r3,-8(fp)
 5094698:	e0bff617 	ldw	r2,-40(fp)
 509469c:	1885c83a 	sub	r2,r3,r2
 50946a0:	e0bffe15 	stw	r2,-8(fp)
 50946a4:	e0fff917 	ldw	r3,-28(fp)
 50946a8:	e0bff617 	ldw	r2,-40(fp)
 50946ac:	1885883a 	add	r2,r3,r2
 50946b0:	10c1ffcc 	andi	r3,r2,2047
 50946b4:	e0bffc17 	ldw	r2,-16(fp)
 50946b8:	10c00c15 	stw	r3,48(r2)
 50946bc:	e0bffe17 	ldw	r2,-8(fp)
 50946c0:	00bfc716 	blt	zero,r2,50945e0 <altera_avalon_jtag_uart_write+0x30>
 50946c4:	00000106 	br	50946cc <altera_avalon_jtag_uart_write+0x11c>
 50946c8:	0001883a 	nop
 50946cc:	0005303a 	rdctl	r2,status
 50946d0:	e0bffb15 	stw	r2,-20(fp)
 50946d4:	e0fffb17 	ldw	r3,-20(fp)
 50946d8:	00bfff84 	movi	r2,-2
 50946dc:	1884703a 	and	r2,r3,r2
 50946e0:	1001703a 	wrctl	status,r2
 50946e4:	e0bffb17 	ldw	r2,-20(fp)
 50946e8:	e0bffa15 	stw	r2,-24(fp)
 50946ec:	e0bffc17 	ldw	r2,-16(fp)
 50946f0:	10800817 	ldw	r2,32(r2)
 50946f4:	10c00094 	ori	r3,r2,2
 50946f8:	e0bffc17 	ldw	r2,-16(fp)
 50946fc:	10c00815 	stw	r3,32(r2)
 5094700:	e0bffc17 	ldw	r2,-16(fp)
 5094704:	10800017 	ldw	r2,0(r2)
 5094708:	10800104 	addi	r2,r2,4
 509470c:	1007883a 	mov	r3,r2
 5094710:	e0bffc17 	ldw	r2,-16(fp)
 5094714:	10800817 	ldw	r2,32(r2)
 5094718:	18800035 	stwio	r2,0(r3)
 509471c:	e0bffa17 	ldw	r2,-24(fp)
 5094720:	e0bff815 	stw	r2,-32(fp)
 5094724:	e0bff817 	ldw	r2,-32(fp)
 5094728:	1001703a 	wrctl	status,r2
 509472c:	e0bffe17 	ldw	r2,-8(fp)
 5094730:	0080100e 	bge	zero,r2,5094774 <altera_avalon_jtag_uart_write+0x1c4>
 5094734:	e0bfff17 	ldw	r2,-4(fp)
 5094738:	1090000c 	andi	r2,r2,16384
 509473c:	1000101e 	bne	r2,zero,5094780 <altera_avalon_jtag_uart_write+0x1d0>
 5094740:	0001883a 	nop
 5094744:	e0bffc17 	ldw	r2,-16(fp)
 5094748:	10c00d17 	ldw	r3,52(r2)
 509474c:	e0bff517 	ldw	r2,-44(fp)
 5094750:	1880051e 	bne	r3,r2,5094768 <altera_avalon_jtag_uart_write+0x1b8>
 5094754:	e0bffc17 	ldw	r2,-16(fp)
 5094758:	10c00917 	ldw	r3,36(r2)
 509475c:	e0bffc17 	ldw	r2,-16(fp)
 5094760:	10800117 	ldw	r2,4(r2)
 5094764:	18bff736 	bltu	r3,r2,5094744 <altera_avalon_jtag_uart_write+0x194>
 5094768:	e0bffc17 	ldw	r2,-16(fp)
 509476c:	10800917 	ldw	r2,36(r2)
 5094770:	1000051e 	bne	r2,zero,5094788 <altera_avalon_jtag_uart_write+0x1d8>
 5094774:	e0bffe17 	ldw	r2,-8(fp)
 5094778:	00bfd016 	blt	zero,r2,50946bc <altera_avalon_jtag_uart_write+0x10c>
 509477c:	00000306 	br	509478c <altera_avalon_jtag_uart_write+0x1dc>
 5094780:	0001883a 	nop
 5094784:	00000106 	br	509478c <altera_avalon_jtag_uart_write+0x1dc>
 5094788:	0001883a 	nop
 509478c:	e0fffd17 	ldw	r3,-12(fp)
 5094790:	e0bff717 	ldw	r2,-36(fp)
 5094794:	18800426 	beq	r3,r2,50947a8 <altera_avalon_jtag_uart_write+0x1f8>
 5094798:	e0fffd17 	ldw	r3,-12(fp)
 509479c:	e0bff717 	ldw	r2,-36(fp)
 50947a0:	1885c83a 	sub	r2,r3,r2
 50947a4:	00000606 	br	50947c0 <altera_avalon_jtag_uart_write+0x210>
 50947a8:	e0bfff17 	ldw	r2,-4(fp)
 50947ac:	1090000c 	andi	r2,r2,16384
 50947b0:	10000226 	beq	r2,zero,50947bc <altera_avalon_jtag_uart_write+0x20c>
 50947b4:	00bffd44 	movi	r2,-11
 50947b8:	00000106 	br	50947c0 <altera_avalon_jtag_uart_write+0x210>
 50947bc:	00bffec4 	movi	r2,-5
 50947c0:	e037883a 	mov	sp,fp
 50947c4:	dfc00117 	ldw	ra,4(sp)
 50947c8:	df000017 	ldw	fp,0(sp)
 50947cc:	dec00204 	addi	sp,sp,8
 50947d0:	f800283a 	ret

050947d4 <alt_avalon_timer_sc_irq>:
 50947d4:	defffa04 	addi	sp,sp,-24
 50947d8:	dfc00515 	stw	ra,20(sp)
 50947dc:	df000415 	stw	fp,16(sp)
 50947e0:	df000404 	addi	fp,sp,16
 50947e4:	e13fff15 	stw	r4,-4(fp)
 50947e8:	0007883a 	mov	r3,zero
 50947ec:	e0bfff17 	ldw	r2,-4(fp)
 50947f0:	10c00035 	stwio	r3,0(r2)
 50947f4:	e0bfff17 	ldw	r2,-4(fp)
 50947f8:	10800104 	addi	r2,r2,4
 50947fc:	10800037 	ldwio	r2,0(r2)
 5094800:	0005303a 	rdctl	r2,status
 5094804:	e0bffd15 	stw	r2,-12(fp)
 5094808:	e0fffd17 	ldw	r3,-12(fp)
 509480c:	00bfff84 	movi	r2,-2
 5094810:	1884703a 	and	r2,r3,r2
 5094814:	1001703a 	wrctl	status,r2
 5094818:	e0bffd17 	ldw	r2,-12(fp)
 509481c:	e0bffc15 	stw	r2,-16(fp)
 5094820:	50954380 	call	5095438 <alt_tick>
 5094824:	e0bffc17 	ldw	r2,-16(fp)
 5094828:	e0bffe15 	stw	r2,-8(fp)
 509482c:	e0bffe17 	ldw	r2,-8(fp)
 5094830:	1001703a 	wrctl	status,r2
 5094834:	0001883a 	nop
 5094838:	e037883a 	mov	sp,fp
 509483c:	dfc00117 	ldw	ra,4(sp)
 5094840:	df000017 	ldw	fp,0(sp)
 5094844:	dec00204 	addi	sp,sp,8
 5094848:	f800283a 	ret

0509484c <alt_avalon_timer_sc_init>:
 509484c:	defff804 	addi	sp,sp,-32
 5094850:	dfc00715 	stw	ra,28(sp)
 5094854:	df000615 	stw	fp,24(sp)
 5094858:	df000604 	addi	fp,sp,24
 509485c:	e13ffc15 	stw	r4,-16(fp)
 5094860:	e17ffd15 	stw	r5,-12(fp)
 5094864:	e1bffe15 	stw	r6,-8(fp)
 5094868:	e1ffff15 	stw	r7,-4(fp)
 509486c:	e0bfff17 	ldw	r2,-4(fp)
 5094870:	e0bffb15 	stw	r2,-20(fp)
 5094874:	d0a6dd17 	ldw	r2,-25740(gp)
 5094878:	1000021e 	bne	r2,zero,5094884 <alt_avalon_timer_sc_init+0x38>
 509487c:	e0bffb17 	ldw	r2,-20(fp)
 5094880:	d0a6dd15 	stw	r2,-25740(gp)
 5094884:	e0bffc17 	ldw	r2,-16(fp)
 5094888:	10800104 	addi	r2,r2,4
 509488c:	00c001c4 	movi	r3,7
 5094890:	10c00035 	stwio	r3,0(r2)
 5094894:	d8000015 	stw	zero,0(sp)
 5094898:	e1fffc17 	ldw	r7,-16(fp)
 509489c:	01814274 	movhi	r6,1289
 50948a0:	3191f504 	addi	r6,r6,18388
 50948a4:	e17ffe17 	ldw	r5,-8(fp)
 50948a8:	e13ffd17 	ldw	r4,-12(fp)
 50948ac:	5094d680 	call	5094d68 <alt_ic_isr_register>
 50948b0:	0001883a 	nop
 50948b4:	e037883a 	mov	sp,fp
 50948b8:	dfc00117 	ldw	ra,4(sp)
 50948bc:	df000017 	ldw	fp,0(sp)
 50948c0:	dec00204 	addi	sp,sp,8
 50948c4:	f800283a 	ret

050948c8 <alt_alarm_start>:
 50948c8:	defff504 	addi	sp,sp,-44
 50948cc:	df000a15 	stw	fp,40(sp)
 50948d0:	df000a04 	addi	fp,sp,40
 50948d4:	e13ffc15 	stw	r4,-16(fp)
 50948d8:	e17ffd15 	stw	r5,-12(fp)
 50948dc:	e1bffe15 	stw	r6,-8(fp)
 50948e0:	e1ffff15 	stw	r7,-4(fp)
 50948e4:	e03ff615 	stw	zero,-40(fp)
 50948e8:	d0a6dd17 	ldw	r2,-25740(gp)
 50948ec:	10003c26 	beq	r2,zero,50949e0 <alt_alarm_start+0x118>
 50948f0:	e0bffc17 	ldw	r2,-16(fp)
 50948f4:	10003826 	beq	r2,zero,50949d8 <alt_alarm_start+0x110>
 50948f8:	e0bffc17 	ldw	r2,-16(fp)
 50948fc:	e0fffe17 	ldw	r3,-8(fp)
 5094900:	10c00315 	stw	r3,12(r2)
 5094904:	e0bffc17 	ldw	r2,-16(fp)
 5094908:	e0ffff17 	ldw	r3,-4(fp)
 509490c:	10c00515 	stw	r3,20(r2)
 5094910:	0005303a 	rdctl	r2,status
 5094914:	e0bff915 	stw	r2,-28(fp)
 5094918:	e0fff917 	ldw	r3,-28(fp)
 509491c:	00bfff84 	movi	r2,-2
 5094920:	1884703a 	and	r2,r3,r2
 5094924:	1001703a 	wrctl	status,r2
 5094928:	e0bff917 	ldw	r2,-28(fp)
 509492c:	e0bff815 	stw	r2,-32(fp)
 5094930:	d0a6de17 	ldw	r2,-25736(gp)
 5094934:	e0bff615 	stw	r2,-40(fp)
 5094938:	e0fffd17 	ldw	r3,-12(fp)
 509493c:	e0bff617 	ldw	r2,-40(fp)
 5094940:	1885883a 	add	r2,r3,r2
 5094944:	10c00044 	addi	r3,r2,1
 5094948:	e0bffc17 	ldw	r2,-16(fp)
 509494c:	10c00215 	stw	r3,8(r2)
 5094950:	e0bffc17 	ldw	r2,-16(fp)
 5094954:	10c00217 	ldw	r3,8(r2)
 5094958:	e0bff617 	ldw	r2,-40(fp)
 509495c:	1880042e 	bgeu	r3,r2,5094970 <alt_alarm_start+0xa8>
 5094960:	e0bffc17 	ldw	r2,-16(fp)
 5094964:	00c00044 	movi	r3,1
 5094968:	10c00405 	stb	r3,16(r2)
 509496c:	00000206 	br	5094978 <alt_alarm_start+0xb0>
 5094970:	e0bffc17 	ldw	r2,-16(fp)
 5094974:	10000405 	stb	zero,16(r2)
 5094978:	e0bffc17 	ldw	r2,-16(fp)
 509497c:	d0e00e04 	addi	r3,gp,-32712
 5094980:	e0fffa15 	stw	r3,-24(fp)
 5094984:	e0bffb15 	stw	r2,-20(fp)
 5094988:	e0bffb17 	ldw	r2,-20(fp)
 509498c:	e0fffa17 	ldw	r3,-24(fp)
 5094990:	10c00115 	stw	r3,4(r2)
 5094994:	e0bffa17 	ldw	r2,-24(fp)
 5094998:	10c00017 	ldw	r3,0(r2)
 509499c:	e0bffb17 	ldw	r2,-20(fp)
 50949a0:	10c00015 	stw	r3,0(r2)
 50949a4:	e0bffa17 	ldw	r2,-24(fp)
 50949a8:	10800017 	ldw	r2,0(r2)
 50949ac:	e0fffb17 	ldw	r3,-20(fp)
 50949b0:	10c00115 	stw	r3,4(r2)
 50949b4:	e0bffa17 	ldw	r2,-24(fp)
 50949b8:	e0fffb17 	ldw	r3,-20(fp)
 50949bc:	10c00015 	stw	r3,0(r2)
 50949c0:	e0bff817 	ldw	r2,-32(fp)
 50949c4:	e0bff715 	stw	r2,-36(fp)
 50949c8:	e0bff717 	ldw	r2,-36(fp)
 50949cc:	1001703a 	wrctl	status,r2
 50949d0:	0005883a 	mov	r2,zero
 50949d4:	00000306 	br	50949e4 <alt_alarm_start+0x11c>
 50949d8:	00bffa84 	movi	r2,-22
 50949dc:	00000106 	br	50949e4 <alt_alarm_start+0x11c>
 50949e0:	00bfde84 	movi	r2,-134
 50949e4:	e037883a 	mov	sp,fp
 50949e8:	df000017 	ldw	fp,0(sp)
 50949ec:	dec00104 	addi	sp,sp,4
 50949f0:	f800283a 	ret

050949f4 <alt_busy_sleep>:
 50949f4:	defffa04 	addi	sp,sp,-24
 50949f8:	dfc00515 	stw	ra,20(sp)
 50949fc:	df000415 	stw	fp,16(sp)
 5094a00:	df000404 	addi	fp,sp,16
 5094a04:	e13fff15 	stw	r4,-4(fp)
 5094a08:	008000c4 	movi	r2,3
 5094a0c:	e0bffd15 	stw	r2,-12(fp)
 5094a10:	e0fffd17 	ldw	r3,-12(fp)
 5094a14:	008003f4 	movhi	r2,15
 5094a18:	10909004 	addi	r2,r2,16960
 5094a1c:	1885383a 	mul	r2,r3,r2
 5094a20:	100b883a 	mov	r5,r2
 5094a24:	01017db4 	movhi	r4,1526
 5094a28:	21384004 	addi	r4,r4,-7936
 5094a2c:	50831b40 	call	50831b4 <__udivsi3>
 5094a30:	100b883a 	mov	r5,r2
 5094a34:	01200034 	movhi	r4,32768
 5094a38:	213fffc4 	addi	r4,r4,-1
 5094a3c:	50831b40 	call	50831b4 <__udivsi3>
 5094a40:	100b883a 	mov	r5,r2
 5094a44:	e13fff17 	ldw	r4,-4(fp)
 5094a48:	50831b40 	call	50831b4 <__udivsi3>
 5094a4c:	e0bffe15 	stw	r2,-8(fp)
 5094a50:	e0bffe17 	ldw	r2,-8(fp)
 5094a54:	10002a26 	beq	r2,zero,5094b00 <alt_busy_sleep+0x10c>
 5094a58:	e03ffc15 	stw	zero,-16(fp)
 5094a5c:	00001706 	br	5094abc <alt_busy_sleep+0xc8>
 5094a60:	00a00034 	movhi	r2,32768
 5094a64:	10bfffc4 	addi	r2,r2,-1
 5094a68:	10bfffc4 	addi	r2,r2,-1
 5094a6c:	103ffe1e 	bne	r2,zero,5094a68 <alt_busy_sleep+0x74>
 5094a70:	e0fffd17 	ldw	r3,-12(fp)
 5094a74:	008003f4 	movhi	r2,15
 5094a78:	10909004 	addi	r2,r2,16960
 5094a7c:	1885383a 	mul	r2,r3,r2
 5094a80:	100b883a 	mov	r5,r2
 5094a84:	01017db4 	movhi	r4,1526
 5094a88:	21384004 	addi	r4,r4,-7936
 5094a8c:	50831b40 	call	50831b4 <__udivsi3>
 5094a90:	100b883a 	mov	r5,r2
 5094a94:	01200034 	movhi	r4,32768
 5094a98:	213fffc4 	addi	r4,r4,-1
 5094a9c:	50831b40 	call	50831b4 <__udivsi3>
 5094aa0:	1007883a 	mov	r3,r2
 5094aa4:	e0bfff17 	ldw	r2,-4(fp)
 5094aa8:	10c5c83a 	sub	r2,r2,r3
 5094aac:	e0bfff15 	stw	r2,-4(fp)
 5094ab0:	e0bffc17 	ldw	r2,-16(fp)
 5094ab4:	10800044 	addi	r2,r2,1
 5094ab8:	e0bffc15 	stw	r2,-16(fp)
 5094abc:	e0fffc17 	ldw	r3,-16(fp)
 5094ac0:	e0bffe17 	ldw	r2,-8(fp)
 5094ac4:	18bfe616 	blt	r3,r2,5094a60 <alt_busy_sleep+0x6c>
 5094ac8:	e0fffd17 	ldw	r3,-12(fp)
 5094acc:	008003f4 	movhi	r2,15
 5094ad0:	10909004 	addi	r2,r2,16960
 5094ad4:	1885383a 	mul	r2,r3,r2
 5094ad8:	100b883a 	mov	r5,r2
 5094adc:	01017db4 	movhi	r4,1526
 5094ae0:	21384004 	addi	r4,r4,-7936
 5094ae4:	50831b40 	call	50831b4 <__udivsi3>
 5094ae8:	1007883a 	mov	r3,r2
 5094aec:	e0bfff17 	ldw	r2,-4(fp)
 5094af0:	1885383a 	mul	r2,r3,r2
 5094af4:	10bfffc4 	addi	r2,r2,-1
 5094af8:	103ffe1e 	bne	r2,zero,5094af4 <alt_busy_sleep+0x100>
 5094afc:	00000d06 	br	5094b34 <alt_busy_sleep+0x140>
 5094b00:	e0fffd17 	ldw	r3,-12(fp)
 5094b04:	008003f4 	movhi	r2,15
 5094b08:	10909004 	addi	r2,r2,16960
 5094b0c:	1885383a 	mul	r2,r3,r2
 5094b10:	100b883a 	mov	r5,r2
 5094b14:	01017db4 	movhi	r4,1526
 5094b18:	21384004 	addi	r4,r4,-7936
 5094b1c:	50831b40 	call	50831b4 <__udivsi3>
 5094b20:	1007883a 	mov	r3,r2
 5094b24:	e0bfff17 	ldw	r2,-4(fp)
 5094b28:	1885383a 	mul	r2,r3,r2
 5094b2c:	10bfffc4 	addi	r2,r2,-1
 5094b30:	00bffe16 	blt	zero,r2,5094b2c <alt_busy_sleep+0x138>
 5094b34:	0005883a 	mov	r2,zero
 5094b38:	e037883a 	mov	sp,fp
 5094b3c:	dfc00117 	ldw	ra,4(sp)
 5094b40:	df000017 	ldw	fp,0(sp)
 5094b44:	dec00204 	addi	sp,sp,8
 5094b48:	f800283a 	ret

05094b4c <alt_dcache_flush_all>:
 5094b4c:	defffe04 	addi	sp,sp,-8
 5094b50:	df000115 	stw	fp,4(sp)
 5094b54:	df000104 	addi	fp,sp,4
 5094b58:	e03fff15 	stw	zero,-4(fp)
 5094b5c:	00000506 	br	5094b74 <alt_dcache_flush_all+0x28>
 5094b60:	e0bfff17 	ldw	r2,-4(fp)
 5094b64:	1000003b 	flushd	0(r2)
 5094b68:	e0bfff17 	ldw	r2,-4(fp)
 5094b6c:	10800804 	addi	r2,r2,32
 5094b70:	e0bfff15 	stw	r2,-4(fp)
 5094b74:	e0bfff17 	ldw	r2,-4(fp)
 5094b78:	10820030 	cmpltui	r2,r2,2048
 5094b7c:	103ff81e 	bne	r2,zero,5094b60 <alt_dcache_flush_all+0x14>
 5094b80:	0001883a 	nop
 5094b84:	e037883a 	mov	sp,fp
 5094b88:	df000017 	ldw	fp,0(sp)
 5094b8c:	dec00104 	addi	sp,sp,4
 5094b90:	f800283a 	ret

05094b94 <alt_get_errno>:
 5094b94:	defffe04 	addi	sp,sp,-8
 5094b98:	dfc00115 	stw	ra,4(sp)
 5094b9c:	df000015 	stw	fp,0(sp)
 5094ba0:	d839883a 	mov	fp,sp
 5094ba4:	d0a00b17 	ldw	r2,-32724(gp)
 5094ba8:	10000326 	beq	r2,zero,5094bb8 <alt_get_errno+0x24>
 5094bac:	d0a00b17 	ldw	r2,-32724(gp)
 5094bb0:	103ee83a 	callr	r2
 5094bb4:	00000106 	br	5094bbc <alt_get_errno+0x28>
 5094bb8:	d0a6d804 	addi	r2,gp,-25760
 5094bbc:	e037883a 	mov	sp,fp
 5094bc0:	dfc00117 	ldw	ra,4(sp)
 5094bc4:	df000017 	ldw	fp,0(sp)
 5094bc8:	dec00204 	addi	sp,sp,8
 5094bcc:	f800283a 	ret

05094bd0 <alt_dev_llist_insert>:
 5094bd0:	defffa04 	addi	sp,sp,-24
 5094bd4:	dfc00515 	stw	ra,20(sp)
 5094bd8:	df000415 	stw	fp,16(sp)
 5094bdc:	df000404 	addi	fp,sp,16
 5094be0:	e13ffe15 	stw	r4,-8(fp)
 5094be4:	e17fff15 	stw	r5,-4(fp)
 5094be8:	e0bffe17 	ldw	r2,-8(fp)
 5094bec:	10000326 	beq	r2,zero,5094bfc <alt_dev_llist_insert+0x2c>
 5094bf0:	e0bffe17 	ldw	r2,-8(fp)
 5094bf4:	10800217 	ldw	r2,8(r2)
 5094bf8:	1000061e 	bne	r2,zero,5094c14 <alt_dev_llist_insert+0x44>
 5094bfc:	5094b940 	call	5094b94 <alt_get_errno>
 5094c00:	1007883a 	mov	r3,r2
 5094c04:	00800584 	movi	r2,22
 5094c08:	18800015 	stw	r2,0(r3)
 5094c0c:	00bffa84 	movi	r2,-22
 5094c10:	00001306 	br	5094c60 <alt_dev_llist_insert+0x90>
 5094c14:	e0bffe17 	ldw	r2,-8(fp)
 5094c18:	e0ffff17 	ldw	r3,-4(fp)
 5094c1c:	e0fffc15 	stw	r3,-16(fp)
 5094c20:	e0bffd15 	stw	r2,-12(fp)
 5094c24:	e0bffd17 	ldw	r2,-12(fp)
 5094c28:	e0fffc17 	ldw	r3,-16(fp)
 5094c2c:	10c00115 	stw	r3,4(r2)
 5094c30:	e0bffc17 	ldw	r2,-16(fp)
 5094c34:	10c00017 	ldw	r3,0(r2)
 5094c38:	e0bffd17 	ldw	r2,-12(fp)
 5094c3c:	10c00015 	stw	r3,0(r2)
 5094c40:	e0bffc17 	ldw	r2,-16(fp)
 5094c44:	10800017 	ldw	r2,0(r2)
 5094c48:	e0fffd17 	ldw	r3,-12(fp)
 5094c4c:	10c00115 	stw	r3,4(r2)
 5094c50:	e0bffc17 	ldw	r2,-16(fp)
 5094c54:	e0fffd17 	ldw	r3,-12(fp)
 5094c58:	10c00015 	stw	r3,0(r2)
 5094c5c:	0005883a 	mov	r2,zero
 5094c60:	e037883a 	mov	sp,fp
 5094c64:	dfc00117 	ldw	ra,4(sp)
 5094c68:	df000017 	ldw	fp,0(sp)
 5094c6c:	dec00204 	addi	sp,sp,8
 5094c70:	f800283a 	ret

05094c74 <_do_ctors>:
 5094c74:	defffd04 	addi	sp,sp,-12
 5094c78:	dfc00215 	stw	ra,8(sp)
 5094c7c:	df000115 	stw	fp,4(sp)
 5094c80:	df000104 	addi	fp,sp,4
 5094c84:	00814274 	movhi	r2,1289
 5094c88:	10971704 	addi	r2,r2,23644
 5094c8c:	e0bfff15 	stw	r2,-4(fp)
 5094c90:	00000606 	br	5094cac <_do_ctors+0x38>
 5094c94:	e0bfff17 	ldw	r2,-4(fp)
 5094c98:	10800017 	ldw	r2,0(r2)
 5094c9c:	103ee83a 	callr	r2
 5094ca0:	e0bfff17 	ldw	r2,-4(fp)
 5094ca4:	10bfff04 	addi	r2,r2,-4
 5094ca8:	e0bfff15 	stw	r2,-4(fp)
 5094cac:	e0ffff17 	ldw	r3,-4(fp)
 5094cb0:	00814274 	movhi	r2,1289
 5094cb4:	10971804 	addi	r2,r2,23648
 5094cb8:	18bff62e 	bgeu	r3,r2,5094c94 <_do_ctors+0x20>
 5094cbc:	0001883a 	nop
 5094cc0:	e037883a 	mov	sp,fp
 5094cc4:	dfc00117 	ldw	ra,4(sp)
 5094cc8:	df000017 	ldw	fp,0(sp)
 5094ccc:	dec00204 	addi	sp,sp,8
 5094cd0:	f800283a 	ret

05094cd4 <_do_dtors>:
 5094cd4:	defffd04 	addi	sp,sp,-12
 5094cd8:	dfc00215 	stw	ra,8(sp)
 5094cdc:	df000115 	stw	fp,4(sp)
 5094ce0:	df000104 	addi	fp,sp,4
 5094ce4:	00814274 	movhi	r2,1289
 5094ce8:	10971704 	addi	r2,r2,23644
 5094cec:	e0bfff15 	stw	r2,-4(fp)
 5094cf0:	00000606 	br	5094d0c <_do_dtors+0x38>
 5094cf4:	e0bfff17 	ldw	r2,-4(fp)
 5094cf8:	10800017 	ldw	r2,0(r2)
 5094cfc:	103ee83a 	callr	r2
 5094d00:	e0bfff17 	ldw	r2,-4(fp)
 5094d04:	10bfff04 	addi	r2,r2,-4
 5094d08:	e0bfff15 	stw	r2,-4(fp)
 5094d0c:	e0ffff17 	ldw	r3,-4(fp)
 5094d10:	00814274 	movhi	r2,1289
 5094d14:	10971804 	addi	r2,r2,23648
 5094d18:	18bff62e 	bgeu	r3,r2,5094cf4 <_do_dtors+0x20>
 5094d1c:	0001883a 	nop
 5094d20:	e037883a 	mov	sp,fp
 5094d24:	dfc00117 	ldw	ra,4(sp)
 5094d28:	df000017 	ldw	fp,0(sp)
 5094d2c:	dec00204 	addi	sp,sp,8
 5094d30:	f800283a 	ret

05094d34 <alt_icache_flush_all>:
 5094d34:	defffe04 	addi	sp,sp,-8
 5094d38:	dfc00115 	stw	ra,4(sp)
 5094d3c:	df000015 	stw	fp,0(sp)
 5094d40:	d839883a 	mov	fp,sp
 5094d44:	01440004 	movi	r5,4096
 5094d48:	0009883a 	mov	r4,zero
 5094d4c:	50957a00 	call	50957a0 <alt_icache_flush>
 5094d50:	0001883a 	nop
 5094d54:	e037883a 	mov	sp,fp
 5094d58:	dfc00117 	ldw	ra,4(sp)
 5094d5c:	df000017 	ldw	fp,0(sp)
 5094d60:	dec00204 	addi	sp,sp,8
 5094d64:	f800283a 	ret

05094d68 <alt_ic_isr_register>:
 5094d68:	defff904 	addi	sp,sp,-28
 5094d6c:	dfc00615 	stw	ra,24(sp)
 5094d70:	df000515 	stw	fp,20(sp)
 5094d74:	df000504 	addi	fp,sp,20
 5094d78:	e13ffc15 	stw	r4,-16(fp)
 5094d7c:	e17ffd15 	stw	r5,-12(fp)
 5094d80:	e1bffe15 	stw	r6,-8(fp)
 5094d84:	e1ffff15 	stw	r7,-4(fp)
 5094d88:	e0800217 	ldw	r2,8(fp)
 5094d8c:	d8800015 	stw	r2,0(sp)
 5094d90:	e1ffff17 	ldw	r7,-4(fp)
 5094d94:	e1bffe17 	ldw	r6,-8(fp)
 5094d98:	e17ffd17 	ldw	r5,-12(fp)
 5094d9c:	e13ffc17 	ldw	r4,-16(fp)
 5094da0:	5094f180 	call	5094f18 <alt_iic_isr_register>
 5094da4:	e037883a 	mov	sp,fp
 5094da8:	dfc00117 	ldw	ra,4(sp)
 5094dac:	df000017 	ldw	fp,0(sp)
 5094db0:	dec00204 	addi	sp,sp,8
 5094db4:	f800283a 	ret

05094db8 <alt_ic_irq_enable>:
 5094db8:	defff904 	addi	sp,sp,-28
 5094dbc:	df000615 	stw	fp,24(sp)
 5094dc0:	df000604 	addi	fp,sp,24
 5094dc4:	e13ffe15 	stw	r4,-8(fp)
 5094dc8:	e17fff15 	stw	r5,-4(fp)
 5094dcc:	e0bfff17 	ldw	r2,-4(fp)
 5094dd0:	e0bffa15 	stw	r2,-24(fp)
 5094dd4:	0005303a 	rdctl	r2,status
 5094dd8:	e0bffb15 	stw	r2,-20(fp)
 5094ddc:	e0fffb17 	ldw	r3,-20(fp)
 5094de0:	00bfff84 	movi	r2,-2
 5094de4:	1884703a 	and	r2,r3,r2
 5094de8:	1001703a 	wrctl	status,r2
 5094dec:	e0bffb17 	ldw	r2,-20(fp)
 5094df0:	e0bffc15 	stw	r2,-16(fp)
 5094df4:	00c00044 	movi	r3,1
 5094df8:	e0bffa17 	ldw	r2,-24(fp)
 5094dfc:	1884983a 	sll	r2,r3,r2
 5094e00:	1007883a 	mov	r3,r2
 5094e04:	d0a6d917 	ldw	r2,-25756(gp)
 5094e08:	1884b03a 	or	r2,r3,r2
 5094e0c:	d0a6d915 	stw	r2,-25756(gp)
 5094e10:	d0a6d917 	ldw	r2,-25756(gp)
 5094e14:	100170fa 	wrctl	ienable,r2
 5094e18:	e0bffc17 	ldw	r2,-16(fp)
 5094e1c:	e0bffd15 	stw	r2,-12(fp)
 5094e20:	e0bffd17 	ldw	r2,-12(fp)
 5094e24:	1001703a 	wrctl	status,r2
 5094e28:	0005883a 	mov	r2,zero
 5094e2c:	0001883a 	nop
 5094e30:	e037883a 	mov	sp,fp
 5094e34:	df000017 	ldw	fp,0(sp)
 5094e38:	dec00104 	addi	sp,sp,4
 5094e3c:	f800283a 	ret

05094e40 <alt_ic_irq_disable>:
 5094e40:	defff904 	addi	sp,sp,-28
 5094e44:	df000615 	stw	fp,24(sp)
 5094e48:	df000604 	addi	fp,sp,24
 5094e4c:	e13ffe15 	stw	r4,-8(fp)
 5094e50:	e17fff15 	stw	r5,-4(fp)
 5094e54:	e0bfff17 	ldw	r2,-4(fp)
 5094e58:	e0bffa15 	stw	r2,-24(fp)
 5094e5c:	0005303a 	rdctl	r2,status
 5094e60:	e0bffb15 	stw	r2,-20(fp)
 5094e64:	e0fffb17 	ldw	r3,-20(fp)
 5094e68:	00bfff84 	movi	r2,-2
 5094e6c:	1884703a 	and	r2,r3,r2
 5094e70:	1001703a 	wrctl	status,r2
 5094e74:	e0bffb17 	ldw	r2,-20(fp)
 5094e78:	e0bffc15 	stw	r2,-16(fp)
 5094e7c:	00c00044 	movi	r3,1
 5094e80:	e0bffa17 	ldw	r2,-24(fp)
 5094e84:	1884983a 	sll	r2,r3,r2
 5094e88:	0084303a 	nor	r2,zero,r2
 5094e8c:	1007883a 	mov	r3,r2
 5094e90:	d0a6d917 	ldw	r2,-25756(gp)
 5094e94:	1884703a 	and	r2,r3,r2
 5094e98:	d0a6d915 	stw	r2,-25756(gp)
 5094e9c:	d0a6d917 	ldw	r2,-25756(gp)
 5094ea0:	100170fa 	wrctl	ienable,r2
 5094ea4:	e0bffc17 	ldw	r2,-16(fp)
 5094ea8:	e0bffd15 	stw	r2,-12(fp)
 5094eac:	e0bffd17 	ldw	r2,-12(fp)
 5094eb0:	1001703a 	wrctl	status,r2
 5094eb4:	0005883a 	mov	r2,zero
 5094eb8:	0001883a 	nop
 5094ebc:	e037883a 	mov	sp,fp
 5094ec0:	df000017 	ldw	fp,0(sp)
 5094ec4:	dec00104 	addi	sp,sp,4
 5094ec8:	f800283a 	ret

05094ecc <alt_ic_irq_enabled>:
 5094ecc:	defffc04 	addi	sp,sp,-16
 5094ed0:	df000315 	stw	fp,12(sp)
 5094ed4:	df000304 	addi	fp,sp,12
 5094ed8:	e13ffe15 	stw	r4,-8(fp)
 5094edc:	e17fff15 	stw	r5,-4(fp)
 5094ee0:	000530fa 	rdctl	r2,ienable
 5094ee4:	e0bffd15 	stw	r2,-12(fp)
 5094ee8:	00c00044 	movi	r3,1
 5094eec:	e0bfff17 	ldw	r2,-4(fp)
 5094ef0:	1884983a 	sll	r2,r3,r2
 5094ef4:	1007883a 	mov	r3,r2
 5094ef8:	e0bffd17 	ldw	r2,-12(fp)
 5094efc:	1884703a 	and	r2,r3,r2
 5094f00:	1004c03a 	cmpne	r2,r2,zero
 5094f04:	10803fcc 	andi	r2,r2,255
 5094f08:	e037883a 	mov	sp,fp
 5094f0c:	df000017 	ldw	fp,0(sp)
 5094f10:	dec00104 	addi	sp,sp,4
 5094f14:	f800283a 	ret

05094f18 <alt_iic_isr_register>:
 5094f18:	defff504 	addi	sp,sp,-44
 5094f1c:	dfc00a15 	stw	ra,40(sp)
 5094f20:	df000915 	stw	fp,36(sp)
 5094f24:	df000904 	addi	fp,sp,36
 5094f28:	e13ffc15 	stw	r4,-16(fp)
 5094f2c:	e17ffd15 	stw	r5,-12(fp)
 5094f30:	e1bffe15 	stw	r6,-8(fp)
 5094f34:	e1ffff15 	stw	r7,-4(fp)
 5094f38:	00bffa84 	movi	r2,-22
 5094f3c:	e0bff715 	stw	r2,-36(fp)
 5094f40:	e0bffd17 	ldw	r2,-12(fp)
 5094f44:	e0bff815 	stw	r2,-32(fp)
 5094f48:	e0bff817 	ldw	r2,-32(fp)
 5094f4c:	10800808 	cmpgei	r2,r2,32
 5094f50:	1000271e 	bne	r2,zero,5094ff0 <alt_iic_isr_register+0xd8>
 5094f54:	0005303a 	rdctl	r2,status
 5094f58:	e0bffb15 	stw	r2,-20(fp)
 5094f5c:	e0fffb17 	ldw	r3,-20(fp)
 5094f60:	00bfff84 	movi	r2,-2
 5094f64:	1884703a 	and	r2,r3,r2
 5094f68:	1001703a 	wrctl	status,r2
 5094f6c:	e0bffb17 	ldw	r2,-20(fp)
 5094f70:	e0bffa15 	stw	r2,-24(fp)
 5094f74:	008142b4 	movhi	r2,1290
 5094f78:	10a86704 	addi	r2,r2,-24164
 5094f7c:	e0fff817 	ldw	r3,-32(fp)
 5094f80:	180690fa 	slli	r3,r3,3
 5094f84:	10c5883a 	add	r2,r2,r3
 5094f88:	e0fffe17 	ldw	r3,-8(fp)
 5094f8c:	10c00015 	stw	r3,0(r2)
 5094f90:	008142b4 	movhi	r2,1290
 5094f94:	10a86704 	addi	r2,r2,-24164
 5094f98:	e0fff817 	ldw	r3,-32(fp)
 5094f9c:	180690fa 	slli	r3,r3,3
 5094fa0:	10c5883a 	add	r2,r2,r3
 5094fa4:	10800104 	addi	r2,r2,4
 5094fa8:	e0ffff17 	ldw	r3,-4(fp)
 5094fac:	10c00015 	stw	r3,0(r2)
 5094fb0:	e0bffe17 	ldw	r2,-8(fp)
 5094fb4:	10000526 	beq	r2,zero,5094fcc <alt_iic_isr_register+0xb4>
 5094fb8:	e0bff817 	ldw	r2,-32(fp)
 5094fbc:	100b883a 	mov	r5,r2
 5094fc0:	e13ffc17 	ldw	r4,-16(fp)
 5094fc4:	5094db80 	call	5094db8 <alt_ic_irq_enable>
 5094fc8:	00000406 	br	5094fdc <alt_iic_isr_register+0xc4>
 5094fcc:	e0bff817 	ldw	r2,-32(fp)
 5094fd0:	100b883a 	mov	r5,r2
 5094fd4:	e13ffc17 	ldw	r4,-16(fp)
 5094fd8:	5094e400 	call	5094e40 <alt_ic_irq_disable>
 5094fdc:	e0bff715 	stw	r2,-36(fp)
 5094fe0:	e0bffa17 	ldw	r2,-24(fp)
 5094fe4:	e0bff915 	stw	r2,-28(fp)
 5094fe8:	e0bff917 	ldw	r2,-28(fp)
 5094fec:	1001703a 	wrctl	status,r2
 5094ff0:	e0bff717 	ldw	r2,-36(fp)
 5094ff4:	e037883a 	mov	sp,fp
 5094ff8:	dfc00117 	ldw	ra,4(sp)
 5094ffc:	df000017 	ldw	fp,0(sp)
 5095000:	dec00204 	addi	sp,sp,8
 5095004:	f800283a 	ret

05095008 <alt_open_fd>:
 5095008:	defff904 	addi	sp,sp,-28
 509500c:	dfc00615 	stw	ra,24(sp)
 5095010:	df000515 	stw	fp,20(sp)
 5095014:	df000504 	addi	fp,sp,20
 5095018:	e13ffc15 	stw	r4,-16(fp)
 509501c:	e17ffd15 	stw	r5,-12(fp)
 5095020:	e1bffe15 	stw	r6,-8(fp)
 5095024:	e1ffff15 	stw	r7,-4(fp)
 5095028:	e1bfff17 	ldw	r6,-4(fp)
 509502c:	e17ffe17 	ldw	r5,-8(fp)
 5095030:	e13ffd17 	ldw	r4,-12(fp)
 5095034:	50952480 	call	5095248 <open>
 5095038:	e0bffb15 	stw	r2,-20(fp)
 509503c:	e0bffb17 	ldw	r2,-20(fp)
 5095040:	10001c16 	blt	r2,zero,50950b4 <alt_open_fd+0xac>
 5095044:	00814274 	movhi	r2,1289
 5095048:	109cfb04 	addi	r2,r2,29676
 509504c:	e0fffb17 	ldw	r3,-20(fp)
 5095050:	18c00324 	muli	r3,r3,12
 5095054:	10c5883a 	add	r2,r2,r3
 5095058:	10c00017 	ldw	r3,0(r2)
 509505c:	e0bffc17 	ldw	r2,-16(fp)
 5095060:	10c00015 	stw	r3,0(r2)
 5095064:	00814274 	movhi	r2,1289
 5095068:	109cfb04 	addi	r2,r2,29676
 509506c:	e0fffb17 	ldw	r3,-20(fp)
 5095070:	18c00324 	muli	r3,r3,12
 5095074:	10c5883a 	add	r2,r2,r3
 5095078:	10800104 	addi	r2,r2,4
 509507c:	10c00017 	ldw	r3,0(r2)
 5095080:	e0bffc17 	ldw	r2,-16(fp)
 5095084:	10c00115 	stw	r3,4(r2)
 5095088:	00814274 	movhi	r2,1289
 509508c:	109cfb04 	addi	r2,r2,29676
 5095090:	e0fffb17 	ldw	r3,-20(fp)
 5095094:	18c00324 	muli	r3,r3,12
 5095098:	10c5883a 	add	r2,r2,r3
 509509c:	10800204 	addi	r2,r2,8
 50950a0:	10c00017 	ldw	r3,0(r2)
 50950a4:	e0bffc17 	ldw	r2,-16(fp)
 50950a8:	10c00215 	stw	r3,8(r2)
 50950ac:	e13ffb17 	ldw	r4,-20(fp)
 50950b0:	5093a240 	call	5093a24 <alt_release_fd>
 50950b4:	0001883a 	nop
 50950b8:	e037883a 	mov	sp,fp
 50950bc:	dfc00117 	ldw	ra,4(sp)
 50950c0:	df000017 	ldw	fp,0(sp)
 50950c4:	dec00204 	addi	sp,sp,8
 50950c8:	f800283a 	ret

050950cc <alt_io_redirect>:
 50950cc:	defffb04 	addi	sp,sp,-20
 50950d0:	dfc00415 	stw	ra,16(sp)
 50950d4:	df000315 	stw	fp,12(sp)
 50950d8:	df000304 	addi	fp,sp,12
 50950dc:	e13ffd15 	stw	r4,-12(fp)
 50950e0:	e17ffe15 	stw	r5,-8(fp)
 50950e4:	e1bfff15 	stw	r6,-4(fp)
 50950e8:	01c07fc4 	movi	r7,511
 50950ec:	01800044 	movi	r6,1
 50950f0:	e17ffd17 	ldw	r5,-12(fp)
 50950f4:	01014274 	movhi	r4,1289
 50950f8:	211cfe04 	addi	r4,r4,29688
 50950fc:	50950080 	call	5095008 <alt_open_fd>
 5095100:	01c07fc4 	movi	r7,511
 5095104:	000d883a 	mov	r6,zero
 5095108:	e17ffe17 	ldw	r5,-8(fp)
 509510c:	01014274 	movhi	r4,1289
 5095110:	211cfb04 	addi	r4,r4,29676
 5095114:	50950080 	call	5095008 <alt_open_fd>
 5095118:	01c07fc4 	movi	r7,511
 509511c:	01800044 	movi	r6,1
 5095120:	e17fff17 	ldw	r5,-4(fp)
 5095124:	01014274 	movhi	r4,1289
 5095128:	211d0104 	addi	r4,r4,29700
 509512c:	50950080 	call	5095008 <alt_open_fd>
 5095130:	0001883a 	nop
 5095134:	e037883a 	mov	sp,fp
 5095138:	dfc00117 	ldw	ra,4(sp)
 509513c:	df000017 	ldw	fp,0(sp)
 5095140:	dec00204 	addi	sp,sp,8
 5095144:	f800283a 	ret

05095148 <alt_get_errno>:
 5095148:	defffe04 	addi	sp,sp,-8
 509514c:	dfc00115 	stw	ra,4(sp)
 5095150:	df000015 	stw	fp,0(sp)
 5095154:	d839883a 	mov	fp,sp
 5095158:	d0a00b17 	ldw	r2,-32724(gp)
 509515c:	10000326 	beq	r2,zero,509516c <alt_get_errno+0x24>
 5095160:	d0a00b17 	ldw	r2,-32724(gp)
 5095164:	103ee83a 	callr	r2
 5095168:	00000106 	br	5095170 <alt_get_errno+0x28>
 509516c:	d0a6d804 	addi	r2,gp,-25760
 5095170:	e037883a 	mov	sp,fp
 5095174:	dfc00117 	ldw	ra,4(sp)
 5095178:	df000017 	ldw	fp,0(sp)
 509517c:	dec00204 	addi	sp,sp,8
 5095180:	f800283a 	ret

05095184 <alt_file_locked>:
 5095184:	defffd04 	addi	sp,sp,-12
 5095188:	df000215 	stw	fp,8(sp)
 509518c:	df000204 	addi	fp,sp,8
 5095190:	e13fff15 	stw	r4,-4(fp)
 5095194:	e0bfff17 	ldw	r2,-4(fp)
 5095198:	10800217 	ldw	r2,8(r2)
 509519c:	10d00034 	orhi	r3,r2,16384
 50951a0:	e0bfff17 	ldw	r2,-4(fp)
 50951a4:	10c00215 	stw	r3,8(r2)
 50951a8:	e03ffe15 	stw	zero,-8(fp)
 50951ac:	00001d06 	br	5095224 <alt_file_locked+0xa0>
 50951b0:	00814274 	movhi	r2,1289
 50951b4:	109cfb04 	addi	r2,r2,29676
 50951b8:	e0fffe17 	ldw	r3,-8(fp)
 50951bc:	18c00324 	muli	r3,r3,12
 50951c0:	10c5883a 	add	r2,r2,r3
 50951c4:	10c00017 	ldw	r3,0(r2)
 50951c8:	e0bfff17 	ldw	r2,-4(fp)
 50951cc:	10800017 	ldw	r2,0(r2)
 50951d0:	1880111e 	bne	r3,r2,5095218 <alt_file_locked+0x94>
 50951d4:	00814274 	movhi	r2,1289
 50951d8:	109cfb04 	addi	r2,r2,29676
 50951dc:	e0fffe17 	ldw	r3,-8(fp)
 50951e0:	18c00324 	muli	r3,r3,12
 50951e4:	10c5883a 	add	r2,r2,r3
 50951e8:	10800204 	addi	r2,r2,8
 50951ec:	10800017 	ldw	r2,0(r2)
 50951f0:	1000090e 	bge	r2,zero,5095218 <alt_file_locked+0x94>
 50951f4:	e0bffe17 	ldw	r2,-8(fp)
 50951f8:	10c00324 	muli	r3,r2,12
 50951fc:	00814274 	movhi	r2,1289
 5095200:	109cfb04 	addi	r2,r2,29676
 5095204:	1887883a 	add	r3,r3,r2
 5095208:	e0bfff17 	ldw	r2,-4(fp)
 509520c:	18800226 	beq	r3,r2,5095218 <alt_file_locked+0x94>
 5095210:	00bffcc4 	movi	r2,-13
 5095214:	00000806 	br	5095238 <alt_file_locked+0xb4>
 5095218:	e0bffe17 	ldw	r2,-8(fp)
 509521c:	10800044 	addi	r2,r2,1
 5095220:	e0bffe15 	stw	r2,-8(fp)
 5095224:	d0a00a17 	ldw	r2,-32728(gp)
 5095228:	1007883a 	mov	r3,r2
 509522c:	e0bffe17 	ldw	r2,-8(fp)
 5095230:	18bfdf2e 	bgeu	r3,r2,50951b0 <alt_file_locked+0x2c>
 5095234:	0005883a 	mov	r2,zero
 5095238:	e037883a 	mov	sp,fp
 509523c:	df000017 	ldw	fp,0(sp)
 5095240:	dec00104 	addi	sp,sp,4
 5095244:	f800283a 	ret

05095248 <open>:
 5095248:	defff604 	addi	sp,sp,-40
 509524c:	dfc00915 	stw	ra,36(sp)
 5095250:	df000815 	stw	fp,32(sp)
 5095254:	df000804 	addi	fp,sp,32
 5095258:	e13ffd15 	stw	r4,-12(fp)
 509525c:	e17ffe15 	stw	r5,-8(fp)
 5095260:	e1bfff15 	stw	r6,-4(fp)
 5095264:	00bfffc4 	movi	r2,-1
 5095268:	e0bff915 	stw	r2,-28(fp)
 509526c:	00bffb44 	movi	r2,-19
 5095270:	e0bffa15 	stw	r2,-24(fp)
 5095274:	e03ffb15 	stw	zero,-20(fp)
 5095278:	d1600804 	addi	r5,gp,-32736
 509527c:	e13ffd17 	ldw	r4,-12(fp)
 5095280:	50955640 	call	5095564 <alt_find_dev>
 5095284:	e0bff815 	stw	r2,-32(fp)
 5095288:	e0bff817 	ldw	r2,-32(fp)
 509528c:	1000051e 	bne	r2,zero,50952a4 <open+0x5c>
 5095290:	e13ffd17 	ldw	r4,-12(fp)
 5095294:	50955f40 	call	50955f4 <alt_find_file>
 5095298:	e0bff815 	stw	r2,-32(fp)
 509529c:	00800044 	movi	r2,1
 50952a0:	e0bffb15 	stw	r2,-20(fp)
 50952a4:	e0bff817 	ldw	r2,-32(fp)
 50952a8:	10002926 	beq	r2,zero,5095350 <open+0x108>
 50952ac:	e13ff817 	ldw	r4,-32(fp)
 50952b0:	50956fc0 	call	50956fc <alt_get_fd>
 50952b4:	e0bff915 	stw	r2,-28(fp)
 50952b8:	e0bff917 	ldw	r2,-28(fp)
 50952bc:	1000030e 	bge	r2,zero,50952cc <open+0x84>
 50952c0:	e0bff917 	ldw	r2,-28(fp)
 50952c4:	e0bffa15 	stw	r2,-24(fp)
 50952c8:	00002306 	br	5095358 <open+0x110>
 50952cc:	e0bff917 	ldw	r2,-28(fp)
 50952d0:	10c00324 	muli	r3,r2,12
 50952d4:	00814274 	movhi	r2,1289
 50952d8:	109cfb04 	addi	r2,r2,29676
 50952dc:	1885883a 	add	r2,r3,r2
 50952e0:	e0bffc15 	stw	r2,-16(fp)
 50952e4:	e0fffe17 	ldw	r3,-8(fp)
 50952e8:	00900034 	movhi	r2,16384
 50952ec:	10bfffc4 	addi	r2,r2,-1
 50952f0:	1886703a 	and	r3,r3,r2
 50952f4:	e0bffc17 	ldw	r2,-16(fp)
 50952f8:	10c00215 	stw	r3,8(r2)
 50952fc:	e0bffb17 	ldw	r2,-20(fp)
 5095300:	1000051e 	bne	r2,zero,5095318 <open+0xd0>
 5095304:	e13ffc17 	ldw	r4,-16(fp)
 5095308:	50951840 	call	5095184 <alt_file_locked>
 509530c:	e0bffa15 	stw	r2,-24(fp)
 5095310:	e0bffa17 	ldw	r2,-24(fp)
 5095314:	10001016 	blt	r2,zero,5095358 <open+0x110>
 5095318:	e0bff817 	ldw	r2,-32(fp)
 509531c:	10800317 	ldw	r2,12(r2)
 5095320:	10000826 	beq	r2,zero,5095344 <open+0xfc>
 5095324:	e0bff817 	ldw	r2,-32(fp)
 5095328:	10800317 	ldw	r2,12(r2)
 509532c:	e1ffff17 	ldw	r7,-4(fp)
 5095330:	e1bffe17 	ldw	r6,-8(fp)
 5095334:	e17ffd17 	ldw	r5,-12(fp)
 5095338:	e13ffc17 	ldw	r4,-16(fp)
 509533c:	103ee83a 	callr	r2
 5095340:	00000106 	br	5095348 <open+0x100>
 5095344:	0005883a 	mov	r2,zero
 5095348:	e0bffa15 	stw	r2,-24(fp)
 509534c:	00000206 	br	5095358 <open+0x110>
 5095350:	00bffb44 	movi	r2,-19
 5095354:	e0bffa15 	stw	r2,-24(fp)
 5095358:	e0bffa17 	ldw	r2,-24(fp)
 509535c:	1000090e 	bge	r2,zero,5095384 <open+0x13c>
 5095360:	e13ff917 	ldw	r4,-28(fp)
 5095364:	5093a240 	call	5093a24 <alt_release_fd>
 5095368:	50951480 	call	5095148 <alt_get_errno>
 509536c:	1007883a 	mov	r3,r2
 5095370:	e0bffa17 	ldw	r2,-24(fp)
 5095374:	0085c83a 	sub	r2,zero,r2
 5095378:	18800015 	stw	r2,0(r3)
 509537c:	00bfffc4 	movi	r2,-1
 5095380:	00000106 	br	5095388 <open+0x140>
 5095384:	e0bff917 	ldw	r2,-28(fp)
 5095388:	e037883a 	mov	sp,fp
 509538c:	dfc00117 	ldw	ra,4(sp)
 5095390:	df000017 	ldw	fp,0(sp)
 5095394:	dec00204 	addi	sp,sp,8
 5095398:	f800283a 	ret

0509539c <alt_alarm_stop>:
 509539c:	defffa04 	addi	sp,sp,-24
 50953a0:	df000515 	stw	fp,20(sp)
 50953a4:	df000504 	addi	fp,sp,20
 50953a8:	e13fff15 	stw	r4,-4(fp)
 50953ac:	0005303a 	rdctl	r2,status
 50953b0:	e0bffc15 	stw	r2,-16(fp)
 50953b4:	e0fffc17 	ldw	r3,-16(fp)
 50953b8:	00bfff84 	movi	r2,-2
 50953bc:	1884703a 	and	r2,r3,r2
 50953c0:	1001703a 	wrctl	status,r2
 50953c4:	e0bffc17 	ldw	r2,-16(fp)
 50953c8:	e0bffb15 	stw	r2,-20(fp)
 50953cc:	e0bfff17 	ldw	r2,-4(fp)
 50953d0:	e0bffd15 	stw	r2,-12(fp)
 50953d4:	e0bffd17 	ldw	r2,-12(fp)
 50953d8:	10800017 	ldw	r2,0(r2)
 50953dc:	e0fffd17 	ldw	r3,-12(fp)
 50953e0:	18c00117 	ldw	r3,4(r3)
 50953e4:	10c00115 	stw	r3,4(r2)
 50953e8:	e0bffd17 	ldw	r2,-12(fp)
 50953ec:	10800117 	ldw	r2,4(r2)
 50953f0:	e0fffd17 	ldw	r3,-12(fp)
 50953f4:	18c00017 	ldw	r3,0(r3)
 50953f8:	10c00015 	stw	r3,0(r2)
 50953fc:	e0bffd17 	ldw	r2,-12(fp)
 5095400:	e0fffd17 	ldw	r3,-12(fp)
 5095404:	10c00115 	stw	r3,4(r2)
 5095408:	e0bffd17 	ldw	r2,-12(fp)
 509540c:	e0fffd17 	ldw	r3,-12(fp)
 5095410:	10c00015 	stw	r3,0(r2)
 5095414:	e0bffb17 	ldw	r2,-20(fp)
 5095418:	e0bffe15 	stw	r2,-8(fp)
 509541c:	e0bffe17 	ldw	r2,-8(fp)
 5095420:	1001703a 	wrctl	status,r2
 5095424:	0001883a 	nop
 5095428:	e037883a 	mov	sp,fp
 509542c:	df000017 	ldw	fp,0(sp)
 5095430:	dec00104 	addi	sp,sp,4
 5095434:	f800283a 	ret

05095438 <alt_tick>:
 5095438:	defffb04 	addi	sp,sp,-20
 509543c:	dfc00415 	stw	ra,16(sp)
 5095440:	df000315 	stw	fp,12(sp)
 5095444:	df000304 	addi	fp,sp,12
 5095448:	d0a00e17 	ldw	r2,-32712(gp)
 509544c:	e0bffd15 	stw	r2,-12(fp)
 5095450:	d0a6de17 	ldw	r2,-25736(gp)
 5095454:	10800044 	addi	r2,r2,1
 5095458:	d0a6de15 	stw	r2,-25736(gp)
 509545c:	00002e06 	br	5095518 <alt_tick+0xe0>
 5095460:	e0bffd17 	ldw	r2,-12(fp)
 5095464:	10800017 	ldw	r2,0(r2)
 5095468:	e0bffe15 	stw	r2,-8(fp)
 509546c:	e0bffd17 	ldw	r2,-12(fp)
 5095470:	10800403 	ldbu	r2,16(r2)
 5095474:	10803fcc 	andi	r2,r2,255
 5095478:	10000426 	beq	r2,zero,509548c <alt_tick+0x54>
 509547c:	d0a6de17 	ldw	r2,-25736(gp)
 5095480:	1000021e 	bne	r2,zero,509548c <alt_tick+0x54>
 5095484:	e0bffd17 	ldw	r2,-12(fp)
 5095488:	10000405 	stb	zero,16(r2)
 509548c:	e0bffd17 	ldw	r2,-12(fp)
 5095490:	10800217 	ldw	r2,8(r2)
 5095494:	d0e6de17 	ldw	r3,-25736(gp)
 5095498:	18801d36 	bltu	r3,r2,5095510 <alt_tick+0xd8>
 509549c:	e0bffd17 	ldw	r2,-12(fp)
 50954a0:	10800403 	ldbu	r2,16(r2)
 50954a4:	10803fcc 	andi	r2,r2,255
 50954a8:	1000191e 	bne	r2,zero,5095510 <alt_tick+0xd8>
 50954ac:	e0bffd17 	ldw	r2,-12(fp)
 50954b0:	10800317 	ldw	r2,12(r2)
 50954b4:	e0fffd17 	ldw	r3,-12(fp)
 50954b8:	18c00517 	ldw	r3,20(r3)
 50954bc:	1809883a 	mov	r4,r3
 50954c0:	103ee83a 	callr	r2
 50954c4:	e0bfff15 	stw	r2,-4(fp)
 50954c8:	e0bfff17 	ldw	r2,-4(fp)
 50954cc:	1000031e 	bne	r2,zero,50954dc <alt_tick+0xa4>
 50954d0:	e13ffd17 	ldw	r4,-12(fp)
 50954d4:	509539c0 	call	509539c <alt_alarm_stop>
 50954d8:	00000d06 	br	5095510 <alt_tick+0xd8>
 50954dc:	e0bffd17 	ldw	r2,-12(fp)
 50954e0:	10c00217 	ldw	r3,8(r2)
 50954e4:	e0bfff17 	ldw	r2,-4(fp)
 50954e8:	1887883a 	add	r3,r3,r2
 50954ec:	e0bffd17 	ldw	r2,-12(fp)
 50954f0:	10c00215 	stw	r3,8(r2)
 50954f4:	e0bffd17 	ldw	r2,-12(fp)
 50954f8:	10c00217 	ldw	r3,8(r2)
 50954fc:	d0a6de17 	ldw	r2,-25736(gp)
 5095500:	1880032e 	bgeu	r3,r2,5095510 <alt_tick+0xd8>
 5095504:	e0bffd17 	ldw	r2,-12(fp)
 5095508:	00c00044 	movi	r3,1
 509550c:	10c00405 	stb	r3,16(r2)
 5095510:	e0bffe17 	ldw	r2,-8(fp)
 5095514:	e0bffd15 	stw	r2,-12(fp)
 5095518:	e0fffd17 	ldw	r3,-12(fp)
 509551c:	d0a00e04 	addi	r2,gp,-32712
 5095520:	18bfcf1e 	bne	r3,r2,5095460 <alt_tick+0x28>
 5095524:	0001883a 	nop
 5095528:	0001883a 	nop
 509552c:	e037883a 	mov	sp,fp
 5095530:	dfc00117 	ldw	ra,4(sp)
 5095534:	df000017 	ldw	fp,0(sp)
 5095538:	dec00204 	addi	sp,sp,8
 509553c:	f800283a 	ret

05095540 <altera_nios2_gen2_irq_init>:
 5095540:	deffff04 	addi	sp,sp,-4
 5095544:	df000015 	stw	fp,0(sp)
 5095548:	d839883a 	mov	fp,sp
 509554c:	000170fa 	wrctl	ienable,zero
 5095550:	0001883a 	nop
 5095554:	e037883a 	mov	sp,fp
 5095558:	df000017 	ldw	fp,0(sp)
 509555c:	dec00104 	addi	sp,sp,4
 5095560:	f800283a 	ret

05095564 <alt_find_dev>:
 5095564:	defffa04 	addi	sp,sp,-24
 5095568:	dfc00515 	stw	ra,20(sp)
 509556c:	df000415 	stw	fp,16(sp)
 5095570:	df000404 	addi	fp,sp,16
 5095574:	e13ffe15 	stw	r4,-8(fp)
 5095578:	e17fff15 	stw	r5,-4(fp)
 509557c:	e0bfff17 	ldw	r2,-4(fp)
 5095580:	10800017 	ldw	r2,0(r2)
 5095584:	e0bffc15 	stw	r2,-16(fp)
 5095588:	e13ffe17 	ldw	r4,-8(fp)
 509558c:	508520c0 	call	508520c <strlen>
 5095590:	10800044 	addi	r2,r2,1
 5095594:	e0bffd15 	stw	r2,-12(fp)
 5095598:	00000d06 	br	50955d0 <alt_find_dev+0x6c>
 509559c:	e0bffc17 	ldw	r2,-16(fp)
 50955a0:	10800217 	ldw	r2,8(r2)
 50955a4:	e0fffd17 	ldw	r3,-12(fp)
 50955a8:	180d883a 	mov	r6,r3
 50955ac:	e17ffe17 	ldw	r5,-8(fp)
 50955b0:	1009883a 	mov	r4,r2
 50955b4:	50959180 	call	5095918 <memcmp>
 50955b8:	1000021e 	bne	r2,zero,50955c4 <alt_find_dev+0x60>
 50955bc:	e0bffc17 	ldw	r2,-16(fp)
 50955c0:	00000706 	br	50955e0 <alt_find_dev+0x7c>
 50955c4:	e0bffc17 	ldw	r2,-16(fp)
 50955c8:	10800017 	ldw	r2,0(r2)
 50955cc:	e0bffc15 	stw	r2,-16(fp)
 50955d0:	e0fffc17 	ldw	r3,-16(fp)
 50955d4:	e0bfff17 	ldw	r2,-4(fp)
 50955d8:	18bff01e 	bne	r3,r2,509559c <alt_find_dev+0x38>
 50955dc:	0005883a 	mov	r2,zero
 50955e0:	e037883a 	mov	sp,fp
 50955e4:	dfc00117 	ldw	ra,4(sp)
 50955e8:	df000017 	ldw	fp,0(sp)
 50955ec:	dec00204 	addi	sp,sp,8
 50955f0:	f800283a 	ret

050955f4 <alt_find_file>:
 50955f4:	defffb04 	addi	sp,sp,-20
 50955f8:	dfc00415 	stw	ra,16(sp)
 50955fc:	df000315 	stw	fp,12(sp)
 5095600:	df000304 	addi	fp,sp,12
 5095604:	e13fff15 	stw	r4,-4(fp)
 5095608:	d0a00617 	ldw	r2,-32744(gp)
 509560c:	e0bffd15 	stw	r2,-12(fp)
 5095610:	00003106 	br	50956d8 <alt_find_file+0xe4>
 5095614:	e0bffd17 	ldw	r2,-12(fp)
 5095618:	10800217 	ldw	r2,8(r2)
 509561c:	1009883a 	mov	r4,r2
 5095620:	508520c0 	call	508520c <strlen>
 5095624:	e0bffe15 	stw	r2,-8(fp)
 5095628:	e0bffd17 	ldw	r2,-12(fp)
 509562c:	10c00217 	ldw	r3,8(r2)
 5095630:	e0bffe17 	ldw	r2,-8(fp)
 5095634:	10bfffc4 	addi	r2,r2,-1
 5095638:	1885883a 	add	r2,r3,r2
 509563c:	10800003 	ldbu	r2,0(r2)
 5095640:	10803fcc 	andi	r2,r2,255
 5095644:	1080201c 	xori	r2,r2,128
 5095648:	10bfe004 	addi	r2,r2,-128
 509564c:	10800bd8 	cmpnei	r2,r2,47
 5095650:	1000031e 	bne	r2,zero,5095660 <alt_find_file+0x6c>
 5095654:	e0bffe17 	ldw	r2,-8(fp)
 5095658:	10bfffc4 	addi	r2,r2,-1
 509565c:	e0bffe15 	stw	r2,-8(fp)
 5095660:	e0bffe17 	ldw	r2,-8(fp)
 5095664:	e0ffff17 	ldw	r3,-4(fp)
 5095668:	1885883a 	add	r2,r3,r2
 509566c:	10800003 	ldbu	r2,0(r2)
 5095670:	10803fcc 	andi	r2,r2,255
 5095674:	1080201c 	xori	r2,r2,128
 5095678:	10bfe004 	addi	r2,r2,-128
 509567c:	10800be0 	cmpeqi	r2,r2,47
 5095680:	1000081e 	bne	r2,zero,50956a4 <alt_find_file+0xb0>
 5095684:	e0bffe17 	ldw	r2,-8(fp)
 5095688:	e0ffff17 	ldw	r3,-4(fp)
 509568c:	1885883a 	add	r2,r3,r2
 5095690:	10800003 	ldbu	r2,0(r2)
 5095694:	10803fcc 	andi	r2,r2,255
 5095698:	1080201c 	xori	r2,r2,128
 509569c:	10bfe004 	addi	r2,r2,-128
 50956a0:	10000a1e 	bne	r2,zero,50956cc <alt_find_file+0xd8>
 50956a4:	e0bffd17 	ldw	r2,-12(fp)
 50956a8:	10800217 	ldw	r2,8(r2)
 50956ac:	e0fffe17 	ldw	r3,-8(fp)
 50956b0:	180d883a 	mov	r6,r3
 50956b4:	e17fff17 	ldw	r5,-4(fp)
 50956b8:	1009883a 	mov	r4,r2
 50956bc:	50959180 	call	5095918 <memcmp>
 50956c0:	1000021e 	bne	r2,zero,50956cc <alt_find_file+0xd8>
 50956c4:	e0bffd17 	ldw	r2,-12(fp)
 50956c8:	00000706 	br	50956e8 <alt_find_file+0xf4>
 50956cc:	e0bffd17 	ldw	r2,-12(fp)
 50956d0:	10800017 	ldw	r2,0(r2)
 50956d4:	e0bffd15 	stw	r2,-12(fp)
 50956d8:	e0fffd17 	ldw	r3,-12(fp)
 50956dc:	d0a00604 	addi	r2,gp,-32744
 50956e0:	18bfcc1e 	bne	r3,r2,5095614 <alt_find_file+0x20>
 50956e4:	0005883a 	mov	r2,zero
 50956e8:	e037883a 	mov	sp,fp
 50956ec:	dfc00117 	ldw	ra,4(sp)
 50956f0:	df000017 	ldw	fp,0(sp)
 50956f4:	dec00204 	addi	sp,sp,8
 50956f8:	f800283a 	ret

050956fc <alt_get_fd>:
 50956fc:	defffc04 	addi	sp,sp,-16
 5095700:	df000315 	stw	fp,12(sp)
 5095704:	df000304 	addi	fp,sp,12
 5095708:	e13fff15 	stw	r4,-4(fp)
 509570c:	00bffa04 	movi	r2,-24
 5095710:	e0bffe15 	stw	r2,-8(fp)
 5095714:	e03ffd15 	stw	zero,-12(fp)
 5095718:	00001906 	br	5095780 <alt_get_fd+0x84>
 509571c:	00814274 	movhi	r2,1289
 5095720:	109cfb04 	addi	r2,r2,29676
 5095724:	e0fffd17 	ldw	r3,-12(fp)
 5095728:	18c00324 	muli	r3,r3,12
 509572c:	10c5883a 	add	r2,r2,r3
 5095730:	10800017 	ldw	r2,0(r2)
 5095734:	10000f1e 	bne	r2,zero,5095774 <alt_get_fd+0x78>
 5095738:	00814274 	movhi	r2,1289
 509573c:	109cfb04 	addi	r2,r2,29676
 5095740:	e0fffd17 	ldw	r3,-12(fp)
 5095744:	18c00324 	muli	r3,r3,12
 5095748:	10c5883a 	add	r2,r2,r3
 509574c:	e0ffff17 	ldw	r3,-4(fp)
 5095750:	10c00015 	stw	r3,0(r2)
 5095754:	d0e00a17 	ldw	r3,-32728(gp)
 5095758:	e0bffd17 	ldw	r2,-12(fp)
 509575c:	1880020e 	bge	r3,r2,5095768 <alt_get_fd+0x6c>
 5095760:	e0bffd17 	ldw	r2,-12(fp)
 5095764:	d0a00a15 	stw	r2,-32728(gp)
 5095768:	e0bffd17 	ldw	r2,-12(fp)
 509576c:	e0bffe15 	stw	r2,-8(fp)
 5095770:	00000606 	br	509578c <alt_get_fd+0x90>
 5095774:	e0bffd17 	ldw	r2,-12(fp)
 5095778:	10800044 	addi	r2,r2,1
 509577c:	e0bffd15 	stw	r2,-12(fp)
 5095780:	e0bffd17 	ldw	r2,-12(fp)
 5095784:	10800810 	cmplti	r2,r2,32
 5095788:	103fe41e 	bne	r2,zero,509571c <alt_get_fd+0x20>
 509578c:	e0bffe17 	ldw	r2,-8(fp)
 5095790:	e037883a 	mov	sp,fp
 5095794:	df000017 	ldw	fp,0(sp)
 5095798:	dec00104 	addi	sp,sp,4
 509579c:	f800283a 	ret

050957a0 <alt_icache_flush>:
 50957a0:	defffb04 	addi	sp,sp,-20
 50957a4:	df000415 	stw	fp,16(sp)
 50957a8:	df000404 	addi	fp,sp,16
 50957ac:	e13ffe15 	stw	r4,-8(fp)
 50957b0:	e17fff15 	stw	r5,-4(fp)
 50957b4:	e0bfff17 	ldw	r2,-4(fp)
 50957b8:	10840070 	cmpltui	r2,r2,4097
 50957bc:	1000021e 	bne	r2,zero,50957c8 <alt_icache_flush+0x28>
 50957c0:	00840004 	movi	r2,4096
 50957c4:	e0bfff15 	stw	r2,-4(fp)
 50957c8:	e0fffe17 	ldw	r3,-8(fp)
 50957cc:	e0bfff17 	ldw	r2,-4(fp)
 50957d0:	1885883a 	add	r2,r3,r2
 50957d4:	e0bffd15 	stw	r2,-12(fp)
 50957d8:	e0bffe17 	ldw	r2,-8(fp)
 50957dc:	e0bffc15 	stw	r2,-16(fp)
 50957e0:	00000506 	br	50957f8 <alt_icache_flush+0x58>
 50957e4:	e0bffc17 	ldw	r2,-16(fp)
 50957e8:	1000603a 	flushi	r2
 50957ec:	e0bffc17 	ldw	r2,-16(fp)
 50957f0:	10800804 	addi	r2,r2,32
 50957f4:	e0bffc15 	stw	r2,-16(fp)
 50957f8:	e0fffc17 	ldw	r3,-16(fp)
 50957fc:	e0bffd17 	ldw	r2,-12(fp)
 5095800:	18bff836 	bltu	r3,r2,50957e4 <alt_icache_flush+0x44>
 5095804:	e0bffe17 	ldw	r2,-8(fp)
 5095808:	108007cc 	andi	r2,r2,31
 509580c:	10000226 	beq	r2,zero,5095818 <alt_icache_flush+0x78>
 5095810:	e0bffc17 	ldw	r2,-16(fp)
 5095814:	1000603a 	flushi	r2
 5095818:	0000203a 	flushp
 509581c:	0001883a 	nop
 5095820:	e037883a 	mov	sp,fp
 5095824:	df000017 	ldw	fp,0(sp)
 5095828:	dec00104 	addi	sp,sp,4
 509582c:	f800283a 	ret

05095830 <alt_exception_cause_generated_bad_addr>:
 5095830:	defffe04 	addi	sp,sp,-8
 5095834:	df000115 	stw	fp,4(sp)
 5095838:	df000104 	addi	fp,sp,4
 509583c:	e13fff15 	stw	r4,-4(fp)
 5095840:	e0bfff17 	ldw	r2,-4(fp)
 5095844:	10bffe84 	addi	r2,r2,-6
 5095848:	10c00428 	cmpgeui	r3,r2,16
 509584c:	18001a1e 	bne	r3,zero,50958b8 <alt_exception_cause_generated_bad_addr+0x88>
 5095850:	100690ba 	slli	r3,r2,2
 5095854:	00814274 	movhi	r2,1289
 5095858:	10961a04 	addi	r2,r2,22632
 509585c:	1885883a 	add	r2,r3,r2
 5095860:	10800017 	ldw	r2,0(r2)
 5095864:	1000683a 	jmp	r2
 5095868:	050958a8 	cmpgeui	r20,zero,9570
 509586c:	050958a8 	cmpgeui	r20,zero,9570
 5095870:	050958b8 	rdprs	r20,zero,9570
 5095874:	050958b8 	rdprs	r20,zero,9570
 5095878:	050958b8 	rdprs	r20,zero,9570
 509587c:	050958a8 	cmpgeui	r20,zero,9570
 5095880:	050958b0 	cmpltui	r20,zero,9570
 5095884:	050958b8 	rdprs	r20,zero,9570
 5095888:	050958a8 	cmpgeui	r20,zero,9570
 509588c:	050958a8 	cmpgeui	r20,zero,9570
 5095890:	050958b8 	rdprs	r20,zero,9570
 5095894:	050958a8 	cmpgeui	r20,zero,9570
 5095898:	050958b0 	cmpltui	r20,zero,9570
 509589c:	050958b8 	rdprs	r20,zero,9570
 50958a0:	050958b8 	rdprs	r20,zero,9570
 50958a4:	050958a8 	cmpgeui	r20,zero,9570
 50958a8:	00800044 	movi	r2,1
 50958ac:	00000306 	br	50958bc <alt_exception_cause_generated_bad_addr+0x8c>
 50958b0:	0005883a 	mov	r2,zero
 50958b4:	00000106 	br	50958bc <alt_exception_cause_generated_bad_addr+0x8c>
 50958b8:	0005883a 	mov	r2,zero
 50958bc:	e037883a 	mov	sp,fp
 50958c0:	df000017 	ldw	fp,0(sp)
 50958c4:	dec00104 	addi	sp,sp,4
 50958c8:	f800283a 	ret

050958cc <atexit>:
 50958cc:	200b883a 	mov	r5,r4
 50958d0:	000f883a 	mov	r7,zero
 50958d4:	000d883a 	mov	r6,zero
 50958d8:	0009883a 	mov	r4,zero
 50958dc:	50959941 	jmpi	5095994 <__register_exitproc>

050958e0 <exit>:
 50958e0:	defffe04 	addi	sp,sp,-8
 50958e4:	000b883a 	mov	r5,zero
 50958e8:	dc000015 	stw	r16,0(sp)
 50958ec:	dfc00115 	stw	ra,4(sp)
 50958f0:	2021883a 	mov	r16,r4
 50958f4:	5095aac0 	call	5095aac <__call_exitprocs>
 50958f8:	008142b4 	movhi	r2,1290
 50958fc:	10a17304 	addi	r2,r2,-31284
 5095900:	11000017 	ldw	r4,0(r2)
 5095904:	20800f17 	ldw	r2,60(r4)
 5095908:	10000126 	beq	r2,zero,5095910 <exit+0x30>
 509590c:	103ee83a 	callr	r2
 5095910:	8009883a 	mov	r4,r16
 5095914:	5095c2c0 	call	5095c2c <_exit>

05095918 <memcmp>:
 5095918:	01c000c4 	movi	r7,3
 509591c:	3980192e 	bgeu	r7,r6,5095984 <memcmp+0x6c>
 5095920:	2144b03a 	or	r2,r4,r5
 5095924:	11c4703a 	and	r2,r2,r7
 5095928:	10000f26 	beq	r2,zero,5095968 <memcmp+0x50>
 509592c:	20800003 	ldbu	r2,0(r4)
 5095930:	28c00003 	ldbu	r3,0(r5)
 5095934:	10c0151e 	bne	r2,r3,509598c <memcmp+0x74>
 5095938:	31bfff84 	addi	r6,r6,-2
 509593c:	01ffffc4 	movi	r7,-1
 5095940:	00000406 	br	5095954 <memcmp+0x3c>
 5095944:	20800003 	ldbu	r2,0(r4)
 5095948:	28c00003 	ldbu	r3,0(r5)
 509594c:	31bfffc4 	addi	r6,r6,-1
 5095950:	10c00e1e 	bne	r2,r3,509598c <memcmp+0x74>
 5095954:	21000044 	addi	r4,r4,1
 5095958:	29400044 	addi	r5,r5,1
 509595c:	31fff91e 	bne	r6,r7,5095944 <memcmp+0x2c>
 5095960:	0005883a 	mov	r2,zero
 5095964:	f800283a 	ret
 5095968:	20c00017 	ldw	r3,0(r4)
 509596c:	28800017 	ldw	r2,0(r5)
 5095970:	18bfee1e 	bne	r3,r2,509592c <memcmp+0x14>
 5095974:	31bfff04 	addi	r6,r6,-4
 5095978:	21000104 	addi	r4,r4,4
 509597c:	29400104 	addi	r5,r5,4
 5095980:	39bff936 	bltu	r7,r6,5095968 <memcmp+0x50>
 5095984:	303fe91e 	bne	r6,zero,509592c <memcmp+0x14>
 5095988:	003ff506 	br	5095960 <memcmp+0x48>
 509598c:	10c5c83a 	sub	r2,r2,r3
 5095990:	f800283a 	ret

05095994 <__register_exitproc>:
 5095994:	defffa04 	addi	sp,sp,-24
 5095998:	dc000315 	stw	r16,12(sp)
 509599c:	040142b4 	movhi	r16,1290
 50959a0:	84217304 	addi	r16,r16,-31284
 50959a4:	80c00017 	ldw	r3,0(r16)
 50959a8:	dc400415 	stw	r17,16(sp)
 50959ac:	dfc00515 	stw	ra,20(sp)
 50959b0:	18805217 	ldw	r2,328(r3)
 50959b4:	2023883a 	mov	r17,r4
 50959b8:	10003726 	beq	r2,zero,5095a98 <__register_exitproc+0x104>
 50959bc:	10c00117 	ldw	r3,4(r2)
 50959c0:	010007c4 	movi	r4,31
 50959c4:	20c00e16 	blt	r4,r3,5095a00 <__register_exitproc+0x6c>
 50959c8:	1a000044 	addi	r8,r3,1
 50959cc:	8800221e 	bne	r17,zero,5095a58 <__register_exitproc+0xc4>
 50959d0:	18c00084 	addi	r3,r3,2
 50959d4:	18c7883a 	add	r3,r3,r3
 50959d8:	18c7883a 	add	r3,r3,r3
 50959dc:	12000115 	stw	r8,4(r2)
 50959e0:	10c7883a 	add	r3,r2,r3
 50959e4:	19400015 	stw	r5,0(r3)
 50959e8:	0005883a 	mov	r2,zero
 50959ec:	dfc00517 	ldw	ra,20(sp)
 50959f0:	dc400417 	ldw	r17,16(sp)
 50959f4:	dc000317 	ldw	r16,12(sp)
 50959f8:	dec00604 	addi	sp,sp,24
 50959fc:	f800283a 	ret
 5095a00:	00800034 	movhi	r2,0
 5095a04:	10800004 	addi	r2,r2,0
 5095a08:	10002626 	beq	r2,zero,5095aa4 <__register_exitproc+0x110>
 5095a0c:	01006404 	movi	r4,400
 5095a10:	d9400015 	stw	r5,0(sp)
 5095a14:	d9800115 	stw	r6,4(sp)
 5095a18:	d9c00215 	stw	r7,8(sp)
 5095a1c:	00000000 	call	0 <__alt_mem_sdram>
 5095a20:	d9400017 	ldw	r5,0(sp)
 5095a24:	d9800117 	ldw	r6,4(sp)
 5095a28:	d9c00217 	ldw	r7,8(sp)
 5095a2c:	10001d26 	beq	r2,zero,5095aa4 <__register_exitproc+0x110>
 5095a30:	81000017 	ldw	r4,0(r16)
 5095a34:	10000115 	stw	zero,4(r2)
 5095a38:	02000044 	movi	r8,1
 5095a3c:	22405217 	ldw	r9,328(r4)
 5095a40:	0007883a 	mov	r3,zero
 5095a44:	12400015 	stw	r9,0(r2)
 5095a48:	20805215 	stw	r2,328(r4)
 5095a4c:	10006215 	stw	zero,392(r2)
 5095a50:	10006315 	stw	zero,396(r2)
 5095a54:	883fde26 	beq	r17,zero,50959d0 <__register_exitproc+0x3c>
 5095a58:	18c9883a 	add	r4,r3,r3
 5095a5c:	2109883a 	add	r4,r4,r4
 5095a60:	1109883a 	add	r4,r2,r4
 5095a64:	21802215 	stw	r6,136(r4)
 5095a68:	01800044 	movi	r6,1
 5095a6c:	12406217 	ldw	r9,392(r2)
 5095a70:	30cc983a 	sll	r6,r6,r3
 5095a74:	4992b03a 	or	r9,r9,r6
 5095a78:	12406215 	stw	r9,392(r2)
 5095a7c:	21c04215 	stw	r7,264(r4)
 5095a80:	01000084 	movi	r4,2
 5095a84:	893fd21e 	bne	r17,r4,50959d0 <__register_exitproc+0x3c>
 5095a88:	11006317 	ldw	r4,396(r2)
 5095a8c:	218cb03a 	or	r6,r4,r6
 5095a90:	11806315 	stw	r6,396(r2)
 5095a94:	003fce06 	br	50959d0 <__register_exitproc+0x3c>
 5095a98:	18805304 	addi	r2,r3,332
 5095a9c:	18805215 	stw	r2,328(r3)
 5095aa0:	003fc606 	br	50959bc <__register_exitproc+0x28>
 5095aa4:	00bfffc4 	movi	r2,-1
 5095aa8:	003fd006 	br	50959ec <__register_exitproc+0x58>

05095aac <__call_exitprocs>:
 5095aac:	defff504 	addi	sp,sp,-44
 5095ab0:	df000915 	stw	fp,36(sp)
 5095ab4:	dd400615 	stw	r21,24(sp)
 5095ab8:	dc800315 	stw	r18,12(sp)
 5095abc:	dfc00a15 	stw	ra,40(sp)
 5095ac0:	ddc00815 	stw	r23,32(sp)
 5095ac4:	dd800715 	stw	r22,28(sp)
 5095ac8:	dd000515 	stw	r20,20(sp)
 5095acc:	dcc00415 	stw	r19,16(sp)
 5095ad0:	dc400215 	stw	r17,8(sp)
 5095ad4:	dc000115 	stw	r16,4(sp)
 5095ad8:	d9000015 	stw	r4,0(sp)
 5095adc:	2839883a 	mov	fp,r5
 5095ae0:	04800044 	movi	r18,1
 5095ae4:	057fffc4 	movi	r21,-1
 5095ae8:	008142b4 	movhi	r2,1290
 5095aec:	10a17304 	addi	r2,r2,-31284
 5095af0:	12000017 	ldw	r8,0(r2)
 5095af4:	45005217 	ldw	r20,328(r8)
 5095af8:	44c05204 	addi	r19,r8,328
 5095afc:	a0001c26 	beq	r20,zero,5095b70 <__call_exitprocs+0xc4>
 5095b00:	a0800117 	ldw	r2,4(r20)
 5095b04:	15ffffc4 	addi	r23,r2,-1
 5095b08:	b8000d16 	blt	r23,zero,5095b40 <__call_exitprocs+0x94>
 5095b0c:	14000044 	addi	r16,r2,1
 5095b10:	8421883a 	add	r16,r16,r16
 5095b14:	8421883a 	add	r16,r16,r16
 5095b18:	84402004 	addi	r17,r16,128
 5095b1c:	a463883a 	add	r17,r20,r17
 5095b20:	a421883a 	add	r16,r20,r16
 5095b24:	e0001e26 	beq	fp,zero,5095ba0 <__call_exitprocs+0xf4>
 5095b28:	80804017 	ldw	r2,256(r16)
 5095b2c:	e0801c26 	beq	fp,r2,5095ba0 <__call_exitprocs+0xf4>
 5095b30:	bdffffc4 	addi	r23,r23,-1
 5095b34:	843fff04 	addi	r16,r16,-4
 5095b38:	8c7fff04 	addi	r17,r17,-4
 5095b3c:	bd7ff91e 	bne	r23,r21,5095b24 <__call_exitprocs+0x78>
 5095b40:	00800034 	movhi	r2,0
 5095b44:	10800004 	addi	r2,r2,0
 5095b48:	10000926 	beq	r2,zero,5095b70 <__call_exitprocs+0xc4>
 5095b4c:	a0800117 	ldw	r2,4(r20)
 5095b50:	1000301e 	bne	r2,zero,5095c14 <__call_exitprocs+0x168>
 5095b54:	a0800017 	ldw	r2,0(r20)
 5095b58:	10003226 	beq	r2,zero,5095c24 <__call_exitprocs+0x178>
 5095b5c:	a009883a 	mov	r4,r20
 5095b60:	98800015 	stw	r2,0(r19)
 5095b64:	00000000 	call	0 <__alt_mem_sdram>
 5095b68:	9d000017 	ldw	r20,0(r19)
 5095b6c:	a03fe41e 	bne	r20,zero,5095b00 <__call_exitprocs+0x54>
 5095b70:	dfc00a17 	ldw	ra,40(sp)
 5095b74:	df000917 	ldw	fp,36(sp)
 5095b78:	ddc00817 	ldw	r23,32(sp)
 5095b7c:	dd800717 	ldw	r22,28(sp)
 5095b80:	dd400617 	ldw	r21,24(sp)
 5095b84:	dd000517 	ldw	r20,20(sp)
 5095b88:	dcc00417 	ldw	r19,16(sp)
 5095b8c:	dc800317 	ldw	r18,12(sp)
 5095b90:	dc400217 	ldw	r17,8(sp)
 5095b94:	dc000117 	ldw	r16,4(sp)
 5095b98:	dec00b04 	addi	sp,sp,44
 5095b9c:	f800283a 	ret
 5095ba0:	a0800117 	ldw	r2,4(r20)
 5095ba4:	80c00017 	ldw	r3,0(r16)
 5095ba8:	10bfffc4 	addi	r2,r2,-1
 5095bac:	15c01426 	beq	r2,r23,5095c00 <__call_exitprocs+0x154>
 5095bb0:	80000015 	stw	zero,0(r16)
 5095bb4:	183fde26 	beq	r3,zero,5095b30 <__call_exitprocs+0x84>
 5095bb8:	95c8983a 	sll	r4,r18,r23
 5095bbc:	a0806217 	ldw	r2,392(r20)
 5095bc0:	a5800117 	ldw	r22,4(r20)
 5095bc4:	2084703a 	and	r2,r4,r2
 5095bc8:	10000b26 	beq	r2,zero,5095bf8 <__call_exitprocs+0x14c>
 5095bcc:	a0806317 	ldw	r2,396(r20)
 5095bd0:	2088703a 	and	r4,r4,r2
 5095bd4:	20000c1e 	bne	r4,zero,5095c08 <__call_exitprocs+0x15c>
 5095bd8:	89400017 	ldw	r5,0(r17)
 5095bdc:	d9000017 	ldw	r4,0(sp)
 5095be0:	183ee83a 	callr	r3
 5095be4:	a0800117 	ldw	r2,4(r20)
 5095be8:	15bfbf1e 	bne	r2,r22,5095ae8 <__call_exitprocs+0x3c>
 5095bec:	98800017 	ldw	r2,0(r19)
 5095bf0:	153fcf26 	beq	r2,r20,5095b30 <__call_exitprocs+0x84>
 5095bf4:	003fbc06 	br	5095ae8 <__call_exitprocs+0x3c>
 5095bf8:	183ee83a 	callr	r3
 5095bfc:	003ff906 	br	5095be4 <__call_exitprocs+0x138>
 5095c00:	a5c00115 	stw	r23,4(r20)
 5095c04:	003feb06 	br	5095bb4 <__call_exitprocs+0x108>
 5095c08:	89000017 	ldw	r4,0(r17)
 5095c0c:	183ee83a 	callr	r3
 5095c10:	003ff406 	br	5095be4 <__call_exitprocs+0x138>
 5095c14:	a0800017 	ldw	r2,0(r20)
 5095c18:	a027883a 	mov	r19,r20
 5095c1c:	1029883a 	mov	r20,r2
 5095c20:	003fb606 	br	5095afc <__call_exitprocs+0x50>
 5095c24:	0005883a 	mov	r2,zero
 5095c28:	003ffb06 	br	5095c18 <__call_exitprocs+0x16c>

05095c2c <_exit>:
 5095c2c:	defffd04 	addi	sp,sp,-12
 5095c30:	df000215 	stw	fp,8(sp)
 5095c34:	df000204 	addi	fp,sp,8
 5095c38:	e13fff15 	stw	r4,-4(fp)
 5095c3c:	0001883a 	nop
 5095c40:	e0bfff17 	ldw	r2,-4(fp)
 5095c44:	e0bffe15 	stw	r2,-8(fp)
 5095c48:	e0bffe17 	ldw	r2,-8(fp)
 5095c4c:	10000226 	beq	r2,zero,5095c58 <_exit+0x2c>
 5095c50:	002af070 	cmpltui	zero,zero,43969
 5095c54:	00000106 	br	5095c5c <_exit+0x30>
 5095c58:	002af0b0 	cmpltui	zero,zero,43970
 5095c5c:	003fff06 	br	5095c5c <_exit+0x30>
